ARM GAS  C:\Temp\cc9KZMEf.s 			page 1


   1              		.cpu cortex-m4
   2              		.eabi_attribute 27, 1
   3              		.eabi_attribute 28, 1
   4              		.eabi_attribute 20, 1
   5              		.eabi_attribute 21, 1
   6              		.eabi_attribute 23, 3
   7              		.eabi_attribute 24, 1
   8              		.eabi_attribute 25, 1
   9              		.eabi_attribute 26, 1
  10              		.eabi_attribute 30, 1
  11              		.eabi_attribute 34, 1
  12              		.eabi_attribute 18, 4
  13              		.file	"adjust.c"
  14              		.text
  15              	.Ltext0:
  16              		.cfi_sections	.debug_frame
  17              		.section	.text.set_target_side_sensor,"ax",%progbits
  18              		.align	1
  19              		.global	set_target_side_sensor
  20              		.arch armv7e-m
  21              		.syntax unified
  22              		.thumb
  23              		.thumb_func
  24              		.fpu fpv4-sp-d16
  26              	set_target_side_sensor:
  27              	.LFB4:
  28              		.file 1 "Src/adjust.c"
   1:Src/adjust.c  **** 
   2:Src/adjust.c  **** 
   3:Src/adjust.c  **** #include <stdio.h>
   4:Src/adjust.c  **** #include <math.h>
   5:Src/adjust.c  **** #include "adjust.h"
   6:Src/adjust.c  **** #include "param.h"
   7:Src/adjust.c  **** #include "exvol.h"
   8:Src/adjust.c  **** #include "mouse_state.h"
   9:Src/adjust.c  **** #include "target.h"
  10:Src/adjust.c  **** #include "ir_sensor.h"
  11:Src/adjust.c  **** 
  12:Src/adjust.c  **** 
  13:Src/adjust.c  **** static double front_sensor_move_err_I = 0;   	//åå·®å’Œã®Ié …
  14:Src/adjust.c  **** static double front_sensor_rotate_err_I = 0;   	//åå·®å·®ã®Ié …
  15:Src/adjust.c  **** static double front_sensor_move_err_prev = 0;   //å‰å›åå·®å’Œ
  16:Src/adjust.c  **** static double front_sensor_rotate_err_prev = 0; //å‰å›åå·®å·®
  17:Src/adjust.c  **** static double front_sensor_move_D_prev = 0; 	//å‰å›åå·®å’Œå¾®åˆ†
  18:Src/adjust.c  **** static double front_sensor_rotate_D_prev = 0;   //å‰å›åå·®å·®å¾®åˆ†
  19:Src/adjust.c  **** 
  20:Src/adjust.c  **** static float target_vol_sum_frontwall = 0;		//å‰å£åˆ¶å¾¡ã«ã‚ˆã‚‹ãƒ¢ãƒ¼ã‚¿å°åŠ é›»åœ§ã®å’Œ[V]
  21:Src/adjust.c  **** static float target_vol_diff_frontwall = 0;		//å‰å£åˆ¶å¾¡ã«ã‚ˆã‚‹ãƒ¢ãƒ¼ã‚¿å°åŠ é›»åœ§ã®å·®[V]
  22:Src/adjust.c  **** 
  23:Src/adjust.c  **** static uint16_t fornt_wall_calibrate_tim = 0;  	//å‰å£è£œæ­£ç”¨ã‚«ã‚¦ãƒ³ã‚¿
  24:Src/adjust.c  **** 
  25:Src/adjust.c  **** static double target_sensor_sl = 0;				//å·¦å£è·é›¢ç›®æ¨™å€¤[m]
  26:Src/adjust.c  **** static double target_sensor_sr = 0;				//å³å£è·é›¢ç›®æ¨™å€¤[m]
  27:Src/adjust.c  **** 
  28:Src/adjust.c  **** static float target_vol_diff_sidewall = 0;			//æ¨ªå£åˆ¶å¾¡ã«ãŠã‘ã‚‹ãƒ¢ãƒ¼ã‚¿å°åŠ é›»åœ§ã®å·®[
  29:Src/adjust.c  **** 
  30:Src/adjust.c  **** static side_wall_ctrl side_wall_ctrl_mode = none;	//æ¨ªå£è£œæ­£ãƒ¢ãƒ¼ãƒ‰ï¼ˆå·¦ã€å³ã€ä¸¡æ–¹ã€ã
ARM GAS  C:\Temp\cc9KZMEf.s 			page 2


  31:Src/adjust.c  **** static double side_sensor_l_th = 0;				//å·¦å£åˆ¶å¾¡ã®é–¾å€¤
  32:Src/adjust.c  **** static double side_sensor_r_th = 0;				//å³å£åˆ¶å¾¡ã®é–¾å€¤
  33:Src/adjust.c  **** 
  34:Src/adjust.c  **** //æ©Ÿèƒ½	: adjust.cã®1msã‚¿ã‚¹ã‚¯ã¾ã¨ã‚
  35:Src/adjust.c  **** //å¼•æ•°	: ãªã—
  36:Src/adjust.c  **** //è¿”ã‚Šå€¤	: ãªã—
  37:Src/adjust.c  **** void adjust_1ms (void)
  38:Src/adjust.c  **** {
  39:Src/adjust.c  **** 	set_target_side_sensor();		//åˆæœŸä½ç½®ã®ã‚»ãƒ³ã‚µå€¤ã‚’æ¨ªå£åˆ¶å¾¡ç›®æ¨™å€¤ã«ã‚»ãƒƒãƒˆ
  40:Src/adjust.c  **** 	calc_side_wall_ctrl_mode();		//æ¨ªå£è£œæ­£ã®ãƒ¢ãƒ¼ãƒ‰ã‚’æ±ºå®š
  41:Src/adjust.c  **** 	adjust_theta_side_wall();		//æ¨ªå£è£œæ­£ã®ãƒ¢ãƒ¼ãƒ‰ã«å¿œã˜ã€è»Œè·¡åˆ¶å¾¡ã«ãŠã‘ã‚‹è§’åº¦ã‚’
  42:Src/adjust.c  **** 	calc_motor_vol_side_wall();		//æ¨ªå£è£œæ­£ã«ãŠã‘ã‚‹å°åŠ é›»åœ§è¨ˆç®—
  43:Src/adjust.c  **** 	calc_motor_vol_front_wall();	//å‰å£åˆ¶å¾¡ã«ãŠã‘ã‚‹å°åŠ é›»åœ§è¨ˆç®—
  44:Src/adjust.c  **** 	calibrate_tim();				//å‰å£åˆ¶å¾¡ç”¨ã‚¿ã‚¤ãƒ
  45:Src/adjust.c  **** }
  46:Src/adjust.c  **** 
  47:Src/adjust.c  **** //æ©Ÿèƒ½	: å£ãƒˆãƒ¬ãƒ¼ã‚¹ã®ç›®æ¨™è·é›¢ã‚’ã‚»ãƒƒãƒˆã™ã‚‹
  48:Src/adjust.c  **** //å¼•æ•°	: ãªã— 
  49:Src/adjust.c  **** //è¿”ã‚Šå€¤	: ãªã—
  50:Src/adjust.c  **** //å‚™è€ƒ	:åˆæœŸä½ç½®ã®å£è·é›¢ã‚’ç›®æ¨™ä½ç½®ã¨ã™ã‚‹ã€‚
  51:Src/adjust.c  **** void set_target_side_sensor(void)
  52:Src/adjust.c  **** {
  29              		.loc 1 52 1 view -0
  30              		.cfi_startproc
  31              		@ args = 0, pretend = 0, frame = 0
  32              		@ frame_needed = 0, uses_anonymous_args = 0
  33              		@ link register save eliminated.
  53:Src/adjust.c  **** 	static uint8_t target_set_flg = 0;
  34              		.loc 1 53 2 view .LVU1
  54:Src/adjust.c  **** 	if(target_set_flg == 0) 
  35              		.loc 1 54 2 view .LVU2
  36              		.loc 1 54 20 is_stmt 0 view .LVU3
  37 0000 0D4B     		ldr	r3, .L3+16
  38 0002 1B78     		ldrb	r3, [r3]	@ zero_extendqisi2
  39              		.loc 1 54 4 view .LVU4
  40 0004 73B9     		cbnz	r3, .L1
  55:Src/adjust.c  **** 	{
  56:Src/adjust.c  **** 		//target_sensor_sl = SensorValue2length(1);
  57:Src/adjust.c  **** 		//target_sensor_sr = SensorValue2length(2);
  58:Src/adjust.c  **** 		//ãƒ‡ãƒãƒƒã‚°ä¸­	
  59:Src/adjust.c  **** 		target_sensor_sl = 0.024331;
  41              		.loc 1 59 3 is_stmt 1 view .LVU5
  42              		.loc 1 59 20 is_stmt 0 view .LVU6
  43 0006 0D4B     		ldr	r3, .L3+20
  44 0008 07A1     		adr	r1, .L3
  45 000a D1E90001 		ldrd	r0, [r1]
  46 000e C3E90001 		strd	r0, [r3]
  60:Src/adjust.c  **** 		target_sensor_sr = 0.023078;	
  47              		.loc 1 60 3 is_stmt 1 view .LVU7
  48              		.loc 1 60 20 is_stmt 0 view .LVU8
  49 0012 0B4B     		ldr	r3, .L3+24
  50 0014 06A1     		adr	r1, .L3+8
  51 0016 D1E90001 		ldrd	r0, [r1]
  52 001a C3E90001 		strd	r0, [r3]
  61:Src/adjust.c  **** 
  62:Src/adjust.c  **** 		target_set_flg = 1;
  53              		.loc 1 62 3 is_stmt 1 view .LVU9
ARM GAS  C:\Temp\cc9KZMEf.s 			page 3


  54              		.loc 1 62 18 is_stmt 0 view .LVU10
  55 001e 064B     		ldr	r3, .L3+16
  56 0020 0122     		movs	r2, #1
  57 0022 1A70     		strb	r2, [r3]
  58              	.L1:
  63:Src/adjust.c  **** 	}
  64:Src/adjust.c  **** }
  59              		.loc 1 64 1 view .LVU11
  60 0024 7047     		bx	lr
  61              	.L4:
  62 0026 00BF     		.align	3
  63              	.L3:
  64 0028 E2AB1DC5 		.word	-987911198
  65 002c 39EA983F 		.word	1066986041
  66 0030 1442075D 		.word	1560756756
  67 0034 C2A1973F 		.word	1066901954
  68 0038 00000000 		.word	.LANCHOR0
  69 003c 00000000 		.word	.LANCHOR1
  70 0040 00000000 		.word	.LANCHOR2
  71              		.cfi_endproc
  72              	.LFE4:
  74              		.global	__aeabi_d2f
  75              		.section	.text.get_target_sensor_sr,"ax",%progbits
  76              		.align	1
  77              		.global	get_target_sensor_sr
  78              		.syntax unified
  79              		.thumb
  80              		.thumb_func
  81              		.fpu fpv4-sp-d16
  83              	get_target_sensor_sr:
  84              	.LFB5:
  65:Src/adjust.c  **** 
  66:Src/adjust.c  **** //æ©Ÿèƒ½	: å£ãƒˆãƒ¬ãƒ¼ã‚¹ã®å³å£ç›®æ¨™è·é›¢ã‚’å–å¾—ã™ã‚‹
  67:Src/adjust.c  **** //å¼•æ•°	: ãªã—
  68:Src/adjust.c  **** //è¿”ã‚Šå€¤	: å³å£è·é›¢ç›®æ¨™å€¤
  69:Src/adjust.c  **** float get_target_sensor_sr ( void )
  70:Src/adjust.c  **** {
  85              		.loc 1 70 1 is_stmt 1 view -0
  86              		.cfi_startproc
  87              		@ args = 0, pretend = 0, frame = 0
  88              		@ frame_needed = 0, uses_anonymous_args = 0
  89 0000 08B5     		push	{r3, lr}
  90              	.LCFI0:
  91              		.cfi_def_cfa_offset 8
  92              		.cfi_offset 3, -8
  93              		.cfi_offset 14, -4
  71:Src/adjust.c  **** 	return (float)target_sensor_sr;
  94              		.loc 1 71 2 view .LVU13
  95              		.loc 1 71 9 is_stmt 0 view .LVU14
  96 0002 044B     		ldr	r3, .L7
  97 0004 D3E90001 		ldrd	r0, [r3]
  98 0008 FFF7FEFF 		bl	__aeabi_d2f
  99              	.LVL0:
  72:Src/adjust.c  **** }
 100              		.loc 1 72 1 view .LVU15
 101 000c 00EE100A 		vmov	s0, r0
 102 0010 08BD     		pop	{r3, pc}
ARM GAS  C:\Temp\cc9KZMEf.s 			page 4


 103              	.L8:
 104 0012 00BF     		.align	2
 105              	.L7:
 106 0014 00000000 		.word	.LANCHOR2
 107              		.cfi_endproc
 108              	.LFE5:
 110              		.section	.text.get_target_sensor_sl,"ax",%progbits
 111              		.align	1
 112              		.global	get_target_sensor_sl
 113              		.syntax unified
 114              		.thumb
 115              		.thumb_func
 116              		.fpu fpv4-sp-d16
 118              	get_target_sensor_sl:
 119              	.LFB6:
  73:Src/adjust.c  **** 
  74:Src/adjust.c  **** //æ©Ÿèƒ½	: å£ãƒˆãƒ¬ãƒ¼ã‚¹ã®å·¦å£ç›®æ¨™è·é›¢ã‚’å–å¾—ã™ã‚‹
  75:Src/adjust.c  **** //å¼•æ•°	: ãªã—
  76:Src/adjust.c  **** //è¿”ã‚Šå€¤	: å·¦å£è·é›¢ç›®æ¨™å€¤
  77:Src/adjust.c  **** float get_target_sensor_sl ( void )
  78:Src/adjust.c  **** {
 120              		.loc 1 78 1 is_stmt 1 view -0
 121              		.cfi_startproc
 122              		@ args = 0, pretend = 0, frame = 0
 123              		@ frame_needed = 0, uses_anonymous_args = 0
 124 0000 08B5     		push	{r3, lr}
 125              	.LCFI1:
 126              		.cfi_def_cfa_offset 8
 127              		.cfi_offset 3, -8
 128              		.cfi_offset 14, -4
  79:Src/adjust.c  **** 	return (float)target_sensor_sl;
 129              		.loc 1 79 2 view .LVU17
 130              		.loc 1 79 9 is_stmt 0 view .LVU18
 131 0002 044B     		ldr	r3, .L11
 132 0004 D3E90001 		ldrd	r0, [r3]
 133 0008 FFF7FEFF 		bl	__aeabi_d2f
 134              	.LVL1:
  80:Src/adjust.c  **** }
 135              		.loc 1 80 1 view .LVU19
 136 000c 00EE100A 		vmov	s0, r0
 137 0010 08BD     		pop	{r3, pc}
 138              	.L12:
 139 0012 00BF     		.align	2
 140              	.L11:
 141 0014 00000000 		.word	.LANCHOR1
 142              		.cfi_endproc
 143              	.LFE6:
 145              		.section	.text.get_side_sensor_l_th,"ax",%progbits
 146              		.align	1
 147              		.global	get_side_sensor_l_th
 148              		.syntax unified
 149              		.thumb
 150              		.thumb_func
 151              		.fpu fpv4-sp-d16
 153              	get_side_sensor_l_th:
 154              	.LFB7:
  81:Src/adjust.c  **** 
ARM GAS  C:\Temp\cc9KZMEf.s 			page 5


  82:Src/adjust.c  **** //æ©Ÿèƒ½	: å£ãƒˆãƒ¬ãƒ¼ã‚¹ã®å·¦å£ãƒ¢ãƒ¼ãƒ‰é–¾å€¤ã‚’å–å¾—ã™ã‚‹
  83:Src/adjust.c  **** //å¼•æ•°	: ãªã—
  84:Src/adjust.c  **** //è¿”ã‚Šå€¤	: å·¦å£ãƒ¢ãƒ¼ãƒ‰é–¾å€¤
  85:Src/adjust.c  **** double get_side_sensor_l_th ( void )
  86:Src/adjust.c  **** {
 155              		.loc 1 86 1 is_stmt 1 view -0
 156              		.cfi_startproc
 157              		@ args = 0, pretend = 0, frame = 0
 158              		@ frame_needed = 0, uses_anonymous_args = 0
 159              		@ link register save eliminated.
  87:Src/adjust.c  **** 	return side_sensor_l_th;
 160              		.loc 1 87 2 view .LVU21
  88:Src/adjust.c  **** }
 161              		.loc 1 88 1 is_stmt 0 view .LVU22
 162 0000 014B     		ldr	r3, .L14
 163 0002 93ED000B 		vldr.64	d0, [r3]
 164 0006 7047     		bx	lr
 165              	.L15:
 166              		.align	2
 167              	.L14:
 168 0008 00000000 		.word	.LANCHOR3
 169              		.cfi_endproc
 170              	.LFE7:
 172              		.section	.text.get_side_sensor_r_th,"ax",%progbits
 173              		.align	1
 174              		.global	get_side_sensor_r_th
 175              		.syntax unified
 176              		.thumb
 177              		.thumb_func
 178              		.fpu fpv4-sp-d16
 180              	get_side_sensor_r_th:
 181              	.LFB8:
  89:Src/adjust.c  **** 
  90:Src/adjust.c  **** 
  91:Src/adjust.c  **** //æ©Ÿèƒ½	: å£ãƒˆãƒ¬ãƒ¼ã‚¹ã®å³å£ãƒ¢ãƒ¼ãƒ‰é–¾å€¤ã‚’å–å¾—ã™ã‚‹
  92:Src/adjust.c  **** //å¼•æ•°	: ãªã—
  93:Src/adjust.c  **** //è¿”ã‚Šå€¤	: å³å£ãƒ¢ãƒ¼ãƒ‰é–¾å€¤
  94:Src/adjust.c  **** double get_side_sensor_r_th ( void )
  95:Src/adjust.c  **** {
 182              		.loc 1 95 1 is_stmt 1 view -0
 183              		.cfi_startproc
 184              		@ args = 0, pretend = 0, frame = 0
 185              		@ frame_needed = 0, uses_anonymous_args = 0
 186              		@ link register save eliminated.
  96:Src/adjust.c  **** 	return side_sensor_r_th;
 187              		.loc 1 96 2 view .LVU24
  97:Src/adjust.c  **** }
 188              		.loc 1 97 1 is_stmt 0 view .LVU25
 189 0000 014B     		ldr	r3, .L17
 190 0002 93ED000B 		vldr.64	d0, [r3]
 191 0006 7047     		bx	lr
 192              	.L18:
 193              		.align	2
 194              	.L17:
 195 0008 00000000 		.word	.LANCHOR4
 196              		.cfi_endproc
 197              	.LFE8:
ARM GAS  C:\Temp\cc9KZMEf.s 			page 6


 199              		.section	.text.get_side_wall_ctrl_mode,"ax",%progbits
 200              		.align	1
 201              		.global	get_side_wall_ctrl_mode
 202              		.syntax unified
 203              		.thumb
 204              		.thumb_func
 205              		.fpu fpv4-sp-d16
 207              	get_side_wall_ctrl_mode:
 208              	.LFB9:
  98:Src/adjust.c  **** 
  99:Src/adjust.c  **** //æ©Ÿèƒ½	: æ¨ªå£åˆ¶å¾¡ã«ãŠã‘ã‚‹ãƒ¢ãƒ¼ãƒ‰ã‚’å–å¾—ã™ã‚‹
 100:Src/adjust.c  **** //å¼•æ•°	: ãªã—
 101:Src/adjust.c  **** //è¿”ã‚Šå€¤	: æ¨ªå£åˆ¶å¾¡ãƒ¢ãƒ¼ãƒ‰
 102:Src/adjust.c  **** uint8_t get_side_wall_ctrl_mode ( void )
 103:Src/adjust.c  **** {
 209              		.loc 1 103 1 is_stmt 1 view -0
 210              		.cfi_startproc
 211              		@ args = 0, pretend = 0, frame = 0
 212              		@ frame_needed = 0, uses_anonymous_args = 0
 213              		@ link register save eliminated.
 104:Src/adjust.c  **** 	return side_wall_ctrl_mode;
 214              		.loc 1 104 2 view .LVU27
 105:Src/adjust.c  **** }
 215              		.loc 1 105 1 is_stmt 0 view .LVU28
 216 0000 014B     		ldr	r3, .L20
 217 0002 1878     		ldrb	r0, [r3]	@ zero_extendqisi2
 218 0004 7047     		bx	lr
 219              	.L21:
 220 0006 00BF     		.align	2
 221              	.L20:
 222 0008 00000000 		.word	.LANCHOR5
 223              		.cfi_endproc
 224              	.LFE9:
 226              		.global	__aeabi_dsub
 227              		.global	__aeabi_dcmplt
 228              		.global	__aeabi_dadd
 229              		.global	__aeabi_ddiv
 230              		.global	__aeabi_dcmpgt
 231              		.section	.text.calc_side_wall_ctrl_mode,"ax",%progbits
 232              		.align	1
 233              		.global	calc_side_wall_ctrl_mode
 234              		.syntax unified
 235              		.thumb
 236              		.thumb_func
 237              		.fpu fpv4-sp-d16
 239              	calc_side_wall_ctrl_mode:
 240              	.LFB10:
 106:Src/adjust.c  **** 
 107:Src/adjust.c  **** //æ©Ÿèƒ½	: æ¨ªå£åˆ¶å¾¡ã«ãŠã‘ã‚‹ãƒ¢ãƒ¼ãƒ‰ã‚’æ±ºå®šã™ã‚‹ï¼ˆå³ã€å·¦ã€ä¸¡å£ã€ãªã—ï¼‰
 108:Src/adjust.c  **** //å¼•æ•°	: ãªã—
 109:Src/adjust.c  **** //è¿”ã‚Šå€¤	: ãªã—
 110:Src/adjust.c  **** //å‚™è€ƒ 	:1msã‚¿ã‚¹ã‚¯
 111:Src/adjust.c  **** void calc_side_wall_ctrl_mode ( void )
 112:Src/adjust.c  **** {
 241              		.loc 1 112 1 is_stmt 1 view -0
 242              		.cfi_startproc
 243              		@ args = 0, pretend = 0, frame = 8
ARM GAS  C:\Temp\cc9KZMEf.s 			page 7


 244              		@ frame_needed = 0, uses_anonymous_args = 0
 245 0000 2DE9F047 		push	{r4, r5, r6, r7, r8, r9, r10, lr}
 246              	.LCFI2:
 247              		.cfi_def_cfa_offset 32
 248              		.cfi_offset 4, -32
 249              		.cfi_offset 5, -28
 250              		.cfi_offset 6, -24
 251              		.cfi_offset 7, -20
 252              		.cfi_offset 8, -16
 253              		.cfi_offset 9, -12
 254              		.cfi_offset 10, -8
 255              		.cfi_offset 14, -4
 256 0004 2DED028B 		vpush.64	{d8}
 257              	.LCFI3:
 258              		.cfi_def_cfa_offset 40
 259              		.cfi_offset 80, -40
 260              		.cfi_offset 81, -36
 261 0008 82B0     		sub	sp, sp, #8
 262              	.LCFI4:
 263              		.cfi_def_cfa_offset 48
 113:Src/adjust.c  **** 	double side_sensor_r = 0; 				//å³å‰ã‚»ãƒ³ã‚µå€¤[m]
 264              		.loc 1 113 2 view .LVU30
 265              	.LVL2:
 114:Src/adjust.c  ****     double side_sensor_l = 0; 				//å·¦å‰ã‚»ãƒ³ã‚µå€¤[m]
 266              		.loc 1 114 5 view .LVU31
 115:Src/adjust.c  **** 	static double side_sensor_r_old = 0;	//å‰å›å³å‰ã‚»ãƒ³ã‚µå€¤[m]
 267              		.loc 1 115 2 view .LVU32
 116:Src/adjust.c  ****     static double side_sensor_l_old = 0; 	//å‰å›å·¦å‰ã‚»ãƒ³ã‚µå€¤[m]
 268              		.loc 1 116 5 view .LVU33
 117:Src/adjust.c  **** 	double side_sensor_r_diff = 0;			//å³å‰ã‚»ãƒ³ã‚µå€¤å¤‰åŒ–é‡
 269              		.loc 1 117 2 view .LVU34
 118:Src/adjust.c  ****     double side_sensor_l_diff = 0; 			//å·¦å‰ã‚»ãƒ³ã‚µå€¤å¤‰åŒ–é‡
 270              		.loc 1 118 5 view .LVU35
 119:Src/adjust.c  **** 	double side_sensor_r_diff_sum = 0;		//å³å‰ã‚»ãƒ³ã‚µå€¤å¤‰åŒ–é‡åˆè¨ˆ
 271              		.loc 1 119 2 view .LVU36
 120:Src/adjust.c  ****     double side_sensor_l_diff_sum = 0; 		//å·¦å‰ã‚»ãƒ³ã‚µå€¤å¤‰åŒ–é‡åˆè¨ˆ
 272              		.loc 1 120 5 view .LVU37
 121:Src/adjust.c  **** 	double side_sensor_r_diff_ave = 0;		//å³å‰ã‚»ãƒ³ã‚µå€¤å¹³å‡
 273              		.loc 1 121 2 view .LVU38
 122:Src/adjust.c  ****     double side_sensor_l_diff_ave = 0; 		//å·¦å‰ã‚»ãƒ³ã‚µå€¤å¹³å‡
 274              		.loc 1 122 5 view .LVU39
 123:Src/adjust.c  **** 
 124:Src/adjust.c  ****     typedef struct {
 275              		.loc 1 124 5 view .LVU40
 125:Src/adjust.c  **** 	double	right;			
 126:Src/adjust.c  **** 	double  left;			
 127:Src/adjust.c  ****     } ave_temp;
 128:Src/adjust.c  **** 
 129:Src/adjust.c  **** 	static ave_temp ave_store[ir_diff_ave_num];  // ãƒ‡ãƒ¼ã‚¿æ ¼ç´ç”¨ã®æ§‹é€ ä½“
 276              		.loc 1 129 2 view .LVU41
 130:Src/adjust.c  **** 	static uint16_t ave_counter = 0;
 277              		.loc 1 130 2 view .LVU42
 131:Src/adjust.c  **** 	uint16_t i = 0;
 278              		.loc 1 131 2 view .LVU43
 132:Src/adjust.c  **** 	uint16_t j = 0;
 279              		.loc 1 132 2 view .LVU44
 133:Src/adjust.c  **** 
ARM GAS  C:\Temp\cc9KZMEf.s 			page 8


 134:Src/adjust.c  **** 	//ã‚»ãƒ³ã‚µå€¤å–å¾—
 135:Src/adjust.c  **** 	side_sensor_l = SensorValue2length(1);
 280              		.loc 1 135 2 view .LVU45
 281              		.loc 1 135 18 is_stmt 0 view .LVU46
 282 000a 0120     		movs	r0, #1
 283 000c FFF7FEFF 		bl	SensorValue2length
 284              	.LVL3:
 285 0010 55EC104B 		vmov	r4, r5, d0
 286 0014 8DED000B 		vstr.64	d0, [sp]
 287              	.LVL4:
 136:Src/adjust.c  **** 	side_sensor_r = SensorValue2length(2);
 288              		.loc 1 136 2 is_stmt 1 view .LVU47
 289              		.loc 1 136 18 is_stmt 0 view .LVU48
 290 0018 0220     		movs	r0, #2
 291 001a FFF7FEFF 		bl	SensorValue2length
 292              	.LVL5:
 293 001e B0EE408A 		vmov.f32	s16, s0
 294 0022 F0EE608A 		vmov.f32	s17, s1
 295              	.LVL6:
 137:Src/adjust.c  **** 
 138:Src/adjust.c  **** 	//ã‚»ãƒ³ã‚µå¤‰åŒ–é‡å–å¾—
 139:Src/adjust.c  **** 	side_sensor_l_diff = ABS(side_sensor_l - side_sensor_l_old);
 296              		.loc 1 139 2 is_stmt 1 view .LVU49
 297              		.loc 1 139 23 is_stmt 0 view .LVU50
 298 0026 6E4B     		ldr	r3, .L59+24
 299 0028 D3E90023 		ldrd	r2, [r3]
 300 002c 2046     		mov	r0, r4
 301 002e 2946     		mov	r1, r5
 302 0030 FFF7FEFF 		bl	__aeabi_dsub
 303              	.LVL7:
 304              		.loc 1 139 23 view .LVU51
 305 0034 0446     		mov	r4, r0
 306              	.LVL8:
 307              		.loc 1 139 23 view .LVU52
 308 0036 0D46     		mov	r5, r1
 309 0038 0022     		movs	r2, #0
 310 003a 0023     		movs	r3, #0
 311 003c FFF7FEFF 		bl	__aeabi_dcmplt
 312              	.LVL9:
 313 0040 0028     		cmp	r0, #0
 314 0042 3ED1     		bne	.L56
 315              	.L23:
 316              	.LVL10:
 140:Src/adjust.c  **** 	side_sensor_r_diff = ABS(side_sensor_r - side_sensor_r_old);
 317              		.loc 1 140 2 is_stmt 1 discriminator 4 view .LVU53
 318              		.loc 1 140 23 is_stmt 0 discriminator 4 view .LVU54
 319 0044 674B     		ldr	r3, .L59+28
 320 0046 D3E90023 		ldrd	r2, [r3]
 321 004a 51EC180B 		vmov	r0, r1, d8
 322 004e FFF7FEFF 		bl	__aeabi_dsub
 323              	.LVL11:
 324 0052 0646     		mov	r6, r0
 325 0054 0F46     		mov	r7, r1
 326 0056 0022     		movs	r2, #0
 327 0058 0023     		movs	r3, #0
 328 005a FFF7FEFF 		bl	__aeabi_dcmplt
 329              	.LVL12:
ARM GAS  C:\Temp\cc9KZMEf.s 			page 9


 330 005e 0028     		cmp	r0, #0
 331 0060 33D1     		bne	.L57
 332              	.L25:
 333              	.LVL13:
 141:Src/adjust.c  **** 
 142:Src/adjust.c  **** 	i = ave_counter % ir_diff_ave_num;
 334              		.loc 1 142 2 is_stmt 1 discriminator 4 view .LVU55
 335              		.loc 1 142 4 is_stmt 0 discriminator 4 view .LVU56
 336 0062 614B     		ldr	r3, .L59+32
 337 0064 B3F800A0 		ldrh	r10, [r3]
 338 0068 604B     		ldr	r3, .L59+36
 339 006a A3FB0A23 		umull	r2, r3, r3, r10
 340 006e DB08     		lsrs	r3, r3, #3
 341 0070 03EB8303 		add	r3, r3, r3, lsl #2
 342 0074 AAEB4303 		sub	r3, r10, r3, lsl #1
 343 0078 9BB2     		uxth	r3, r3
 344              	.LVL14:
 143:Src/adjust.c  **** 	ave_store[i].right = side_sensor_r_diff;
 345              		.loc 1 143 2 is_stmt 1 discriminator 4 view .LVU57
 346              		.loc 1 143 21 is_stmt 0 discriminator 4 view .LVU58
 347 007a 5D4A     		ldr	r2, .L59+40
 348 007c 02EB0313 		add	r3, r2, r3, lsl #4
 349              	.LVL15:
 350              		.loc 1 143 21 discriminator 4 view .LVU59
 351 0080 C3E90067 		strd	r6, [r3]
 144:Src/adjust.c  **** 	ave_store[i].left = side_sensor_l_diff;
 352              		.loc 1 144 2 is_stmt 1 discriminator 4 view .LVU60
 353              		.loc 1 144 20 is_stmt 0 discriminator 4 view .LVU61
 354 0084 C3E90245 		strd	r4, [r3, #8]
 145:Src/adjust.c  **** 
 146:Src/adjust.c  **** 	//ç§»å‹•å¹³å‡å‡¦ç†
 147:Src/adjust.c  **** 	for(j=0; j < ir_diff_ave_num; j++)
 355              		.loc 1 147 2 is_stmt 1 discriminator 4 view .LVU62
 356              		.loc 1 147 7 is_stmt 0 discriminator 4 view .LVU63
 357 0088 0024     		movs	r4, #0
 358              	.LVL16:
 120:Src/adjust.c  **** 	double side_sensor_r_diff_ave = 0;		//å³å‰ã‚»ãƒ³ã‚µå€¤å¹³å‡
 359              		.loc 1 120 12 discriminator 4 view .LVU64
 360 008a 0026     		movs	r6, #0
 361              	.LVL17:
 120:Src/adjust.c  **** 	double side_sensor_r_diff_ave = 0;		//å³å‰ã‚»ãƒ³ã‚µå€¤å¹³å‡
 362              		.loc 1 120 12 discriminator 4 view .LVU65
 363 008c 0027     		movs	r7, #0
 119:Src/adjust.c  ****     double side_sensor_l_diff_sum = 0; 		//å·¦å‰ã‚»ãƒ³ã‚µå€¤å¤‰åŒ–é‡åˆè¨ˆ
 364              		.loc 1 119 9 discriminator 4 view .LVU66
 365 008e B046     		mov	r8, r6
 366 0090 B946     		mov	r9, r7
 367              	.LVL18:
 368              	.L27:
 369              		.loc 1 147 11 is_stmt 1 discriminator 1 view .LVU67
 370              		.loc 1 147 2 is_stmt 0 discriminator 1 view .LVU68
 371 0092 092C     		cmp	r4, #9
 372 0094 1DD8     		bhi	.L58
 148:Src/adjust.c  **** 	{
 149:Src/adjust.c  **** 		side_sensor_r_diff_sum += ave_store[j].right;
 373              		.loc 1 149 3 is_stmt 1 discriminator 3 view .LVU69
 374              		.loc 1 149 41 is_stmt 0 discriminator 3 view .LVU70
ARM GAS  C:\Temp\cc9KZMEf.s 			page 10


 375 0096 564D     		ldr	r5, .L59+40
 376 0098 05EB0415 		add	r5, r5, r4, lsl #4
 377              		.loc 1 149 26 discriminator 3 view .LVU71
 378 009c D5E90023 		ldrd	r2, [r5]
 379 00a0 4046     		mov	r0, r8
 380 00a2 4946     		mov	r1, r9
 381 00a4 FFF7FEFF 		bl	__aeabi_dadd
 382              	.LVL19:
 383 00a8 8046     		mov	r8, r0
 384              	.LVL20:
 385              		.loc 1 149 26 discriminator 3 view .LVU72
 386 00aa 8946     		mov	r9, r1
 387              	.LVL21:
 150:Src/adjust.c  **** 		side_sensor_l_diff_sum += ave_store[j].left;
 388              		.loc 1 150 3 is_stmt 1 discriminator 3 view .LVU73
 389              		.loc 1 150 26 is_stmt 0 discriminator 3 view .LVU74
 390 00ac D5E90223 		ldrd	r2, [r5, #8]
 391 00b0 3046     		mov	r0, r6
 392 00b2 3946     		mov	r1, r7
 393 00b4 FFF7FEFF 		bl	__aeabi_dadd
 394              	.LVL22:
 395 00b8 0646     		mov	r6, r0
 396              	.LVL23:
 397              		.loc 1 150 26 discriminator 3 view .LVU75
 398 00ba 0F46     		mov	r7, r1
 399              	.LVL24:
 147:Src/adjust.c  **** 	{
 400              		.loc 1 147 32 is_stmt 1 discriminator 3 view .LVU76
 147:Src/adjust.c  **** 	{
 401              		.loc 1 147 33 is_stmt 0 discriminator 3 view .LVU77
 402 00bc 0134     		adds	r4, r4, #1
 403              	.LVL25:
 147:Src/adjust.c  **** 	{
 404              		.loc 1 147 33 discriminator 3 view .LVU78
 405 00be A4B2     		uxth	r4, r4
 406              	.LVL26:
 147:Src/adjust.c  **** 	{
 407              		.loc 1 147 33 discriminator 3 view .LVU79
 408 00c0 E7E7     		b	.L27
 409              	.LVL27:
 410              	.L56:
 139:Src/adjust.c  **** 	side_sensor_r_diff = ABS(side_sensor_r - side_sensor_r_old);
 411              		.loc 1 139 23 discriminator 1 view .LVU80
 412 00c2 05F10043 		add	r3, r5, #-2147483648
 413 00c6 1D46     		mov	r5, r3
 414 00c8 BCE7     		b	.L23
 415              	.LVL28:
 416              	.L57:
 140:Src/adjust.c  **** 
 417              		.loc 1 140 23 discriminator 1 view .LVU81
 418 00ca 07F10043 		add	r3, r7, #-2147483648
 419 00ce 1F46     		mov	r7, r3
 420 00d0 C7E7     		b	.L25
 421              	.LVL29:
 422              	.L58:
 151:Src/adjust.c  **** 	}
 152:Src/adjust.c  **** 
ARM GAS  C:\Temp\cc9KZMEf.s 			page 11


 153:Src/adjust.c  **** 	side_sensor_r_diff_ave = side_sensor_r_diff_sum / ir_diff_ave_num;
 423              		.loc 1 153 2 is_stmt 1 view .LVU82
 424              		.loc 1 153 25 is_stmt 0 view .LVU83
 425 00d2 0022     		movs	r2, #0
 426 00d4 474B     		ldr	r3, .L59+44
 427 00d6 4046     		mov	r0, r8
 428 00d8 4946     		mov	r1, r9
 429 00da FFF7FEFF 		bl	__aeabi_ddiv
 430              	.LVL30:
 431 00de 0446     		mov	r4, r0
 432              	.LVL31:
 433              		.loc 1 153 25 view .LVU84
 434 00e0 0D46     		mov	r5, r1
 435              	.LVL32:
 154:Src/adjust.c  **** 	side_sensor_l_diff_ave = side_sensor_l_diff_sum / ir_diff_ave_num;
 436              		.loc 1 154 2 is_stmt 1 view .LVU85
 437              		.loc 1 154 25 is_stmt 0 view .LVU86
 438 00e2 0022     		movs	r2, #0
 439 00e4 434B     		ldr	r3, .L59+44
 440 00e6 3046     		mov	r0, r6
 441 00e8 3946     		mov	r1, r7
 442 00ea FFF7FEFF 		bl	__aeabi_ddiv
 443              	.LVL33:
 155:Src/adjust.c  **** 	
 156:Src/adjust.c  **** 	ave_counter += 1 ;
 444              		.loc 1 156 2 is_stmt 1 view .LVU87
 445              		.loc 1 156 14 is_stmt 0 view .LVU88
 446 00ee 0AF1010A 		add	r10, r10, #1
 447              	.LVL34:
 448              		.loc 1 156 14 view .LVU89
 449 00f2 3D4B     		ldr	r3, .L59+32
 450 00f4 A3F800A0 		strh	r10, [r3]	@ movhi
 157:Src/adjust.c  **** 
 158:Src/adjust.c  **** 
 159:Src/adjust.c  **** 	//å¤‰åŒ–é‡ã«å¿œã˜ã¦ã€å£åˆ¶å¾¡ã®é–¾å€¤ã‚’å¤‰åŒ–
 160:Src/adjust.c  **** 	if(side_sensor_l_diff_ave > side_sensor_diff_th){
 451              		.loc 1 160 2 is_stmt 1 view .LVU90
 452              		.loc 1 160 4 is_stmt 0 view .LVU91
 453 00f8 33A3     		adr	r3, .L59
 454 00fa D3E90023 		ldrd	r2, [r3]
 455 00fe FFF7FEFF 		bl	__aeabi_dcmpgt
 456              	.LVL35:
 457              		.loc 1 160 4 view .LVU92
 458 0102 48B3     		cbz	r0, .L51
 161:Src/adjust.c  **** 		side_sensor_l_th = side_sensor_th - side_sensor_th_add;
 459              		.loc 1 161 3 is_stmt 1 view .LVU93
 460              		.loc 1 161 20 is_stmt 0 view .LVU94
 461 0104 3C4B     		ldr	r3, .L59+48
 462 0106 32A1     		adr	r1, .L59+8
 463 0108 D1E90001 		ldrd	r0, [r1]
 464 010c C3E90001 		strd	r0, [r3]
 465              	.L31:
 162:Src/adjust.c  **** 	}else{
 163:Src/adjust.c  **** 		side_sensor_l_th = side_sensor_th;
 164:Src/adjust.c  **** 	}
 165:Src/adjust.c  **** 
 166:Src/adjust.c  **** 	if(side_sensor_r_diff_ave > side_sensor_diff_th){
ARM GAS  C:\Temp\cc9KZMEf.s 			page 12


 466              		.loc 1 166 2 is_stmt 1 view .LVU95
 467              		.loc 1 166 4 is_stmt 0 view .LVU96
 468 0110 2DA3     		adr	r3, .L59
 469 0112 D3E90023 		ldrd	r2, [r3]
 470 0116 2046     		mov	r0, r4
 471 0118 2946     		mov	r1, r5
 472 011a FFF7FEFF 		bl	__aeabi_dcmpgt
 473              	.LVL36:
 474 011e 10B3     		cbz	r0, .L52
 167:Src/adjust.c  **** 		side_sensor_r_th = side_sensor_th - side_sensor_th_add;
 475              		.loc 1 167 3 is_stmt 1 view .LVU97
 476              		.loc 1 167 20 is_stmt 0 view .LVU98
 477 0120 364B     		ldr	r3, .L59+52
 478 0122 2BA1     		adr	r1, .L59+8
 479 0124 D1E90001 		ldrd	r0, [r1]
 480 0128 C3E90001 		strd	r0, [r3]
 481              	.L34:
 168:Src/adjust.c  **** 	}else{
 169:Src/adjust.c  **** 		side_sensor_r_th = side_sensor_th;
 170:Src/adjust.c  **** 	}
 171:Src/adjust.c  **** 
 172:Src/adjust.c  **** 	//é–¾å€¤ã«å¿œã˜ã¦ã€æ¨ªå£åˆ¶å¾¡ãƒ¢ãƒ¼ãƒ‰ã‚’è¨­å®š
 173:Src/adjust.c  **** 	if( (side_sensor_l_th > side_sensor_l) && (side_sensor_r_th > side_sensor_r))
 482              		.loc 1 173 2 is_stmt 1 view .LVU99
 483              		.loc 1 173 24 is_stmt 0 view .LVU100
 484 012c 324B     		ldr	r3, .L59+48
 485 012e D3E90045 		ldrd	r4, [r3]
 486              	.LVL37:
 487              		.loc 1 173 4 view .LVU101
 488 0132 DDE90023 		ldrd	r2, [sp]
 489 0136 2046     		mov	r0, r4
 490 0138 2946     		mov	r1, r5
 491 013a FFF7FEFF 		bl	__aeabi_dcmpgt
 492              	.LVL38:
 493 013e C8B1     		cbz	r0, .L35
 494              		.loc 1 173 41 discriminator 1 view .LVU102
 495 0140 53EC182B 		vmov	r2, r3, d8
 496 0144 2D49     		ldr	r1, .L59+52
 497 0146 D1E90001 		ldrd	r0, [r1]
 498 014a FFF7FEFF 		bl	__aeabi_dcmpgt
 499              	.LVL39:
 500 014e 88B1     		cbz	r0, .L35
 174:Src/adjust.c  **** 	{
 175:Src/adjust.c  **** 		side_wall_ctrl_mode = both_side;
 501              		.loc 1 175 3 is_stmt 1 view .LVU103
 502              		.loc 1 175 23 is_stmt 0 view .LVU104
 503 0150 2B4B     		ldr	r3, .L59+56
 504 0152 0222     		movs	r2, #2
 505 0154 1A70     		strb	r2, [r3]
 506 0156 17E0     		b	.L38
 507              	.LVL40:
 508              	.L51:
 163:Src/adjust.c  **** 	}
 509              		.loc 1 163 3 is_stmt 1 view .LVU105
 163:Src/adjust.c  **** 	}
 510              		.loc 1 163 20 is_stmt 0 view .LVU106
 511 0158 274B     		ldr	r3, .L59+48
ARM GAS  C:\Temp\cc9KZMEf.s 			page 13


 512 015a 1FA1     		adr	r1, .L59+16
 513 015c D1E90001 		ldrd	r0, [r1]
 514 0160 C3E90001 		strd	r0, [r3]
 515 0164 D4E7     		b	.L31
 516              	.L52:
 169:Src/adjust.c  **** 	}
 517              		.loc 1 169 3 is_stmt 1 view .LVU107
 169:Src/adjust.c  **** 	}
 518              		.loc 1 169 20 is_stmt 0 view .LVU108
 519 0166 254B     		ldr	r3, .L59+52
 520 0168 1BA1     		adr	r1, .L59+16
 521 016a D1E90001 		ldrd	r0, [r1]
 522 016e C3E90001 		strd	r0, [r3]
 523 0172 DBE7     		b	.L34
 524              	.LVL41:
 525              	.L35:
 176:Src/adjust.c  **** 	}
 177:Src/adjust.c  **** 	else if((side_sensor_l_th > side_sensor_l))
 526              		.loc 1 177 7 is_stmt 1 view .LVU109
 527              		.loc 1 177 9 is_stmt 0 view .LVU110
 528 0174 DDE90023 		ldrd	r2, [sp]
 529 0178 2046     		mov	r0, r4
 530 017a 2946     		mov	r1, r5
 531 017c FFF7FEFF 		bl	__aeabi_dcmpgt
 532              	.LVL42:
 533 0180 78B1     		cbz	r0, .L53
 178:Src/adjust.c  **** 	{
 179:Src/adjust.c  **** 		side_wall_ctrl_mode = left;
 534              		.loc 1 179 3 is_stmt 1 view .LVU111
 535              		.loc 1 179 23 is_stmt 0 view .LVU112
 536 0182 1F4B     		ldr	r3, .L59+56
 537 0184 0122     		movs	r2, #1
 538 0186 1A70     		strb	r2, [r3]
 539              	.L38:
 180:Src/adjust.c  **** 	}
 181:Src/adjust.c  **** 	else if((side_sensor_r_th > side_sensor_r))
 182:Src/adjust.c  **** 	{
 183:Src/adjust.c  **** 		side_wall_ctrl_mode = right;
 184:Src/adjust.c  **** 	}
 185:Src/adjust.c  **** 	else{
 186:Src/adjust.c  **** 		side_wall_ctrl_mode = none;
 187:Src/adjust.c  **** 	}
 188:Src/adjust.c  **** 
 189:Src/adjust.c  **** 	//ã‚»ãƒ³ã‚µå€¤æ›´æ–°
 190:Src/adjust.c  **** 	side_sensor_l_old = side_sensor_l;
 540              		.loc 1 190 2 is_stmt 1 view .LVU113
 541              		.loc 1 190 20 is_stmt 0 view .LVU114
 542 0188 154B     		ldr	r3, .L59+24
 543 018a 9DED007B 		vldr.64	d7, [sp]
 544 018e 83ED007B 		vstr.64	d7, [r3]
 191:Src/adjust.c  **** 	side_sensor_r_old = side_sensor_r;
 545              		.loc 1 191 2 is_stmt 1 view .LVU115
 546              		.loc 1 191 20 is_stmt 0 view .LVU116
 547 0192 144B     		ldr	r3, .L59+28
 548 0194 83ED008B 		vstr.64	d8, [r3]
 192:Src/adjust.c  **** 
 193:Src/adjust.c  **** }
ARM GAS  C:\Temp\cc9KZMEf.s 			page 14


 549              		.loc 1 193 1 view .LVU117
 550 0198 02B0     		add	sp, sp, #8
 551              	.LCFI5:
 552              		.cfi_remember_state
 553              		.cfi_def_cfa_offset 40
 554              	.LVL43:
 555              		.loc 1 193 1 view .LVU118
 556              		@ sp needed
 557 019a BDEC028B 		vldm	sp!, {d8}
 558              	.LCFI6:
 559              		.cfi_restore 80
 560              		.cfi_restore 81
 561              		.cfi_def_cfa_offset 32
 562              	.LVL44:
 563              		.loc 1 193 1 view .LVU119
 564 019e BDE8F087 		pop	{r4, r5, r6, r7, r8, r9, r10, pc}
 565              	.LVL45:
 566              	.L53:
 567              	.LCFI7:
 568              		.cfi_restore_state
 181:Src/adjust.c  **** 	{
 569              		.loc 1 181 7 is_stmt 1 view .LVU120
 181:Src/adjust.c  **** 	{
 570              		.loc 1 181 9 is_stmt 0 view .LVU121
 571 01a2 53EC182B 		vmov	r2, r3, d8
 572 01a6 1549     		ldr	r1, .L59+52
 573 01a8 D1E90001 		ldrd	r0, [r1]
 574 01ac FFF7FEFF 		bl	__aeabi_dcmpgt
 575              	.LVL46:
 576 01b0 18B1     		cbz	r0, .L54
 183:Src/adjust.c  **** 	}
 577              		.loc 1 183 3 is_stmt 1 view .LVU122
 183:Src/adjust.c  **** 	}
 578              		.loc 1 183 23 is_stmt 0 view .LVU123
 579 01b2 134B     		ldr	r3, .L59+56
 580 01b4 0022     		movs	r2, #0
 581 01b6 1A70     		strb	r2, [r3]
 582 01b8 E6E7     		b	.L38
 583              	.L54:
 186:Src/adjust.c  **** 	}
 584              		.loc 1 186 3 is_stmt 1 view .LVU124
 186:Src/adjust.c  **** 	}
 585              		.loc 1 186 23 is_stmt 0 view .LVU125
 586 01ba 114B     		ldr	r3, .L59+56
 587 01bc 0322     		movs	r2, #3
 588 01be 1A70     		strb	r2, [r3]
 589 01c0 E2E7     		b	.L38
 590              	.L60:
 591 01c2 00BFAFF3 		.align	3
 591      0080
 592              	.L59:
 593 01c8 D2FBC6D7 		.word	-674825262
 594 01cc 9E59123F 		.word	1058167198
 595 01d0 BA1E85EB 		.word	-343597382
 596 01d4 51B88E3F 		.word	1066317905
 597 01d8 EC51B81E 		.word	515396076
 598 01dc 85EBA13F 		.word	1067576197
ARM GAS  C:\Temp\cc9KZMEf.s 			page 15


 599 01e0 00000000 		.word	.LANCHOR6
 600 01e4 00000000 		.word	.LANCHOR7
 601 01e8 00000000 		.word	.LANCHOR8
 602 01ec CDCCCCCC 		.word	-858993459
 603 01f0 00000000 		.word	.LANCHOR9
 604 01f4 00002440 		.word	1076101120
 605 01f8 00000000 		.word	.LANCHOR3
 606 01fc 00000000 		.word	.LANCHOR4
 607 0200 00000000 		.word	.LANCHOR5
 608              		.cfi_endproc
 609              	.LFE10:
 611              		.global	__aeabi_dmul
 612              		.section	.text.get_side_wall_err,"ax",%progbits
 613              		.align	1
 614              		.global	get_side_wall_err
 615              		.syntax unified
 616              		.thumb
 617              		.thumb_func
 618              		.fpu fpv4-sp-d16
 620              	get_side_wall_err:
 621              	.LFB11:
 194:Src/adjust.c  **** 
 195:Src/adjust.c  **** //æ©Ÿèƒ½	: å„æ¨ªå£åˆ¶å¾¡ãƒ¢ãƒ¼ãƒ‰ã«ãŠã‘ã‚‹åå·®ã‚’ç®—å‡ºã€å–å¾—ã™ã‚‹
 196:Src/adjust.c  **** //å¼•æ•°	: ãªã—
 197:Src/adjust.c  **** //è¿”ã‚Šå€¤	: ä¸­å¿ƒä½ç½®ã‹ã‚‰ã®åå·®
 198:Src/adjust.c  **** //å‚™è€ƒ 	:1msã‚¿ã‚¹ã‚¯
 199:Src/adjust.c  **** double get_side_wall_err(void)
 200:Src/adjust.c  **** {
 622              		.loc 1 200 1 is_stmt 1 view -0
 623              		.cfi_startproc
 624              		@ args = 0, pretend = 0, frame = 0
 625              		@ frame_needed = 0, uses_anonymous_args = 0
 626 0000 F8B5     		push	{r3, r4, r5, r6, r7, lr}
 627              	.LCFI8:
 628              		.cfi_def_cfa_offset 24
 629              		.cfi_offset 3, -24
 630              		.cfi_offset 4, -20
 631              		.cfi_offset 5, -16
 632              		.cfi_offset 6, -12
 633              		.cfi_offset 7, -8
 634              		.cfi_offset 14, -4
 201:Src/adjust.c  **** 	double side_wall_err_tmp = 0;
 635              		.loc 1 201 2 view .LVU127
 636              	.LVL47:
 202:Src/adjust.c  **** 	
 203:Src/adjust.c  **** 	switch(side_wall_ctrl_mode){
 637              		.loc 1 203 2 view .LVU128
 638 0002 2D4B     		ldr	r3, .L67+8
 639 0004 1B78     		ldrb	r3, [r3]	@ zero_extendqisi2
 640 0006 012B     		cmp	r3, #1
 641 0008 05D0     		beq	.L62
 642 000a 022B     		cmp	r3, #2
 643 000c 2AD0     		beq	.L63
 644 000e B3B1     		cbz	r3, .L64
 645 0010 9FED270B 		vldr.64	d0, .L67
 646              	.LVL48:
 647              	.L61:
ARM GAS  C:\Temp\cc9KZMEf.s 			page 16


 204:Src/adjust.c  **** 		case left:
 205:Src/adjust.c  **** 			side_wall_err_tmp = -2 * (target_sensor_sl - SensorValue2length(1));
 206:Src/adjust.c  **** 			break;
 207:Src/adjust.c  **** 		
 208:Src/adjust.c  **** 		case right:
 209:Src/adjust.c  **** 			side_wall_err_tmp = 2 * (target_sensor_sr - SensorValue2length(2));
 210:Src/adjust.c  **** 			break;
 211:Src/adjust.c  **** 		
 212:Src/adjust.c  **** 		case both_side:
 213:Src/adjust.c  **** 			side_wall_err_tmp = (target_sensor_sr - SensorValue2length(2)) - (target_sensor_sl - SensorValue
 214:Src/adjust.c  **** 			break;
 215:Src/adjust.c  **** 		
 216:Src/adjust.c  **** 		case none:
 217:Src/adjust.c  **** 			side_wall_err_tmp = 0;
 218:Src/adjust.c  **** 			break;						
 219:Src/adjust.c  **** 	}
 220:Src/adjust.c  **** 
 221:Src/adjust.c  **** 	return side_wall_err_tmp;
 222:Src/adjust.c  **** }
 648              		.loc 1 222 1 is_stmt 0 view .LVU129
 649 0014 F8BD     		pop	{r3, r4, r5, r6, r7, pc}
 650              	.LVL49:
 651              	.L62:
 205:Src/adjust.c  **** 			break;
 652              		.loc 1 205 4 is_stmt 1 view .LVU130
 205:Src/adjust.c  **** 			break;
 653              		.loc 1 205 47 is_stmt 0 view .LVU131
 654 0016 294B     		ldr	r3, .L67+12
 655 0018 D3E90045 		ldrd	r4, [r3]
 205:Src/adjust.c  **** 			break;
 656              		.loc 1 205 49 view .LVU132
 657 001c 0120     		movs	r0, #1
 658 001e FFF7FEFF 		bl	SensorValue2length
 659              	.LVL50:
 660 0022 53EC102B 		vmov	r2, r3, d0
 205:Src/adjust.c  **** 			break;
 661              		.loc 1 205 47 view .LVU133
 662 0026 2046     		mov	r0, r4
 663 0028 2946     		mov	r1, r5
 664 002a FFF7FEFF 		bl	__aeabi_dsub
 665              	.LVL51:
 205:Src/adjust.c  **** 			break;
 666              		.loc 1 205 22 view .LVU134
 667 002e 0022     		movs	r2, #0
 668 0030 4FF04043 		mov	r3, #-1073741824
 669 0034 FFF7FEFF 		bl	__aeabi_dmul
 670              	.LVL52:
 671 0038 41EC100B 		vmov	d0, r0, r1
 672              	.LVL53:
 206:Src/adjust.c  **** 		
 673              		.loc 1 206 4 is_stmt 1 view .LVU135
 674 003c EAE7     		b	.L61
 675              	.LVL54:
 676              	.L64:
 209:Src/adjust.c  **** 			break;
 677              		.loc 1 209 4 view .LVU136
 209:Src/adjust.c  **** 			break;
ARM GAS  C:\Temp\cc9KZMEf.s 			page 17


 678              		.loc 1 209 46 is_stmt 0 view .LVU137
 679 003e 204B     		ldr	r3, .L67+16
 680 0040 D3E90045 		ldrd	r4, [r3]
 209:Src/adjust.c  **** 			break;
 681              		.loc 1 209 48 view .LVU138
 682 0044 0220     		movs	r0, #2
 683 0046 FFF7FEFF 		bl	SensorValue2length
 684              	.LVL55:
 685 004a 53EC102B 		vmov	r2, r3, d0
 209:Src/adjust.c  **** 			break;
 686              		.loc 1 209 46 view .LVU139
 687 004e 2046     		mov	r0, r4
 688 0050 2946     		mov	r1, r5
 689 0052 FFF7FEFF 		bl	__aeabi_dsub
 690              	.LVL56:
 691 0056 0246     		mov	r2, r0
 692 0058 0B46     		mov	r3, r1
 209:Src/adjust.c  **** 			break;
 693              		.loc 1 209 22 view .LVU140
 694 005a FFF7FEFF 		bl	__aeabi_dadd
 695              	.LVL57:
 696 005e 41EC100B 		vmov	d0, r0, r1
 697              	.LVL58:
 210:Src/adjust.c  **** 		
 698              		.loc 1 210 4 is_stmt 1 view .LVU141
 699 0062 D7E7     		b	.L61
 700              	.LVL59:
 701              	.L63:
 213:Src/adjust.c  **** 			break;
 702              		.loc 1 213 4 view .LVU142
 213:Src/adjust.c  **** 			break;
 703              		.loc 1 213 42 is_stmt 0 view .LVU143
 704 0064 164B     		ldr	r3, .L67+16
 705 0066 D3E90045 		ldrd	r4, [r3]
 213:Src/adjust.c  **** 			break;
 706              		.loc 1 213 44 view .LVU144
 707 006a 0220     		movs	r0, #2
 708 006c FFF7FEFF 		bl	SensorValue2length
 709              	.LVL60:
 710 0070 53EC102B 		vmov	r2, r3, d0
 213:Src/adjust.c  **** 			break;
 711              		.loc 1 213 42 view .LVU145
 712 0074 2046     		mov	r0, r4
 713 0076 2946     		mov	r1, r5
 714 0078 FFF7FEFF 		bl	__aeabi_dsub
 715              	.LVL61:
 716 007c 0446     		mov	r4, r0
 717 007e 0D46     		mov	r5, r1
 213:Src/adjust.c  **** 			break;
 718              		.loc 1 213 87 view .LVU146
 719 0080 0E4B     		ldr	r3, .L67+12
 720 0082 D3E90067 		ldrd	r6, [r3]
 213:Src/adjust.c  **** 			break;
 721              		.loc 1 213 89 view .LVU147
 722 0086 0120     		movs	r0, #1
 723 0088 FFF7FEFF 		bl	SensorValue2length
 724              	.LVL62:
ARM GAS  C:\Temp\cc9KZMEf.s 			page 18


 725 008c 53EC102B 		vmov	r2, r3, d0
 213:Src/adjust.c  **** 			break;
 726              		.loc 1 213 87 view .LVU148
 727 0090 3046     		mov	r0, r6
 728 0092 3946     		mov	r1, r7
 729 0094 FFF7FEFF 		bl	__aeabi_dsub
 730              	.LVL63:
 731 0098 0246     		mov	r2, r0
 732 009a 0B46     		mov	r3, r1
 213:Src/adjust.c  **** 			break;
 733              		.loc 1 213 22 view .LVU149
 734 009c 2046     		mov	r0, r4
 735 009e 2946     		mov	r1, r5
 736 00a0 FFF7FEFF 		bl	__aeabi_dsub
 737              	.LVL64:
 738 00a4 41EC100B 		vmov	d0, r0, r1
 739              	.LVL65:
 214:Src/adjust.c  **** 		
 740              		.loc 1 214 4 is_stmt 1 view .LVU150
 221:Src/adjust.c  **** }
 741              		.loc 1 221 2 view .LVU151
 221:Src/adjust.c  **** }
 742              		.loc 1 221 9 is_stmt 0 view .LVU152
 743 00a8 B4E7     		b	.L61
 744              	.L68:
 745 00aa 00BFAFF3 		.align	3
 745      0080
 746              	.L67:
 747 00b0 00000000 		.word	0
 748 00b4 00000000 		.word	0
 749 00b8 00000000 		.word	.LANCHOR5
 750 00bc 00000000 		.word	.LANCHOR1
 751 00c0 00000000 		.word	.LANCHOR2
 752              		.cfi_endproc
 753              	.LFE11:
 755              		.section	.text.adjust_theta_side_wall,"ax",%progbits
 756              		.align	1
 757              		.global	adjust_theta_side_wall
 758              		.syntax unified
 759              		.thumb
 760              		.thumb_func
 761              		.fpu fpv4-sp-d16
 763              	adjust_theta_side_wall:
 764              	.LFB12:
 223:Src/adjust.c  **** 
 224:Src/adjust.c  **** //æ©Ÿèƒ½	: å„æ¨ªå£åˆ¶å¾¡ãƒ¢ãƒ¼ãƒ‰ã«ãŠã‘ã‚‹è§’åº¦è£œæ­£å‡¦ç†ã‚’å…¥ã‚Œã‚‹
 225:Src/adjust.c  **** //å¼•æ•°	: ãªã—
 226:Src/adjust.c  **** //è¿”ã‚Šå€¤	: ãªã—
 227:Src/adjust.c  **** //å‚™è€ƒ 	:1msã‚¿ã‚¹ã‚¯
 228:Src/adjust.c  **** void adjust_theta_side_wall(void)
 229:Src/adjust.c  **** {
 765              		.loc 1 229 1 is_stmt 1 view -0
 766              		.cfi_startproc
 767              		@ args = 0, pretend = 0, frame = 0
 768              		@ frame_needed = 0, uses_anonymous_args = 0
 769              		@ link register save eliminated.
 230:Src/adjust.c  **** 	switch(side_wall_ctrl_mode){
ARM GAS  C:\Temp\cc9KZMEf.s 			page 19


 770              		.loc 1 230 2 view .LVU154
 231:Src/adjust.c  **** 		case left:
 232:Src/adjust.c  **** 			break;
 233:Src/adjust.c  **** 		case right:
 234:Src/adjust.c  **** 			break;
 235:Src/adjust.c  **** 		case both_side:
 236:Src/adjust.c  **** 			break;
 237:Src/adjust.c  **** 		case none:
 238:Src/adjust.c  **** 			break;						
 239:Src/adjust.c  **** 	}
 240:Src/adjust.c  **** 	//è»Œè·¡åˆ¶å¾¡ã®Ié …ã«ãƒ•ã‚£ãƒ«ã‚¿ã‚’ã‹ã‘ã‚‹ã€‚å„ãƒ¢ãƒ¼ãƒ‰ã«å¿œã˜ãŸæ„Ÿã˜ã§ã€‚
 241:Src/adjust.c  **** }
 771              		.loc 1 241 1 is_stmt 0 view .LVU155
 772 0000 7047     		bx	lr
 773              		.cfi_endproc
 774              	.LFE12:
 776              		.global	__aeabi_f2d
 777              		.section	.text.calc_motor_vol_side_wall,"ax",%progbits
 778              		.align	1
 779              		.global	calc_motor_vol_side_wall
 780              		.syntax unified
 781              		.thumb
 782              		.thumb_func
 783              		.fpu fpv4-sp-d16
 785              	calc_motor_vol_side_wall:
 786              	.LFB13:
 242:Src/adjust.c  **** 
 243:Src/adjust.c  **** //æ©Ÿèƒ½	: åå·®ã‹ã‚‰æ¨ªå£åˆ¶å¾¡ã®ãƒ¢ãƒ¼ã‚¿å°åŠ é›»åœ§ã‚’è¨ˆç®—ã™ã‚‹ã€‚
 244:Src/adjust.c  **** //å¼•æ•°	: ãªã—
 245:Src/adjust.c  **** //è¿”ã‚Šå€¤	: ãªã—
 246:Src/adjust.c  **** //å‚™è€ƒ 	:1msã‚¿ã‚¹ã‚¯
 247:Src/adjust.c  **** void calc_motor_vol_side_wall(void)
 248:Src/adjust.c  **** {
 787              		.loc 1 248 1 is_stmt 1 view -0
 788              		.cfi_startproc
 789              		@ args = 0, pretend = 0, frame = 0
 790              		@ frame_needed = 0, uses_anonymous_args = 0
 791 0000 38B5     		push	{r3, r4, r5, lr}
 792              	.LCFI9:
 793              		.cfi_def_cfa_offset 16
 794              		.cfi_offset 3, -16
 795              		.cfi_offset 4, -12
 796              		.cfi_offset 5, -8
 797              		.cfi_offset 14, -4
 798 0002 2DED028B 		vpush.64	{d8}
 799              	.LCFI10:
 800              		.cfi_def_cfa_offset 24
 801              		.cfi_offset 80, -24
 802              		.cfi_offset 81, -20
 249:Src/adjust.c  **** 	double side_wall_err = 0;
 803              		.loc 1 249 2 view .LVU157
 804              	.LVL66:
 250:Src/adjust.c  **** 	double side_wall_err_P = 0;
 805              		.loc 1 250 2 view .LVU158
 251:Src/adjust.c  **** 	double side_wall_err_D = 0;
 806              		.loc 1 251 2 view .LVU159
 252:Src/adjust.c  **** 	double side_wall_err_PD = 0;
ARM GAS  C:\Temp\cc9KZMEf.s 			page 20


 807              		.loc 1 252 2 view .LVU160
 253:Src/adjust.c  **** 
 254:Src/adjust.c  **** 	//åå·®å–å¾—
 255:Src/adjust.c  **** 	side_wall_err = get_side_wall_err();
 808              		.loc 1 255 2 view .LVU161
 809              		.loc 1 255 18 is_stmt 0 view .LVU162
 810 0006 FFF7FEFF 		bl	get_side_wall_err
 811              	.LVL67:
 812 000a 51EC100B 		vmov	r0, r1, d0
 813              	.LVL68:
 256:Src/adjust.c  **** 
 257:Src/adjust.c  **** 	//Pé …
 258:Src/adjust.c  **** 	side_wall_err_P = side_wall_P * side_wall_err;
 814              		.loc 1 258 2 is_stmt 1 view .LVU163
 815              		.loc 1 258 18 is_stmt 0 view .LVU164
 816 000e 0022     		movs	r2, #0
 817 0010 114B     		ldr	r3, .L72
 818 0012 FFF7FEFF 		bl	__aeabi_dmul
 819              	.LVL69:
 820              		.loc 1 258 18 view .LVU165
 821 0016 0446     		mov	r4, r0
 822 0018 0D46     		mov	r5, r1
 823              	.LVL70:
 259:Src/adjust.c  **** 	
 260:Src/adjust.c  **** 	//Dé …
 261:Src/adjust.c  **** 	//yæ–¹å‘ã®é€Ÿåº¦
 262:Src/adjust.c  **** 	//é€Ÿåº¦*ç›®æ¨™è§’åº¦ã¨å®Ÿè§’åº¦ã®ã‚¨ãƒ©ãƒ¼
 263:Src/adjust.c  **** 	side_wall_err_D = -1 * side_wall_D * get_move_speed() * (get_rotation_angle() - get_ideal_angle())
 824              		.loc 1 263 2 is_stmt 1 view .LVU166
 825              		.loc 1 263 39 is_stmt 0 view .LVU167
 826 001a FFF7FEFF 		bl	get_move_speed
 827              	.LVL71:
 828              		.loc 1 263 37 view .LVU168
 829 001e F1EE408A 		vneg.f32	s17, s0
 830              		.loc 1 263 59 view .LVU169
 831 0022 FFF7FEFF 		bl	get_rotation_angle
 832              	.LVL72:
 833 0026 B0EE408A 		vmov.f32	s16, s0
 834              		.loc 1 263 82 view .LVU170
 835 002a FFF7FEFF 		bl	get_ideal_angle
 836              	.LVL73:
 837              		.loc 1 263 80 view .LVU171
 838 002e 38EE408A 		vsub.f32	s16, s16, s0
 839              		.loc 1 263 18 view .LVU172
 840 0032 68EE887A 		vmul.f32	s15, s17, s16
 841 0036 17EE900A 		vmov	r0, s15
 842 003a FFF7FEFF 		bl	__aeabi_f2d
 843              	.LVL74:
 844 003e 0246     		mov	r2, r0
 845 0040 0B46     		mov	r3, r1
 846              	.LVL75:
 264:Src/adjust.c  **** 
 265:Src/adjust.c  **** 	//åˆç®—
 266:Src/adjust.c  **** 	side_wall_err_PD = side_wall_err_P + side_wall_err_D;
 847              		.loc 1 266 2 is_stmt 1 view .LVU173
 848              		.loc 1 266 19 is_stmt 0 view .LVU174
 849 0042 2046     		mov	r0, r4
ARM GAS  C:\Temp\cc9KZMEf.s 			page 21


 850 0044 2946     		mov	r1, r5
 851 0046 FFF7FEFF 		bl	__aeabi_dadd
 852              	.LVL76:
 267:Src/adjust.c  **** 
 268:Src/adjust.c  **** 	/*å°åŠ é›»åœ§ç®—å‡º*/
 269:Src/adjust.c  **** 	target_vol_diff_sidewall = (float)side_wall_err_PD;
 853              		.loc 1 269 2 is_stmt 1 view .LVU175
 854              		.loc 1 269 29 is_stmt 0 view .LVU176
 855 004a FFF7FEFF 		bl	__aeabi_d2f
 856              	.LVL77:
 857              		.loc 1 269 27 view .LVU177
 858 004e 034B     		ldr	r3, .L72+4
 859 0050 1860     		str	r0, [r3]	@ float
 270:Src/adjust.c  **** 
 271:Src/adjust.c  **** }
 860              		.loc 1 271 1 view .LVU178
 861 0052 BDEC028B 		vldm	sp!, {d8}
 862              	.LCFI11:
 863              		.cfi_restore 80
 864              		.cfi_restore 81
 865              		.cfi_def_cfa_offset 16
 866 0056 38BD     		pop	{r3, r4, r5, pc}
 867              	.LVL78:
 868              	.L73:
 869              		.loc 1 271 1 view .LVU179
 870              		.align	2
 871              	.L72:
 872 0058 00006940 		.word	1080623104
 873 005c 00000000 		.word	.LANCHOR10
 874              		.cfi_endproc
 875              	.LFE13:
 877              		.section	.text.get_target_vol_diff_sidewall,"ax",%progbits
 878              		.align	1
 879              		.global	get_target_vol_diff_sidewall
 880              		.syntax unified
 881              		.thumb
 882              		.thumb_func
 883              		.fpu fpv4-sp-d16
 885              	get_target_vol_diff_sidewall:
 886              	.LFB14:
 272:Src/adjust.c  **** 
 273:Src/adjust.c  **** //æ©Ÿèƒ½	: æ¨ªå£è£œæ­£ã«ã‚ˆã‚‹ãƒ¢ãƒ¼ã‚¿å°åŠ é›»åœ§ã®å·®ã‚’å–å¾—ã™ã‚‹
 274:Src/adjust.c  **** //å¼•æ•°	: ãªã—
 275:Src/adjust.c  **** //è¿”ã‚Šå€¤	: æ¨ªå£è£œæ­£ã«ã‚ˆã‚‹å³ãƒ¢ãƒ¼ã‚¿å°åŠ é›»åœ§
 276:Src/adjust.c  **** float get_target_vol_diff_sidewall ( void )
 277:Src/adjust.c  **** {
 887              		.loc 1 277 1 is_stmt 1 view -0
 888              		.cfi_startproc
 889              		@ args = 0, pretend = 0, frame = 0
 890              		@ frame_needed = 0, uses_anonymous_args = 0
 891              		@ link register save eliminated.
 278:Src/adjust.c  **** 	return target_vol_diff_sidewall;
 892              		.loc 1 278 2 view .LVU181
 279:Src/adjust.c  **** }
 893              		.loc 1 279 1 is_stmt 0 view .LVU182
 894 0000 014B     		ldr	r3, .L75
 895 0002 93ED000A 		vldr.32	s0, [r3]
ARM GAS  C:\Temp\cc9KZMEf.s 			page 22


 896 0006 7047     		bx	lr
 897              	.L76:
 898              		.align	2
 899              	.L75:
 900 0008 00000000 		.word	.LANCHOR10
 901              		.cfi_endproc
 902              	.LFE14:
 904              		.section	.text.calc_motor_vol_front_wall,"ax",%progbits
 905              		.align	1
 906              		.global	calc_motor_vol_front_wall
 907              		.syntax unified
 908              		.thumb
 909              		.thumb_func
 910              		.fpu fpv4-sp-d16
 912              	calc_motor_vol_front_wall:
 913              	.LFB15:
 280:Src/adjust.c  **** 
 281:Src/adjust.c  **** 
 282:Src/adjust.c  **** //æ©Ÿèƒ½	: å‰å£åˆ¶å¾¡ã«ãŠã‘ã‚‹ãƒ¢ãƒ¼ã‚¿å°åŠ é›»åœ§ã‚’è¨ˆç®—ã™ã‚‹ã€‚
 283:Src/adjust.c  **** //å¼•æ•°	: ãªã—
 284:Src/adjust.c  **** //è¿”ã‚Šå€¤	: ãªã—
 285:Src/adjust.c  **** //å‚™è€ƒ	:1msã‚¿ã‚¹ã‚¯
 286:Src/adjust.c  **** void calc_motor_vol_front_wall ( void )
 287:Src/adjust.c  **** {
 914              		.loc 1 287 1 is_stmt 1 view -0
 915              		.cfi_startproc
 916              		@ args = 0, pretend = 0, frame = 24
 917              		@ frame_needed = 0, uses_anonymous_args = 0
 918 0000 2DE9F04F 		push	{r4, r5, r6, r7, r8, r9, r10, fp, lr}
 919              	.LCFI12:
 920              		.cfi_def_cfa_offset 36
 921              		.cfi_offset 4, -36
 922              		.cfi_offset 5, -32
 923              		.cfi_offset 6, -28
 924              		.cfi_offset 7, -24
 925              		.cfi_offset 8, -20
 926              		.cfi_offset 9, -16
 927              		.cfi_offset 10, -12
 928              		.cfi_offset 11, -8
 929              		.cfi_offset 14, -4
 930 0004 2DED088B 		vpush.64	{d8, d9, d10, d11}
 931              	.LCFI13:
 932              		.cfi_def_cfa_offset 68
 933              		.cfi_offset 80, -68
 934              		.cfi_offset 81, -64
 935              		.cfi_offset 82, -60
 936              		.cfi_offset 83, -56
 937              		.cfi_offset 84, -52
 938              		.cfi_offset 85, -48
 939              		.cfi_offset 86, -44
 940              		.cfi_offset 87, -40
 941 0008 87B0     		sub	sp, sp, #28
 942              	.LCFI14:
 943              		.cfi_def_cfa_offset 96
 288:Src/adjust.c  **** 	double front_sensor_r = 0; 				//å³å‰ã‚»ãƒ³ã‚µå€¤
 944              		.loc 1 288 2 view .LVU184
 945              	.LVL79:
ARM GAS  C:\Temp\cc9KZMEf.s 			page 23


 289:Src/adjust.c  ****     double front_sensor_l = 0; 				//å·¦å‰ã‚»ãƒ³ã‚µå€¤
 946              		.loc 1 289 5 view .LVU185
 290:Src/adjust.c  ****     double front_sensor_r_err = 0;   		//å³å‰ã‚»ãƒ³ã‚µã®åå·®
 947              		.loc 1 290 5 view .LVU186
 291:Src/adjust.c  ****     double front_sensor_l_err = 0;			//å·¦å‰ã‚»ãƒ³ã‚µã®åå·®
 948              		.loc 1 291 5 view .LVU187
 292:Src/adjust.c  ****     double front_sensor_move_err = 0;   	//ã‚»ãƒ³ã‚µã®åå·®ã®å’Œ
 949              		.loc 1 292 5 view .LVU188
 293:Src/adjust.c  ****     double front_sensor_rotate_err = 0;		//ã‚»ãƒ³ã‚µã®åå·®ã®å·®
 950              		.loc 1 293 5 view .LVU189
 294:Src/adjust.c  **** 
 295:Src/adjust.c  ****     double front_sensor_move_err_P = 0;   	//åå·®å’Œã®Pé …
 951              		.loc 1 295 5 view .LVU190
 296:Src/adjust.c  ****     double front_sensor_rotate_err_P = 0;   //åå·®å·®ã®Pé …
 952              		.loc 1 296 5 view .LVU191
 297:Src/adjust.c  ****     double front_sensor_move_err_D = 0;   	//åå·®å’Œã®Dé …
 953              		.loc 1 297 5 view .LVU192
 298:Src/adjust.c  ****     double front_sensor_rotate_err_D = 0;   //åå·®å·®ã®Dé …
 954              		.loc 1 298 5 view .LVU193
 299:Src/adjust.c  ****     double front_sensor_move_PID = 0;  		//
 955              		.loc 1 299 5 view .LVU194
 300:Src/adjust.c  ****     double front_sensor_rotate_PID = 0;   		//
 956              		.loc 1 300 5 view .LVU195
 301:Src/adjust.c  **** 
 302:Src/adjust.c  **** 
 303:Src/adjust.c  **** 	//ã‚»ãƒ³ã‚µå€¤å–å¾—
 304:Src/adjust.c  **** 	front_sensor_l = SensorValue2length(0);
 957              		.loc 1 304 2 view .LVU196
 958              		.loc 1 304 19 is_stmt 0 view .LVU197
 959 000a 0020     		movs	r0, #0
 960 000c FFF7FEFF 		bl	SensorValue2length
 961              	.LVL80:
 962 0010 57EC106B 		vmov	r6, r7, d0
 963              	.LVL81:
 305:Src/adjust.c  **** 	front_sensor_r = SensorValue2length(3);
 964              		.loc 1 305 2 is_stmt 1 view .LVU198
 965              		.loc 1 305 19 is_stmt 0 view .LVU199
 966 0014 0320     		movs	r0, #3
 967 0016 FFF7FEFF 		bl	SensorValue2length
 968              	.LVL82:
 969 001a 55EC104B 		vmov	r4, r5, d0
 970              	.LVL83:
 306:Src/adjust.c  **** 
 307:Src/adjust.c  **** 	//åå·®å–å¾—
 308:Src/adjust.c  **** 	front_sensor_l_err = front_sensor_l - front_sensor_l_ref ;
 971              		.loc 1 308 2 is_stmt 1 view .LVU200
 972              		.loc 1 308 21 is_stmt 0 view .LVU201
 973 001e 74A3     		adr	r3, .L79+72
 974 0020 D3E90023 		ldrd	r2, [r3]
 975 0024 3046     		mov	r0, r6
 976 0026 3946     		mov	r1, r7
 977 0028 FFF7FEFF 		bl	__aeabi_dsub
 978              	.LVL84:
 979 002c 0646     		mov	r6, r0
 980              	.LVL85:
 981              		.loc 1 308 21 view .LVU202
 982 002e 0F46     		mov	r7, r1
ARM GAS  C:\Temp\cc9KZMEf.s 			page 24


 983              	.LVL86:
 309:Src/adjust.c  **** 	front_sensor_r_err = front_sensor_r - front_sensor_r_ref ;
 984              		.loc 1 309 2 is_stmt 1 view .LVU203
 985              		.loc 1 309 21 is_stmt 0 view .LVU204
 986 0030 71A3     		adr	r3, .L79+80
 987 0032 D3E90023 		ldrd	r2, [r3]
 988 0036 2046     		mov	r0, r4
 989 0038 2946     		mov	r1, r5
 990 003a FFF7FEFF 		bl	__aeabi_dsub
 991              	.LVL87:
 992 003e 0446     		mov	r4, r0
 993              	.LVL88:
 994              		.loc 1 309 21 view .LVU205
 995 0040 0D46     		mov	r5, r1
 996              	.LVL89:
 310:Src/adjust.c  **** 
 311:Src/adjust.c  **** 	/* åå·®å¤‰æ›*/
 312:Src/adjust.c  **** 	front_sensor_move_err = front_sensor_r_err + front_sensor_l_err;
 997              		.loc 1 312 2 is_stmt 1 view .LVU206
 998              		.loc 1 312 24 is_stmt 0 view .LVU207
 999 0042 0246     		mov	r2, r0
 1000 0044 0B46     		mov	r3, r1
 1001 0046 3046     		mov	r0, r6
 1002 0048 3946     		mov	r1, r7
 1003 004a FFF7FEFF 		bl	__aeabi_dadd
 1004              	.LVL90:
 1005 004e 8046     		mov	r8, r0
 1006 0050 8946     		mov	r9, r1
 1007              	.LVL91:
 313:Src/adjust.c  **** 	front_sensor_rotate_err = (front_sensor_r_err - front_sensor_l_err)/chassis_width; //è§’åº¦ã«å¤‰æ
 1008              		.loc 1 313 2 is_stmt 1 view .LVU208
 1009              		.loc 1 313 48 is_stmt 0 view .LVU209
 1010 0052 3246     		mov	r2, r6
 1011 0054 3B46     		mov	r3, r7
 1012 0056 2046     		mov	r0, r4
 1013 0058 2946     		mov	r1, r5
 1014 005a FFF7FEFF 		bl	__aeabi_dsub
 1015              	.LVL92:
 1016              		.loc 1 313 26 view .LVU210
 1017 005e 68A3     		adr	r3, .L79+88
 1018 0060 D3E90023 		ldrd	r2, [r3]
 1019 0064 FFF7FEFF 		bl	__aeabi_ddiv
 1020              	.LVL93:
 1021 0068 0646     		mov	r6, r0
 1022              	.LVL94:
 1023              		.loc 1 313 26 view .LVU211
 1024 006a 0F46     		mov	r7, r1
 1025              	.LVL95:
 314:Src/adjust.c  **** 
 315:Src/adjust.c  **** 	/*åå·®ç©åˆ†(Ié …)*/
 316:Src/adjust.c  **** 	front_sensor_move_err_I  += front_sensor_move_KI * 0.001 * front_sensor_move_err;
 1026              		.loc 1 316 2 is_stmt 1 view .LVU212
 1027              		.loc 1 316 59 is_stmt 0 view .LVU213
 1028 006c 66A3     		adr	r3, .L79+96
 1029 006e D3E90023 		ldrd	r2, [r3]
 1030 0072 4046     		mov	r0, r8
 1031 0074 4946     		mov	r1, r9
ARM GAS  C:\Temp\cc9KZMEf.s 			page 25


 1032 0076 FFF7FEFF 		bl	__aeabi_dmul
 1033              	.LVL96:
 1034              		.loc 1 316 27 view .LVU214
 1035 007a 594C     		ldr	r4, .L79+56
 1036              	.LVL97:
 1037              		.loc 1 316 27 view .LVU215
 1038 007c D4E90023 		ldrd	r2, [r4]
 1039 0080 FFF7FEFF 		bl	__aeabi_dadd
 1040              	.LVL98:
 1041 0084 41EC1B0B 		vmov	d11, r0, r1
 1042 0088 C4E90001 		strd	r0, [r4]
 317:Src/adjust.c  **** 	front_sensor_rotate_err_I  += front_sensor_rotate_KI * 0.001 * front_sensor_rotate_err;
 1043              		.loc 1 317 2 is_stmt 1 view .LVU216
 1044              		.loc 1 317 63 is_stmt 0 view .LVU217
 1045 008c 46A3     		adr	r3, .L79
 1046 008e D3E90023 		ldrd	r2, [r3]
 1047 0092 3046     		mov	r0, r6
 1048 0094 3946     		mov	r1, r7
 1049 0096 FFF7FEFF 		bl	__aeabi_dmul
 1050              	.LVL99:
 1051              		.loc 1 317 29 view .LVU218
 1052 009a 524C     		ldr	r4, .L79+60
 1053 009c D4E90023 		ldrd	r2, [r4]
 1054 00a0 FFF7FEFF 		bl	__aeabi_dadd
 1055              	.LVL100:
 1056 00a4 41EC1A0B 		vmov	d10, r0, r1
 1057 00a8 C4E90001 		strd	r0, [r4]
 318:Src/adjust.c  **** 	/*Pé …*/
 319:Src/adjust.c  **** 	front_sensor_move_err_P = front_sensor_move_KP * front_sensor_move_err;
 1058              		.loc 1 319 2 is_stmt 1 view .LVU219
 1059              		.loc 1 319 26 is_stmt 0 view .LVU220
 1060 00ac 40A3     		adr	r3, .L79+8
 1061 00ae D3E90023 		ldrd	r2, [r3]
 1062 00b2 4046     		mov	r0, r8
 1063 00b4 4946     		mov	r1, r9
 1064 00b6 FFF7FEFF 		bl	__aeabi_dmul
 1065              	.LVL101:
 1066 00ba 0446     		mov	r4, r0
 1067 00bc 0D46     		mov	r5, r1
 1068              	.LVL102:
 320:Src/adjust.c  **** 	front_sensor_rotate_err_P = front_sensor_rotate_KP * front_sensor_rotate_err;
 1069              		.loc 1 320 2 is_stmt 1 view .LVU221
 1070              		.loc 1 320 28 is_stmt 0 view .LVU222
 1071 00be 3EA3     		adr	r3, .L79+16
 1072 00c0 D3E90023 		ldrd	r2, [r3]
 1073 00c4 3046     		mov	r0, r6
 1074 00c6 3946     		mov	r1, r7
 1075 00c8 FFF7FEFF 		bl	__aeabi_dmul
 1076              	.LVL103:
 1077 00cc CDE90201 		strd	r0, [sp, #8]
 1078              	.LVL104:
 321:Src/adjust.c  **** 	/*Dé …*/
 322:Src/adjust.c  **** 	front_sensor_move_err_D = (front_sensor_move_D_prev + front_sensor_move_KD * front_sensor_move_fil
 1079              		.loc 1 322 2 is_stmt 1 view .LVU223
 1080              		.loc 1 322 126 is_stmt 0 view .LVU224
 1081 00d0 DFF83CB1 		ldr	fp, .L79+104
 1082 00d4 DBE90023 		ldrd	r2, [fp]
ARM GAS  C:\Temp\cc9KZMEf.s 			page 26


 1083 00d8 CDE90089 		strd	r8, [sp]
 1084 00dc 4046     		mov	r0, r8
 1085              	.LVL105:
 1086              		.loc 1 322 126 view .LVU225
 1087 00de 4946     		mov	r1, r9
 1088 00e0 FFF7FEFF 		bl	__aeabi_dsub
 1089              	.LVL106:
 1090              		.loc 1 322 101 view .LVU226
 1091 00e4 36A3     		adr	r3, .L79+24
 1092 00e6 D3E90023 		ldrd	r2, [r3]
 1093 00ea FFF7FEFF 		bl	__aeabi_dmul
 1094              	.LVL107:
 1095              		.loc 1 322 54 view .LVU227
 1096 00ee DFF82491 		ldr	r9, .L79+108
 1097 00f2 D9E90023 		ldrd	r2, [r9]
 1098 00f6 FFF7FEFF 		bl	__aeabi_dadd
 1099              	.LVL108:
 1100              		.loc 1 322 26 view .LVU228
 1101 00fa 33A3     		adr	r3, .L79+32
 1102 00fc D3E90023 		ldrd	r2, [r3]
 1103 0100 FFF7FEFF 		bl	__aeabi_ddiv
 1104              	.LVL109:
 1105 0104 41EC190B 		vmov	d9, r0, r1
 1106              	.LVL110:
 323:Src/adjust.c  **** 								/(1+front_sensor_move_fil*0.001);
 324:Src/adjust.c  **** 	front_sensor_rotate_err_D = (front_sensor_rotate_D_prev + front_sensor_rotate_KD * front_sensor_ro
 1107              		.loc 1 324 2 is_stmt 1 view .LVU229
 1108              		.loc 1 324 136 is_stmt 0 view .LVU230
 1109 0108 DFF80CA1 		ldr	r10, .L79+112
 1110 010c DAE90023 		ldrd	r2, [r10]
 1111 0110 3046     		mov	r0, r6
 1112              	.LVL111:
 1113              		.loc 1 324 136 view .LVU231
 1114 0112 3946     		mov	r1, r7
 1115 0114 FFF7FEFF 		bl	__aeabi_dsub
 1116              	.LVL112:
 1117              		.loc 1 324 109 view .LVU232
 1118 0118 2DA3     		adr	r3, .L79+40
 1119 011a D3E90023 		ldrd	r2, [r3]
 1120 011e FFF7FEFF 		bl	__aeabi_dmul
 1121              	.LVL113:
 1122              		.loc 1 324 58 view .LVU233
 1123 0122 DFF8F880 		ldr	r8, .L79+116
 1124              	.LVL114:
 1125              		.loc 1 324 58 view .LVU234
 1126 0126 D8E90023 		ldrd	r2, [r8]
 1127 012a FFF7FEFF 		bl	__aeabi_dadd
 1128              	.LVL115:
 1129              		.loc 1 324 28 view .LVU235
 1130 012e 2AA3     		adr	r3, .L79+48
 1131 0130 D3E90023 		ldrd	r2, [r3]
 1132 0134 FFF7FEFF 		bl	__aeabi_ddiv
 1133              	.LVL116:
 1134 0138 41EC180B 		vmov	d8, r0, r1
 1135              	.LVL117:
 325:Src/adjust.c  **** 								/(1+front_sensor_rotate_fil*0.001);
 326:Src/adjust.c  **** 	/*PID*/
ARM GAS  C:\Temp\cc9KZMEf.s 			page 27


 327:Src/adjust.c  **** 	front_sensor_move_PID = front_sensor_move_err_P + front_sensor_move_err_I + front_sensor_move_err_
 1136              		.loc 1 327 2 is_stmt 1 view .LVU236
 1137              		.loc 1 327 50 is_stmt 0 view .LVU237
 1138 013c 2246     		mov	r2, r4
 1139 013e 2B46     		mov	r3, r5
 1140 0140 51EC1B0B 		vmov	r0, r1, d11
 1141              	.LVL118:
 1142              		.loc 1 327 50 view .LVU238
 1143 0144 FFF7FEFF 		bl	__aeabi_dadd
 1144              	.LVL119:
 1145              		.loc 1 327 24 view .LVU239
 1146 0148 53EC192B 		vmov	r2, r3, d9
 1147 014c FFF7FEFF 		bl	__aeabi_dadd
 1148              	.LVL120:
 1149 0150 CDE90401 		strd	r0, [sp, #16]
 1150              	.LVL121:
 328:Src/adjust.c  ****     front_sensor_rotate_PID = front_sensor_rotate_err_P + front_sensor_rotate_err_I + front_sensor_
 1151              		.loc 1 328 5 is_stmt 1 view .LVU240
 1152              		.loc 1 328 57 is_stmt 0 view .LVU241
 1153 0154 DDE90223 		ldrd	r2, [sp, #8]
 1154 0158 51EC1A0B 		vmov	r0, r1, d10
 1155              	.LVL122:
 1156              		.loc 1 328 57 view .LVU242
 1157 015c FFF7FEFF 		bl	__aeabi_dadd
 1158              	.LVL123:
 1159              		.loc 1 328 29 view .LVU243
 1160 0160 53EC182B 		vmov	r2, r3, d8
 1161 0164 FFF7FEFF 		bl	__aeabi_dadd
 1162              	.LVL124:
 1163 0168 0446     		mov	r4, r0
 1164              	.LVL125:
 1165              		.loc 1 328 29 view .LVU244
 1166 016a 0D46     		mov	r5, r1
 1167              	.LVL126:
 329:Src/adjust.c  **** 
 330:Src/adjust.c  ****     /*å°åŠ é›»åœ§ç®—å‡º*/
 331:Src/adjust.c  **** 	target_vol_sum_frontwall = front_sensor_move_PID;
 1168              		.loc 1 331 2 is_stmt 1 view .LVU245
 1169              		.loc 1 331 27 is_stmt 0 view .LVU246
 1170 016c DDE90401 		ldrd	r0, [sp, #16]
 1171 0170 FFF7FEFF 		bl	__aeabi_d2f
 1172              	.LVL127:
 1173 0174 1C4B     		ldr	r3, .L79+64
 1174 0176 1860     		str	r0, [r3]	@ float
 332:Src/adjust.c  **** 	target_vol_diff_frontwall = front_sensor_rotate_PID;
 1175              		.loc 1 332 2 is_stmt 1 view .LVU247
 1176              		.loc 1 332 28 is_stmt 0 view .LVU248
 1177 0178 2046     		mov	r0, r4
 1178 017a 2946     		mov	r1, r5
 1179 017c FFF7FEFF 		bl	__aeabi_d2f
 1180              	.LVL128:
 1181 0180 1A4B     		ldr	r3, .L79+68
 1182 0182 1860     		str	r0, [r3]	@ float
 333:Src/adjust.c  **** 
 334:Src/adjust.c  **** 	/*ãƒ‘ãƒ©ãƒ¡ãƒ¼ã‚¿æ›´æ–°*/
 335:Src/adjust.c  ****     front_sensor_move_err_prev = front_sensor_move_err;   	
 1183              		.loc 1 335 5 is_stmt 1 view .LVU249
ARM GAS  C:\Temp\cc9KZMEf.s 			page 28


 1184              		.loc 1 335 32 is_stmt 0 view .LVU250
 1185 0184 9DED007B 		vldr.64	d7, [sp]
 1186 0188 8BED007B 		vstr.64	d7, [fp]
 336:Src/adjust.c  **** 	front_sensor_rotate_err_prev = front_sensor_rotate_err; 
 1187              		.loc 1 336 2 is_stmt 1 view .LVU251
 1188              		.loc 1 336 31 is_stmt 0 view .LVU252
 1189 018c CAE90067 		strd	r6, [r10]
 337:Src/adjust.c  ****     front_sensor_move_D_prev = front_sensor_move_err_D;		
 1190              		.loc 1 337 5 is_stmt 1 view .LVU253
 1191              		.loc 1 337 30 is_stmt 0 view .LVU254
 1192 0190 89ED009B 		vstr.64	d9, [r9]
 338:Src/adjust.c  ****     front_sensor_rotate_D_prev = front_sensor_rotate_err_D;
 1193              		.loc 1 338 5 is_stmt 1 view .LVU255
 1194              		.loc 1 338 32 is_stmt 0 view .LVU256
 1195 0194 88ED008B 		vstr.64	d8, [r8]
 339:Src/adjust.c  **** 
 340:Src/adjust.c  **** }
 1196              		.loc 1 340 1 view .LVU257
 1197 0198 07B0     		add	sp, sp, #28
 1198              	.LCFI15:
 1199              		.cfi_def_cfa_offset 68
 1200              	.LVL129:
 1201              		.loc 1 340 1 view .LVU258
 1202              		@ sp needed
 1203 019a BDEC088B 		vldm	sp!, {d8-d11}
 1204              	.LCFI16:
 1205              		.cfi_restore 86
 1206              		.cfi_restore 87
 1207              		.cfi_restore 84
 1208              		.cfi_restore 85
 1209              		.cfi_restore 82
 1210              		.cfi_restore 83
 1211              		.cfi_restore 80
 1212              		.cfi_restore 81
 1213              		.cfi_def_cfa_offset 36
 1214              	.LVL130:
 1215              		.loc 1 340 1 view .LVU259
 1216 019e BDE8F08F 		pop	{r4, r5, r6, r7, r8, r9, r10, fp, pc}
 1217              	.LVL131:
 1218              	.L80:
 1219              		.loc 1 340 1 view .LVU260
 1220 01a2 00BFAFF3 		.align	3
 1220      0080
 1221              	.L79:
 1222 01a8 60E5D022 		.word	584115552
 1223 01ac 9BA5643F 		.word	1063560603
 1224 01b0 00000000 		.word	0
 1225 01b4 631A5F40 		.word	1079974499
 1226 01b8 000000E0 		.word	-536870912
 1227 01bc 8A9E1940 		.word	1075420810
 1228 01c0 00000060 		.word	1610612736
 1229 01c4 A2AB5340 		.word	1079225250
 1230 01c8 C1CAA185 		.word	-2052994367
 1231 01cc 2062F03F 		.word	1072718368
 1232 01d0 00000000 		.word	0
 1233 01d4 236C2240 		.word	1075997731
 1234 01d8 7368916D 		.word	1838246003
ARM GAS  C:\Temp\cc9KZMEf.s 			page 29


 1235 01dc 81B6F03F 		.word	1072739969
 1236 01e0 00000000 		.word	.LANCHOR11
 1237 01e4 00000000 		.word	.LANCHOR12
 1238 01e8 00000000 		.word	.LANCHOR17
 1239 01ec 00000000 		.word	.LANCHOR18
 1240 01f0 00000060 		.word	1610612736
 1241 01f4 BC74833F 		.word	1065579708
 1242 01f8 000000E0 		.word	-536870912
 1243 01fc 4F8D873F 		.word	1065848143
 1244 0200 000000E0 		.word	-536870912
 1245 0204 BED5A23F 		.word	1067636158
 1246 0208 08AC1C5A 		.word	1511828488
 1247 020c D4DF9A3F 		.word	1067114452
 1248 0210 00000000 		.word	.LANCHOR13
 1249 0214 00000000 		.word	.LANCHOR14
 1250 0218 00000000 		.word	.LANCHOR15
 1251 021c 00000000 		.word	.LANCHOR16
 1252              		.cfi_endproc
 1253              	.LFE15:
 1255              		.section	.text.get_target_vol_sum_frontwall,"ax",%progbits
 1256              		.align	1
 1257              		.global	get_target_vol_sum_frontwall
 1258              		.syntax unified
 1259              		.thumb
 1260              		.thumb_func
 1261              		.fpu fpv4-sp-d16
 1263              	get_target_vol_sum_frontwall:
 1264              	.LFB16:
 341:Src/adjust.c  **** 
 342:Src/adjust.c  **** //æ©Ÿèƒ½	: å‰å£è£œæ­£ã«ã‚ˆã‚‹ãƒ¢ãƒ¼ã‚¿å°åŠ é›»åœ§ã®å’Œã‚’å–å¾—ã™ã‚‹
 343:Src/adjust.c  **** //å¼•æ•°	: ãªã—
 344:Src/adjust.c  **** //è¿”ã‚Šå€¤	: å‰å£è£œæ­£ã«ã‚ˆã‚‹å³ãƒ¢ãƒ¼ã‚¿å°åŠ é›»åœ§
 345:Src/adjust.c  **** float get_target_vol_sum_frontwall ( void )
 346:Src/adjust.c  **** {
 1265              		.loc 1 346 1 is_stmt 1 view -0
 1266              		.cfi_startproc
 1267              		@ args = 0, pretend = 0, frame = 0
 1268              		@ frame_needed = 0, uses_anonymous_args = 0
 1269              		@ link register save eliminated.
 347:Src/adjust.c  **** 	return target_vol_sum_frontwall;
 1270              		.loc 1 347 2 view .LVU262
 348:Src/adjust.c  **** }
 1271              		.loc 1 348 1 is_stmt 0 view .LVU263
 1272 0000 014B     		ldr	r3, .L82
 1273 0002 93ED000A 		vldr.32	s0, [r3]
 1274 0006 7047     		bx	lr
 1275              	.L83:
 1276              		.align	2
 1277              	.L82:
 1278 0008 00000000 		.word	.LANCHOR17
 1279              		.cfi_endproc
 1280              	.LFE16:
 1282              		.section	.text.get_target_vol_diff_frontwall,"ax",%progbits
 1283              		.align	1
 1284              		.global	get_target_vol_diff_frontwall
 1285              		.syntax unified
 1286              		.thumb
ARM GAS  C:\Temp\cc9KZMEf.s 			page 30


 1287              		.thumb_func
 1288              		.fpu fpv4-sp-d16
 1290              	get_target_vol_diff_frontwall:
 1291              	.LFB17:
 349:Src/adjust.c  **** 
 350:Src/adjust.c  **** //æ©Ÿèƒ½	: å‰å£è£œæ­£ã«ã‚ˆã‚‹ãƒ¢ãƒ¼ã‚¿å°åŠ é›»åœ§ã®å·®ã‚’å–å¾—ã™ã‚‹
 351:Src/adjust.c  **** //å¼•æ•°	: ãªã—
 352:Src/adjust.c  **** //è¿”ã‚Šå€¤	: å‰å£è£œæ­£ã«ã‚ˆã‚‹å³ãƒ¢ãƒ¼ã‚¿å°åŠ é›»åœ§
 353:Src/adjust.c  **** float get_target_vol_diff_frontwall ( void )
 354:Src/adjust.c  **** {
 1292              		.loc 1 354 1 is_stmt 1 view -0
 1293              		.cfi_startproc
 1294              		@ args = 0, pretend = 0, frame = 0
 1295              		@ frame_needed = 0, uses_anonymous_args = 0
 1296              		@ link register save eliminated.
 355:Src/adjust.c  **** 	return target_vol_diff_frontwall;
 1297              		.loc 1 355 2 view .LVU265
 356:Src/adjust.c  **** }
 1298              		.loc 1 356 1 is_stmt 0 view .LVU266
 1299 0000 014B     		ldr	r3, .L85
 1300 0002 93ED000A 		vldr.32	s0, [r3]
 1301 0006 7047     		bx	lr
 1302              	.L86:
 1303              		.align	2
 1304              	.L85:
 1305 0008 00000000 		.word	.LANCHOR18
 1306              		.cfi_endproc
 1307              	.LFE17:
 1309              		.section	.text.clr_frontwall_operate_history,"ax",%progbits
 1310              		.align	1
 1311              		.global	clr_frontwall_operate_history
 1312              		.syntax unified
 1313              		.thumb
 1314              		.thumb_func
 1315              		.fpu fpv4-sp-d16
 1317              	clr_frontwall_operate_history:
 1318              	.LFB18:
 357:Src/adjust.c  **** 
 358:Src/adjust.c  **** //æ©Ÿèƒ½	: å‰å£åˆ¶å¾¡ã®æ“ä½œå±¥æ­´ã‚’æ¶ˆã™
 359:Src/adjust.c  **** //å¼•æ•°	: ãªã—
 360:Src/adjust.c  **** //è¿”ã‚Šå€¤	: ãªã—
 361:Src/adjust.c  **** void clr_frontwall_operate_history ( void )
 362:Src/adjust.c  **** {
 1319              		.loc 1 362 1 is_stmt 1 view -0
 1320              		.cfi_startproc
 1321              		@ args = 0, pretend = 0, frame = 0
 1322              		@ frame_needed = 0, uses_anonymous_args = 0
 1323              		@ link register save eliminated.
 363:Src/adjust.c  **** 	front_sensor_move_err_I = 0;   		
 1324              		.loc 1 363 2 view .LVU268
 1325              		.loc 1 363 26 is_stmt 0 view .LVU269
 1326 0000 0022     		movs	r2, #0
 1327 0002 0023     		movs	r3, #0
 1328 0004 0949     		ldr	r1, .L88
 1329 0006 C1E90023 		strd	r2, [r1]
 364:Src/adjust.c  **** 	front_sensor_rotate_err_I = 0; 	  	
 1330              		.loc 1 364 2 is_stmt 1 view .LVU270
ARM GAS  C:\Temp\cc9KZMEf.s 			page 31


 1331              		.loc 1 364 28 is_stmt 0 view .LVU271
 1332 000a 0949     		ldr	r1, .L88+4
 1333 000c C1E90023 		strd	r2, [r1]
 365:Src/adjust.c  **** 	front_sensor_move_err_prev = 0;	   	
 1334              		.loc 1 365 2 is_stmt 1 view .LVU272
 1335              		.loc 1 365 29 is_stmt 0 view .LVU273
 1336 0010 0849     		ldr	r1, .L88+8
 1337 0012 C1E90023 		strd	r2, [r1]
 366:Src/adjust.c  **** 	front_sensor_rotate_err_prev = 0; 	
 1338              		.loc 1 366 2 is_stmt 1 view .LVU274
 1339              		.loc 1 366 31 is_stmt 0 view .LVU275
 1340 0016 0849     		ldr	r1, .L88+12
 1341 0018 C1E90023 		strd	r2, [r1]
 367:Src/adjust.c  **** 	front_sensor_move_D_prev = 0; 		
 1342              		.loc 1 367 2 is_stmt 1 view .LVU276
 1343              		.loc 1 367 27 is_stmt 0 view .LVU277
 1344 001c 0749     		ldr	r1, .L88+16
 1345 001e C1E90023 		strd	r2, [r1]
 368:Src/adjust.c  **** 	front_sensor_rotate_D_prev = 0;	   	
 1346              		.loc 1 368 2 is_stmt 1 view .LVU278
 1347              		.loc 1 368 29 is_stmt 0 view .LVU279
 1348 0022 0749     		ldr	r1, .L88+20
 1349 0024 C1E90023 		strd	r2, [r1]
 369:Src/adjust.c  **** }
 1350              		.loc 1 369 1 view .LVU280
 1351 0028 7047     		bx	lr
 1352              	.L89:
 1353 002a 00BF     		.align	2
 1354              	.L88:
 1355 002c 00000000 		.word	.LANCHOR11
 1356 0030 00000000 		.word	.LANCHOR12
 1357 0034 00000000 		.word	.LANCHOR13
 1358 0038 00000000 		.word	.LANCHOR15
 1359 003c 00000000 		.word	.LANCHOR14
 1360 0040 00000000 		.word	.LANCHOR16
 1361              		.cfi_endproc
 1362              	.LFE18:
 1364              		.section	.text.fornt_wall_calibrate,"ax",%progbits
 1365              		.align	1
 1366              		.global	fornt_wall_calibrate
 1367              		.syntax unified
 1368              		.thumb
 1369              		.thumb_func
 1370              		.fpu fpv4-sp-d16
 1372              	fornt_wall_calibrate:
 1373              	.LFB19:
 370:Src/adjust.c  **** 
 371:Src/adjust.c  **** 
 372:Src/adjust.c  **** ////////////////////////////////////////
 373:Src/adjust.c  **** /* ãƒã‚¦ã‚¹ä½ç½®è£œæ­£é–¢æ•°		ã€€			*/
 374:Src/adjust.c  **** /* å£ã‚’ä½¿ã£ãŸä½ç½®ã®è£œæ­£ç”¨é–¢æ•°			*/
 375:Src/adjust.c  **** ////////////////////////////////////////
 376:Src/adjust.c  **** 
 377:Src/adjust.c  **** /* memo:å‰å£è£œæ­£
 378:Src/adjust.c  ****  * param:
 379:Src/adjust.c  ****  *  * */
 380:Src/adjust.c  **** void fornt_wall_calibrate (void)
ARM GAS  C:\Temp\cc9KZMEf.s 			page 32


 381:Src/adjust.c  **** {
 1374              		.loc 1 381 1 is_stmt 1 view -0
 1375              		.cfi_startproc
 1376              		@ args = 0, pretend = 0, frame = 0
 1377              		@ frame_needed = 0, uses_anonymous_args = 0
 1378 0000 F8B5     		push	{r3, r4, r5, r6, r7, lr}
 1379              	.LCFI17:
 1380              		.cfi_def_cfa_offset 24
 1381              		.cfi_offset 3, -24
 1382              		.cfi_offset 4, -20
 1383              		.cfi_offset 5, -16
 1384              		.cfi_offset 6, -12
 1385              		.cfi_offset 7, -8
 1386              		.cfi_offset 14, -4
 382:Src/adjust.c  **** 	double temp_r;
 1387              		.loc 1 382 2 view .LVU282
 383:Src/adjust.c  **** 	double temp_l;
 1388              		.loc 1 383 2 view .LVU283
 384:Src/adjust.c  **** 	double temp;
 1389              		.loc 1 384 2 view .LVU284
 385:Src/adjust.c  **** 
 386:Src/adjust.c  **** 	set_mode_ctrl(front_wall); 		//åˆ¶å¾¡ãƒ¢ãƒ¼ãƒ‰ã‚’å‰å£è£œæ­£ãƒ¢ãƒ¼ãƒ‰ã«
 1390              		.loc 1 386 2 view .LVU285
 1391 0002 0120     		movs	r0, #1
 1392 0004 FFF7FEFF 		bl	set_mode_ctrl
 1393              	.LVL132:
 387:Src/adjust.c  **** 	fornt_wall_calibrate_tim = 0; 	//å‰å£åˆ¶å¾¡ç”¨ã‚¿ã‚¤ãƒã‚’åˆæœŸåŒ–
 1394              		.loc 1 387 2 view .LVU286
 1395              		.loc 1 387 27 is_stmt 0 view .LVU287
 1396 0008 454B     		ldr	r3, .L113+24
 1397 000a 0022     		movs	r2, #0
 1398 000c 1A80     		strh	r2, [r3]	@ movhi
 1399 000e 22E0     		b	.L101
 1400              	.L110:
 388:Src/adjust.c  **** 
 389:Src/adjust.c  **** 	while(1)
 390:Src/adjust.c  **** 	{
 391:Src/adjust.c  **** 		//åå·®å–å¾—
 392:Src/adjust.c  **** 		temp_r = ABS(front_sensor_r_ref - SensorValue2length(3));
 1401              		.loc 1 392 12 discriminator 1 view .LVU288
 1402 0010 0320     		movs	r0, #3
 1403 0012 FFF7FEFF 		bl	SensorValue2length
 1404              	.LVL133:
 1405 0016 53EC102B 		vmov	r2, r3, d0
 1406 001a 3BA1     		adr	r1, .L113
 1407 001c D1E90001 		ldrd	r0, [r1]
 1408 0020 FFF7FEFF 		bl	__aeabi_dsub
 1409              	.LVL134:
 1410 0024 0646     		mov	r6, r0
 1411 0026 01F10047 		add	r7, r1, #-2147483648
 1412 002a 30E0     		b	.L93
 1413              	.LVL135:
 1414              	.L111:
 393:Src/adjust.c  **** 		temp_l = ABS(front_sensor_l_ref - SensorValue2length(0));
 1415              		.loc 1 393 12 discriminator 1 view .LVU289
 1416 002c 0020     		movs	r0, #0
 1417 002e FFF7FEFF 		bl	SensorValue2length
ARM GAS  C:\Temp\cc9KZMEf.s 			page 33


 1418              	.LVL136:
 1419 0032 53EC102B 		vmov	r2, r3, d0
 1420 0036 36A1     		adr	r1, .L113+8
 1421 0038 D1E90001 		ldrd	r0, [r1]
 1422 003c FFF7FEFF 		bl	__aeabi_dsub
 1423              	.LVL137:
 1424 0040 0446     		mov	r4, r0
 1425 0042 01F10045 		add	r5, r1, #-2147483648
 1426 0046 3EE0     		b	.L96
 1427              	.LVL138:
 1428              	.L112:
 394:Src/adjust.c  **** 		//åå·®ã®æœ€å¤§å€¤å–å¾—
 395:Src/adjust.c  **** 		temp = MAX(temp_r,temp_l);
 396:Src/adjust.c  **** 		//ã‚»ãƒ³ã‚µå€¤ãŒåŸºæº–ã‚ˆã‚Šå·®ã‚’æŒã¤ã¨ãã€ã‚¿ã‚¤ãƒã‚’ãƒªã‚»ãƒƒãƒˆ
 397:Src/adjust.c  **** 		if(temp > front_sensor_th)
 398:Src/adjust.c  **** 		{
 399:Src/adjust.c  **** 		 fornt_wall_calibrate_tim = 0;
 1429              		.loc 1 399 4 is_stmt 1 view .LVU290
 1430              		.loc 1 399 29 is_stmt 0 view .LVU291
 1431 0048 354B     		ldr	r3, .L113+24
 1432 004a 0022     		movs	r2, #0
 1433 004c 1A80     		strh	r2, [r3]	@ movhi
 1434              	.L99:
 400:Src/adjust.c  **** 		}
 401:Src/adjust.c  **** 		//ã‚­ãƒ£ãƒªãƒ–ãƒ¬ãƒ¼ã‚·ãƒ§ãƒ³æ™‚é–“ã‚’è¶…ãˆã‚‹ã¨ãã€ãƒ–ãƒ¬ã‚¤ã‚¯
 402:Src/adjust.c  **** 		if(fornt_wall_calibrate_tim >= calib_tim )
 1435              		.loc 1 402 3 is_stmt 1 view .LVU292
 1436              		.loc 1 402 31 is_stmt 0 view .LVU293
 1437 004e 344B     		ldr	r3, .L113+24
 1438 0050 1B88     		ldrh	r3, [r3]
 1439              		.loc 1 402 5 view .LVU294
 1440 0052 632B     		cmp	r3, #99
 1441 0054 4AD8     		bhi	.L109
 1442              	.LVL139:
 1443              	.L101:
 389:Src/adjust.c  **** 	{
 1444              		.loc 1 389 2 is_stmt 1 view .LVU295
 392:Src/adjust.c  **** 		temp_l = ABS(front_sensor_l_ref - SensorValue2length(0));
 1445              		.loc 1 392 3 view .LVU296
 392:Src/adjust.c  **** 		temp_l = ABS(front_sensor_l_ref - SensorValue2length(0));
 1446              		.loc 1 392 12 is_stmt 0 view .LVU297
 1447 0056 0320     		movs	r0, #3
 1448 0058 FFF7FEFF 		bl	SensorValue2length
 1449              	.LVL140:
 1450 005c 53EC102B 		vmov	r2, r3, d0
 1451 0060 29A1     		adr	r1, .L113
 1452 0062 D1E90001 		ldrd	r0, [r1]
 1453 0066 FFF7FEFF 		bl	__aeabi_dsub
 1454              	.LVL141:
 1455 006a 0022     		movs	r2, #0
 1456 006c 0023     		movs	r3, #0
 1457 006e FFF7FEFF 		bl	__aeabi_dcmplt
 1458              	.LVL142:
 1459 0072 0028     		cmp	r0, #0
 1460 0074 CCD1     		bne	.L110
 392:Src/adjust.c  **** 		temp_l = ABS(front_sensor_l_ref - SensorValue2length(0));
 1461              		.loc 1 392 12 discriminator 2 view .LVU298
ARM GAS  C:\Temp\cc9KZMEf.s 			page 34


 1462 0076 0320     		movs	r0, #3
 1463 0078 FFF7FEFF 		bl	SensorValue2length
 1464              	.LVL143:
 1465 007c 53EC102B 		vmov	r2, r3, d0
 1466 0080 21A1     		adr	r1, .L113
 1467 0082 D1E90001 		ldrd	r0, [r1]
 1468 0086 FFF7FEFF 		bl	__aeabi_dsub
 1469              	.LVL144:
 1470 008a 0646     		mov	r6, r0
 1471 008c 0F46     		mov	r7, r1
 1472              	.L93:
 1473              	.LVL145:
 393:Src/adjust.c  **** 		//åå·®ã®æœ€å¤§å€¤å–å¾—
 1474              		.loc 1 393 3 is_stmt 1 discriminator 4 view .LVU299
 393:Src/adjust.c  **** 		//åå·®ã®æœ€å¤§å€¤å–å¾—
 1475              		.loc 1 393 12 is_stmt 0 discriminator 4 view .LVU300
 1476 008e 0020     		movs	r0, #0
 1477 0090 FFF7FEFF 		bl	SensorValue2length
 1478              	.LVL146:
 1479 0094 53EC102B 		vmov	r2, r3, d0
 1480 0098 1DA1     		adr	r1, .L113+8
 1481 009a D1E90001 		ldrd	r0, [r1]
 1482 009e FFF7FEFF 		bl	__aeabi_dsub
 1483              	.LVL147:
 1484 00a2 0022     		movs	r2, #0
 1485 00a4 0023     		movs	r3, #0
 1486 00a6 FFF7FEFF 		bl	__aeabi_dcmplt
 1487              	.LVL148:
 1488 00aa 0028     		cmp	r0, #0
 1489 00ac BED1     		bne	.L111
 393:Src/adjust.c  **** 		//åå·®ã®æœ€å¤§å€¤å–å¾—
 1490              		.loc 1 393 12 discriminator 2 view .LVU301
 1491 00ae 0020     		movs	r0, #0
 1492 00b0 FFF7FEFF 		bl	SensorValue2length
 1493              	.LVL149:
 1494 00b4 53EC102B 		vmov	r2, r3, d0
 1495 00b8 15A1     		adr	r1, .L113+8
 1496 00ba D1E90001 		ldrd	r0, [r1]
 1497 00be FFF7FEFF 		bl	__aeabi_dsub
 1498              	.LVL150:
 1499 00c2 0446     		mov	r4, r0
 1500 00c4 0D46     		mov	r5, r1
 1501              	.L96:
 1502              	.LVL151:
 395:Src/adjust.c  **** 		//ã‚»ãƒ³ã‚µå€¤ãŒåŸºæº–ã‚ˆã‚Šå·®ã‚’æŒã¤ã¨ãã€ã‚¿ã‚¤ãƒã‚’ãƒªã‚»ãƒƒãƒˆ
 1503              		.loc 1 395 3 is_stmt 1 discriminator 4 view .LVU302
 395:Src/adjust.c  **** 		//ã‚»ãƒ³ã‚µå€¤ãŒåŸºæº–ã‚ˆã‚Šå·®ã‚’æŒã¤ã¨ãã€ã‚¿ã‚¤ãƒã‚’ãƒªã‚»ãƒƒãƒˆ
 1504              		.loc 1 395 10 is_stmt 0 discriminator 4 view .LVU303
 1505 00c6 2246     		mov	r2, r4
 1506 00c8 2B46     		mov	r3, r5
 1507 00ca 3046     		mov	r0, r6
 1508 00cc 3946     		mov	r1, r7
 1509 00ce FFF7FEFF 		bl	__aeabi_dcmpgt
 1510              	.LVL152:
 1511 00d2 08B1     		cbz	r0, .L97
 395:Src/adjust.c  **** 		//ã‚»ãƒ³ã‚µå€¤ãŒåŸºæº–ã‚ˆã‚Šå·®ã‚’æŒã¤ã¨ãã€ã‚¿ã‚¤ãƒã‚’ãƒªã‚»ãƒƒãƒˆ
 1512              		.loc 1 395 10 view .LVU304
ARM GAS  C:\Temp\cc9KZMEf.s 			page 35


 1513 00d4 3446     		mov	r4, r6
 1514              	.LVL153:
 395:Src/adjust.c  **** 		//ã‚»ãƒ³ã‚µå€¤ãŒåŸºæº–ã‚ˆã‚Šå·®ã‚’æŒã¤ã¨ãã€ã‚¿ã‚¤ãƒã‚’ãƒªã‚»ãƒƒãƒˆ
 1515              		.loc 1 395 10 view .LVU305
 1516 00d6 3D46     		mov	r5, r7
 1517              	.L97:
 1518              	.LVL154:
 397:Src/adjust.c  **** 		{
 1519              		.loc 1 397 3 is_stmt 1 discriminator 4 view .LVU306
 397:Src/adjust.c  **** 		{
 1520              		.loc 1 397 5 is_stmt 0 discriminator 4 view .LVU307
 1521 00d8 0FA3     		adr	r3, .L113+16
 1522 00da D3E90023 		ldrd	r2, [r3]
 1523 00de 2046     		mov	r0, r4
 1524 00e0 2946     		mov	r1, r5
 1525 00e2 FFF7FEFF 		bl	__aeabi_dcmpgt
 1526              	.LVL155:
 1527 00e6 0028     		cmp	r0, #0
 1528 00e8 B1D0     		beq	.L99
 1529 00ea ADE7     		b	.L112
 1530              	.L109:
 403:Src/adjust.c  **** 		{
 404:Src/adjust.c  **** 		 break;
 405:Src/adjust.c  **** 		}
 406:Src/adjust.c  **** 	}
 407:Src/adjust.c  **** 	//è£œæ­£çµ‚äº†æ™‚ã€ç§»å‹•è·é›¢ã€è§’åº¦ã«ç†æƒ³å€¤ã‚’ä»£å…¥
 408:Src/adjust.c  **** 	set_move_length(get_ideal_length());
 1531              		.loc 1 408 2 is_stmt 1 view .LVU308
 1532 00ec FFF7FEFF 		bl	get_ideal_length
 1533              	.LVL156:
 1534 00f0 FFF7FEFF 		bl	set_move_length
 1535              	.LVL157:
 409:Src/adjust.c  **** 	set_rotation_angle(get_ideal_angle());
 1536              		.loc 1 409 2 view .LVU309
 1537 00f4 FFF7FEFF 		bl	get_ideal_angle
 1538              	.LVL158:
 1539 00f8 FFF7FEFF 		bl	set_rotation_angle
 1540              	.LVL159:
 410:Src/adjust.c  **** 	
 411:Src/adjust.c  **** 	//åˆ¶å¾¡ãƒ¢ãƒ¼ãƒ‰ã‚’è»Œè·¡åˆ¶å¾¡ã«å¤‰æ›´
 412:Src/adjust.c  **** 	set_mode_ctrl(trace);
 1541              		.loc 1 412 2 view .LVU310
 1542 00fc 0020     		movs	r0, #0
 1543 00fe FFF7FEFF 		bl	set_mode_ctrl
 1544              	.LVL160:
 413:Src/adjust.c  **** }
 1545              		.loc 1 413 1 is_stmt 0 view .LVU311
 1546 0102 F8BD     		pop	{r3, r4, r5, r6, r7, pc}
 1547              	.LVL161:
 1548              	.L114:
 1549              		.loc 1 413 1 view .LVU312
 1550 0104 AFF30080 		.align	3
 1551              	.L113:
 1552 0108 000000E0 		.word	-536870912
 1553 010c 4F8D873F 		.word	1065848143
 1554 0110 00000060 		.word	1610612736
 1555 0114 BC74833F 		.word	1065579708
ARM GAS  C:\Temp\cc9KZMEf.s 			page 36


 1556 0118 61325530 		.word	810889825
 1557 011c 2AA9333F 		.word	1060350250
 1558 0120 00000000 		.word	.LANCHOR19
 1559              		.cfi_endproc
 1560              	.LFE19:
 1562              		.section	.text.calibrate_tim,"ax",%progbits
 1563              		.align	1
 1564              		.global	calibrate_tim
 1565              		.syntax unified
 1566              		.thumb
 1567              		.thumb_func
 1568              		.fpu fpv4-sp-d16
 1570              	calibrate_tim:
 1571              	.LFB20:
 414:Src/adjust.c  **** 
 415:Src/adjust.c  **** /* memo:å‰å£è£œæ­£ç”¨ã‚¿ã‚¤ãƒ
 416:Src/adjust.c  ****  * param:
 417:Src/adjust.c  ****  *  * */
 418:Src/adjust.c  **** void calibrate_tim (void){
 1572              		.loc 1 418 26 is_stmt 1 view -0
 1573              		.cfi_startproc
 1574              		@ args = 0, pretend = 0, frame = 0
 1575              		@ frame_needed = 0, uses_anonymous_args = 0
 1576              		@ link register save eliminated.
 419:Src/adjust.c  **** 
 420:Src/adjust.c  **** 	fornt_wall_calibrate_tim += 1;
 1577              		.loc 1 420 2 view .LVU314
 1578              		.loc 1 420 27 is_stmt 0 view .LVU315
 1579 0000 054A     		ldr	r2, .L117
 1580 0002 1388     		ldrh	r3, [r2]
 1581 0004 0133     		adds	r3, r3, #1
 1582 0006 9BB2     		uxth	r3, r3
 1583 0008 1380     		strh	r3, [r2]	@ movhi
 421:Src/adjust.c  **** 
 422:Src/adjust.c  **** 	if(fornt_wall_calibrate_tim > calib_tim){
 1584              		.loc 1 422 2 is_stmt 1 view .LVU316
 1585              		.loc 1 422 4 is_stmt 0 view .LVU317
 1586 000a 642B     		cmp	r3, #100
 1587 000c 02D9     		bls	.L115
 423:Src/adjust.c  **** 		fornt_wall_calibrate_tim = calib_tim;
 1588              		.loc 1 423 3 is_stmt 1 view .LVU318
 1589              		.loc 1 423 28 is_stmt 0 view .LVU319
 1590 000e 1346     		mov	r3, r2
 1591 0010 6422     		movs	r2, #100
 1592 0012 1A80     		strh	r2, [r3]	@ movhi
 1593              	.L115:
 424:Src/adjust.c  **** 	}
 425:Src/adjust.c  **** }
 1594              		.loc 1 425 1 view .LVU320
 1595 0014 7047     		bx	lr
 1596              	.L118:
 1597 0016 00BF     		.align	2
 1598              	.L117:
 1599 0018 00000000 		.word	.LANCHOR19
 1600              		.cfi_endproc
 1601              	.LFE20:
 1603              		.section	.text.adjust_1ms,"ax",%progbits
ARM GAS  C:\Temp\cc9KZMEf.s 			page 37


 1604              		.align	1
 1605              		.global	adjust_1ms
 1606              		.syntax unified
 1607              		.thumb
 1608              		.thumb_func
 1609              		.fpu fpv4-sp-d16
 1611              	adjust_1ms:
 1612              	.LFB3:
  38:Src/adjust.c  **** 	set_target_side_sensor();		//åˆæœŸä½ç½®ã®ã‚»ãƒ³ã‚µå€¤ã‚’æ¨ªå£åˆ¶å¾¡ç›®æ¨™å€¤ã«ã‚»ãƒƒãƒˆ
 1613              		.loc 1 38 1 is_stmt 1 view -0
 1614              		.cfi_startproc
 1615              		@ args = 0, pretend = 0, frame = 0
 1616              		@ frame_needed = 0, uses_anonymous_args = 0
 1617 0000 08B5     		push	{r3, lr}
 1618              	.LCFI18:
 1619              		.cfi_def_cfa_offset 8
 1620              		.cfi_offset 3, -8
 1621              		.cfi_offset 14, -4
  39:Src/adjust.c  **** 	calc_side_wall_ctrl_mode();		//æ¨ªå£è£œæ­£ã®ãƒ¢ãƒ¼ãƒ‰ã‚’æ±ºå®š
 1622              		.loc 1 39 2 view .LVU322
 1623 0002 FFF7FEFF 		bl	set_target_side_sensor
 1624              	.LVL162:
  40:Src/adjust.c  **** 	adjust_theta_side_wall();		//æ¨ªå£è£œæ­£ã®ãƒ¢ãƒ¼ãƒ‰ã«å¿œã˜ã€è»Œè·¡åˆ¶å¾¡ã«ãŠã‘ã‚‹è§’åº¦ã‚’
 1625              		.loc 1 40 2 view .LVU323
 1626 0006 FFF7FEFF 		bl	calc_side_wall_ctrl_mode
 1627              	.LVL163:
  41:Src/adjust.c  **** 	calc_motor_vol_side_wall();		//æ¨ªå£è£œæ­£ã«ãŠã‘ã‚‹å°åŠ é›»åœ§è¨ˆç®—
 1628              		.loc 1 41 2 view .LVU324
  42:Src/adjust.c  **** 	calc_motor_vol_front_wall();	//å‰å£åˆ¶å¾¡ã«ãŠã‘ã‚‹å°åŠ é›»åœ§è¨ˆç®—
 1629              		.loc 1 42 2 view .LVU325
 1630 000a FFF7FEFF 		bl	calc_motor_vol_side_wall
 1631              	.LVL164:
  43:Src/adjust.c  **** 	calibrate_tim();				//å‰å£åˆ¶å¾¡ç”¨ã‚¿ã‚¤ãƒ
 1632              		.loc 1 43 2 view .LVU326
 1633 000e FFF7FEFF 		bl	calc_motor_vol_front_wall
 1634              	.LVL165:
  44:Src/adjust.c  **** }
 1635              		.loc 1 44 2 view .LVU327
 1636 0012 FFF7FEFF 		bl	calibrate_tim
 1637              	.LVL166:
  45:Src/adjust.c  **** 
 1638              		.loc 1 45 1 is_stmt 0 view .LVU328
 1639 0016 08BD     		pop	{r3, pc}
 1640              		.cfi_endproc
 1641              	.LFE3:
 1643              		.section	.bss.ave_counter.7300,"aw",%nobits
 1644              		.align	1
 1645              		.set	.LANCHOR8,. + 0
 1648              	ave_counter.7300:
 1649 0000 0000     		.space	2
 1650              		.section	.bss.ave_store.7299,"aw",%nobits
 1651              		.align	3
 1652              		.set	.LANCHOR9,. + 0
 1655              	ave_store.7299:
 1656 0000 00000000 		.space	160
 1656      00000000 
 1656      00000000 
ARM GAS  C:\Temp\cc9KZMEf.s 			page 38


 1656      00000000 
 1656      00000000 
 1657              		.section	.bss.fornt_wall_calibrate_tim,"aw",%nobits
 1658              		.align	1
 1659              		.set	.LANCHOR19,. + 0
 1662              	fornt_wall_calibrate_tim:
 1663 0000 0000     		.space	2
 1664              		.section	.bss.front_sensor_move_D_prev,"aw",%nobits
 1665              		.align	3
 1666              		.set	.LANCHOR14,. + 0
 1669              	front_sensor_move_D_prev:
 1670 0000 00000000 		.space	8
 1670      00000000 
 1671              		.section	.bss.front_sensor_move_err_I,"aw",%nobits
 1672              		.align	3
 1673              		.set	.LANCHOR11,. + 0
 1676              	front_sensor_move_err_I:
 1677 0000 00000000 		.space	8
 1677      00000000 
 1678              		.section	.bss.front_sensor_move_err_prev,"aw",%nobits
 1679              		.align	3
 1680              		.set	.LANCHOR13,. + 0
 1683              	front_sensor_move_err_prev:
 1684 0000 00000000 		.space	8
 1684      00000000 
 1685              		.section	.bss.front_sensor_rotate_D_prev,"aw",%nobits
 1686              		.align	3
 1687              		.set	.LANCHOR16,. + 0
 1690              	front_sensor_rotate_D_prev:
 1691 0000 00000000 		.space	8
 1691      00000000 
 1692              		.section	.bss.front_sensor_rotate_err_I,"aw",%nobits
 1693              		.align	3
 1694              		.set	.LANCHOR12,. + 0
 1697              	front_sensor_rotate_err_I:
 1698 0000 00000000 		.space	8
 1698      00000000 
 1699              		.section	.bss.front_sensor_rotate_err_prev,"aw",%nobits
 1700              		.align	3
 1701              		.set	.LANCHOR15,. + 0
 1704              	front_sensor_rotate_err_prev:
 1705 0000 00000000 		.space	8
 1705      00000000 
 1706              		.section	.bss.side_sensor_l_old.7288,"aw",%nobits
 1707              		.align	3
 1708              		.set	.LANCHOR6,. + 0
 1711              	side_sensor_l_old.7288:
 1712 0000 00000000 		.space	8
 1712      00000000 
 1713              		.section	.bss.side_sensor_l_th,"aw",%nobits
 1714              		.align	3
 1715              		.set	.LANCHOR3,. + 0
 1718              	side_sensor_l_th:
 1719 0000 00000000 		.space	8
 1719      00000000 
 1720              		.section	.bss.side_sensor_r_old.7287,"aw",%nobits
 1721              		.align	3
ARM GAS  C:\Temp\cc9KZMEf.s 			page 39


 1722              		.set	.LANCHOR7,. + 0
 1725              	side_sensor_r_old.7287:
 1726 0000 00000000 		.space	8
 1726      00000000 
 1727              		.section	.bss.side_sensor_r_th,"aw",%nobits
 1728              		.align	3
 1729              		.set	.LANCHOR4,. + 0
 1732              	side_sensor_r_th:
 1733 0000 00000000 		.space	8
 1733      00000000 
 1734              		.section	.bss.target_sensor_sl,"aw",%nobits
 1735              		.align	3
 1736              		.set	.LANCHOR1,. + 0
 1739              	target_sensor_sl:
 1740 0000 00000000 		.space	8
 1740      00000000 
 1741              		.section	.bss.target_sensor_sr,"aw",%nobits
 1742              		.align	3
 1743              		.set	.LANCHOR2,. + 0
 1746              	target_sensor_sr:
 1747 0000 00000000 		.space	8
 1747      00000000 
 1748              		.section	.bss.target_set_flg.7266,"aw",%nobits
 1749              		.set	.LANCHOR0,. + 0
 1752              	target_set_flg.7266:
 1753 0000 00       		.space	1
 1754              		.section	.bss.target_vol_diff_frontwall,"aw",%nobits
 1755              		.align	2
 1756              		.set	.LANCHOR18,. + 0
 1759              	target_vol_diff_frontwall:
 1760 0000 00000000 		.space	4
 1761              		.section	.bss.target_vol_diff_sidewall,"aw",%nobits
 1762              		.align	2
 1763              		.set	.LANCHOR10,. + 0
 1766              	target_vol_diff_sidewall:
 1767 0000 00000000 		.space	4
 1768              		.section	.bss.target_vol_sum_frontwall,"aw",%nobits
 1769              		.align	2
 1770              		.set	.LANCHOR17,. + 0
 1773              	target_vol_sum_frontwall:
 1774 0000 00000000 		.space	4
 1775              		.section	.data.side_wall_ctrl_mode,"aw"
 1776              		.set	.LANCHOR5,. + 0
 1779              	side_wall_ctrl_mode:
 1780 0000 03       		.byte	3
 1781              		.text
 1782              	.Letext0:
 1783              		.file 2 "c:\\tools\\gcc-arm-none-eabi-9-2019-q4-major\\arm-none-eabi\\include\\machine\\_default_t
 1784              		.file 3 "c:\\tools\\gcc-arm-none-eabi-9-2019-q4-major\\arm-none-eabi\\include\\sys\\lock.h"
 1785              		.file 4 "c:\\tools\\gcc-arm-none-eabi-9-2019-q4-major\\arm-none-eabi\\include\\sys\\_types.h"
 1786              		.file 5 "c:\\tools\\gcc-arm-none-eabi-9-2019-q4-major\\lib\\gcc\\arm-none-eabi\\9.2.1\\include\\st
 1787              		.file 6 "c:\\tools\\gcc-arm-none-eabi-9-2019-q4-major\\arm-none-eabi\\include\\sys\\reent.h"
 1788              		.file 7 "c:\\tools\\gcc-arm-none-eabi-9-2019-q4-major\\arm-none-eabi\\include\\sys\\_stdint.h"
 1789              		.file 8 "c:\\tools\\gcc-arm-none-eabi-9-2019-q4-major\\arm-none-eabi\\include\\math.h"
 1790              		.file 9 "Inc/adjust.h"
 1791              		.file 10 "Inc/exvol.h"
 1792              		.file 11 "Inc/ir_sensor.h"
ARM GAS  C:\Temp\cc9KZMEf.s 			page 40


 1793              		.file 12 "Inc/target.h"
 1794              		.file 13 "Inc/mouse_state.h"
ARM GAS  C:\Temp\cc9KZMEf.s 			page 41

