ARM GAS  C:\Temp\cctUwYfi.s 			page 1


   1              		.cpu cortex-m4
   2              		.eabi_attribute 27, 1
   3              		.eabi_attribute 28, 1
   4              		.eabi_attribute 20, 1
   5              		.eabi_attribute 21, 1
   6              		.eabi_attribute 23, 3
   7              		.eabi_attribute 24, 1
   8              		.eabi_attribute 25, 1
   9              		.eabi_attribute 26, 1
  10              		.eabi_attribute 30, 1
  11              		.eabi_attribute 34, 1
  12              		.eabi_attribute 18, 4
  13              		.file	"adjust.c"
  14              		.text
  15              	.Ltext0:
  16              		.cfi_sections	.debug_frame
  17              		.section	.text.set_target_side_sensor,"ax",%progbits
  18              		.align	1
  19              		.global	set_target_side_sensor
  20              		.arch armv7e-m
  21              		.syntax unified
  22              		.thumb
  23              		.thumb_func
  24              		.fpu fpv4-sp-d16
  26              	set_target_side_sensor:
  27              	.LFB4:
  28              		.file 1 "Src/adjust.c"
   1:Src/adjust.c  **** 
   2:Src/adjust.c  **** 
   3:Src/adjust.c  **** #include <stdio.h>
   4:Src/adjust.c  **** #include <math.h>
   5:Src/adjust.c  **** #include "adjust.h"
   6:Src/adjust.c  **** #include "param.h"
   7:Src/adjust.c  **** #include "exvol.h"
   8:Src/adjust.c  **** #include "mouse_state.h"
   9:Src/adjust.c  **** #include "target.h"
  10:Src/adjust.c  **** #include "ir_sensor.h"
  11:Src/adjust.c  **** #include "lookuptable.h"
  12:Src/adjust.c  **** 
  13:Src/adjust.c  **** 
  14:Src/adjust.c  **** static double front_sensor_move_err_I = 0;   	//åå·®å’Œã®Ié …
  15:Src/adjust.c  **** static double front_sensor_rotate_err_I = 0;   	//åå·®å·®ã®Ié …
  16:Src/adjust.c  **** static double front_sensor_move_err_prev = 0;   //å‰å›åå·®å’Œ
  17:Src/adjust.c  **** static double front_sensor_rotate_err_prev = 0; //å‰å›åå·®å·®
  18:Src/adjust.c  **** static double front_sensor_move_D_prev = 0; 	//å‰å›åå·®å’Œå¾®åˆ†
  19:Src/adjust.c  **** static double front_sensor_rotate_D_prev = 0;   //å‰å›åå·®å·®å¾®åˆ†
  20:Src/adjust.c  **** 
  21:Src/adjust.c  **** static float target_vol_sum_frontwall = 0;		//å‰å£åˆ¶å¾¡ã«ã‚ˆã‚‹ãƒ¢ãƒ¼ã‚¿å°åŠ é›»åœ§ã®å’Œ[V]
  22:Src/adjust.c  **** static float target_vol_diff_frontwall = 0;		//å‰å£åˆ¶å¾¡ã«ã‚ˆã‚‹ãƒ¢ãƒ¼ã‚¿å°åŠ é›»åœ§ã®å·®[V]
  23:Src/adjust.c  **** 
  24:Src/adjust.c  **** static uint16_t fornt_wall_calibrate_tim = 0;  	//å‰å£è£œæ­£ç”¨ã‚«ã‚¦ãƒ³ã‚¿
  25:Src/adjust.c  **** 
  26:Src/adjust.c  **** static double target_sensor_sl = 0;				//å·¦å£è·é›¢ç›®æ¨™å€¤[m]
  27:Src/adjust.c  **** static double target_sensor_sr = 0;				//å³å£è·é›¢ç›®æ¨™å€¤[m]
  28:Src/adjust.c  **** 
  29:Src/adjust.c  **** static float target_vol_diff_sidewall = 0;			//æ¨ªå£åˆ¶å¾¡ã«ãŠã‘ã‚‹ãƒ¢ãƒ¼ã‚¿å°åŠ é›»åœ§ã®å·®[
  30:Src/adjust.c  **** 
ARM GAS  C:\Temp\cctUwYfi.s 			page 2


  31:Src/adjust.c  **** static side_wall_ctrl side_wall_ctrl_mode = none;	//æ¨ªå£è£œæ­£ãƒ¢ãƒ¼ãƒ‰ï¼ˆå·¦ã€å³ã€ä¸¡æ–¹ã€ã
  32:Src/adjust.c  **** static double side_sensor_l_th = 0;				//å·¦å£åˆ¶å¾¡ã®é–¾å€¤
  33:Src/adjust.c  **** static double side_sensor_r_th = 0;				//å³å£åˆ¶å¾¡ã®é–¾å€¤
  34:Src/adjust.c  **** 
  35:Src/adjust.c  **** //æ©Ÿèƒ½	: adjust.cã®1msã‚¿ã‚¹ã‚¯ã¾ã¨ã‚
  36:Src/adjust.c  **** //å¼•æ•°	: ãªã—
  37:Src/adjust.c  **** //è¿”ã‚Šå€¤	: ãªã—
  38:Src/adjust.c  **** void adjust_1ms (void)
  39:Src/adjust.c  **** {
  40:Src/adjust.c  **** 	set_target_side_sensor();		//åˆæœŸä½ç½®ã®ã‚»ãƒ³ã‚µå€¤ã‚’æ¨ªå£åˆ¶å¾¡ç›®æ¨™å€¤ã«ã‚»ãƒƒãƒˆ
  41:Src/adjust.c  **** 	calc_side_wall_ctrl_mode();		//æ¨ªå£è£œæ­£ã®ãƒ¢ãƒ¼ãƒ‰ã‚’æ±ºå®š
  42:Src/adjust.c  **** 	adjust_theta_side_wall();		//æ¨ªå£è£œæ­£ã®ãƒ¢ãƒ¼ãƒ‰ã«å¿œã˜ã€è»Œè·¡åˆ¶å¾¡ã«ãŠã‘ã‚‹è§’åº¦ã‚’
  43:Src/adjust.c  **** 	calc_motor_vol_side_wall();		//æ¨ªå£è£œæ­£ã«ãŠã‘ã‚‹å°åŠ é›»åœ§è¨ˆç®—
  44:Src/adjust.c  **** 	calc_motor_vol_front_wall();	//å‰å£åˆ¶å¾¡ã«ãŠã‘ã‚‹å°åŠ é›»åœ§è¨ˆç®—
  45:Src/adjust.c  **** 	calibrate_tim();				//å‰å£åˆ¶å¾¡ç”¨ã‚¿ã‚¤ãƒ
  46:Src/adjust.c  **** }
  47:Src/adjust.c  **** 
  48:Src/adjust.c  **** //æ©Ÿèƒ½	: å£ãƒˆãƒ¬ãƒ¼ã‚¹ã®ç›®æ¨™è·é›¢ã‚’ã‚»ãƒƒãƒˆã™ã‚‹
  49:Src/adjust.c  **** //å¼•æ•°	: ãªã— 
  50:Src/adjust.c  **** //è¿”ã‚Šå€¤	: ãªã—
  51:Src/adjust.c  **** //å‚™è€ƒ	:åˆæœŸä½ç½®ã®å£è·é›¢ã‚’ç›®æ¨™ä½ç½®ã¨ã™ã‚‹ã€‚
  52:Src/adjust.c  **** void set_target_side_sensor(void)
  53:Src/adjust.c  **** {
  29              		.loc 1 53 1 view -0
  30              		.cfi_startproc
  31              		@ args = 0, pretend = 0, frame = 0
  32              		@ frame_needed = 0, uses_anonymous_args = 0
  33              		@ link register save eliminated.
  54:Src/adjust.c  **** 	static uint8_t target_set_flg = 0;
  34              		.loc 1 54 2 view .LVU1
  55:Src/adjust.c  **** 	if(target_set_flg == 0) 
  35              		.loc 1 55 2 view .LVU2
  36              		.loc 1 55 20 is_stmt 0 view .LVU3
  37 0000 0D4B     		ldr	r3, .L3+16
  38 0002 1B78     		ldrb	r3, [r3]	@ zero_extendqisi2
  39              		.loc 1 55 4 view .LVU4
  40 0004 73B9     		cbnz	r3, .L1
  56:Src/adjust.c  **** 	{
  57:Src/adjust.c  **** 		//target_sensor_sl = SensorValue2length(1);
  58:Src/adjust.c  **** 		//target_sensor_sr = SensorValue2length(2);
  59:Src/adjust.c  **** 		//ãƒ‡ãƒãƒƒã‚°ä¸­	
  60:Src/adjust.c  **** 		target_sensor_sl = 0.024331;
  41              		.loc 1 60 3 is_stmt 1 view .LVU5
  42              		.loc 1 60 20 is_stmt 0 view .LVU6
  43 0006 0D4B     		ldr	r3, .L3+20
  44 0008 07A1     		adr	r1, .L3
  45 000a D1E90001 		ldrd	r0, [r1]
  46 000e C3E90001 		strd	r0, [r3]
  61:Src/adjust.c  **** 		target_sensor_sr = 0.023078;	
  47              		.loc 1 61 3 is_stmt 1 view .LVU7
  48              		.loc 1 61 20 is_stmt 0 view .LVU8
  49 0012 0B4B     		ldr	r3, .L3+24
  50 0014 06A1     		adr	r1, .L3+8
  51 0016 D1E90001 		ldrd	r0, [r1]
  52 001a C3E90001 		strd	r0, [r3]
  62:Src/adjust.c  **** 
  63:Src/adjust.c  **** 		target_set_flg = 1;
ARM GAS  C:\Temp\cctUwYfi.s 			page 3


  53              		.loc 1 63 3 is_stmt 1 view .LVU9
  54              		.loc 1 63 18 is_stmt 0 view .LVU10
  55 001e 064B     		ldr	r3, .L3+16
  56 0020 0122     		movs	r2, #1
  57 0022 1A70     		strb	r2, [r3]
  58              	.L1:
  64:Src/adjust.c  **** 	}
  65:Src/adjust.c  **** }
  59              		.loc 1 65 1 view .LVU11
  60 0024 7047     		bx	lr
  61              	.L4:
  62 0026 00BF     		.align	3
  63              	.L3:
  64 0028 E2AB1DC5 		.word	-987911198
  65 002c 39EA983F 		.word	1066986041
  66 0030 1442075D 		.word	1560756756
  67 0034 C2A1973F 		.word	1066901954
  68 0038 00000000 		.word	.LANCHOR0
  69 003c 00000000 		.word	.LANCHOR1
  70 0040 00000000 		.word	.LANCHOR2
  71              		.cfi_endproc
  72              	.LFE4:
  74              		.global	__aeabi_d2f
  75              		.section	.text.get_target_sensor_sr,"ax",%progbits
  76              		.align	1
  77              		.global	get_target_sensor_sr
  78              		.syntax unified
  79              		.thumb
  80              		.thumb_func
  81              		.fpu fpv4-sp-d16
  83              	get_target_sensor_sr:
  84              	.LFB5:
  66:Src/adjust.c  **** 
  67:Src/adjust.c  **** //æ©Ÿèƒ½	: å£ãƒˆãƒ¬ãƒ¼ã‚¹ã®å³å£ç›®æ¨™è·é›¢ã‚’å–å¾—ã™ã‚‹
  68:Src/adjust.c  **** //å¼•æ•°	: ãªã—
  69:Src/adjust.c  **** //è¿”ã‚Šå€¤	: å³å£è·é›¢ç›®æ¨™å€¤
  70:Src/adjust.c  **** float get_target_sensor_sr ( void )
  71:Src/adjust.c  **** {
  85              		.loc 1 71 1 is_stmt 1 view -0
  86              		.cfi_startproc
  87              		@ args = 0, pretend = 0, frame = 0
  88              		@ frame_needed = 0, uses_anonymous_args = 0
  89 0000 08B5     		push	{r3, lr}
  90              	.LCFI0:
  91              		.cfi_def_cfa_offset 8
  92              		.cfi_offset 3, -8
  93              		.cfi_offset 14, -4
  72:Src/adjust.c  **** 	return (float)target_sensor_sr;
  94              		.loc 1 72 2 view .LVU13
  95              		.loc 1 72 9 is_stmt 0 view .LVU14
  96 0002 044B     		ldr	r3, .L7
  97 0004 D3E90001 		ldrd	r0, [r3]
  98 0008 FFF7FEFF 		bl	__aeabi_d2f
  99              	.LVL0:
  73:Src/adjust.c  **** }
 100              		.loc 1 73 1 view .LVU15
 101 000c 00EE100A 		vmov	s0, r0
ARM GAS  C:\Temp\cctUwYfi.s 			page 4


 102 0010 08BD     		pop	{r3, pc}
 103              	.L8:
 104 0012 00BF     		.align	2
 105              	.L7:
 106 0014 00000000 		.word	.LANCHOR2
 107              		.cfi_endproc
 108              	.LFE5:
 110              		.section	.text.get_target_sensor_sl,"ax",%progbits
 111              		.align	1
 112              		.global	get_target_sensor_sl
 113              		.syntax unified
 114              		.thumb
 115              		.thumb_func
 116              		.fpu fpv4-sp-d16
 118              	get_target_sensor_sl:
 119              	.LFB6:
  74:Src/adjust.c  **** 
  75:Src/adjust.c  **** //æ©Ÿèƒ½	: å£ãƒˆãƒ¬ãƒ¼ã‚¹ã®å·¦å£ç›®æ¨™è·é›¢ã‚’å–å¾—ã™ã‚‹
  76:Src/adjust.c  **** //å¼•æ•°	: ãªã—
  77:Src/adjust.c  **** //è¿”ã‚Šå€¤	: å·¦å£è·é›¢ç›®æ¨™å€¤
  78:Src/adjust.c  **** float get_target_sensor_sl ( void )
  79:Src/adjust.c  **** {
 120              		.loc 1 79 1 is_stmt 1 view -0
 121              		.cfi_startproc
 122              		@ args = 0, pretend = 0, frame = 0
 123              		@ frame_needed = 0, uses_anonymous_args = 0
 124 0000 08B5     		push	{r3, lr}
 125              	.LCFI1:
 126              		.cfi_def_cfa_offset 8
 127              		.cfi_offset 3, -8
 128              		.cfi_offset 14, -4
  80:Src/adjust.c  **** 	return (float)target_sensor_sl;
 129              		.loc 1 80 2 view .LVU17
 130              		.loc 1 80 9 is_stmt 0 view .LVU18
 131 0002 044B     		ldr	r3, .L11
 132 0004 D3E90001 		ldrd	r0, [r3]
 133 0008 FFF7FEFF 		bl	__aeabi_d2f
 134              	.LVL1:
  81:Src/adjust.c  **** }
 135              		.loc 1 81 1 view .LVU19
 136 000c 00EE100A 		vmov	s0, r0
 137 0010 08BD     		pop	{r3, pc}
 138              	.L12:
 139 0012 00BF     		.align	2
 140              	.L11:
 141 0014 00000000 		.word	.LANCHOR1
 142              		.cfi_endproc
 143              	.LFE6:
 145              		.section	.text.get_side_sensor_l_th,"ax",%progbits
 146              		.align	1
 147              		.global	get_side_sensor_l_th
 148              		.syntax unified
 149              		.thumb
 150              		.thumb_func
 151              		.fpu fpv4-sp-d16
 153              	get_side_sensor_l_th:
 154              	.LFB7:
ARM GAS  C:\Temp\cctUwYfi.s 			page 5


  82:Src/adjust.c  **** 
  83:Src/adjust.c  **** //æ©Ÿèƒ½	: å£ãƒˆãƒ¬ãƒ¼ã‚¹ã®å·¦å£ãƒ¢ãƒ¼ãƒ‰é–¾å€¤ã‚’å–å¾—ã™ã‚‹
  84:Src/adjust.c  **** //å¼•æ•°	: ãªã—
  85:Src/adjust.c  **** //è¿”ã‚Šå€¤	: å·¦å£ãƒ¢ãƒ¼ãƒ‰é–¾å€¤
  86:Src/adjust.c  **** double get_side_sensor_l_th ( void )
  87:Src/adjust.c  **** {
 155              		.loc 1 87 1 is_stmt 1 view -0
 156              		.cfi_startproc
 157              		@ args = 0, pretend = 0, frame = 0
 158              		@ frame_needed = 0, uses_anonymous_args = 0
 159              		@ link register save eliminated.
  88:Src/adjust.c  **** 	return side_sensor_l_th;
 160              		.loc 1 88 2 view .LVU21
  89:Src/adjust.c  **** }
 161              		.loc 1 89 1 is_stmt 0 view .LVU22
 162 0000 014B     		ldr	r3, .L14
 163 0002 93ED000B 		vldr.64	d0, [r3]
 164 0006 7047     		bx	lr
 165              	.L15:
 166              		.align	2
 167              	.L14:
 168 0008 00000000 		.word	.LANCHOR3
 169              		.cfi_endproc
 170              	.LFE7:
 172              		.section	.text.get_side_sensor_r_th,"ax",%progbits
 173              		.align	1
 174              		.global	get_side_sensor_r_th
 175              		.syntax unified
 176              		.thumb
 177              		.thumb_func
 178              		.fpu fpv4-sp-d16
 180              	get_side_sensor_r_th:
 181              	.LFB8:
  90:Src/adjust.c  **** 
  91:Src/adjust.c  **** 
  92:Src/adjust.c  **** //æ©Ÿèƒ½	: å£ãƒˆãƒ¬ãƒ¼ã‚¹ã®å³å£ãƒ¢ãƒ¼ãƒ‰é–¾å€¤ã‚’å–å¾—ã™ã‚‹
  93:Src/adjust.c  **** //å¼•æ•°	: ãªã—
  94:Src/adjust.c  **** //è¿”ã‚Šå€¤	: å³å£ãƒ¢ãƒ¼ãƒ‰é–¾å€¤
  95:Src/adjust.c  **** double get_side_sensor_r_th ( void )
  96:Src/adjust.c  **** {
 182              		.loc 1 96 1 is_stmt 1 view -0
 183              		.cfi_startproc
 184              		@ args = 0, pretend = 0, frame = 0
 185              		@ frame_needed = 0, uses_anonymous_args = 0
 186              		@ link register save eliminated.
  97:Src/adjust.c  **** 	return side_sensor_r_th;
 187              		.loc 1 97 2 view .LVU24
  98:Src/adjust.c  **** }
 188              		.loc 1 98 1 is_stmt 0 view .LVU25
 189 0000 014B     		ldr	r3, .L17
 190 0002 93ED000B 		vldr.64	d0, [r3]
 191 0006 7047     		bx	lr
 192              	.L18:
 193              		.align	2
 194              	.L17:
 195 0008 00000000 		.word	.LANCHOR4
 196              		.cfi_endproc
ARM GAS  C:\Temp\cctUwYfi.s 			page 6


 197              	.LFE8:
 199              		.section	.text.get_side_wall_ctrl_mode,"ax",%progbits
 200              		.align	1
 201              		.global	get_side_wall_ctrl_mode
 202              		.syntax unified
 203              		.thumb
 204              		.thumb_func
 205              		.fpu fpv4-sp-d16
 207              	get_side_wall_ctrl_mode:
 208              	.LFB9:
  99:Src/adjust.c  **** 
 100:Src/adjust.c  **** //æ©Ÿèƒ½	: æ¨ªå£åˆ¶å¾¡ã«ãŠã‘ã‚‹ãƒ¢ãƒ¼ãƒ‰ã‚’å–å¾—ã™ã‚‹
 101:Src/adjust.c  **** //å¼•æ•°	: ãªã—
 102:Src/adjust.c  **** //è¿”ã‚Šå€¤	: æ¨ªå£åˆ¶å¾¡ãƒ¢ãƒ¼ãƒ‰
 103:Src/adjust.c  **** uint8_t get_side_wall_ctrl_mode ( void )
 104:Src/adjust.c  **** {
 209              		.loc 1 104 1 is_stmt 1 view -0
 210              		.cfi_startproc
 211              		@ args = 0, pretend = 0, frame = 0
 212              		@ frame_needed = 0, uses_anonymous_args = 0
 213              		@ link register save eliminated.
 105:Src/adjust.c  **** 	return side_wall_ctrl_mode;
 214              		.loc 1 105 2 view .LVU27
 106:Src/adjust.c  **** }
 215              		.loc 1 106 1 is_stmt 0 view .LVU28
 216 0000 014B     		ldr	r3, .L20
 217 0002 1878     		ldrb	r0, [r3]	@ zero_extendqisi2
 218 0004 7047     		bx	lr
 219              	.L21:
 220 0006 00BF     		.align	2
 221              	.L20:
 222 0008 00000000 		.word	.LANCHOR5
 223              		.cfi_endproc
 224              	.LFE9:
 226              		.global	__aeabi_f2d
 227              		.global	__aeabi_dsub
 228              		.global	__aeabi_dcmplt
 229              		.global	__aeabi_dadd
 230              		.global	__aeabi_ddiv
 231              		.global	__aeabi_dcmpgt
 232              		.section	.text.calc_side_wall_ctrl_mode,"ax",%progbits
 233              		.align	1
 234              		.global	calc_side_wall_ctrl_mode
 235              		.syntax unified
 236              		.thumb
 237              		.thumb_func
 238              		.fpu fpv4-sp-d16
 240              	calc_side_wall_ctrl_mode:
 241              	.LFB10:
 107:Src/adjust.c  **** 
 108:Src/adjust.c  **** //æ©Ÿèƒ½	: æ¨ªå£åˆ¶å¾¡ã«ãŠã‘ã‚‹ãƒ¢ãƒ¼ãƒ‰ã‚’æ±ºå®šã™ã‚‹ï¼ˆå³ã€å·¦ã€ä¸¡å£ã€ãªã—ï¼‰
 109:Src/adjust.c  **** //å¼•æ•°	: ãªã—
 110:Src/adjust.c  **** //è¿”ã‚Šå€¤	: ãªã—
 111:Src/adjust.c  **** //å‚™è€ƒ 	:1msã‚¿ã‚¹ã‚¯
 112:Src/adjust.c  **** void calc_side_wall_ctrl_mode ( void )
 113:Src/adjust.c  **** {
 242              		.loc 1 113 1 is_stmt 1 view -0
ARM GAS  C:\Temp\cctUwYfi.s 			page 7


 243              		.cfi_startproc
 244              		@ args = 0, pretend = 0, frame = 8
 245              		@ frame_needed = 0, uses_anonymous_args = 0
 246 0000 2DE9F047 		push	{r4, r5, r6, r7, r8, r9, r10, lr}
 247              	.LCFI2:
 248              		.cfi_def_cfa_offset 32
 249              		.cfi_offset 4, -32
 250              		.cfi_offset 5, -28
 251              		.cfi_offset 6, -24
 252              		.cfi_offset 7, -20
 253              		.cfi_offset 8, -16
 254              		.cfi_offset 9, -12
 255              		.cfi_offset 10, -8
 256              		.cfi_offset 14, -4
 257 0004 2DED028B 		vpush.64	{d8}
 258              	.LCFI3:
 259              		.cfi_def_cfa_offset 40
 260              		.cfi_offset 80, -40
 261              		.cfi_offset 81, -36
 262 0008 82B0     		sub	sp, sp, #8
 263              	.LCFI4:
 264              		.cfi_def_cfa_offset 48
 114:Src/adjust.c  **** 	double side_sensor_r = 0; 				//å³å‰ã‚»ãƒ³ã‚µå€¤[m]
 265              		.loc 1 114 2 view .LVU30
 266              	.LVL2:
 115:Src/adjust.c  ****     double side_sensor_l = 0; 				//å·¦å‰ã‚»ãƒ³ã‚µå€¤[m]
 267              		.loc 1 115 5 view .LVU31
 116:Src/adjust.c  **** 	static double side_sensor_r_old = 0;	//å‰å›å³å‰ã‚»ãƒ³ã‚µå€¤[m]
 268              		.loc 1 116 2 view .LVU32
 117:Src/adjust.c  ****     static double side_sensor_l_old = 0; 	//å‰å›å·¦å‰ã‚»ãƒ³ã‚µå€¤[m]
 269              		.loc 1 117 5 view .LVU33
 118:Src/adjust.c  **** 	double side_sensor_r_diff = 0;			//å³å‰ã‚»ãƒ³ã‚µå€¤å¤‰åŒ–é‡
 270              		.loc 1 118 2 view .LVU34
 119:Src/adjust.c  ****     double side_sensor_l_diff = 0; 			//å·¦å‰ã‚»ãƒ³ã‚µå€¤å¤‰åŒ–é‡
 271              		.loc 1 119 5 view .LVU35
 120:Src/adjust.c  **** 	double side_sensor_r_diff_sum = 0;		//å³å‰ã‚»ãƒ³ã‚µå€¤å¤‰åŒ–é‡åˆè¨ˆ
 272              		.loc 1 120 2 view .LVU36
 121:Src/adjust.c  ****     double side_sensor_l_diff_sum = 0; 		//å·¦å‰ã‚»ãƒ³ã‚µå€¤å¤‰åŒ–é‡åˆè¨ˆ
 273              		.loc 1 121 5 view .LVU37
 122:Src/adjust.c  **** 	double side_sensor_r_diff_ave = 0;		//å³å‰ã‚»ãƒ³ã‚µå€¤å¹³å‡
 274              		.loc 1 122 2 view .LVU38
 123:Src/adjust.c  ****     double side_sensor_l_diff_ave = 0; 		//å·¦å‰ã‚»ãƒ³ã‚µå€¤å¹³å‡
 275              		.loc 1 123 5 view .LVU39
 124:Src/adjust.c  **** 
 125:Src/adjust.c  ****     typedef struct {
 276              		.loc 1 125 5 view .LVU40
 126:Src/adjust.c  **** 	double	right;			
 127:Src/adjust.c  **** 	double  left;			
 128:Src/adjust.c  ****     } ave_temp;
 129:Src/adjust.c  **** 
 130:Src/adjust.c  **** 	static ave_temp ave_store[ir_diff_ave_num];  // ãƒ‡ãƒ¼ã‚¿æ ¼ç´ç”¨ã®æ§‹é€ ä½“
 277              		.loc 1 130 2 view .LVU41
 131:Src/adjust.c  **** 	static uint16_t ave_counter = 0;
 278              		.loc 1 131 2 view .LVU42
 132:Src/adjust.c  **** 	uint16_t i = 0;
 279              		.loc 1 132 2 view .LVU43
 133:Src/adjust.c  **** 	uint16_t j = 0;
ARM GAS  C:\Temp\cctUwYfi.s 			page 8


 280              		.loc 1 133 2 view .LVU44
 134:Src/adjust.c  **** 
 135:Src/adjust.c  **** 	//ã‚»ãƒ³ã‚µå€¤å–å¾—
 136:Src/adjust.c  **** 	// side_sensor_l = SensorValue2length(1);
 137:Src/adjust.c  **** 	// side_sensor_r = SensorValue2length(2);
 138:Src/adjust.c  **** 
 139:Src/adjust.c  **** 	side_sensor_l = get_sidewall_dis_table(Sensor_GetValue(1));
 281              		.loc 1 139 2 view .LVU45
 282              		.loc 1 139 18 is_stmt 0 view .LVU46
 283 000a 0120     		movs	r0, #1
 284 000c FFF7FEFF 		bl	Sensor_GetValue
 285              	.LVL3:
 286 0010 FFF7FEFF 		bl	get_sidewall_dis_table
 287              	.LVL4:
 288 0014 10EE100A 		vmov	r0, s0
 289              		.loc 1 139 16 view .LVU47
 290 0018 FFF7FEFF 		bl	__aeabi_f2d
 291              	.LVL5:
 292 001c 0446     		mov	r4, r0
 293 001e 0D46     		mov	r5, r1
 294 0020 CDE90045 		strd	r4, [sp]
 295              	.LVL6:
 140:Src/adjust.c  **** 	side_sensor_r = get_sidewall_dis_table(Sensor_GetValue(2));
 296              		.loc 1 140 2 is_stmt 1 view .LVU48
 297              		.loc 1 140 18 is_stmt 0 view .LVU49
 298 0024 0220     		movs	r0, #2
 299 0026 FFF7FEFF 		bl	Sensor_GetValue
 300              	.LVL7:
 301 002a FFF7FEFF 		bl	get_sidewall_dis_table
 302              	.LVL8:
 303 002e 10EE100A 		vmov	r0, s0
 304              		.loc 1 140 16 view .LVU50
 305 0032 FFF7FEFF 		bl	__aeabi_f2d
 306              	.LVL9:
 307 0036 41EC180B 		vmov	d8, r0, r1
 308              	.LVL10:
 141:Src/adjust.c  **** 
 142:Src/adjust.c  **** 
 143:Src/adjust.c  **** 	//ã‚»ãƒ³ã‚µå¤‰åŒ–é‡å–å¾—
 144:Src/adjust.c  **** 	side_sensor_l_diff = ABS(side_sensor_l - side_sensor_l_old);
 309              		.loc 1 144 2 is_stmt 1 view .LVU51
 310              		.loc 1 144 23 is_stmt 0 view .LVU52
 311 003a 6D4B     		ldr	r3, .L59+24
 312 003c D3E90023 		ldrd	r2, [r3]
 313 0040 2046     		mov	r0, r4
 314              	.LVL11:
 315              		.loc 1 144 23 view .LVU53
 316 0042 2946     		mov	r1, r5
 317 0044 FFF7FEFF 		bl	__aeabi_dsub
 318              	.LVL12:
 319 0048 0446     		mov	r4, r0
 320              	.LVL13:
 321              		.loc 1 144 23 view .LVU54
 322 004a 0D46     		mov	r5, r1
 323 004c 0022     		movs	r2, #0
 324 004e 0023     		movs	r3, #0
 325 0050 FFF7FEFF 		bl	__aeabi_dcmplt
ARM GAS  C:\Temp\cctUwYfi.s 			page 9


 326              	.LVL14:
 327 0054 0028     		cmp	r0, #0
 328 0056 3ED1     		bne	.L56
 329              	.L23:
 330              	.LVL15:
 145:Src/adjust.c  **** 	side_sensor_r_diff = ABS(side_sensor_r - side_sensor_r_old);
 331              		.loc 1 145 2 is_stmt 1 discriminator 4 view .LVU55
 332              		.loc 1 145 23 is_stmt 0 discriminator 4 view .LVU56
 333 0058 664B     		ldr	r3, .L59+28
 334 005a D3E90023 		ldrd	r2, [r3]
 335 005e 51EC180B 		vmov	r0, r1, d8
 336 0062 FFF7FEFF 		bl	__aeabi_dsub
 337              	.LVL16:
 338 0066 0646     		mov	r6, r0
 339 0068 0F46     		mov	r7, r1
 340 006a 0022     		movs	r2, #0
 341 006c 0023     		movs	r3, #0
 342 006e FFF7FEFF 		bl	__aeabi_dcmplt
 343              	.LVL17:
 344 0072 0028     		cmp	r0, #0
 345 0074 33D1     		bne	.L57
 346              	.L25:
 347              	.LVL18:
 146:Src/adjust.c  **** 
 147:Src/adjust.c  **** 	i = ave_counter % ir_diff_ave_num;
 348              		.loc 1 147 2 is_stmt 1 discriminator 4 view .LVU57
 349              		.loc 1 147 4 is_stmt 0 discriminator 4 view .LVU58
 350 0076 604B     		ldr	r3, .L59+32
 351 0078 B3F800A0 		ldrh	r10, [r3]
 352 007c 5F4B     		ldr	r3, .L59+36
 353 007e A3FB0A23 		umull	r2, r3, r3, r10
 354 0082 DB08     		lsrs	r3, r3, #3
 355 0084 03EB8303 		add	r3, r3, r3, lsl #2
 356 0088 AAEB4303 		sub	r3, r10, r3, lsl #1
 357 008c 9BB2     		uxth	r3, r3
 358              	.LVL19:
 148:Src/adjust.c  **** 	ave_store[i].right = side_sensor_r_diff;
 359              		.loc 1 148 2 is_stmt 1 discriminator 4 view .LVU59
 360              		.loc 1 148 21 is_stmt 0 discriminator 4 view .LVU60
 361 008e 5C4A     		ldr	r2, .L59+40
 362 0090 02EB0313 		add	r3, r2, r3, lsl #4
 363              	.LVL20:
 364              		.loc 1 148 21 discriminator 4 view .LVU61
 365 0094 C3E90067 		strd	r6, [r3]
 149:Src/adjust.c  **** 	ave_store[i].left = side_sensor_l_diff;
 366              		.loc 1 149 2 is_stmt 1 discriminator 4 view .LVU62
 367              		.loc 1 149 20 is_stmt 0 discriminator 4 view .LVU63
 368 0098 C3E90245 		strd	r4, [r3, #8]
 150:Src/adjust.c  **** 
 151:Src/adjust.c  **** 	//ç§»å‹•å¹³å‡å‡¦ç†
 152:Src/adjust.c  **** 	for(j=0; j < ir_diff_ave_num; j++)
 369              		.loc 1 152 2 is_stmt 1 discriminator 4 view .LVU64
 370              		.loc 1 152 7 is_stmt 0 discriminator 4 view .LVU65
 371 009c 0024     		movs	r4, #0
 372              	.LVL21:
 121:Src/adjust.c  **** 	double side_sensor_r_diff_ave = 0;		//å³å‰ã‚»ãƒ³ã‚µå€¤å¹³å‡
 373              		.loc 1 121 12 discriminator 4 view .LVU66
ARM GAS  C:\Temp\cctUwYfi.s 			page 10


 374 009e 0026     		movs	r6, #0
 375              	.LVL22:
 121:Src/adjust.c  **** 	double side_sensor_r_diff_ave = 0;		//å³å‰ã‚»ãƒ³ã‚µå€¤å¹³å‡
 376              		.loc 1 121 12 discriminator 4 view .LVU67
 377 00a0 0027     		movs	r7, #0
 120:Src/adjust.c  ****     double side_sensor_l_diff_sum = 0; 		//å·¦å‰ã‚»ãƒ³ã‚µå€¤å¤‰åŒ–é‡åˆè¨ˆ
 378              		.loc 1 120 9 discriminator 4 view .LVU68
 379 00a2 B046     		mov	r8, r6
 380 00a4 B946     		mov	r9, r7
 381              	.LVL23:
 382              	.L27:
 383              		.loc 1 152 11 is_stmt 1 discriminator 1 view .LVU69
 384              		.loc 1 152 2 is_stmt 0 discriminator 1 view .LVU70
 385 00a6 092C     		cmp	r4, #9
 386 00a8 1DD8     		bhi	.L58
 153:Src/adjust.c  **** 	{
 154:Src/adjust.c  **** 		side_sensor_r_diff_sum += ave_store[j].right;
 387              		.loc 1 154 3 is_stmt 1 discriminator 3 view .LVU71
 388              		.loc 1 154 41 is_stmt 0 discriminator 3 view .LVU72
 389 00aa 554D     		ldr	r5, .L59+40
 390 00ac 05EB0415 		add	r5, r5, r4, lsl #4
 391              		.loc 1 154 26 discriminator 3 view .LVU73
 392 00b0 D5E90023 		ldrd	r2, [r5]
 393 00b4 4046     		mov	r0, r8
 394 00b6 4946     		mov	r1, r9
 395 00b8 FFF7FEFF 		bl	__aeabi_dadd
 396              	.LVL24:
 397 00bc 8046     		mov	r8, r0
 398              	.LVL25:
 399              		.loc 1 154 26 discriminator 3 view .LVU74
 400 00be 8946     		mov	r9, r1
 401              	.LVL26:
 155:Src/adjust.c  **** 		side_sensor_l_diff_sum += ave_store[j].left;
 402              		.loc 1 155 3 is_stmt 1 discriminator 3 view .LVU75
 403              		.loc 1 155 26 is_stmt 0 discriminator 3 view .LVU76
 404 00c0 D5E90223 		ldrd	r2, [r5, #8]
 405 00c4 3046     		mov	r0, r6
 406 00c6 3946     		mov	r1, r7
 407 00c8 FFF7FEFF 		bl	__aeabi_dadd
 408              	.LVL27:
 409 00cc 0646     		mov	r6, r0
 410              	.LVL28:
 411              		.loc 1 155 26 discriminator 3 view .LVU77
 412 00ce 0F46     		mov	r7, r1
 413              	.LVL29:
 152:Src/adjust.c  **** 	{
 414              		.loc 1 152 32 is_stmt 1 discriminator 3 view .LVU78
 152:Src/adjust.c  **** 	{
 415              		.loc 1 152 33 is_stmt 0 discriminator 3 view .LVU79
 416 00d0 0134     		adds	r4, r4, #1
 417              	.LVL30:
 152:Src/adjust.c  **** 	{
 418              		.loc 1 152 33 discriminator 3 view .LVU80
 419 00d2 A4B2     		uxth	r4, r4
 420              	.LVL31:
 152:Src/adjust.c  **** 	{
 421              		.loc 1 152 33 discriminator 3 view .LVU81
ARM GAS  C:\Temp\cctUwYfi.s 			page 11


 422 00d4 E7E7     		b	.L27
 423              	.LVL32:
 424              	.L56:
 144:Src/adjust.c  **** 	side_sensor_r_diff = ABS(side_sensor_r - side_sensor_r_old);
 425              		.loc 1 144 23 discriminator 1 view .LVU82
 426 00d6 05F10043 		add	r3, r5, #-2147483648
 427 00da 1D46     		mov	r5, r3
 428 00dc BCE7     		b	.L23
 429              	.LVL33:
 430              	.L57:
 145:Src/adjust.c  **** 
 431              		.loc 1 145 23 discriminator 1 view .LVU83
 432 00de 07F10043 		add	r3, r7, #-2147483648
 433 00e2 1F46     		mov	r7, r3
 434 00e4 C7E7     		b	.L25
 435              	.LVL34:
 436              	.L58:
 156:Src/adjust.c  **** 	}
 157:Src/adjust.c  **** 
 158:Src/adjust.c  **** 	side_sensor_r_diff_ave = side_sensor_r_diff_sum / ir_diff_ave_num;
 437              		.loc 1 158 2 is_stmt 1 view .LVU84
 438              		.loc 1 158 25 is_stmt 0 view .LVU85
 439 00e6 0022     		movs	r2, #0
 440 00e8 464B     		ldr	r3, .L59+44
 441 00ea 4046     		mov	r0, r8
 442 00ec 4946     		mov	r1, r9
 443 00ee FFF7FEFF 		bl	__aeabi_ddiv
 444              	.LVL35:
 445 00f2 0446     		mov	r4, r0
 446              	.LVL36:
 447              		.loc 1 158 25 view .LVU86
 448 00f4 0D46     		mov	r5, r1
 449              	.LVL37:
 159:Src/adjust.c  **** 	side_sensor_l_diff_ave = side_sensor_l_diff_sum / ir_diff_ave_num;
 450              		.loc 1 159 2 is_stmt 1 view .LVU87
 451              		.loc 1 159 25 is_stmt 0 view .LVU88
 452 00f6 0022     		movs	r2, #0
 453 00f8 424B     		ldr	r3, .L59+44
 454 00fa 3046     		mov	r0, r6
 455 00fc 3946     		mov	r1, r7
 456 00fe FFF7FEFF 		bl	__aeabi_ddiv
 457              	.LVL38:
 160:Src/adjust.c  **** 	
 161:Src/adjust.c  **** 	ave_counter += 1 ;
 458              		.loc 1 161 2 is_stmt 1 view .LVU89
 459              		.loc 1 161 14 is_stmt 0 view .LVU90
 460 0102 0AF1010A 		add	r10, r10, #1
 461              	.LVL39:
 462              		.loc 1 161 14 view .LVU91
 463 0106 3C4B     		ldr	r3, .L59+32
 464 0108 A3F800A0 		strh	r10, [r3]	@ movhi
 162:Src/adjust.c  **** 
 163:Src/adjust.c  **** 
 164:Src/adjust.c  **** 	//å¤‰åŒ–é‡ã«å¿œã˜ã¦ã€å£åˆ¶å¾¡ã®é–¾å€¤ã‚’å¤‰åŒ–
 165:Src/adjust.c  **** 	if(side_sensor_l_diff_ave > side_sensor_diff_th){
 465              		.loc 1 165 2 is_stmt 1 view .LVU92
 466              		.loc 1 165 4 is_stmt 0 view .LVU93
ARM GAS  C:\Temp\cctUwYfi.s 			page 12


 467 010c 32A3     		adr	r3, .L59
 468 010e D3E90023 		ldrd	r2, [r3]
 469 0112 FFF7FEFF 		bl	__aeabi_dcmpgt
 470              	.LVL40:
 471              		.loc 1 165 4 view .LVU94
 472 0116 48B3     		cbz	r0, .L51
 166:Src/adjust.c  **** 		side_sensor_l_th = side_sensor_th - side_sensor_th_add;
 473              		.loc 1 166 3 is_stmt 1 view .LVU95
 474              		.loc 1 166 20 is_stmt 0 view .LVU96
 475 0118 3B4B     		ldr	r3, .L59+48
 476 011a 31A1     		adr	r1, .L59+8
 477 011c D1E90001 		ldrd	r0, [r1]
 478 0120 C3E90001 		strd	r0, [r3]
 479              	.L31:
 167:Src/adjust.c  **** 	}else{
 168:Src/adjust.c  **** 		side_sensor_l_th = side_sensor_th;
 169:Src/adjust.c  **** 	}
 170:Src/adjust.c  **** 
 171:Src/adjust.c  **** 	if(side_sensor_r_diff_ave > side_sensor_diff_th){
 480              		.loc 1 171 2 is_stmt 1 view .LVU97
 481              		.loc 1 171 4 is_stmt 0 view .LVU98
 482 0124 2CA3     		adr	r3, .L59
 483 0126 D3E90023 		ldrd	r2, [r3]
 484 012a 2046     		mov	r0, r4
 485 012c 2946     		mov	r1, r5
 486 012e FFF7FEFF 		bl	__aeabi_dcmpgt
 487              	.LVL41:
 488 0132 10B3     		cbz	r0, .L52
 172:Src/adjust.c  **** 		side_sensor_r_th = side_sensor_th - side_sensor_th_add;
 489              		.loc 1 172 3 is_stmt 1 view .LVU99
 490              		.loc 1 172 20 is_stmt 0 view .LVU100
 491 0134 354B     		ldr	r3, .L59+52
 492 0136 2AA1     		adr	r1, .L59+8
 493 0138 D1E90001 		ldrd	r0, [r1]
 494 013c C3E90001 		strd	r0, [r3]
 495              	.L34:
 173:Src/adjust.c  **** 	}else{
 174:Src/adjust.c  **** 		side_sensor_r_th = side_sensor_th;
 175:Src/adjust.c  **** 	}
 176:Src/adjust.c  **** 
 177:Src/adjust.c  **** 	//é–¾å€¤ã«å¿œã˜ã¦ã€æ¨ªå£åˆ¶å¾¡ãƒ¢ãƒ¼ãƒ‰ã‚’è¨­å®š
 178:Src/adjust.c  **** 	if( (side_sensor_l_th > side_sensor_l) && (side_sensor_r_th > side_sensor_r))
 496              		.loc 1 178 2 is_stmt 1 view .LVU101
 497              		.loc 1 178 24 is_stmt 0 view .LVU102
 498 0140 314B     		ldr	r3, .L59+48
 499 0142 D3E90045 		ldrd	r4, [r3]
 500              	.LVL42:
 501              		.loc 1 178 4 view .LVU103
 502 0146 DDE90023 		ldrd	r2, [sp]
 503 014a 2046     		mov	r0, r4
 504 014c 2946     		mov	r1, r5
 505 014e FFF7FEFF 		bl	__aeabi_dcmpgt
 506              	.LVL43:
 507 0152 C8B1     		cbz	r0, .L35
 508              		.loc 1 178 41 discriminator 1 view .LVU104
 509 0154 53EC182B 		vmov	r2, r3, d8
 510 0158 2C49     		ldr	r1, .L59+52
ARM GAS  C:\Temp\cctUwYfi.s 			page 13


 511 015a D1E90001 		ldrd	r0, [r1]
 512 015e FFF7FEFF 		bl	__aeabi_dcmpgt
 513              	.LVL44:
 514 0162 88B1     		cbz	r0, .L35
 179:Src/adjust.c  **** 	{
 180:Src/adjust.c  **** 		side_wall_ctrl_mode = both_side;
 515              		.loc 1 180 3 is_stmt 1 view .LVU105
 516              		.loc 1 180 23 is_stmt 0 view .LVU106
 517 0164 2A4B     		ldr	r3, .L59+56
 518 0166 0222     		movs	r2, #2
 519 0168 1A70     		strb	r2, [r3]
 520 016a 17E0     		b	.L38
 521              	.LVL45:
 522              	.L51:
 168:Src/adjust.c  **** 	}
 523              		.loc 1 168 3 is_stmt 1 view .LVU107
 168:Src/adjust.c  **** 	}
 524              		.loc 1 168 20 is_stmt 0 view .LVU108
 525 016c 264B     		ldr	r3, .L59+48
 526 016e 1EA1     		adr	r1, .L59+16
 527 0170 D1E90001 		ldrd	r0, [r1]
 528 0174 C3E90001 		strd	r0, [r3]
 529 0178 D4E7     		b	.L31
 530              	.L52:
 174:Src/adjust.c  **** 	}
 531              		.loc 1 174 3 is_stmt 1 view .LVU109
 174:Src/adjust.c  **** 	}
 532              		.loc 1 174 20 is_stmt 0 view .LVU110
 533 017a 244B     		ldr	r3, .L59+52
 534 017c 1AA1     		adr	r1, .L59+16
 535 017e D1E90001 		ldrd	r0, [r1]
 536 0182 C3E90001 		strd	r0, [r3]
 537 0186 DBE7     		b	.L34
 538              	.LVL46:
 539              	.L35:
 181:Src/adjust.c  **** 	}
 182:Src/adjust.c  **** 	else if((side_sensor_l_th > side_sensor_l))
 540              		.loc 1 182 7 is_stmt 1 view .LVU111
 541              		.loc 1 182 9 is_stmt 0 view .LVU112
 542 0188 DDE90023 		ldrd	r2, [sp]
 543 018c 2046     		mov	r0, r4
 544 018e 2946     		mov	r1, r5
 545 0190 FFF7FEFF 		bl	__aeabi_dcmpgt
 546              	.LVL47:
 547 0194 78B1     		cbz	r0, .L53
 183:Src/adjust.c  **** 	{
 184:Src/adjust.c  **** 		side_wall_ctrl_mode = left;
 548              		.loc 1 184 3 is_stmt 1 view .LVU113
 549              		.loc 1 184 23 is_stmt 0 view .LVU114
 550 0196 1E4B     		ldr	r3, .L59+56
 551 0198 0122     		movs	r2, #1
 552 019a 1A70     		strb	r2, [r3]
 553              	.L38:
 185:Src/adjust.c  **** 	}
 186:Src/adjust.c  **** 	else if((side_sensor_r_th > side_sensor_r))
 187:Src/adjust.c  **** 	{
 188:Src/adjust.c  **** 		side_wall_ctrl_mode = right;
ARM GAS  C:\Temp\cctUwYfi.s 			page 14


 189:Src/adjust.c  **** 	}
 190:Src/adjust.c  **** 	else{
 191:Src/adjust.c  **** 		side_wall_ctrl_mode = none;
 192:Src/adjust.c  **** 	}
 193:Src/adjust.c  **** 
 194:Src/adjust.c  **** 	//ã‚»ãƒ³ã‚µå€¤æ›´æ–°
 195:Src/adjust.c  **** 	side_sensor_l_old = side_sensor_l;
 554              		.loc 1 195 2 is_stmt 1 view .LVU115
 555              		.loc 1 195 20 is_stmt 0 view .LVU116
 556 019c 144B     		ldr	r3, .L59+24
 557 019e 9DED007B 		vldr.64	d7, [sp]
 558 01a2 83ED007B 		vstr.64	d7, [r3]
 196:Src/adjust.c  **** 	side_sensor_r_old = side_sensor_r;
 559              		.loc 1 196 2 is_stmt 1 view .LVU117
 560              		.loc 1 196 20 is_stmt 0 view .LVU118
 561 01a6 134B     		ldr	r3, .L59+28
 562 01a8 83ED008B 		vstr.64	d8, [r3]
 197:Src/adjust.c  **** 
 198:Src/adjust.c  **** }
 563              		.loc 1 198 1 view .LVU119
 564 01ac 02B0     		add	sp, sp, #8
 565              	.LCFI5:
 566              		.cfi_remember_state
 567              		.cfi_def_cfa_offset 40
 568              	.LVL48:
 569              		.loc 1 198 1 view .LVU120
 570              		@ sp needed
 571 01ae BDEC028B 		vldm	sp!, {d8}
 572              	.LCFI6:
 573              		.cfi_restore 80
 574              		.cfi_restore 81
 575              		.cfi_def_cfa_offset 32
 576              	.LVL49:
 577              		.loc 1 198 1 view .LVU121
 578 01b2 BDE8F087 		pop	{r4, r5, r6, r7, r8, r9, r10, pc}
 579              	.LVL50:
 580              	.L53:
 581              	.LCFI7:
 582              		.cfi_restore_state
 186:Src/adjust.c  **** 	{
 583              		.loc 1 186 7 is_stmt 1 view .LVU122
 186:Src/adjust.c  **** 	{
 584              		.loc 1 186 9 is_stmt 0 view .LVU123
 585 01b6 53EC182B 		vmov	r2, r3, d8
 586 01ba 1449     		ldr	r1, .L59+52
 587 01bc D1E90001 		ldrd	r0, [r1]
 588 01c0 FFF7FEFF 		bl	__aeabi_dcmpgt
 589              	.LVL51:
 590 01c4 18B1     		cbz	r0, .L54
 188:Src/adjust.c  **** 	}
 591              		.loc 1 188 3 is_stmt 1 view .LVU124
 188:Src/adjust.c  **** 	}
 592              		.loc 1 188 23 is_stmt 0 view .LVU125
 593 01c6 124B     		ldr	r3, .L59+56
 594 01c8 0022     		movs	r2, #0
 595 01ca 1A70     		strb	r2, [r3]
 596 01cc E6E7     		b	.L38
ARM GAS  C:\Temp\cctUwYfi.s 			page 15


 597              	.L54:
 191:Src/adjust.c  **** 	}
 598              		.loc 1 191 3 is_stmt 1 view .LVU126
 191:Src/adjust.c  **** 	}
 599              		.loc 1 191 23 is_stmt 0 view .LVU127
 600 01ce 104B     		ldr	r3, .L59+56
 601 01d0 0322     		movs	r2, #3
 602 01d2 1A70     		strb	r2, [r3]
 603 01d4 E2E7     		b	.L38
 604              	.L60:
 605 01d6 00BF     		.align	3
 606              	.L59:
 607 01d8 D2FBC6D7 		.word	-674825262
 608 01dc 9E59123F 		.word	1058167198
 609 01e0 BA1E85EB 		.word	-343597382
 610 01e4 51B88E3F 		.word	1066317905
 611 01e8 EC51B81E 		.word	515396076
 612 01ec 85EBA13F 		.word	1067576197
 613 01f0 00000000 		.word	.LANCHOR6
 614 01f4 00000000 		.word	.LANCHOR7
 615 01f8 00000000 		.word	.LANCHOR8
 616 01fc CDCCCCCC 		.word	-858993459
 617 0200 00000000 		.word	.LANCHOR9
 618 0204 00002440 		.word	1076101120
 619 0208 00000000 		.word	.LANCHOR3
 620 020c 00000000 		.word	.LANCHOR4
 621 0210 00000000 		.word	.LANCHOR5
 622              		.cfi_endproc
 623              	.LFE10:
 625              		.global	__aeabi_dmul
 626              		.section	.text.get_side_wall_err,"ax",%progbits
 627              		.align	1
 628              		.global	get_side_wall_err
 629              		.syntax unified
 630              		.thumb
 631              		.thumb_func
 632              		.fpu fpv4-sp-d16
 634              	get_side_wall_err:
 635              	.LFB11:
 199:Src/adjust.c  **** 
 200:Src/adjust.c  **** //æ©Ÿèƒ½	: å„æ¨ªå£åˆ¶å¾¡ãƒ¢ãƒ¼ãƒ‰ã«ãŠã‘ã‚‹åå·®ã‚’ç®—å‡ºã€å–å¾—ã™ã‚‹
 201:Src/adjust.c  **** //å¼•æ•°	: ãªã—
 202:Src/adjust.c  **** //è¿”ã‚Šå€¤	: ä¸­å¿ƒä½ç½®ã‹ã‚‰ã®åå·®
 203:Src/adjust.c  **** //å‚™è€ƒ 	:1msã‚¿ã‚¹ã‚¯
 204:Src/adjust.c  **** double get_side_wall_err(void)
 205:Src/adjust.c  **** {
 636              		.loc 1 205 1 is_stmt 1 view -0
 637              		.cfi_startproc
 638              		@ args = 0, pretend = 0, frame = 0
 639              		@ frame_needed = 0, uses_anonymous_args = 0
 640 0000 F8B5     		push	{r3, r4, r5, r6, r7, lr}
 641              	.LCFI8:
 642              		.cfi_def_cfa_offset 24
 643              		.cfi_offset 3, -24
 644              		.cfi_offset 4, -20
 645              		.cfi_offset 5, -16
 646              		.cfi_offset 6, -12
ARM GAS  C:\Temp\cctUwYfi.s 			page 16


 647              		.cfi_offset 7, -8
 648              		.cfi_offset 14, -4
 206:Src/adjust.c  **** 	double side_wall_err_tmp = 0;
 649              		.loc 1 206 2 view .LVU129
 650              	.LVL52:
 207:Src/adjust.c  **** 	
 208:Src/adjust.c  **** 	switch(side_wall_ctrl_mode){
 651              		.loc 1 208 2 view .LVU130
 652 0002 394B     		ldr	r3, .L67+8
 653 0004 1B78     		ldrb	r3, [r3]	@ zero_extendqisi2
 654 0006 012B     		cmp	r3, #1
 655 0008 05D0     		beq	.L62
 656 000a 022B     		cmp	r3, #2
 657 000c 36D0     		beq	.L63
 658 000e E3B1     		cbz	r3, .L64
 659 0010 9FED330B 		vldr.64	d0, .L67
 660              	.LVL53:
 661              	.L61:
 209:Src/adjust.c  **** 		case left:
 210:Src/adjust.c  **** 			side_wall_err_tmp = -2 * (target_sensor_sl - get_sidewall_dis_table(Sensor_GetValue(1)));
 211:Src/adjust.c  **** 			break;
 212:Src/adjust.c  **** 		
 213:Src/adjust.c  **** 		case right:
 214:Src/adjust.c  **** 			side_wall_err_tmp = 2 * (target_sensor_sr - get_sidewall_dis_table(Sensor_GetValue(2)));
 215:Src/adjust.c  **** 			break;
 216:Src/adjust.c  **** 		
 217:Src/adjust.c  **** 		case both_side:
 218:Src/adjust.c  **** 			side_wall_err_tmp = (target_sensor_sr - get_sidewall_dis_table(Sensor_GetValue(2))) 
 219:Src/adjust.c  **** 								- (target_sensor_sl - get_sidewall_dis_table(Sensor_GetValue(1)));
 220:Src/adjust.c  **** 			break;
 221:Src/adjust.c  **** 		
 222:Src/adjust.c  **** 		case none:
 223:Src/adjust.c  **** 			side_wall_err_tmp = 0;
 224:Src/adjust.c  **** 			break;						
 225:Src/adjust.c  **** 	}
 226:Src/adjust.c  **** 
 227:Src/adjust.c  **** 	return side_wall_err_tmp;
 228:Src/adjust.c  **** }
 662              		.loc 1 228 1 is_stmt 0 view .LVU131
 663 0014 F8BD     		pop	{r3, r4, r5, r6, r7, pc}
 664              	.LVL54:
 665              	.L62:
 210:Src/adjust.c  **** 			break;
 666              		.loc 1 210 4 is_stmt 1 view .LVU132
 210:Src/adjust.c  **** 			break;
 667              		.loc 1 210 47 is_stmt 0 view .LVU133
 668 0016 354B     		ldr	r3, .L67+12
 669 0018 D3E90045 		ldrd	r4, [r3]
 210:Src/adjust.c  **** 			break;
 670              		.loc 1 210 49 view .LVU134
 671 001c 0120     		movs	r0, #1
 672 001e FFF7FEFF 		bl	Sensor_GetValue
 673              	.LVL55:
 674 0022 FFF7FEFF 		bl	get_sidewall_dis_table
 675              	.LVL56:
 676 0026 10EE100A 		vmov	r0, s0
 677 002a FFF7FEFF 		bl	__aeabi_f2d
ARM GAS  C:\Temp\cctUwYfi.s 			page 17


 678              	.LVL57:
 679 002e 0246     		mov	r2, r0
 680 0030 0B46     		mov	r3, r1
 210:Src/adjust.c  **** 			break;
 681              		.loc 1 210 47 view .LVU135
 682 0032 2046     		mov	r0, r4
 683 0034 2946     		mov	r1, r5
 684 0036 FFF7FEFF 		bl	__aeabi_dsub
 685              	.LVL58:
 210:Src/adjust.c  **** 			break;
 686              		.loc 1 210 22 view .LVU136
 687 003a 0022     		movs	r2, #0
 688 003c 4FF04043 		mov	r3, #-1073741824
 689 0040 FFF7FEFF 		bl	__aeabi_dmul
 690              	.LVL59:
 691 0044 41EC100B 		vmov	d0, r0, r1
 692              	.LVL60:
 211:Src/adjust.c  **** 		
 693              		.loc 1 211 4 is_stmt 1 view .LVU137
 694 0048 E4E7     		b	.L61
 695              	.LVL61:
 696              	.L64:
 214:Src/adjust.c  **** 			break;
 697              		.loc 1 214 4 view .LVU138
 214:Src/adjust.c  **** 			break;
 698              		.loc 1 214 46 is_stmt 0 view .LVU139
 699 004a 294B     		ldr	r3, .L67+16
 700 004c D3E90045 		ldrd	r4, [r3]
 214:Src/adjust.c  **** 			break;
 701              		.loc 1 214 48 view .LVU140
 702 0050 0220     		movs	r0, #2
 703 0052 FFF7FEFF 		bl	Sensor_GetValue
 704              	.LVL62:
 705 0056 FFF7FEFF 		bl	get_sidewall_dis_table
 706              	.LVL63:
 707 005a 10EE100A 		vmov	r0, s0
 708 005e FFF7FEFF 		bl	__aeabi_f2d
 709              	.LVL64:
 710 0062 0246     		mov	r2, r0
 711 0064 0B46     		mov	r3, r1
 214:Src/adjust.c  **** 			break;
 712              		.loc 1 214 46 view .LVU141
 713 0066 2046     		mov	r0, r4
 714 0068 2946     		mov	r1, r5
 715 006a FFF7FEFF 		bl	__aeabi_dsub
 716              	.LVL65:
 717 006e 0246     		mov	r2, r0
 718 0070 0B46     		mov	r3, r1
 214:Src/adjust.c  **** 			break;
 719              		.loc 1 214 22 view .LVU142
 720 0072 FFF7FEFF 		bl	__aeabi_dadd
 721              	.LVL66:
 722 0076 41EC100B 		vmov	d0, r0, r1
 723              	.LVL67:
 215:Src/adjust.c  **** 		
 724              		.loc 1 215 4 is_stmt 1 view .LVU143
 725 007a CBE7     		b	.L61
ARM GAS  C:\Temp\cctUwYfi.s 			page 18


 726              	.LVL68:
 727              	.L63:
 218:Src/adjust.c  **** 								- (target_sensor_sl - get_sidewall_dis_table(Sensor_GetValue(1)));
 728              		.loc 1 218 4 view .LVU144
 218:Src/adjust.c  **** 								- (target_sensor_sl - get_sidewall_dis_table(Sensor_GetValue(1)));
 729              		.loc 1 218 42 is_stmt 0 view .LVU145
 730 007c 1C4B     		ldr	r3, .L67+16
 731 007e D3E90045 		ldrd	r4, [r3]
 218:Src/adjust.c  **** 								- (target_sensor_sl - get_sidewall_dis_table(Sensor_GetValue(1)));
 732              		.loc 1 218 44 view .LVU146
 733 0082 0220     		movs	r0, #2
 734 0084 FFF7FEFF 		bl	Sensor_GetValue
 735              	.LVL69:
 736 0088 FFF7FEFF 		bl	get_sidewall_dis_table
 737              	.LVL70:
 738 008c 10EE100A 		vmov	r0, s0
 739 0090 FFF7FEFF 		bl	__aeabi_f2d
 740              	.LVL71:
 741 0094 0246     		mov	r2, r0
 742 0096 0B46     		mov	r3, r1
 218:Src/adjust.c  **** 								- (target_sensor_sl - get_sidewall_dis_table(Sensor_GetValue(1)));
 743              		.loc 1 218 42 view .LVU147
 744 0098 2046     		mov	r0, r4
 745 009a 2946     		mov	r1, r5
 746 009c FFF7FEFF 		bl	__aeabi_dsub
 747              	.LVL72:
 748 00a0 0446     		mov	r4, r0
 749 00a2 0D46     		mov	r5, r1
 219:Src/adjust.c  **** 			break;
 750              		.loc 1 219 29 view .LVU148
 751 00a4 114B     		ldr	r3, .L67+12
 752 00a6 D3E90067 		ldrd	r6, [r3]
 219:Src/adjust.c  **** 			break;
 753              		.loc 1 219 31 view .LVU149
 754 00aa 0120     		movs	r0, #1
 755 00ac FFF7FEFF 		bl	Sensor_GetValue
 756              	.LVL73:
 757 00b0 FFF7FEFF 		bl	get_sidewall_dis_table
 758              	.LVL74:
 759 00b4 10EE100A 		vmov	r0, s0
 760 00b8 FFF7FEFF 		bl	__aeabi_f2d
 761              	.LVL75:
 762 00bc 0246     		mov	r2, r0
 763 00be 0B46     		mov	r3, r1
 219:Src/adjust.c  **** 			break;
 764              		.loc 1 219 29 view .LVU150
 765 00c0 3046     		mov	r0, r6
 766 00c2 3946     		mov	r1, r7
 767 00c4 FFF7FEFF 		bl	__aeabi_dsub
 768              	.LVL76:
 769 00c8 0246     		mov	r2, r0
 770 00ca 0B46     		mov	r3, r1
 218:Src/adjust.c  **** 								- (target_sensor_sl - get_sidewall_dis_table(Sensor_GetValue(1)));
 771              		.loc 1 218 22 view .LVU151
 772 00cc 2046     		mov	r0, r4
 773 00ce 2946     		mov	r1, r5
 774 00d0 FFF7FEFF 		bl	__aeabi_dsub
ARM GAS  C:\Temp\cctUwYfi.s 			page 19


 775              	.LVL77:
 776 00d4 41EC100B 		vmov	d0, r0, r1
 777              	.LVL78:
 220:Src/adjust.c  **** 		
 778              		.loc 1 220 4 is_stmt 1 view .LVU152
 227:Src/adjust.c  **** }
 779              		.loc 1 227 2 view .LVU153
 227:Src/adjust.c  **** }
 780              		.loc 1 227 9 is_stmt 0 view .LVU154
 781 00d8 9CE7     		b	.L61
 782              	.L68:
 783 00da 00BFAFF3 		.align	3
 783      0080
 784              	.L67:
 785 00e0 00000000 		.word	0
 786 00e4 00000000 		.word	0
 787 00e8 00000000 		.word	.LANCHOR5
 788 00ec 00000000 		.word	.LANCHOR1
 789 00f0 00000000 		.word	.LANCHOR2
 790              		.cfi_endproc
 791              	.LFE11:
 793              		.section	.text.adjust_theta_side_wall,"ax",%progbits
 794              		.align	1
 795              		.global	adjust_theta_side_wall
 796              		.syntax unified
 797              		.thumb
 798              		.thumb_func
 799              		.fpu fpv4-sp-d16
 801              	adjust_theta_side_wall:
 802              	.LFB12:
 229:Src/adjust.c  **** 
 230:Src/adjust.c  **** //æ©Ÿèƒ½	: å„æ¨ªå£åˆ¶å¾¡ãƒ¢ãƒ¼ãƒ‰ã«ãŠã‘ã‚‹è§’åº¦è£œæ­£å‡¦ç†ã‚’å…¥ã‚Œã‚‹
 231:Src/adjust.c  **** //å¼•æ•°	: ãªã—
 232:Src/adjust.c  **** //è¿”ã‚Šå€¤	: ãªã—
 233:Src/adjust.c  **** //å‚™è€ƒ 	:1msã‚¿ã‚¹ã‚¯
 234:Src/adjust.c  **** void adjust_theta_side_wall(void)
 235:Src/adjust.c  **** {
 803              		.loc 1 235 1 is_stmt 1 view -0
 804              		.cfi_startproc
 805              		@ args = 0, pretend = 0, frame = 0
 806              		@ frame_needed = 0, uses_anonymous_args = 0
 807              		@ link register save eliminated.
 236:Src/adjust.c  **** 	switch(side_wall_ctrl_mode){
 808              		.loc 1 236 2 view .LVU156
 237:Src/adjust.c  **** 		case left:
 238:Src/adjust.c  **** 			break;
 239:Src/adjust.c  **** 		case right:
 240:Src/adjust.c  **** 			break;
 241:Src/adjust.c  **** 		case both_side:
 242:Src/adjust.c  **** 			break;
 243:Src/adjust.c  **** 		case none:
 244:Src/adjust.c  **** 			break;						
 245:Src/adjust.c  **** 	}
 246:Src/adjust.c  **** 	//è»Œè·¡åˆ¶å¾¡ã®Ié …ã«ãƒ•ã‚£ãƒ«ã‚¿ã‚’ã‹ã‘ã‚‹ã€‚å„ãƒ¢ãƒ¼ãƒ‰ã«å¿œã˜ãŸæ„Ÿã˜ã§ã€‚
 247:Src/adjust.c  **** }
 809              		.loc 1 247 1 is_stmt 0 view .LVU157
 810 0000 7047     		bx	lr
ARM GAS  C:\Temp\cctUwYfi.s 			page 20


 811              		.cfi_endproc
 812              	.LFE12:
 814              		.section	.text.calc_motor_vol_side_wall,"ax",%progbits
 815              		.align	1
 816              		.global	calc_motor_vol_side_wall
 817              		.syntax unified
 818              		.thumb
 819              		.thumb_func
 820              		.fpu fpv4-sp-d16
 822              	calc_motor_vol_side_wall:
 823              	.LFB13:
 248:Src/adjust.c  **** 
 249:Src/adjust.c  **** //æ©Ÿèƒ½	: åå·®ã‹ã‚‰æ¨ªå£åˆ¶å¾¡ã®ãƒ¢ãƒ¼ã‚¿å°åŠ é›»åœ§ã‚’è¨ˆç®—ã™ã‚‹ã€‚
 250:Src/adjust.c  **** //å¼•æ•°	: ãªã—
 251:Src/adjust.c  **** //è¿”ã‚Šå€¤	: ãªã—
 252:Src/adjust.c  **** //å‚™è€ƒ 	:1msã‚¿ã‚¹ã‚¯
 253:Src/adjust.c  **** void calc_motor_vol_side_wall(void)
 254:Src/adjust.c  **** {
 824              		.loc 1 254 1 is_stmt 1 view -0
 825              		.cfi_startproc
 826              		@ args = 0, pretend = 0, frame = 0
 827              		@ frame_needed = 0, uses_anonymous_args = 0
 828 0000 38B5     		push	{r3, r4, r5, lr}
 829              	.LCFI9:
 830              		.cfi_def_cfa_offset 16
 831              		.cfi_offset 3, -16
 832              		.cfi_offset 4, -12
 833              		.cfi_offset 5, -8
 834              		.cfi_offset 14, -4
 835 0002 2DED028B 		vpush.64	{d8}
 836              	.LCFI10:
 837              		.cfi_def_cfa_offset 24
 838              		.cfi_offset 80, -24
 839              		.cfi_offset 81, -20
 255:Src/adjust.c  **** 	double side_wall_err = 0;
 840              		.loc 1 255 2 view .LVU159
 841              	.LVL79:
 256:Src/adjust.c  **** 	double side_wall_err_P = 0;
 842              		.loc 1 256 2 view .LVU160
 257:Src/adjust.c  **** 	double side_wall_err_D = 0;
 843              		.loc 1 257 2 view .LVU161
 258:Src/adjust.c  **** 	double side_wall_err_PD = 0;
 844              		.loc 1 258 2 view .LVU162
 259:Src/adjust.c  **** 
 260:Src/adjust.c  **** 	//åå·®å–å¾—
 261:Src/adjust.c  **** 	side_wall_err = get_side_wall_err();
 845              		.loc 1 261 2 view .LVU163
 846              		.loc 1 261 18 is_stmt 0 view .LVU164
 847 0006 FFF7FEFF 		bl	get_side_wall_err
 848              	.LVL80:
 849 000a 51EC100B 		vmov	r0, r1, d0
 850              	.LVL81:
 262:Src/adjust.c  **** 
 263:Src/adjust.c  **** 	//Pé …
 264:Src/adjust.c  **** 	side_wall_err_P = side_wall_P * side_wall_err;
 851              		.loc 1 264 2 is_stmt 1 view .LVU165
 852              		.loc 1 264 18 is_stmt 0 view .LVU166
ARM GAS  C:\Temp\cctUwYfi.s 			page 21


 853 000e 0022     		movs	r2, #0
 854 0010 114B     		ldr	r3, .L72
 855 0012 FFF7FEFF 		bl	__aeabi_dmul
 856              	.LVL82:
 857              		.loc 1 264 18 view .LVU167
 858 0016 0446     		mov	r4, r0
 859 0018 0D46     		mov	r5, r1
 860              	.LVL83:
 265:Src/adjust.c  **** 	
 266:Src/adjust.c  **** 	//Dé …
 267:Src/adjust.c  **** 	//yæ–¹å‘ã®é€Ÿåº¦
 268:Src/adjust.c  **** 	//é€Ÿåº¦*ç›®æ¨™è§’åº¦ã¨å®Ÿè§’åº¦ã®ã‚¨ãƒ©ãƒ¼
 269:Src/adjust.c  **** 	side_wall_err_D = -1 * side_wall_D * get_move_speed() * (get_rotation_angle() - get_ideal_angle())
 861              		.loc 1 269 2 is_stmt 1 view .LVU168
 862              		.loc 1 269 39 is_stmt 0 view .LVU169
 863 001a FFF7FEFF 		bl	get_move_speed
 864              	.LVL84:
 865              		.loc 1 269 37 view .LVU170
 866 001e F1EE408A 		vneg.f32	s17, s0
 867              		.loc 1 269 59 view .LVU171
 868 0022 FFF7FEFF 		bl	get_rotation_angle
 869              	.LVL85:
 870 0026 B0EE408A 		vmov.f32	s16, s0
 871              		.loc 1 269 82 view .LVU172
 872 002a FFF7FEFF 		bl	get_ideal_angle
 873              	.LVL86:
 874              		.loc 1 269 80 view .LVU173
 875 002e 38EE408A 		vsub.f32	s16, s16, s0
 876              		.loc 1 269 18 view .LVU174
 877 0032 68EE887A 		vmul.f32	s15, s17, s16
 878 0036 17EE900A 		vmov	r0, s15
 879 003a FFF7FEFF 		bl	__aeabi_f2d
 880              	.LVL87:
 881 003e 0246     		mov	r2, r0
 882 0040 0B46     		mov	r3, r1
 883              	.LVL88:
 270:Src/adjust.c  **** 
 271:Src/adjust.c  **** 	//åˆç®—
 272:Src/adjust.c  **** 	side_wall_err_PD = side_wall_err_P + side_wall_err_D;
 884              		.loc 1 272 2 is_stmt 1 view .LVU175
 885              		.loc 1 272 19 is_stmt 0 view .LVU176
 886 0042 2046     		mov	r0, r4
 887 0044 2946     		mov	r1, r5
 888 0046 FFF7FEFF 		bl	__aeabi_dadd
 889              	.LVL89:
 273:Src/adjust.c  **** 
 274:Src/adjust.c  **** 	/*å°åŠ é›»åœ§ç®—å‡º*/
 275:Src/adjust.c  **** 	target_vol_diff_sidewall = (float)side_wall_err_PD;
 890              		.loc 1 275 2 is_stmt 1 view .LVU177
 891              		.loc 1 275 29 is_stmt 0 view .LVU178
 892 004a FFF7FEFF 		bl	__aeabi_d2f
 893              	.LVL90:
 894              		.loc 1 275 27 view .LVU179
 895 004e 034B     		ldr	r3, .L72+4
 896 0050 1860     		str	r0, [r3]	@ float
 276:Src/adjust.c  **** 
 277:Src/adjust.c  **** }
ARM GAS  C:\Temp\cctUwYfi.s 			page 22


 897              		.loc 1 277 1 view .LVU180
 898 0052 BDEC028B 		vldm	sp!, {d8}
 899              	.LCFI11:
 900              		.cfi_restore 80
 901              		.cfi_restore 81
 902              		.cfi_def_cfa_offset 16
 903 0056 38BD     		pop	{r3, r4, r5, pc}
 904              	.LVL91:
 905              	.L73:
 906              		.loc 1 277 1 view .LVU181
 907              		.align	2
 908              	.L72:
 909 0058 00006940 		.word	1080623104
 910 005c 00000000 		.word	.LANCHOR10
 911              		.cfi_endproc
 912              	.LFE13:
 914              		.section	.text.get_target_vol_diff_sidewall,"ax",%progbits
 915              		.align	1
 916              		.global	get_target_vol_diff_sidewall
 917              		.syntax unified
 918              		.thumb
 919              		.thumb_func
 920              		.fpu fpv4-sp-d16
 922              	get_target_vol_diff_sidewall:
 923              	.LFB14:
 278:Src/adjust.c  **** 
 279:Src/adjust.c  **** //æ©Ÿèƒ½	: æ¨ªå£è£œæ­£ã«ã‚ˆã‚‹ãƒ¢ãƒ¼ã‚¿å°åŠ é›»åœ§ã®å·®ã‚’å–å¾—ã™ã‚‹
 280:Src/adjust.c  **** //å¼•æ•°	: ãªã—
 281:Src/adjust.c  **** //è¿”ã‚Šå€¤	: æ¨ªå£è£œæ­£ã«ã‚ˆã‚‹å³ãƒ¢ãƒ¼ã‚¿å°åŠ é›»åœ§
 282:Src/adjust.c  **** float get_target_vol_diff_sidewall ( void )
 283:Src/adjust.c  **** {
 924              		.loc 1 283 1 is_stmt 1 view -0
 925              		.cfi_startproc
 926              		@ args = 0, pretend = 0, frame = 0
 927              		@ frame_needed = 0, uses_anonymous_args = 0
 928              		@ link register save eliminated.
 284:Src/adjust.c  **** 	return target_vol_diff_sidewall;
 929              		.loc 1 284 2 view .LVU183
 285:Src/adjust.c  **** }
 930              		.loc 1 285 1 is_stmt 0 view .LVU184
 931 0000 014B     		ldr	r3, .L75
 932 0002 93ED000A 		vldr.32	s0, [r3]
 933 0006 7047     		bx	lr
 934              	.L76:
 935              		.align	2
 936              	.L75:
 937 0008 00000000 		.word	.LANCHOR10
 938              		.cfi_endproc
 939              	.LFE14:
 941              		.section	.text.calc_motor_vol_front_wall,"ax",%progbits
 942              		.align	1
 943              		.global	calc_motor_vol_front_wall
 944              		.syntax unified
 945              		.thumb
 946              		.thumb_func
 947              		.fpu fpv4-sp-d16
 949              	calc_motor_vol_front_wall:
ARM GAS  C:\Temp\cctUwYfi.s 			page 23


 950              	.LFB15:
 286:Src/adjust.c  **** 
 287:Src/adjust.c  **** 
 288:Src/adjust.c  **** //æ©Ÿèƒ½	: å‰å£åˆ¶å¾¡ã«ãŠã‘ã‚‹ãƒ¢ãƒ¼ã‚¿å°åŠ é›»åœ§ã‚’è¨ˆç®—ã™ã‚‹ã€‚
 289:Src/adjust.c  **** //å¼•æ•°	: ãªã—
 290:Src/adjust.c  **** //è¿”ã‚Šå€¤	: ãªã—
 291:Src/adjust.c  **** //å‚™è€ƒ	:1msã‚¿ã‚¹ã‚¯
 292:Src/adjust.c  **** void calc_motor_vol_front_wall ( void )
 293:Src/adjust.c  **** {
 951              		.loc 1 293 1 is_stmt 1 view -0
 952              		.cfi_startproc
 953              		@ args = 0, pretend = 0, frame = 24
 954              		@ frame_needed = 0, uses_anonymous_args = 0
 955 0000 2DE9F04F 		push	{r4, r5, r6, r7, r8, r9, r10, fp, lr}
 956              	.LCFI12:
 957              		.cfi_def_cfa_offset 36
 958              		.cfi_offset 4, -36
 959              		.cfi_offset 5, -32
 960              		.cfi_offset 6, -28
 961              		.cfi_offset 7, -24
 962              		.cfi_offset 8, -20
 963              		.cfi_offset 9, -16
 964              		.cfi_offset 10, -12
 965              		.cfi_offset 11, -8
 966              		.cfi_offset 14, -4
 967 0004 2DED088B 		vpush.64	{d8, d9, d10, d11}
 968              	.LCFI13:
 969              		.cfi_def_cfa_offset 68
 970              		.cfi_offset 80, -68
 971              		.cfi_offset 81, -64
 972              		.cfi_offset 82, -60
 973              		.cfi_offset 83, -56
 974              		.cfi_offset 84, -52
 975              		.cfi_offset 85, -48
 976              		.cfi_offset 86, -44
 977              		.cfi_offset 87, -40
 978 0008 87B0     		sub	sp, sp, #28
 979              	.LCFI14:
 980              		.cfi_def_cfa_offset 96
 294:Src/adjust.c  **** 	double front_sensor_r = 0; 				//å³å‰ã‚»ãƒ³ã‚µå€¤
 981              		.loc 1 294 2 view .LVU186
 982              	.LVL92:
 295:Src/adjust.c  ****     double front_sensor_l = 0; 				//å·¦å‰ã‚»ãƒ³ã‚µå€¤
 983              		.loc 1 295 5 view .LVU187
 296:Src/adjust.c  ****     double front_sensor_r_err = 0;   		//å³å‰ã‚»ãƒ³ã‚µã®åå·®
 984              		.loc 1 296 5 view .LVU188
 297:Src/adjust.c  ****     double front_sensor_l_err = 0;			//å·¦å‰ã‚»ãƒ³ã‚µã®åå·®
 985              		.loc 1 297 5 view .LVU189
 298:Src/adjust.c  ****     double front_sensor_move_err = 0;   	//ã‚»ãƒ³ã‚µã®åå·®ã®å’Œ
 986              		.loc 1 298 5 view .LVU190
 299:Src/adjust.c  ****     double front_sensor_rotate_err = 0;		//ã‚»ãƒ³ã‚µã®åå·®ã®å·®
 987              		.loc 1 299 5 view .LVU191
 300:Src/adjust.c  **** 
 301:Src/adjust.c  ****     double front_sensor_move_err_P = 0;   	//åå·®å’Œã®Pé …
 988              		.loc 1 301 5 view .LVU192
 302:Src/adjust.c  ****     double front_sensor_rotate_err_P = 0;   //åå·®å·®ã®Pé …
 989              		.loc 1 302 5 view .LVU193
ARM GAS  C:\Temp\cctUwYfi.s 			page 24


 303:Src/adjust.c  ****     double front_sensor_move_err_D = 0;   	//åå·®å’Œã®Dé …
 990              		.loc 1 303 5 view .LVU194
 304:Src/adjust.c  ****     double front_sensor_rotate_err_D = 0;   //åå·®å·®ã®Dé …
 991              		.loc 1 304 5 view .LVU195
 305:Src/adjust.c  ****     double front_sensor_move_PID = 0;  		//
 992              		.loc 1 305 5 view .LVU196
 306:Src/adjust.c  ****     double front_sensor_rotate_PID = 0;   		//
 993              		.loc 1 306 5 view .LVU197
 307:Src/adjust.c  **** 
 308:Src/adjust.c  **** 
 309:Src/adjust.c  **** 	//ã‚»ãƒ³ã‚µå€¤å–å¾—
 310:Src/adjust.c  **** 	front_sensor_l = SensorValue2length(0);
 994              		.loc 1 310 2 view .LVU198
 995              		.loc 1 310 19 is_stmt 0 view .LVU199
 996 000a 0020     		movs	r0, #0
 997 000c FFF7FEFF 		bl	SensorValue2length
 998              	.LVL93:
 999 0010 57EC106B 		vmov	r6, r7, d0
 1000              	.LVL94:
 311:Src/adjust.c  **** 	front_sensor_r = SensorValue2length(3);
 1001              		.loc 1 311 2 is_stmt 1 view .LVU200
 1002              		.loc 1 311 19 is_stmt 0 view .LVU201
 1003 0014 0320     		movs	r0, #3
 1004 0016 FFF7FEFF 		bl	SensorValue2length
 1005              	.LVL95:
 1006 001a 55EC104B 		vmov	r4, r5, d0
 1007              	.LVL96:
 312:Src/adjust.c  **** 
 313:Src/adjust.c  **** 	//åå·®å–å¾—
 314:Src/adjust.c  **** 	front_sensor_l_err = front_sensor_l - front_sensor_l_ref ;
 1008              		.loc 1 314 2 is_stmt 1 view .LVU202
 1009              		.loc 1 314 21 is_stmt 0 view .LVU203
 1010 001e 74A3     		adr	r3, .L79+72
 1011 0020 D3E90023 		ldrd	r2, [r3]
 1012 0024 3046     		mov	r0, r6
 1013 0026 3946     		mov	r1, r7
 1014 0028 FFF7FEFF 		bl	__aeabi_dsub
 1015              	.LVL97:
 1016 002c 0646     		mov	r6, r0
 1017              	.LVL98:
 1018              		.loc 1 314 21 view .LVU204
 1019 002e 0F46     		mov	r7, r1
 1020              	.LVL99:
 315:Src/adjust.c  **** 	front_sensor_r_err = front_sensor_r - front_sensor_r_ref ;
 1021              		.loc 1 315 2 is_stmt 1 view .LVU205
 1022              		.loc 1 315 21 is_stmt 0 view .LVU206
 1023 0030 71A3     		adr	r3, .L79+80
 1024 0032 D3E90023 		ldrd	r2, [r3]
 1025 0036 2046     		mov	r0, r4
 1026 0038 2946     		mov	r1, r5
 1027 003a FFF7FEFF 		bl	__aeabi_dsub
 1028              	.LVL100:
 1029 003e 0446     		mov	r4, r0
 1030              	.LVL101:
 1031              		.loc 1 315 21 view .LVU207
 1032 0040 0D46     		mov	r5, r1
 1033              	.LVL102:
ARM GAS  C:\Temp\cctUwYfi.s 			page 25


 316:Src/adjust.c  **** 
 317:Src/adjust.c  **** 	/* åå·®å¤‰æ›*/
 318:Src/adjust.c  **** 	front_sensor_move_err = front_sensor_r_err + front_sensor_l_err;
 1034              		.loc 1 318 2 is_stmt 1 view .LVU208
 1035              		.loc 1 318 24 is_stmt 0 view .LVU209
 1036 0042 0246     		mov	r2, r0
 1037 0044 0B46     		mov	r3, r1
 1038 0046 3046     		mov	r0, r6
 1039 0048 3946     		mov	r1, r7
 1040 004a FFF7FEFF 		bl	__aeabi_dadd
 1041              	.LVL103:
 1042 004e 8046     		mov	r8, r0
 1043 0050 8946     		mov	r9, r1
 1044              	.LVL104:
 319:Src/adjust.c  **** 	front_sensor_rotate_err = (front_sensor_r_err - front_sensor_l_err)/chassis_width; //è§’åº¦ã«å¤‰æ
 1045              		.loc 1 319 2 is_stmt 1 view .LVU210
 1046              		.loc 1 319 48 is_stmt 0 view .LVU211
 1047 0052 3246     		mov	r2, r6
 1048 0054 3B46     		mov	r3, r7
 1049 0056 2046     		mov	r0, r4
 1050 0058 2946     		mov	r1, r5
 1051 005a FFF7FEFF 		bl	__aeabi_dsub
 1052              	.LVL105:
 1053              		.loc 1 319 26 view .LVU212
 1054 005e 68A3     		adr	r3, .L79+88
 1055 0060 D3E90023 		ldrd	r2, [r3]
 1056 0064 FFF7FEFF 		bl	__aeabi_ddiv
 1057              	.LVL106:
 1058 0068 0646     		mov	r6, r0
 1059              	.LVL107:
 1060              		.loc 1 319 26 view .LVU213
 1061 006a 0F46     		mov	r7, r1
 1062              	.LVL108:
 320:Src/adjust.c  **** 
 321:Src/adjust.c  **** 	/*åå·®ç©åˆ†(Ié …)*/
 322:Src/adjust.c  **** 	front_sensor_move_err_I  += front_sensor_move_KI * 0.001 * front_sensor_move_err;
 1063              		.loc 1 322 2 is_stmt 1 view .LVU214
 1064              		.loc 1 322 59 is_stmt 0 view .LVU215
 1065 006c 66A3     		adr	r3, .L79+96
 1066 006e D3E90023 		ldrd	r2, [r3]
 1067 0072 4046     		mov	r0, r8
 1068 0074 4946     		mov	r1, r9
 1069 0076 FFF7FEFF 		bl	__aeabi_dmul
 1070              	.LVL109:
 1071              		.loc 1 322 27 view .LVU216
 1072 007a 594C     		ldr	r4, .L79+56
 1073              	.LVL110:
 1074              		.loc 1 322 27 view .LVU217
 1075 007c D4E90023 		ldrd	r2, [r4]
 1076 0080 FFF7FEFF 		bl	__aeabi_dadd
 1077              	.LVL111:
 1078 0084 41EC1B0B 		vmov	d11, r0, r1
 1079 0088 C4E90001 		strd	r0, [r4]
 323:Src/adjust.c  **** 	front_sensor_rotate_err_I  += front_sensor_rotate_KI * 0.001 * front_sensor_rotate_err;
 1080              		.loc 1 323 2 is_stmt 1 view .LVU218
 1081              		.loc 1 323 63 is_stmt 0 view .LVU219
 1082 008c 46A3     		adr	r3, .L79
ARM GAS  C:\Temp\cctUwYfi.s 			page 26


 1083 008e D3E90023 		ldrd	r2, [r3]
 1084 0092 3046     		mov	r0, r6
 1085 0094 3946     		mov	r1, r7
 1086 0096 FFF7FEFF 		bl	__aeabi_dmul
 1087              	.LVL112:
 1088              		.loc 1 323 29 view .LVU220
 1089 009a 524C     		ldr	r4, .L79+60
 1090 009c D4E90023 		ldrd	r2, [r4]
 1091 00a0 FFF7FEFF 		bl	__aeabi_dadd
 1092              	.LVL113:
 1093 00a4 41EC1A0B 		vmov	d10, r0, r1
 1094 00a8 C4E90001 		strd	r0, [r4]
 324:Src/adjust.c  **** 	/*Pé …*/
 325:Src/adjust.c  **** 	front_sensor_move_err_P = front_sensor_move_KP * front_sensor_move_err;
 1095              		.loc 1 325 2 is_stmt 1 view .LVU221
 1096              		.loc 1 325 26 is_stmt 0 view .LVU222
 1097 00ac 40A3     		adr	r3, .L79+8
 1098 00ae D3E90023 		ldrd	r2, [r3]
 1099 00b2 4046     		mov	r0, r8
 1100 00b4 4946     		mov	r1, r9
 1101 00b6 FFF7FEFF 		bl	__aeabi_dmul
 1102              	.LVL114:
 1103 00ba 0446     		mov	r4, r0
 1104 00bc 0D46     		mov	r5, r1
 1105              	.LVL115:
 326:Src/adjust.c  **** 	front_sensor_rotate_err_P = front_sensor_rotate_KP * front_sensor_rotate_err;
 1106              		.loc 1 326 2 is_stmt 1 view .LVU223
 1107              		.loc 1 326 28 is_stmt 0 view .LVU224
 1108 00be 3EA3     		adr	r3, .L79+16
 1109 00c0 D3E90023 		ldrd	r2, [r3]
 1110 00c4 3046     		mov	r0, r6
 1111 00c6 3946     		mov	r1, r7
 1112 00c8 FFF7FEFF 		bl	__aeabi_dmul
 1113              	.LVL116:
 1114 00cc CDE90201 		strd	r0, [sp, #8]
 1115              	.LVL117:
 327:Src/adjust.c  **** 	/*Dé …*/
 328:Src/adjust.c  **** 	front_sensor_move_err_D = (front_sensor_move_D_prev + front_sensor_move_KD * front_sensor_move_fil
 1116              		.loc 1 328 2 is_stmt 1 view .LVU225
 1117              		.loc 1 328 126 is_stmt 0 view .LVU226
 1118 00d0 DFF83CB1 		ldr	fp, .L79+104
 1119 00d4 DBE90023 		ldrd	r2, [fp]
 1120 00d8 CDE90089 		strd	r8, [sp]
 1121 00dc 4046     		mov	r0, r8
 1122              	.LVL118:
 1123              		.loc 1 328 126 view .LVU227
 1124 00de 4946     		mov	r1, r9
 1125 00e0 FFF7FEFF 		bl	__aeabi_dsub
 1126              	.LVL119:
 1127              		.loc 1 328 101 view .LVU228
 1128 00e4 36A3     		adr	r3, .L79+24
 1129 00e6 D3E90023 		ldrd	r2, [r3]
 1130 00ea FFF7FEFF 		bl	__aeabi_dmul
 1131              	.LVL120:
 1132              		.loc 1 328 54 view .LVU229
 1133 00ee DFF82491 		ldr	r9, .L79+108
 1134 00f2 D9E90023 		ldrd	r2, [r9]
ARM GAS  C:\Temp\cctUwYfi.s 			page 27


 1135 00f6 FFF7FEFF 		bl	__aeabi_dadd
 1136              	.LVL121:
 1137              		.loc 1 328 26 view .LVU230
 1138 00fa 33A3     		adr	r3, .L79+32
 1139 00fc D3E90023 		ldrd	r2, [r3]
 1140 0100 FFF7FEFF 		bl	__aeabi_ddiv
 1141              	.LVL122:
 1142 0104 41EC190B 		vmov	d9, r0, r1
 1143              	.LVL123:
 329:Src/adjust.c  **** 								/(1+front_sensor_move_fil*0.001);
 330:Src/adjust.c  **** 	front_sensor_rotate_err_D = (front_sensor_rotate_D_prev + front_sensor_rotate_KD * front_sensor_ro
 1144              		.loc 1 330 2 is_stmt 1 view .LVU231
 1145              		.loc 1 330 136 is_stmt 0 view .LVU232
 1146 0108 DFF80CA1 		ldr	r10, .L79+112
 1147 010c DAE90023 		ldrd	r2, [r10]
 1148 0110 3046     		mov	r0, r6
 1149              	.LVL124:
 1150              		.loc 1 330 136 view .LVU233
 1151 0112 3946     		mov	r1, r7
 1152 0114 FFF7FEFF 		bl	__aeabi_dsub
 1153              	.LVL125:
 1154              		.loc 1 330 109 view .LVU234
 1155 0118 2DA3     		adr	r3, .L79+40
 1156 011a D3E90023 		ldrd	r2, [r3]
 1157 011e FFF7FEFF 		bl	__aeabi_dmul
 1158              	.LVL126:
 1159              		.loc 1 330 58 view .LVU235
 1160 0122 DFF8F880 		ldr	r8, .L79+116
 1161              	.LVL127:
 1162              		.loc 1 330 58 view .LVU236
 1163 0126 D8E90023 		ldrd	r2, [r8]
 1164 012a FFF7FEFF 		bl	__aeabi_dadd
 1165              	.LVL128:
 1166              		.loc 1 330 28 view .LVU237
 1167 012e 2AA3     		adr	r3, .L79+48
 1168 0130 D3E90023 		ldrd	r2, [r3]
 1169 0134 FFF7FEFF 		bl	__aeabi_ddiv
 1170              	.LVL129:
 1171 0138 41EC180B 		vmov	d8, r0, r1
 1172              	.LVL130:
 331:Src/adjust.c  **** 								/(1+front_sensor_rotate_fil*0.001);
 332:Src/adjust.c  **** 	/*PID*/
 333:Src/adjust.c  **** 	front_sensor_move_PID = front_sensor_move_err_P + front_sensor_move_err_I + front_sensor_move_err_
 1173              		.loc 1 333 2 is_stmt 1 view .LVU238
 1174              		.loc 1 333 50 is_stmt 0 view .LVU239
 1175 013c 2246     		mov	r2, r4
 1176 013e 2B46     		mov	r3, r5
 1177 0140 51EC1B0B 		vmov	r0, r1, d11
 1178              	.LVL131:
 1179              		.loc 1 333 50 view .LVU240
 1180 0144 FFF7FEFF 		bl	__aeabi_dadd
 1181              	.LVL132:
 1182              		.loc 1 333 24 view .LVU241
 1183 0148 53EC192B 		vmov	r2, r3, d9
 1184 014c FFF7FEFF 		bl	__aeabi_dadd
 1185              	.LVL133:
 1186 0150 CDE90401 		strd	r0, [sp, #16]
ARM GAS  C:\Temp\cctUwYfi.s 			page 28


 1187              	.LVL134:
 334:Src/adjust.c  ****     front_sensor_rotate_PID = front_sensor_rotate_err_P + front_sensor_rotate_err_I + front_sensor_
 1188              		.loc 1 334 5 is_stmt 1 view .LVU242
 1189              		.loc 1 334 57 is_stmt 0 view .LVU243
 1190 0154 DDE90223 		ldrd	r2, [sp, #8]
 1191 0158 51EC1A0B 		vmov	r0, r1, d10
 1192              	.LVL135:
 1193              		.loc 1 334 57 view .LVU244
 1194 015c FFF7FEFF 		bl	__aeabi_dadd
 1195              	.LVL136:
 1196              		.loc 1 334 29 view .LVU245
 1197 0160 53EC182B 		vmov	r2, r3, d8
 1198 0164 FFF7FEFF 		bl	__aeabi_dadd
 1199              	.LVL137:
 1200 0168 0446     		mov	r4, r0
 1201              	.LVL138:
 1202              		.loc 1 334 29 view .LVU246
 1203 016a 0D46     		mov	r5, r1
 1204              	.LVL139:
 335:Src/adjust.c  **** 
 336:Src/adjust.c  ****     /*å°åŠ é›»åœ§ç®—å‡º*/
 337:Src/adjust.c  **** 	target_vol_sum_frontwall = front_sensor_move_PID;
 1205              		.loc 1 337 2 is_stmt 1 view .LVU247
 1206              		.loc 1 337 27 is_stmt 0 view .LVU248
 1207 016c DDE90401 		ldrd	r0, [sp, #16]
 1208 0170 FFF7FEFF 		bl	__aeabi_d2f
 1209              	.LVL140:
 1210 0174 1C4B     		ldr	r3, .L79+64
 1211 0176 1860     		str	r0, [r3]	@ float
 338:Src/adjust.c  **** 	target_vol_diff_frontwall = front_sensor_rotate_PID;
 1212              		.loc 1 338 2 is_stmt 1 view .LVU249
 1213              		.loc 1 338 28 is_stmt 0 view .LVU250
 1214 0178 2046     		mov	r0, r4
 1215 017a 2946     		mov	r1, r5
 1216 017c FFF7FEFF 		bl	__aeabi_d2f
 1217              	.LVL141:
 1218 0180 1A4B     		ldr	r3, .L79+68
 1219 0182 1860     		str	r0, [r3]	@ float
 339:Src/adjust.c  **** 
 340:Src/adjust.c  **** 	/*ãƒ‘ãƒ©ãƒ¡ãƒ¼ã‚¿æ›´æ–°*/
 341:Src/adjust.c  ****     front_sensor_move_err_prev = front_sensor_move_err;   	
 1220              		.loc 1 341 5 is_stmt 1 view .LVU251
 1221              		.loc 1 341 32 is_stmt 0 view .LVU252
 1222 0184 9DED007B 		vldr.64	d7, [sp]
 1223 0188 8BED007B 		vstr.64	d7, [fp]
 342:Src/adjust.c  **** 	front_sensor_rotate_err_prev = front_sensor_rotate_err; 
 1224              		.loc 1 342 2 is_stmt 1 view .LVU253
 1225              		.loc 1 342 31 is_stmt 0 view .LVU254
 1226 018c CAE90067 		strd	r6, [r10]
 343:Src/adjust.c  ****     front_sensor_move_D_prev = front_sensor_move_err_D;		
 1227              		.loc 1 343 5 is_stmt 1 view .LVU255
 1228              		.loc 1 343 30 is_stmt 0 view .LVU256
 1229 0190 89ED009B 		vstr.64	d9, [r9]
 344:Src/adjust.c  ****     front_sensor_rotate_D_prev = front_sensor_rotate_err_D;
 1230              		.loc 1 344 5 is_stmt 1 view .LVU257
 1231              		.loc 1 344 32 is_stmt 0 view .LVU258
 1232 0194 88ED008B 		vstr.64	d8, [r8]
ARM GAS  C:\Temp\cctUwYfi.s 			page 29


 345:Src/adjust.c  **** 
 346:Src/adjust.c  **** }
 1233              		.loc 1 346 1 view .LVU259
 1234 0198 07B0     		add	sp, sp, #28
 1235              	.LCFI15:
 1236              		.cfi_def_cfa_offset 68
 1237              	.LVL142:
 1238              		.loc 1 346 1 view .LVU260
 1239              		@ sp needed
 1240 019a BDEC088B 		vldm	sp!, {d8-d11}
 1241              	.LCFI16:
 1242              		.cfi_restore 86
 1243              		.cfi_restore 87
 1244              		.cfi_restore 84
 1245              		.cfi_restore 85
 1246              		.cfi_restore 82
 1247              		.cfi_restore 83
 1248              		.cfi_restore 80
 1249              		.cfi_restore 81
 1250              		.cfi_def_cfa_offset 36
 1251              	.LVL143:
 1252              		.loc 1 346 1 view .LVU261
 1253 019e BDE8F08F 		pop	{r4, r5, r6, r7, r8, r9, r10, fp, pc}
 1254              	.LVL144:
 1255              	.L80:
 1256              		.loc 1 346 1 view .LVU262
 1257 01a2 00BFAFF3 		.align	3
 1257      0080
 1258              	.L79:
 1259 01a8 60E5D022 		.word	584115552
 1260 01ac 9BA5643F 		.word	1063560603
 1261 01b0 00000000 		.word	0
 1262 01b4 631A5940 		.word	1079581283
 1263 01b8 000000E0 		.word	-536870912
 1264 01bc 8A9E1940 		.word	1075420810
 1265 01c0 00000060 		.word	1610612736
 1266 01c4 A2AB5340 		.word	1079225250
 1267 01c8 C1CAA185 		.word	-2052994367
 1268 01cc 2062F03F 		.word	1072718368
 1269 01d0 00000000 		.word	0
 1270 01d4 236C2240 		.word	1075997731
 1271 01d8 7368916D 		.word	1838246003
 1272 01dc 81B6F03F 		.word	1072739969
 1273 01e0 00000000 		.word	.LANCHOR11
 1274 01e4 00000000 		.word	.LANCHOR12
 1275 01e8 00000000 		.word	.LANCHOR17
 1276 01ec 00000000 		.word	.LANCHOR18
 1277 01f0 00000020 		.word	536870912
 1278 01f4 0681853F 		.word	1065713926
 1279 01f8 000000A0 		.word	-1610612736
 1280 01fc 9999893F 		.word	1065982361
 1281 0200 000000E0 		.word	-536870912
 1282 0204 BED5A23F 		.word	1067636158
 1283 0208 08AC1C5A 		.word	1511828488
 1284 020c D4DF9A3F 		.word	1067114452
 1285 0210 00000000 		.word	.LANCHOR13
 1286 0214 00000000 		.word	.LANCHOR14
ARM GAS  C:\Temp\cctUwYfi.s 			page 30


 1287 0218 00000000 		.word	.LANCHOR15
 1288 021c 00000000 		.word	.LANCHOR16
 1289              		.cfi_endproc
 1290              	.LFE15:
 1292              		.section	.text.get_target_vol_sum_frontwall,"ax",%progbits
 1293              		.align	1
 1294              		.global	get_target_vol_sum_frontwall
 1295              		.syntax unified
 1296              		.thumb
 1297              		.thumb_func
 1298              		.fpu fpv4-sp-d16
 1300              	get_target_vol_sum_frontwall:
 1301              	.LFB16:
 347:Src/adjust.c  **** 
 348:Src/adjust.c  **** //æ©Ÿèƒ½	: å‰å£è£œæ­£ã«ã‚ˆã‚‹ãƒ¢ãƒ¼ã‚¿å°åŠ é›»åœ§ã®å’Œã‚’å–å¾—ã™ã‚‹
 349:Src/adjust.c  **** //å¼•æ•°	: ãªã—
 350:Src/adjust.c  **** //è¿”ã‚Šå€¤	: å‰å£è£œæ­£ã«ã‚ˆã‚‹å³ãƒ¢ãƒ¼ã‚¿å°åŠ é›»åœ§
 351:Src/adjust.c  **** float get_target_vol_sum_frontwall ( void )
 352:Src/adjust.c  **** {
 1302              		.loc 1 352 1 is_stmt 1 view -0
 1303              		.cfi_startproc
 1304              		@ args = 0, pretend = 0, frame = 0
 1305              		@ frame_needed = 0, uses_anonymous_args = 0
 1306              		@ link register save eliminated.
 353:Src/adjust.c  **** 	return target_vol_sum_frontwall;
 1307              		.loc 1 353 2 view .LVU264
 354:Src/adjust.c  **** }
 1308              		.loc 1 354 1 is_stmt 0 view .LVU265
 1309 0000 014B     		ldr	r3, .L82
 1310 0002 93ED000A 		vldr.32	s0, [r3]
 1311 0006 7047     		bx	lr
 1312              	.L83:
 1313              		.align	2
 1314              	.L82:
 1315 0008 00000000 		.word	.LANCHOR17
 1316              		.cfi_endproc
 1317              	.LFE16:
 1319              		.section	.text.get_target_vol_diff_frontwall,"ax",%progbits
 1320              		.align	1
 1321              		.global	get_target_vol_diff_frontwall
 1322              		.syntax unified
 1323              		.thumb
 1324              		.thumb_func
 1325              		.fpu fpv4-sp-d16
 1327              	get_target_vol_diff_frontwall:
 1328              	.LFB17:
 355:Src/adjust.c  **** 
 356:Src/adjust.c  **** //æ©Ÿèƒ½	: å‰å£è£œæ­£ã«ã‚ˆã‚‹ãƒ¢ãƒ¼ã‚¿å°åŠ é›»åœ§ã®å·®ã‚’å–å¾—ã™ã‚‹
 357:Src/adjust.c  **** //å¼•æ•°	: ãªã—
 358:Src/adjust.c  **** //è¿”ã‚Šå€¤	: å‰å£è£œæ­£ã«ã‚ˆã‚‹å³ãƒ¢ãƒ¼ã‚¿å°åŠ é›»åœ§
 359:Src/adjust.c  **** float get_target_vol_diff_frontwall ( void )
 360:Src/adjust.c  **** {
 1329              		.loc 1 360 1 is_stmt 1 view -0
 1330              		.cfi_startproc
 1331              		@ args = 0, pretend = 0, frame = 0
 1332              		@ frame_needed = 0, uses_anonymous_args = 0
 1333              		@ link register save eliminated.
ARM GAS  C:\Temp\cctUwYfi.s 			page 31


 361:Src/adjust.c  **** 	return target_vol_diff_frontwall;
 1334              		.loc 1 361 2 view .LVU267
 362:Src/adjust.c  **** }
 1335              		.loc 1 362 1 is_stmt 0 view .LVU268
 1336 0000 014B     		ldr	r3, .L85
 1337 0002 93ED000A 		vldr.32	s0, [r3]
 1338 0006 7047     		bx	lr
 1339              	.L86:
 1340              		.align	2
 1341              	.L85:
 1342 0008 00000000 		.word	.LANCHOR18
 1343              		.cfi_endproc
 1344              	.LFE17:
 1346              		.section	.text.clr_frontwall_operate_history,"ax",%progbits
 1347              		.align	1
 1348              		.global	clr_frontwall_operate_history
 1349              		.syntax unified
 1350              		.thumb
 1351              		.thumb_func
 1352              		.fpu fpv4-sp-d16
 1354              	clr_frontwall_operate_history:
 1355              	.LFB18:
 363:Src/adjust.c  **** 
 364:Src/adjust.c  **** //æ©Ÿèƒ½	: å‰å£åˆ¶å¾¡ã®æ“ä½œå±¥æ­´ã‚’æ¶ˆã™
 365:Src/adjust.c  **** //å¼•æ•°	: ãªã—
 366:Src/adjust.c  **** //è¿”ã‚Šå€¤	: ãªã—
 367:Src/adjust.c  **** void clr_frontwall_operate_history ( void )
 368:Src/adjust.c  **** {
 1356              		.loc 1 368 1 is_stmt 1 view -0
 1357              		.cfi_startproc
 1358              		@ args = 0, pretend = 0, frame = 0
 1359              		@ frame_needed = 0, uses_anonymous_args = 0
 1360              		@ link register save eliminated.
 369:Src/adjust.c  **** 	front_sensor_move_err_I = 0;   		
 1361              		.loc 1 369 2 view .LVU270
 1362              		.loc 1 369 26 is_stmt 0 view .LVU271
 1363 0000 0022     		movs	r2, #0
 1364 0002 0023     		movs	r3, #0
 1365 0004 0949     		ldr	r1, .L88
 1366 0006 C1E90023 		strd	r2, [r1]
 370:Src/adjust.c  **** 	front_sensor_rotate_err_I = 0; 	  	
 1367              		.loc 1 370 2 is_stmt 1 view .LVU272
 1368              		.loc 1 370 28 is_stmt 0 view .LVU273
 1369 000a 0949     		ldr	r1, .L88+4
 1370 000c C1E90023 		strd	r2, [r1]
 371:Src/adjust.c  **** 	front_sensor_move_err_prev = 0;	   	
 1371              		.loc 1 371 2 is_stmt 1 view .LVU274
 1372              		.loc 1 371 29 is_stmt 0 view .LVU275
 1373 0010 0849     		ldr	r1, .L88+8
 1374 0012 C1E90023 		strd	r2, [r1]
 372:Src/adjust.c  **** 	front_sensor_rotate_err_prev = 0; 	
 1375              		.loc 1 372 2 is_stmt 1 view .LVU276
 1376              		.loc 1 372 31 is_stmt 0 view .LVU277
 1377 0016 0849     		ldr	r1, .L88+12
 1378 0018 C1E90023 		strd	r2, [r1]
 373:Src/adjust.c  **** 	front_sensor_move_D_prev = 0; 		
 1379              		.loc 1 373 2 is_stmt 1 view .LVU278
ARM GAS  C:\Temp\cctUwYfi.s 			page 32


 1380              		.loc 1 373 27 is_stmt 0 view .LVU279
 1381 001c 0749     		ldr	r1, .L88+16
 1382 001e C1E90023 		strd	r2, [r1]
 374:Src/adjust.c  **** 	front_sensor_rotate_D_prev = 0;	   	
 1383              		.loc 1 374 2 is_stmt 1 view .LVU280
 1384              		.loc 1 374 29 is_stmt 0 view .LVU281
 1385 0022 0749     		ldr	r1, .L88+20
 1386 0024 C1E90023 		strd	r2, [r1]
 375:Src/adjust.c  **** }
 1387              		.loc 1 375 1 view .LVU282
 1388 0028 7047     		bx	lr
 1389              	.L89:
 1390 002a 00BF     		.align	2
 1391              	.L88:
 1392 002c 00000000 		.word	.LANCHOR11
 1393 0030 00000000 		.word	.LANCHOR12
 1394 0034 00000000 		.word	.LANCHOR13
 1395 0038 00000000 		.word	.LANCHOR15
 1396 003c 00000000 		.word	.LANCHOR14
 1397 0040 00000000 		.word	.LANCHOR16
 1398              		.cfi_endproc
 1399              	.LFE18:
 1401              		.section	.text.fornt_wall_calibrate,"ax",%progbits
 1402              		.align	1
 1403              		.global	fornt_wall_calibrate
 1404              		.syntax unified
 1405              		.thumb
 1406              		.thumb_func
 1407              		.fpu fpv4-sp-d16
 1409              	fornt_wall_calibrate:
 1410              	.LFB19:
 376:Src/adjust.c  **** 
 377:Src/adjust.c  **** 
 378:Src/adjust.c  **** ////////////////////////////////////////
 379:Src/adjust.c  **** /* ãƒã‚¦ã‚¹ä½ç½®è£œæ­£é–¢æ•°		ã€€			*/
 380:Src/adjust.c  **** /* å£ã‚’ä½¿ã£ãŸä½ç½®ã®è£œæ­£ç”¨é–¢æ•°			*/
 381:Src/adjust.c  **** ////////////////////////////////////////
 382:Src/adjust.c  **** 
 383:Src/adjust.c  **** /* memo:å‰å£è£œæ­£
 384:Src/adjust.c  ****  * param:
 385:Src/adjust.c  ****  *  * */
 386:Src/adjust.c  **** void fornt_wall_calibrate (void)
 387:Src/adjust.c  **** {
 1411              		.loc 1 387 1 is_stmt 1 view -0
 1412              		.cfi_startproc
 1413              		@ args = 0, pretend = 0, frame = 0
 1414              		@ frame_needed = 0, uses_anonymous_args = 0
 1415 0000 F8B5     		push	{r3, r4, r5, r6, r7, lr}
 1416              	.LCFI17:
 1417              		.cfi_def_cfa_offset 24
 1418              		.cfi_offset 3, -24
 1419              		.cfi_offset 4, -20
 1420              		.cfi_offset 5, -16
 1421              		.cfi_offset 6, -12
 1422              		.cfi_offset 7, -8
 1423              		.cfi_offset 14, -4
 388:Src/adjust.c  **** 	double temp_r;
ARM GAS  C:\Temp\cctUwYfi.s 			page 33


 1424              		.loc 1 388 2 view .LVU284
 389:Src/adjust.c  **** 	double temp_l;
 1425              		.loc 1 389 2 view .LVU285
 390:Src/adjust.c  **** 	double temp;
 1426              		.loc 1 390 2 view .LVU286
 391:Src/adjust.c  **** 
 392:Src/adjust.c  **** 	set_mode_ctrl(front_wall); 		//åˆ¶å¾¡ãƒ¢ãƒ¼ãƒ‰ã‚’å‰å£è£œæ­£ãƒ¢ãƒ¼ãƒ‰ã«
 1427              		.loc 1 392 2 view .LVU287
 1428 0002 0120     		movs	r0, #1
 1429 0004 FFF7FEFF 		bl	set_mode_ctrl
 1430              	.LVL145:
 393:Src/adjust.c  **** 	fornt_wall_calibrate_tim = 0; 	//å‰å£åˆ¶å¾¡ç”¨ã‚¿ã‚¤ãƒã‚’åˆæœŸåŒ–
 1431              		.loc 1 393 2 view .LVU288
 1432              		.loc 1 393 27 is_stmt 0 view .LVU289
 1433 0008 454B     		ldr	r3, .L113+24
 1434 000a 0022     		movs	r2, #0
 1435 000c 1A80     		strh	r2, [r3]	@ movhi
 1436 000e 22E0     		b	.L101
 1437              	.L110:
 394:Src/adjust.c  **** 
 395:Src/adjust.c  **** 	while(1)
 396:Src/adjust.c  **** 	{
 397:Src/adjust.c  **** 		//åå·®å–å¾—
 398:Src/adjust.c  **** 		temp_r = ABS(front_sensor_r_ref - SensorValue2length(3));
 1438              		.loc 1 398 12 discriminator 1 view .LVU290
 1439 0010 0320     		movs	r0, #3
 1440 0012 FFF7FEFF 		bl	SensorValue2length
 1441              	.LVL146:
 1442 0016 53EC102B 		vmov	r2, r3, d0
 1443 001a 3BA1     		adr	r1, .L113
 1444 001c D1E90001 		ldrd	r0, [r1]
 1445 0020 FFF7FEFF 		bl	__aeabi_dsub
 1446              	.LVL147:
 1447 0024 0646     		mov	r6, r0
 1448 0026 01F10047 		add	r7, r1, #-2147483648
 1449 002a 30E0     		b	.L93
 1450              	.LVL148:
 1451              	.L111:
 399:Src/adjust.c  **** 		temp_l = ABS(front_sensor_l_ref - SensorValue2length(0));
 1452              		.loc 1 399 12 discriminator 1 view .LVU291
 1453 002c 0020     		movs	r0, #0
 1454 002e FFF7FEFF 		bl	SensorValue2length
 1455              	.LVL149:
 1456 0032 53EC102B 		vmov	r2, r3, d0
 1457 0036 36A1     		adr	r1, .L113+8
 1458 0038 D1E90001 		ldrd	r0, [r1]
 1459 003c FFF7FEFF 		bl	__aeabi_dsub
 1460              	.LVL150:
 1461 0040 0446     		mov	r4, r0
 1462 0042 01F10045 		add	r5, r1, #-2147483648
 1463 0046 3EE0     		b	.L96
 1464              	.LVL151:
 1465              	.L112:
 400:Src/adjust.c  **** 		//åå·®ã®æœ€å¤§å€¤å–å¾—
 401:Src/adjust.c  **** 		temp = MAX(temp_r,temp_l);
 402:Src/adjust.c  **** 		//ã‚»ãƒ³ã‚µå€¤ãŒåŸºæº–ã‚ˆã‚Šå·®ã‚’æŒã¤ã¨ãã€ã‚¿ã‚¤ãƒã‚’ãƒªã‚»ãƒƒãƒˆ
 403:Src/adjust.c  **** 		if(temp > front_sensor_th)
ARM GAS  C:\Temp\cctUwYfi.s 			page 34


 404:Src/adjust.c  **** 		{
 405:Src/adjust.c  **** 		 fornt_wall_calibrate_tim = 0;
 1466              		.loc 1 405 4 is_stmt 1 view .LVU292
 1467              		.loc 1 405 29 is_stmt 0 view .LVU293
 1468 0048 354B     		ldr	r3, .L113+24
 1469 004a 0022     		movs	r2, #0
 1470 004c 1A80     		strh	r2, [r3]	@ movhi
 1471              	.L99:
 406:Src/adjust.c  **** 		}
 407:Src/adjust.c  **** 		//ã‚­ãƒ£ãƒªãƒ–ãƒ¬ãƒ¼ã‚·ãƒ§ãƒ³æ™‚é–“ã‚’è¶…ãˆã‚‹ã¨ãã€ãƒ–ãƒ¬ã‚¤ã‚¯
 408:Src/adjust.c  **** 		if(fornt_wall_calibrate_tim >= calib_tim )
 1472              		.loc 1 408 3 is_stmt 1 view .LVU294
 1473              		.loc 1 408 31 is_stmt 0 view .LVU295
 1474 004e 344B     		ldr	r3, .L113+24
 1475 0050 1B88     		ldrh	r3, [r3]
 1476              		.loc 1 408 5 view .LVU296
 1477 0052 C72B     		cmp	r3, #199
 1478 0054 4AD8     		bhi	.L109
 1479              	.LVL152:
 1480              	.L101:
 395:Src/adjust.c  **** 	{
 1481              		.loc 1 395 2 is_stmt 1 view .LVU297
 398:Src/adjust.c  **** 		temp_l = ABS(front_sensor_l_ref - SensorValue2length(0));
 1482              		.loc 1 398 3 view .LVU298
 398:Src/adjust.c  **** 		temp_l = ABS(front_sensor_l_ref - SensorValue2length(0));
 1483              		.loc 1 398 12 is_stmt 0 view .LVU299
 1484 0056 0320     		movs	r0, #3
 1485 0058 FFF7FEFF 		bl	SensorValue2length
 1486              	.LVL153:
 1487 005c 53EC102B 		vmov	r2, r3, d0
 1488 0060 29A1     		adr	r1, .L113
 1489 0062 D1E90001 		ldrd	r0, [r1]
 1490 0066 FFF7FEFF 		bl	__aeabi_dsub
 1491              	.LVL154:
 1492 006a 0022     		movs	r2, #0
 1493 006c 0023     		movs	r3, #0
 1494 006e FFF7FEFF 		bl	__aeabi_dcmplt
 1495              	.LVL155:
 1496 0072 0028     		cmp	r0, #0
 1497 0074 CCD1     		bne	.L110
 398:Src/adjust.c  **** 		temp_l = ABS(front_sensor_l_ref - SensorValue2length(0));
 1498              		.loc 1 398 12 discriminator 2 view .LVU300
 1499 0076 0320     		movs	r0, #3
 1500 0078 FFF7FEFF 		bl	SensorValue2length
 1501              	.LVL156:
 1502 007c 53EC102B 		vmov	r2, r3, d0
 1503 0080 21A1     		adr	r1, .L113
 1504 0082 D1E90001 		ldrd	r0, [r1]
 1505 0086 FFF7FEFF 		bl	__aeabi_dsub
 1506              	.LVL157:
 1507 008a 0646     		mov	r6, r0
 1508 008c 0F46     		mov	r7, r1
 1509              	.L93:
 1510              	.LVL158:
 399:Src/adjust.c  **** 		//åå·®ã®æœ€å¤§å€¤å–å¾—
 1511              		.loc 1 399 3 is_stmt 1 discriminator 4 view .LVU301
 399:Src/adjust.c  **** 		//åå·®ã®æœ€å¤§å€¤å–å¾—
ARM GAS  C:\Temp\cctUwYfi.s 			page 35


 1512              		.loc 1 399 12 is_stmt 0 discriminator 4 view .LVU302
 1513 008e 0020     		movs	r0, #0
 1514 0090 FFF7FEFF 		bl	SensorValue2length
 1515              	.LVL159:
 1516 0094 53EC102B 		vmov	r2, r3, d0
 1517 0098 1DA1     		adr	r1, .L113+8
 1518 009a D1E90001 		ldrd	r0, [r1]
 1519 009e FFF7FEFF 		bl	__aeabi_dsub
 1520              	.LVL160:
 1521 00a2 0022     		movs	r2, #0
 1522 00a4 0023     		movs	r3, #0
 1523 00a6 FFF7FEFF 		bl	__aeabi_dcmplt
 1524              	.LVL161:
 1525 00aa 0028     		cmp	r0, #0
 1526 00ac BED1     		bne	.L111
 399:Src/adjust.c  **** 		//åå·®ã®æœ€å¤§å€¤å–å¾—
 1527              		.loc 1 399 12 discriminator 2 view .LVU303
 1528 00ae 0020     		movs	r0, #0
 1529 00b0 FFF7FEFF 		bl	SensorValue2length
 1530              	.LVL162:
 1531 00b4 53EC102B 		vmov	r2, r3, d0
 1532 00b8 15A1     		adr	r1, .L113+8
 1533 00ba D1E90001 		ldrd	r0, [r1]
 1534 00be FFF7FEFF 		bl	__aeabi_dsub
 1535              	.LVL163:
 1536 00c2 0446     		mov	r4, r0
 1537 00c4 0D46     		mov	r5, r1
 1538              	.L96:
 1539              	.LVL164:
 401:Src/adjust.c  **** 		//ã‚»ãƒ³ã‚µå€¤ãŒåŸºæº–ã‚ˆã‚Šå·®ã‚’æŒã¤ã¨ãã€ã‚¿ã‚¤ãƒã‚’ãƒªã‚»ãƒƒãƒˆ
 1540              		.loc 1 401 3 is_stmt 1 discriminator 4 view .LVU304
 401:Src/adjust.c  **** 		//ã‚»ãƒ³ã‚µå€¤ãŒåŸºæº–ã‚ˆã‚Šå·®ã‚’æŒã¤ã¨ãã€ã‚¿ã‚¤ãƒã‚’ãƒªã‚»ãƒƒãƒˆ
 1541              		.loc 1 401 10 is_stmt 0 discriminator 4 view .LVU305
 1542 00c6 2246     		mov	r2, r4
 1543 00c8 2B46     		mov	r3, r5
 1544 00ca 3046     		mov	r0, r6
 1545 00cc 3946     		mov	r1, r7
 1546 00ce FFF7FEFF 		bl	__aeabi_dcmpgt
 1547              	.LVL165:
 1548 00d2 08B1     		cbz	r0, .L97
 401:Src/adjust.c  **** 		//ã‚»ãƒ³ã‚µå€¤ãŒåŸºæº–ã‚ˆã‚Šå·®ã‚’æŒã¤ã¨ãã€ã‚¿ã‚¤ãƒã‚’ãƒªã‚»ãƒƒãƒˆ
 1549              		.loc 1 401 10 view .LVU306
 1550 00d4 3446     		mov	r4, r6
 1551              	.LVL166:
 401:Src/adjust.c  **** 		//ã‚»ãƒ³ã‚µå€¤ãŒåŸºæº–ã‚ˆã‚Šå·®ã‚’æŒã¤ã¨ãã€ã‚¿ã‚¤ãƒã‚’ãƒªã‚»ãƒƒãƒˆ
 1552              		.loc 1 401 10 view .LVU307
 1553 00d6 3D46     		mov	r5, r7
 1554              	.L97:
 1555              	.LVL167:
 403:Src/adjust.c  **** 		{
 1556              		.loc 1 403 3 is_stmt 1 discriminator 4 view .LVU308
 403:Src/adjust.c  **** 		{
 1557              		.loc 1 403 5 is_stmt 0 discriminator 4 view .LVU309
 1558 00d8 0FA3     		adr	r3, .L113+16
 1559 00da D3E90023 		ldrd	r2, [r3]
 1560 00de 2046     		mov	r0, r4
 1561 00e0 2946     		mov	r1, r5
ARM GAS  C:\Temp\cctUwYfi.s 			page 36


 1562 00e2 FFF7FEFF 		bl	__aeabi_dcmpgt
 1563              	.LVL168:
 1564 00e6 0028     		cmp	r0, #0
 1565 00e8 B1D0     		beq	.L99
 1566 00ea ADE7     		b	.L112
 1567              	.L109:
 409:Src/adjust.c  **** 		{
 410:Src/adjust.c  **** 		 break;
 411:Src/adjust.c  **** 		}
 412:Src/adjust.c  **** 	}
 413:Src/adjust.c  **** 	//è£œæ­£çµ‚äº†æ™‚ã€ç§»å‹•è·é›¢ã€è§’åº¦ã«ç†æƒ³å€¤ã‚’ä»£å…¥
 414:Src/adjust.c  **** 	set_move_length(get_ideal_length());
 1568              		.loc 1 414 2 is_stmt 1 view .LVU310
 1569 00ec FFF7FEFF 		bl	get_ideal_length
 1570              	.LVL169:
 1571 00f0 FFF7FEFF 		bl	set_move_length
 1572              	.LVL170:
 415:Src/adjust.c  **** 	set_rotation_angle(get_ideal_angle());
 1573              		.loc 1 415 2 view .LVU311
 1574 00f4 FFF7FEFF 		bl	get_ideal_angle
 1575              	.LVL171:
 1576 00f8 FFF7FEFF 		bl	set_rotation_angle
 1577              	.LVL172:
 416:Src/adjust.c  **** 	
 417:Src/adjust.c  **** 	//åˆ¶å¾¡ãƒ¢ãƒ¼ãƒ‰ã‚’è»Œè·¡åˆ¶å¾¡ã«å¤‰æ›´
 418:Src/adjust.c  **** 	set_mode_ctrl(trace);
 1578              		.loc 1 418 2 view .LVU312
 1579 00fc 0020     		movs	r0, #0
 1580 00fe FFF7FEFF 		bl	set_mode_ctrl
 1581              	.LVL173:
 419:Src/adjust.c  **** }
 1582              		.loc 1 419 1 is_stmt 0 view .LVU313
 1583 0102 F8BD     		pop	{r3, r4, r5, r6, r7, pc}
 1584              	.LVL174:
 1585              	.L114:
 1586              		.loc 1 419 1 view .LVU314
 1587 0104 AFF30080 		.align	3
 1588              	.L113:
 1589 0108 000000A0 		.word	-1610612736
 1590 010c 9999893F 		.word	1065982361
 1591 0110 00000020 		.word	536870912
 1592 0114 0681853F 		.word	1065713926
 1593 0118 FCA9F1D2 		.word	-755914244
 1594 011c 4D62403F 		.word	1061184077
 1595 0120 00000000 		.word	.LANCHOR19
 1596              		.cfi_endproc
 1597              	.LFE19:
 1599              		.section	.text.calibrate_tim,"ax",%progbits
 1600              		.align	1
 1601              		.global	calibrate_tim
 1602              		.syntax unified
 1603              		.thumb
 1604              		.thumb_func
 1605              		.fpu fpv4-sp-d16
 1607              	calibrate_tim:
 1608              	.LFB20:
 420:Src/adjust.c  **** 
ARM GAS  C:\Temp\cctUwYfi.s 			page 37


 421:Src/adjust.c  **** /* memo:å‰å£è£œæ­£ç”¨ã‚¿ã‚¤ãƒ
 422:Src/adjust.c  ****  * param:
 423:Src/adjust.c  ****  *  * */
 424:Src/adjust.c  **** void calibrate_tim (void){
 1609              		.loc 1 424 26 is_stmt 1 view -0
 1610              		.cfi_startproc
 1611              		@ args = 0, pretend = 0, frame = 0
 1612              		@ frame_needed = 0, uses_anonymous_args = 0
 1613              		@ link register save eliminated.
 425:Src/adjust.c  **** 
 426:Src/adjust.c  **** 	fornt_wall_calibrate_tim += 1;
 1614              		.loc 1 426 2 view .LVU316
 1615              		.loc 1 426 27 is_stmt 0 view .LVU317
 1616 0000 054A     		ldr	r2, .L117
 1617 0002 1388     		ldrh	r3, [r2]
 1618 0004 0133     		adds	r3, r3, #1
 1619 0006 9BB2     		uxth	r3, r3
 1620 0008 1380     		strh	r3, [r2]	@ movhi
 427:Src/adjust.c  **** 
 428:Src/adjust.c  **** 	if(fornt_wall_calibrate_tim > calib_tim){
 1621              		.loc 1 428 2 is_stmt 1 view .LVU318
 1622              		.loc 1 428 4 is_stmt 0 view .LVU319
 1623 000a C82B     		cmp	r3, #200
 1624 000c 02D9     		bls	.L115
 429:Src/adjust.c  **** 		fornt_wall_calibrate_tim = calib_tim;
 1625              		.loc 1 429 3 is_stmt 1 view .LVU320
 1626              		.loc 1 429 28 is_stmt 0 view .LVU321
 1627 000e 1346     		mov	r3, r2
 1628 0010 C822     		movs	r2, #200
 1629 0012 1A80     		strh	r2, [r3]	@ movhi
 1630              	.L115:
 430:Src/adjust.c  **** 	}
 431:Src/adjust.c  **** }
 1631              		.loc 1 431 1 view .LVU322
 1632 0014 7047     		bx	lr
 1633              	.L118:
 1634 0016 00BF     		.align	2
 1635              	.L117:
 1636 0018 00000000 		.word	.LANCHOR19
 1637              		.cfi_endproc
 1638              	.LFE20:
 1640              		.section	.text.adjust_1ms,"ax",%progbits
 1641              		.align	1
 1642              		.global	adjust_1ms
 1643              		.syntax unified
 1644              		.thumb
 1645              		.thumb_func
 1646              		.fpu fpv4-sp-d16
 1648              	adjust_1ms:
 1649              	.LFB3:
  39:Src/adjust.c  **** 	set_target_side_sensor();		//åˆæœŸä½ç½®ã®ã‚»ãƒ³ã‚µå€¤ã‚’æ¨ªå£åˆ¶å¾¡ç›®æ¨™å€¤ã«ã‚»ãƒƒãƒˆ
 1650              		.loc 1 39 1 is_stmt 1 view -0
 1651              		.cfi_startproc
 1652              		@ args = 0, pretend = 0, frame = 0
 1653              		@ frame_needed = 0, uses_anonymous_args = 0
 1654 0000 08B5     		push	{r3, lr}
 1655              	.LCFI18:
ARM GAS  C:\Temp\cctUwYfi.s 			page 38


 1656              		.cfi_def_cfa_offset 8
 1657              		.cfi_offset 3, -8
 1658              		.cfi_offset 14, -4
  40:Src/adjust.c  **** 	calc_side_wall_ctrl_mode();		//æ¨ªå£è£œæ­£ã®ãƒ¢ãƒ¼ãƒ‰ã‚’æ±ºå®š
 1659              		.loc 1 40 2 view .LVU324
 1660 0002 FFF7FEFF 		bl	set_target_side_sensor
 1661              	.LVL175:
  41:Src/adjust.c  **** 	adjust_theta_side_wall();		//æ¨ªå£è£œæ­£ã®ãƒ¢ãƒ¼ãƒ‰ã«å¿œã˜ã€è»Œè·¡åˆ¶å¾¡ã«ãŠã‘ã‚‹è§’åº¦ã‚’
 1662              		.loc 1 41 2 view .LVU325
 1663 0006 FFF7FEFF 		bl	calc_side_wall_ctrl_mode
 1664              	.LVL176:
  42:Src/adjust.c  **** 	calc_motor_vol_side_wall();		//æ¨ªå£è£œæ­£ã«ãŠã‘ã‚‹å°åŠ é›»åœ§è¨ˆç®—
 1665              		.loc 1 42 2 view .LVU326
  43:Src/adjust.c  **** 	calc_motor_vol_front_wall();	//å‰å£åˆ¶å¾¡ã«ãŠã‘ã‚‹å°åŠ é›»åœ§è¨ˆç®—
 1666              		.loc 1 43 2 view .LVU327
 1667 000a FFF7FEFF 		bl	calc_motor_vol_side_wall
 1668              	.LVL177:
  44:Src/adjust.c  **** 	calibrate_tim();				//å‰å£åˆ¶å¾¡ç”¨ã‚¿ã‚¤ãƒ
 1669              		.loc 1 44 2 view .LVU328
 1670 000e FFF7FEFF 		bl	calc_motor_vol_front_wall
 1671              	.LVL178:
  45:Src/adjust.c  **** }
 1672              		.loc 1 45 2 view .LVU329
 1673 0012 FFF7FEFF 		bl	calibrate_tim
 1674              	.LVL179:
  46:Src/adjust.c  **** 
 1675              		.loc 1 46 1 is_stmt 0 view .LVU330
 1676 0016 08BD     		pop	{r3, pc}
 1677              		.cfi_endproc
 1678              	.LFE3:
 1680              		.section	.bss.ave_counter.7302,"aw",%nobits
 1681              		.align	1
 1682              		.set	.LANCHOR8,. + 0
 1685              	ave_counter.7302:
 1686 0000 0000     		.space	2
 1687              		.section	.bss.ave_store.7301,"aw",%nobits
 1688              		.align	3
 1689              		.set	.LANCHOR9,. + 0
 1692              	ave_store.7301:
 1693 0000 00000000 		.space	160
 1693      00000000 
 1693      00000000 
 1693      00000000 
 1693      00000000 
 1694              		.section	.bss.fornt_wall_calibrate_tim,"aw",%nobits
 1695              		.align	1
 1696              		.set	.LANCHOR19,. + 0
 1699              	fornt_wall_calibrate_tim:
 1700 0000 0000     		.space	2
 1701              		.section	.bss.front_sensor_move_D_prev,"aw",%nobits
 1702              		.align	3
 1703              		.set	.LANCHOR14,. + 0
 1706              	front_sensor_move_D_prev:
 1707 0000 00000000 		.space	8
 1707      00000000 
 1708              		.section	.bss.front_sensor_move_err_I,"aw",%nobits
 1709              		.align	3
ARM GAS  C:\Temp\cctUwYfi.s 			page 39


 1710              		.set	.LANCHOR11,. + 0
 1713              	front_sensor_move_err_I:
 1714 0000 00000000 		.space	8
 1714      00000000 
 1715              		.section	.bss.front_sensor_move_err_prev,"aw",%nobits
 1716              		.align	3
 1717              		.set	.LANCHOR13,. + 0
 1720              	front_sensor_move_err_prev:
 1721 0000 00000000 		.space	8
 1721      00000000 
 1722              		.section	.bss.front_sensor_rotate_D_prev,"aw",%nobits
 1723              		.align	3
 1724              		.set	.LANCHOR16,. + 0
 1727              	front_sensor_rotate_D_prev:
 1728 0000 00000000 		.space	8
 1728      00000000 
 1729              		.section	.bss.front_sensor_rotate_err_I,"aw",%nobits
 1730              		.align	3
 1731              		.set	.LANCHOR12,. + 0
 1734              	front_sensor_rotate_err_I:
 1735 0000 00000000 		.space	8
 1735      00000000 
 1736              		.section	.bss.front_sensor_rotate_err_prev,"aw",%nobits
 1737              		.align	3
 1738              		.set	.LANCHOR15,. + 0
 1741              	front_sensor_rotate_err_prev:
 1742 0000 00000000 		.space	8
 1742      00000000 
 1743              		.section	.bss.side_sensor_l_old.7290,"aw",%nobits
 1744              		.align	3
 1745              		.set	.LANCHOR6,. + 0
 1748              	side_sensor_l_old.7290:
 1749 0000 00000000 		.space	8
 1749      00000000 
 1750              		.section	.bss.side_sensor_l_th,"aw",%nobits
 1751              		.align	3
 1752              		.set	.LANCHOR3,. + 0
 1755              	side_sensor_l_th:
 1756 0000 00000000 		.space	8
 1756      00000000 
 1757              		.section	.bss.side_sensor_r_old.7289,"aw",%nobits
 1758              		.align	3
 1759              		.set	.LANCHOR7,. + 0
 1762              	side_sensor_r_old.7289:
 1763 0000 00000000 		.space	8
 1763      00000000 
 1764              		.section	.bss.side_sensor_r_th,"aw",%nobits
 1765              		.align	3
 1766              		.set	.LANCHOR4,. + 0
 1769              	side_sensor_r_th:
 1770 0000 00000000 		.space	8
 1770      00000000 
 1771              		.section	.bss.target_sensor_sl,"aw",%nobits
 1772              		.align	3
 1773              		.set	.LANCHOR1,. + 0
 1776              	target_sensor_sl:
 1777 0000 00000000 		.space	8
ARM GAS  C:\Temp\cctUwYfi.s 			page 40


 1777      00000000 
 1778              		.section	.bss.target_sensor_sr,"aw",%nobits
 1779              		.align	3
 1780              		.set	.LANCHOR2,. + 0
 1783              	target_sensor_sr:
 1784 0000 00000000 		.space	8
 1784      00000000 
 1785              		.section	.bss.target_set_flg.7268,"aw",%nobits
 1786              		.set	.LANCHOR0,. + 0
 1789              	target_set_flg.7268:
 1790 0000 00       		.space	1
 1791              		.section	.bss.target_vol_diff_frontwall,"aw",%nobits
 1792              		.align	2
 1793              		.set	.LANCHOR18,. + 0
 1796              	target_vol_diff_frontwall:
 1797 0000 00000000 		.space	4
 1798              		.section	.bss.target_vol_diff_sidewall,"aw",%nobits
 1799              		.align	2
 1800              		.set	.LANCHOR10,. + 0
 1803              	target_vol_diff_sidewall:
 1804 0000 00000000 		.space	4
 1805              		.section	.bss.target_vol_sum_frontwall,"aw",%nobits
 1806              		.align	2
 1807              		.set	.LANCHOR17,. + 0
 1810              	target_vol_sum_frontwall:
 1811 0000 00000000 		.space	4
 1812              		.section	.data.side_wall_ctrl_mode,"aw"
 1813              		.set	.LANCHOR5,. + 0
 1816              	side_wall_ctrl_mode:
 1817 0000 03       		.byte	3
 1818              		.text
 1819              	.Letext0:
 1820              		.file 2 "c:\\tools\\gcc-arm-none-eabi-9-2019-q4-major\\arm-none-eabi\\include\\machine\\_default_t
 1821              		.file 3 "c:\\tools\\gcc-arm-none-eabi-9-2019-q4-major\\arm-none-eabi\\include\\sys\\lock.h"
 1822              		.file 4 "c:\\tools\\gcc-arm-none-eabi-9-2019-q4-major\\arm-none-eabi\\include\\sys\\_types.h"
 1823              		.file 5 "c:\\tools\\gcc-arm-none-eabi-9-2019-q4-major\\lib\\gcc\\arm-none-eabi\\9.2.1\\include\\st
 1824              		.file 6 "c:\\tools\\gcc-arm-none-eabi-9-2019-q4-major\\arm-none-eabi\\include\\sys\\reent.h"
 1825              		.file 7 "c:\\tools\\gcc-arm-none-eabi-9-2019-q4-major\\arm-none-eabi\\include\\sys\\_stdint.h"
 1826              		.file 8 "c:\\tools\\gcc-arm-none-eabi-9-2019-q4-major\\arm-none-eabi\\include\\math.h"
 1827              		.file 9 "Inc/adjust.h"
 1828              		.file 10 "Inc/exvol.h"
 1829              		.file 11 "Inc/ir_sensor.h"
 1830              		.file 12 "Inc/target.h"
 1831              		.file 13 "Inc/mouse_state.h"
 1832              		.file 14 "Inc/lookuptable.h"
ARM GAS  C:\Temp\cctUwYfi.s 			page 41


DEFINED SYMBOLS
                            *ABS*:00000000 adjust.c
  C:\Temp\cctUwYfi.s:18     .text.set_target_side_sensor:00000000 $t
  C:\Temp\cctUwYfi.s:26     .text.set_target_side_sensor:00000000 set_target_side_sensor
  C:\Temp\cctUwYfi.s:64     .text.set_target_side_sensor:00000028 $d
  C:\Temp\cctUwYfi.s:76     .text.get_target_sensor_sr:00000000 $t
  C:\Temp\cctUwYfi.s:83     .text.get_target_sensor_sr:00000000 get_target_sensor_sr
  C:\Temp\cctUwYfi.s:106    .text.get_target_sensor_sr:00000014 $d
  C:\Temp\cctUwYfi.s:111    .text.get_target_sensor_sl:00000000 $t
  C:\Temp\cctUwYfi.s:118    .text.get_target_sensor_sl:00000000 get_target_sensor_sl
  C:\Temp\cctUwYfi.s:141    .text.get_target_sensor_sl:00000014 $d
  C:\Temp\cctUwYfi.s:146    .text.get_side_sensor_l_th:00000000 $t
  C:\Temp\cctUwYfi.s:153    .text.get_side_sensor_l_th:00000000 get_side_sensor_l_th
  C:\Temp\cctUwYfi.s:168    .text.get_side_sensor_l_th:00000008 $d
  C:\Temp\cctUwYfi.s:173    .text.get_side_sensor_r_th:00000000 $t
  C:\Temp\cctUwYfi.s:180    .text.get_side_sensor_r_th:00000000 get_side_sensor_r_th
  C:\Temp\cctUwYfi.s:195    .text.get_side_sensor_r_th:00000008 $d
  C:\Temp\cctUwYfi.s:200    .text.get_side_wall_ctrl_mode:00000000 $t
  C:\Temp\cctUwYfi.s:207    .text.get_side_wall_ctrl_mode:00000000 get_side_wall_ctrl_mode
  C:\Temp\cctUwYfi.s:222    .text.get_side_wall_ctrl_mode:00000008 $d
  C:\Temp\cctUwYfi.s:233    .text.calc_side_wall_ctrl_mode:00000000 $t
  C:\Temp\cctUwYfi.s:240    .text.calc_side_wall_ctrl_mode:00000000 calc_side_wall_ctrl_mode
  C:\Temp\cctUwYfi.s:607    .text.calc_side_wall_ctrl_mode:000001d8 $d
  C:\Temp\cctUwYfi.s:627    .text.get_side_wall_err:00000000 $t
  C:\Temp\cctUwYfi.s:634    .text.get_side_wall_err:00000000 get_side_wall_err
  C:\Temp\cctUwYfi.s:785    .text.get_side_wall_err:000000e0 $d
  C:\Temp\cctUwYfi.s:794    .text.adjust_theta_side_wall:00000000 $t
  C:\Temp\cctUwYfi.s:801    .text.adjust_theta_side_wall:00000000 adjust_theta_side_wall
  C:\Temp\cctUwYfi.s:815    .text.calc_motor_vol_side_wall:00000000 $t
  C:\Temp\cctUwYfi.s:822    .text.calc_motor_vol_side_wall:00000000 calc_motor_vol_side_wall
  C:\Temp\cctUwYfi.s:909    .text.calc_motor_vol_side_wall:00000058 $d
  C:\Temp\cctUwYfi.s:915    .text.get_target_vol_diff_sidewall:00000000 $t
  C:\Temp\cctUwYfi.s:922    .text.get_target_vol_diff_sidewall:00000000 get_target_vol_diff_sidewall
  C:\Temp\cctUwYfi.s:937    .text.get_target_vol_diff_sidewall:00000008 $d
  C:\Temp\cctUwYfi.s:942    .text.calc_motor_vol_front_wall:00000000 $t
  C:\Temp\cctUwYfi.s:949    .text.calc_motor_vol_front_wall:00000000 calc_motor_vol_front_wall
  C:\Temp\cctUwYfi.s:1259   .text.calc_motor_vol_front_wall:000001a8 $d
  C:\Temp\cctUwYfi.s:1293   .text.get_target_vol_sum_frontwall:00000000 $t
  C:\Temp\cctUwYfi.s:1300   .text.get_target_vol_sum_frontwall:00000000 get_target_vol_sum_frontwall
  C:\Temp\cctUwYfi.s:1315   .text.get_target_vol_sum_frontwall:00000008 $d
  C:\Temp\cctUwYfi.s:1320   .text.get_target_vol_diff_frontwall:00000000 $t
  C:\Temp\cctUwYfi.s:1327   .text.get_target_vol_diff_frontwall:00000000 get_target_vol_diff_frontwall
  C:\Temp\cctUwYfi.s:1342   .text.get_target_vol_diff_frontwall:00000008 $d
  C:\Temp\cctUwYfi.s:1347   .text.clr_frontwall_operate_history:00000000 $t
  C:\Temp\cctUwYfi.s:1354   .text.clr_frontwall_operate_history:00000000 clr_frontwall_operate_history
  C:\Temp\cctUwYfi.s:1392   .text.clr_frontwall_operate_history:0000002c $d
  C:\Temp\cctUwYfi.s:1402   .text.fornt_wall_calibrate:00000000 $t
  C:\Temp\cctUwYfi.s:1409   .text.fornt_wall_calibrate:00000000 fornt_wall_calibrate
  C:\Temp\cctUwYfi.s:1589   .text.fornt_wall_calibrate:00000108 $d
  C:\Temp\cctUwYfi.s:1600   .text.calibrate_tim:00000000 $t
  C:\Temp\cctUwYfi.s:1607   .text.calibrate_tim:00000000 calibrate_tim
  C:\Temp\cctUwYfi.s:1636   .text.calibrate_tim:00000018 $d
  C:\Temp\cctUwYfi.s:1641   .text.adjust_1ms:00000000 $t
  C:\Temp\cctUwYfi.s:1648   .text.adjust_1ms:00000000 adjust_1ms
  C:\Temp\cctUwYfi.s:1681   .bss.ave_counter.7302:00000000 $d
  C:\Temp\cctUwYfi.s:1685   .bss.ave_counter.7302:00000000 ave_counter.7302
  C:\Temp\cctUwYfi.s:1688   .bss.ave_store.7301:00000000 $d
ARM GAS  C:\Temp\cctUwYfi.s 			page 42


  C:\Temp\cctUwYfi.s:1692   .bss.ave_store.7301:00000000 ave_store.7301
  C:\Temp\cctUwYfi.s:1695   .bss.fornt_wall_calibrate_tim:00000000 $d
  C:\Temp\cctUwYfi.s:1699   .bss.fornt_wall_calibrate_tim:00000000 fornt_wall_calibrate_tim
  C:\Temp\cctUwYfi.s:1702   .bss.front_sensor_move_D_prev:00000000 $d
  C:\Temp\cctUwYfi.s:1706   .bss.front_sensor_move_D_prev:00000000 front_sensor_move_D_prev
  C:\Temp\cctUwYfi.s:1709   .bss.front_sensor_move_err_I:00000000 $d
  C:\Temp\cctUwYfi.s:1713   .bss.front_sensor_move_err_I:00000000 front_sensor_move_err_I
  C:\Temp\cctUwYfi.s:1716   .bss.front_sensor_move_err_prev:00000000 $d
  C:\Temp\cctUwYfi.s:1720   .bss.front_sensor_move_err_prev:00000000 front_sensor_move_err_prev
  C:\Temp\cctUwYfi.s:1723   .bss.front_sensor_rotate_D_prev:00000000 $d
  C:\Temp\cctUwYfi.s:1727   .bss.front_sensor_rotate_D_prev:00000000 front_sensor_rotate_D_prev
  C:\Temp\cctUwYfi.s:1730   .bss.front_sensor_rotate_err_I:00000000 $d
  C:\Temp\cctUwYfi.s:1734   .bss.front_sensor_rotate_err_I:00000000 front_sensor_rotate_err_I
  C:\Temp\cctUwYfi.s:1737   .bss.front_sensor_rotate_err_prev:00000000 $d
  C:\Temp\cctUwYfi.s:1741   .bss.front_sensor_rotate_err_prev:00000000 front_sensor_rotate_err_prev
  C:\Temp\cctUwYfi.s:1744   .bss.side_sensor_l_old.7290:00000000 $d
  C:\Temp\cctUwYfi.s:1748   .bss.side_sensor_l_old.7290:00000000 side_sensor_l_old.7290
  C:\Temp\cctUwYfi.s:1751   .bss.side_sensor_l_th:00000000 $d
  C:\Temp\cctUwYfi.s:1755   .bss.side_sensor_l_th:00000000 side_sensor_l_th
  C:\Temp\cctUwYfi.s:1758   .bss.side_sensor_r_old.7289:00000000 $d
  C:\Temp\cctUwYfi.s:1762   .bss.side_sensor_r_old.7289:00000000 side_sensor_r_old.7289
  C:\Temp\cctUwYfi.s:1765   .bss.side_sensor_r_th:00000000 $d
  C:\Temp\cctUwYfi.s:1769   .bss.side_sensor_r_th:00000000 side_sensor_r_th
  C:\Temp\cctUwYfi.s:1772   .bss.target_sensor_sl:00000000 $d
  C:\Temp\cctUwYfi.s:1776   .bss.target_sensor_sl:00000000 target_sensor_sl
  C:\Temp\cctUwYfi.s:1779   .bss.target_sensor_sr:00000000 $d
  C:\Temp\cctUwYfi.s:1783   .bss.target_sensor_sr:00000000 target_sensor_sr
  C:\Temp\cctUwYfi.s:1789   .bss.target_set_flg.7268:00000000 target_set_flg.7268
  C:\Temp\cctUwYfi.s:1790   .bss.target_set_flg.7268:00000000 $d
  C:\Temp\cctUwYfi.s:1792   .bss.target_vol_diff_frontwall:00000000 $d
  C:\Temp\cctUwYfi.s:1796   .bss.target_vol_diff_frontwall:00000000 target_vol_diff_frontwall
  C:\Temp\cctUwYfi.s:1799   .bss.target_vol_diff_sidewall:00000000 $d
  C:\Temp\cctUwYfi.s:1803   .bss.target_vol_diff_sidewall:00000000 target_vol_diff_sidewall
  C:\Temp\cctUwYfi.s:1806   .bss.target_vol_sum_frontwall:00000000 $d
  C:\Temp\cctUwYfi.s:1810   .bss.target_vol_sum_frontwall:00000000 target_vol_sum_frontwall
  C:\Temp\cctUwYfi.s:1816   .data.side_wall_ctrl_mode:00000000 side_wall_ctrl_mode

UNDEFINED SYMBOLS
__aeabi_d2f
__aeabi_f2d
__aeabi_dsub
__aeabi_dcmplt
__aeabi_dadd
__aeabi_ddiv
__aeabi_dcmpgt
Sensor_GetValue
get_sidewall_dis_table
__aeabi_dmul
get_move_speed
get_rotation_angle
get_ideal_angle
SensorValue2length
set_mode_ctrl
get_ideal_length
set_move_length
set_rotation_angle
