ARM GAS  C:\Temp\cced9Zfa.s 			page 1


   1              		.cpu cortex-m4
   2              		.eabi_attribute 27, 1
   3              		.eabi_attribute 28, 1
   4              		.eabi_attribute 20, 1
   5              		.eabi_attribute 21, 1
   6              		.eabi_attribute 23, 3
   7              		.eabi_attribute 24, 1
   8              		.eabi_attribute 25, 1
   9              		.eabi_attribute 26, 1
  10              		.eabi_attribute 30, 1
  11              		.eabi_attribute 34, 1
  12              		.eabi_attribute 18, 4
  13              		.file	"control.c"
  14              		.text
  15              	.Ltext0:
  16              		.cfi_sections	.debug_frame
  17              		.section	.text.get_target_vol_sum_ctrl,"ax",%progbits
  18              		.align	1
  19              		.global	get_target_vol_sum_ctrl
  20              		.arch armv7e-m
  21              		.syntax unified
  22              		.thumb
  23              		.thumb_func
  24              		.fpu fpv4-sp-d16
  26              	get_target_vol_sum_ctrl:
  27              	.LFB3:
  28              		.file 1 "Src/control.c"
   1:Src/control.c **** #include "param.h"
   2:Src/control.c **** #include "target.h"
   3:Src/control.c **** #include "control.h"
   4:Src/control.c **** #include "mouse_state.h"
   5:Src/control.c **** 
   6:Src/control.c **** 
   7:Src/control.c **** static float move_speed_err_I = 0; 			//移動速度偏差積分
   8:Src/control.c **** static float rotate_speed_err_I = 0;	    //角速度偏差積分
   9:Src/control.c **** 
  10:Src/control.c **** static float target_vol_sum_ctrl = 0;		//右タイヤの操作量[ duty % ]
  11:Src/control.c **** static float target_vol_diff_ctrl = 0;		//左タイヤの操作量[ duty % ]
  12:Src/control.c **** 
  13:Src/control.c **** //機能	: 軌道制御によるモータ印加電圧の和を取得する
  14:Src/control.c **** //引数	: なし
  15:Src/control.c **** //返り値	: 軌道制御による右モータ印加電圧
  16:Src/control.c **** float get_target_vol_sum_ctrl ( void )
  17:Src/control.c **** {
  29              		.loc 1 17 1 view -0
  30              		.cfi_startproc
  31              		@ args = 0, pretend = 0, frame = 0
  32              		@ frame_needed = 0, uses_anonymous_args = 0
  33              		@ link register save eliminated.
  18:Src/control.c ****     return target_vol_sum_ctrl;
  34              		.loc 1 18 5 view .LVU1
  19:Src/control.c **** }
  35              		.loc 1 19 1 is_stmt 0 view .LVU2
  36 0000 014B     		ldr	r3, .L2
  37 0002 93ED000A 		vldr.32	s0, [r3]
  38 0006 7047     		bx	lr
  39              	.L3:
ARM GAS  C:\Temp\cced9Zfa.s 			page 2


  40              		.align	2
  41              	.L2:
  42 0008 00000000 		.word	.LANCHOR0
  43              		.cfi_endproc
  44              	.LFE3:
  46              		.section	.text.get_target_vol_diff_ctrl,"ax",%progbits
  47              		.align	1
  48              		.global	get_target_vol_diff_ctrl
  49              		.syntax unified
  50              		.thumb
  51              		.thumb_func
  52              		.fpu fpv4-sp-d16
  54              	get_target_vol_diff_ctrl:
  55              	.LFB4:
  20:Src/control.c **** 
  21:Src/control.c **** //機能	: 軌道制御によるモータ印加電圧の差を取得する
  22:Src/control.c **** //引数	: なし
  23:Src/control.c **** //返り値	: 軌道制御による左モータ印加電圧
  24:Src/control.c **** float get_target_vol_diff_ctrl ( void )
  25:Src/control.c **** {
  56              		.loc 1 25 1 is_stmt 1 view -0
  57              		.cfi_startproc
  58              		@ args = 0, pretend = 0, frame = 0
  59              		@ frame_needed = 0, uses_anonymous_args = 0
  60              		@ link register save eliminated.
  26:Src/control.c ****     return target_vol_diff_ctrl;
  61              		.loc 1 26 5 view .LVU4
  27:Src/control.c **** }
  62              		.loc 1 27 1 is_stmt 0 view .LVU5
  63 0000 014B     		ldr	r3, .L5
  64 0002 93ED000A 		vldr.32	s0, [r3]
  65 0006 7047     		bx	lr
  66              	.L6:
  67              		.align	2
  68              	.L5:
  69 0008 00000000 		.word	.LANCHOR1
  70              		.cfi_endproc
  71              	.LFE4:
  73              		.global	__aeabi_f2d
  74              		.global	__aeabi_dmul
  75              		.global	__aeabi_dadd
  76              		.global	__aeabi_d2f
  77              		.section	.text.calc_motor_vol_ctrl,"ax",%progbits
  78              		.align	1
  79              		.global	calc_motor_vol_ctrl
  80              		.syntax unified
  81              		.thumb
  82              		.thumb_func
  83              		.fpu fpv4-sp-d16
  85              	calc_motor_vol_ctrl:
  86              	.LFB5:
  28:Src/control.c **** 
  29:Src/control.c **** //機能	: 軌道制御により、左右のモータ印加電圧を計算する
  30:Src/control.c **** //引数	: なし
  31:Src/control.c **** //返り値	: なし
  32:Src/control.c **** //備考  : 1msタスク
  33:Src/control.c **** void calc_motor_vol_ctrl(void)
ARM GAS  C:\Temp\cced9Zfa.s 			page 3


  34:Src/control.c **** {
  87              		.loc 1 34 1 is_stmt 1 view -0
  88              		.cfi_startproc
  89              		@ args = 0, pretend = 0, frame = 0
  90              		@ frame_needed = 0, uses_anonymous_args = 0
  91 0000 70B5     		push	{r4, r5, r6, lr}
  92              	.LCFI0:
  93              		.cfi_def_cfa_offset 16
  94              		.cfi_offset 4, -16
  95              		.cfi_offset 5, -12
  96              		.cfi_offset 6, -8
  97              		.cfi_offset 14, -4
  98 0002 2DED048B 		vpush.64	{d8, d9}
  99              	.LCFI1:
 100              		.cfi_def_cfa_offset 32
 101              		.cfi_offset 80, -32
 102              		.cfi_offset 81, -28
 103              		.cfi_offset 82, -24
 104              		.cfi_offset 83, -20
  35:Src/control.c **** 	float move_speed_err = 0; 			        //移動速度偏差
 105              		.loc 1 35 2 view .LVU7
 106              	.LVL0:
  36:Src/control.c **** 	float rotate_speed_err = 0;	        		//角速度偏差
 107              		.loc 1 36 2 view .LVU8
  37:Src/control.c **** 
  38:Src/control.c **** 	float move_speed_err_PI = 0; 		//移動速度偏差によるPIコントローラ出力
 108              		.loc 1 38 2 view .LVU9
  39:Src/control.c **** 	float rotate_speed_err_PI = 0;		//角速度偏差によるPIコントローラ出力
 109              		.loc 1 39 2 view .LVU10
  40:Src/control.c **** 
  41:Src/control.c ****     /*偏差取得*/
  42:Src/control.c ****     move_speed_err = get_target_move_speed() - get_move_speed_ave();
 110              		.loc 1 42 5 view .LVU11
 111              		.loc 1 42 22 is_stmt 0 view .LVU12
 112 0006 FFF7FEFF 		bl	get_target_move_speed
 113              	.LVL1:
 114 000a F0EE408A 		vmov.f32	s17, s0
 115              		.loc 1 42 48 view .LVU13
 116 000e FFF7FEFF 		bl	get_move_speed_ave
 117              	.LVL2:
 118              		.loc 1 42 20 view .LVU14
 119 0012 78EEC08A 		vsub.f32	s17, s17, s0
 120              	.LVL3:
  43:Src/control.c ****     rotate_speed_err = get_target_rotation_speed() - get_rotation_speed();
 121              		.loc 1 43 5 is_stmt 1 view .LVU15
 122              		.loc 1 43 24 is_stmt 0 view .LVU16
 123 0016 FFF7FEFF 		bl	get_target_rotation_speed
 124              	.LVL4:
 125 001a B0EE408A 		vmov.f32	s16, s0
 126              		.loc 1 43 54 view .LVU17
 127 001e FFF7FEFF 		bl	get_rotation_speed
 128              	.LVL5:
 129              		.loc 1 43 22 view .LVU18
 130 0022 38EE408A 		vsub.f32	s16, s16, s0
 131              	.LVL6:
  44:Src/control.c **** 
  45:Src/control.c ****     /*偏差積分*/
ARM GAS  C:\Temp\cced9Zfa.s 			page 4


  46:Src/control.c ****     move_speed_err_I = move_speed_err_I + move_speed_I*0.001*move_speed_err;
 132              		.loc 1 46 5 is_stmt 1 view .LVU19
 133              		.loc 1 46 61 is_stmt 0 view .LVU20
 134 0026 18EE900A 		vmov	r0, s17
 135 002a FFF7FEFF 		bl	__aeabi_f2d
 136              	.LVL7:
 137 002e 28A3     		adr	r3, .L9+32
 138 0030 D3E90023 		ldrd	r2, [r3]
 139 0034 FFF7FEFF 		bl	__aeabi_dmul
 140              	.LVL8:
 141 0038 0446     		mov	r4, r0
 142 003a 0D46     		mov	r5, r1
 143              		.loc 1 46 41 view .LVU21
 144 003c 1E4E     		ldr	r6, .L9+8
 145 003e 3068     		ldr	r0, [r6]	@ float
 146 0040 FFF7FEFF 		bl	__aeabi_f2d
 147              	.LVL9:
 148 0044 2246     		mov	r2, r4
 149 0046 2B46     		mov	r3, r5
 150 0048 FFF7FEFF 		bl	__aeabi_dadd
 151              	.LVL10:
 152 004c FFF7FEFF 		bl	__aeabi_d2f
 153              	.LVL11:
 154 0050 09EE100A 		vmov	s18, r0
 155              		.loc 1 46 22 view .LVU22
 156 0054 3060     		str	r0, [r6]	@ float
  47:Src/control.c ****     rotate_speed_err_I = rotate_speed_err_I + rotate_speed_I*0.001*rotate_speed_err;
 157              		.loc 1 47 5 is_stmt 1 view .LVU23
 158              		.loc 1 47 67 is_stmt 0 view .LVU24
 159 0056 18EE100A 		vmov	r0, s16
 160 005a FFF7FEFF 		bl	__aeabi_f2d
 161              	.LVL12:
 162 005e 14A3     		adr	r3, .L9
 163 0060 D3E90023 		ldrd	r2, [r3]
 164 0064 FFF7FEFF 		bl	__aeabi_dmul
 165              	.LVL13:
 166 0068 0446     		mov	r4, r0
 167 006a 0D46     		mov	r5, r1
 168              		.loc 1 47 45 view .LVU25
 169 006c 134E     		ldr	r6, .L9+12
 170 006e 3068     		ldr	r0, [r6]	@ float
 171 0070 FFF7FEFF 		bl	__aeabi_f2d
 172              	.LVL14:
 173 0074 2246     		mov	r2, r4
 174 0076 2B46     		mov	r3, r5
 175 0078 FFF7FEFF 		bl	__aeabi_dadd
 176              	.LVL15:
 177 007c FFF7FEFF 		bl	__aeabi_d2f
 178              	.LVL16:
 179 0080 07EE900A 		vmov	s15, r0
 180              		.loc 1 47 24 view .LVU26
 181 0084 3060     		str	r0, [r6]	@ float
  48:Src/control.c **** 
  49:Src/control.c ****     /*PIコントローラ出力計算*/
  50:Src/control.c ****     move_speed_err_PI = move_speed_P * move_speed_err + move_speed_err_I;
 182              		.loc 1 50 5 is_stmt 1 view .LVU27
 183              		.loc 1 50 38 is_stmt 0 view .LVU28
ARM GAS  C:\Temp\cced9Zfa.s 			page 5


 184 0086 9FED0E0A 		vldr.32	s0, .L9+16
 185 008a 68EE808A 		vmul.f32	s17, s17, s0
 186              	.LVL17:
 187              		.loc 1 50 23 view .LVU29
 188 008e 79EE288A 		vadd.f32	s17, s18, s17
 189              	.LVL18:
  51:Src/control.c ****     rotate_speed_err_PI = rotate_speed_P * rotate_speed_err + rotate_speed_err_I;
 190              		.loc 1 51 5 is_stmt 1 view .LVU30
 191              		.loc 1 51 42 is_stmt 0 view .LVU31
 192 0092 9FED0C0A 		vldr.32	s0, .L9+20
 193 0096 28EE008A 		vmul.f32	s16, s16, s0
 194              	.LVL19:
 195              		.loc 1 51 25 view .LVU32
 196 009a 37EE888A 		vadd.f32	s16, s15, s16
 197              	.LVL20:
  52:Src/control.c **** 
  53:Src/control.c ****     /*モータ印加電圧計算*/
  54:Src/control.c ****     target_vol_sum_ctrl = move_speed_err_PI;
 198              		.loc 1 54 5 is_stmt 1 view .LVU33
 199              		.loc 1 54 25 is_stmt 0 view .LVU34
 200 009e 0A4B     		ldr	r3, .L9+24
 201 00a0 C3ED008A 		vstr.32	s17, [r3]
  55:Src/control.c ****     target_vol_diff_ctrl = rotate_speed_err_PI;
 202              		.loc 1 55 5 is_stmt 1 view .LVU35
 203              		.loc 1 55 26 is_stmt 0 view .LVU36
 204 00a4 094B     		ldr	r3, .L9+28
 205 00a6 83ED008A 		vstr.32	s16, [r3]
  56:Src/control.c **** }
 206              		.loc 1 56 1 view .LVU37
 207 00aa BDEC048B 		vldm	sp!, {d8-d9}
 208              	.LCFI2:
 209              		.cfi_restore 82
 210              		.cfi_restore 83
 211              		.cfi_restore 80
 212              		.cfi_restore 81
 213              		.cfi_def_cfa_offset 16
 214              	.LVL21:
 215              		.loc 1 56 1 view .LVU38
 216 00ae 70BD     		pop	{r4, r5, r6, pc}
 217              	.L10:
 218              		.align	3
 219              	.L9:
 220 00b0 FCA9F1D2 		.word	-755914244
 221 00b4 3DC9823F 		.word	1065535805
 222 00b8 00000000 		.word	.LANCHOR2
 223 00bc 00000000 		.word	.LANCHOR3
 224 00c0 D1222B40 		.word	1076568785
 225 00c4 AD2FB23E 		.word	1051865005
 226 00c8 00000000 		.word	.LANCHOR0
 227 00cc 00000000 		.word	.LANCHOR1
 228 00d0 8B6CE7FB 		.word	-68719477
 229 00d4 B935A43F 		.word	1067726265
 230              		.cfi_endproc
 231              	.LFE5:
 233              		.section	.text.clr_trace_operate_history,"ax",%progbits
 234              		.align	1
 235              		.global	clr_trace_operate_history
ARM GAS  C:\Temp\cced9Zfa.s 			page 6


 236              		.syntax unified
 237              		.thumb
 238              		.thumb_func
 239              		.fpu fpv4-sp-d16
 241              	clr_trace_operate_history:
 242              	.LFB6:
  57:Src/control.c **** 
  58:Src/control.c **** //機能	: 軌跡制御の操作履歴クリア
  59:Src/control.c **** //引数	: なし
  60:Src/control.c **** //返り値	: なし
  61:Src/control.c **** void clr_trace_operate_history ( void )
  62:Src/control.c **** {
 243              		.loc 1 62 1 is_stmt 1 view -0
 244              		.cfi_startproc
 245              		@ args = 0, pretend = 0, frame = 0
 246              		@ frame_needed = 0, uses_anonymous_args = 0
 247              		@ link register save eliminated.
  63:Src/control.c ****     move_speed_err_I = 0; 		//移動速度偏差積分
 248              		.loc 1 63 5 view .LVU40
 249              		.loc 1 63 22 is_stmt 0 view .LVU41
 250 0000 0023     		movs	r3, #0
 251 0002 024A     		ldr	r2, .L12
 252 0004 1360     		str	r3, [r2]	@ float
  64:Src/control.c ****     rotate_speed_err_I = 0;	    //角速度偏差積分
 253              		.loc 1 64 5 is_stmt 1 view .LVU42
 254              		.loc 1 64 24 is_stmt 0 view .LVU43
 255 0006 024A     		ldr	r2, .L12+4
 256 0008 1360     		str	r3, [r2]	@ float
  65:Src/control.c **** }
 257              		.loc 1 65 1 view .LVU44
 258 000a 7047     		bx	lr
 259              	.L13:
 260              		.align	2
 261              	.L12:
 262 000c 00000000 		.word	.LANCHOR2
 263 0010 00000000 		.word	.LANCHOR3
 264              		.cfi_endproc
 265              	.LFE6:
 267              		.section	.text.adjust_trace_theta,"ax",%progbits
 268              		.align	1
 269              		.global	adjust_trace_theta
 270              		.syntax unified
 271              		.thumb
 272              		.thumb_func
 273              		.fpu fpv4-sp-d16
 275              	adjust_trace_theta:
 276              	.LFB7:
  66:Src/control.c **** 
  67:Src/control.c **** //機能	: 軌跡制御の角度履歴フィルタ
  68:Src/control.c **** //引数	: なし
  69:Src/control.c **** //返り値	: なし
  70:Src/control.c **** void adjust_trace_theta ( void )
  71:Src/control.c **** {
 277              		.loc 1 71 1 is_stmt 1 view -0
 278              		.cfi_startproc
 279              		@ args = 0, pretend = 0, frame = 0
 280              		@ frame_needed = 0, uses_anonymous_args = 0
ARM GAS  C:\Temp\cced9Zfa.s 			page 7


 281 0000 10B5     		push	{r4, lr}
 282              	.LCFI3:
 283              		.cfi_def_cfa_offset 8
 284              		.cfi_offset 4, -8
 285              		.cfi_offset 14, -4
  72:Src/control.c ****     rotate_speed_err_I = 0.99 * rotate_speed_err_I;	    //角速度偏差積分
 286              		.loc 1 72 5 view .LVU46
 287              		.loc 1 72 31 is_stmt 0 view .LVU47
 288 0002 094C     		ldr	r4, .L16+8
 289 0004 2068     		ldr	r0, [r4]	@ float
 290 0006 FFF7FEFF 		bl	__aeabi_f2d
 291              	.LVL22:
 292 000a 05A3     		adr	r3, .L16
 293 000c D3E90023 		ldrd	r2, [r3]
 294 0010 FFF7FEFF 		bl	__aeabi_dmul
 295              	.LVL23:
 296 0014 FFF7FEFF 		bl	__aeabi_d2f
 297              	.LVL24:
 298              		.loc 1 72 24 view .LVU48
 299 0018 2060     		str	r0, [r4]	@ float
  73:Src/control.c **** }...
 300              		.loc 1 73 1 view .LVU49
 301 001a 10BD     		pop	{r4, pc}
 302              	.L17:
 303 001c AFF30080 		.align	3
 304              	.L16:
 305 0020 AE47E17A 		.word	2061584302
 306 0024 14AEEF3F 		.word	1072672276
 307 0028 00000000 		.word	.LANCHOR3
 308              		.cfi_endproc
 309              	.LFE7:
 311              		.section	.bss.move_speed_err_I,"aw",%nobits
 312              		.align	2
 313              		.set	.LANCHOR2,. + 0
 316              	move_speed_err_I:
 317 0000 00000000 		.space	4
 318              		.section	.bss.rotate_speed_err_I,"aw",%nobits
 319              		.align	2
 320              		.set	.LANCHOR3,. + 0
 323              	rotate_speed_err_I:
 324 0000 00000000 		.space	4
 325              		.section	.bss.target_vol_diff_ctrl,"aw",%nobits
 326              		.align	2
 327              		.set	.LANCHOR1,. + 0
 330              	target_vol_diff_ctrl:
 331 0000 00000000 		.space	4
 332              		.section	.bss.target_vol_sum_ctrl,"aw",%nobits
 333              		.align	2
 334              		.set	.LANCHOR0,. + 0
 337              	target_vol_sum_ctrl:
 338 0000 00000000 		.space	4
 339              		.text
 340              	.Letext0:
 341              		.file 2 "c:\\tools\\gcc-arm-none-eabi-9-2019-q4-major\\arm-none-eabi\\include\\sys\\lock.h"
 342              		.file 3 "c:\\tools\\gcc-arm-none-eabi-9-2019-q4-major\\arm-none-eabi\\include\\sys\\_types.h"
 343              		.file 4 "c:\\tools\\gcc-arm-none-eabi-9-2019-q4-major\\lib\\gcc\\arm-none-eabi\\9.2.1\\include\\st
 344              		.file 5 "c:\\tools\\gcc-arm-none-eabi-9-2019-q4-major\\arm-none-eabi\\include\\sys\\reent.h"
ARM GAS  C:\Temp\cced9Zfa.s 			page 8


 345              		.file 6 "Inc/target.h"
 346              		.file 7 "Inc/mouse_state.h"
ARM GAS  C:\Temp\cced9Zfa.s 			page 9

