ARM GAS  C:\Temp\ccSp9qnl.s 			page 1


   1              		.cpu cortex-m4
   2              		.eabi_attribute 27, 1
   3              		.eabi_attribute 28, 1
   4              		.eabi_attribute 20, 1
   5              		.eabi_attribute 21, 1
   6              		.eabi_attribute 23, 3
   7              		.eabi_attribute 24, 1
   8              		.eabi_attribute 25, 1
   9              		.eabi_attribute 26, 1
  10              		.eabi_attribute 30, 1
  11              		.eabi_attribute 34, 1
  12              		.eabi_attribute 18, 4
  13              		.file	"gpio.c"
  14              		.text
  15              	.Ltext0:
  16              		.cfi_sections	.debug_frame
  17              		.section	.text.MX_GPIO_Init,"ax",%progbits
  18              		.align	1
  19              		.global	MX_GPIO_Init
  20              		.arch armv7e-m
  21              		.syntax unified
  22              		.thumb
  23              		.thumb_func
  24              		.fpu fpv4-sp-d16
  26              	MX_GPIO_Init:
  27              	.LFB130:
  28              		.file 1 "Src/gpio.c"
   1:Src/gpio.c    **** /**
   2:Src/gpio.c    ****   ******************************************************************************
   3:Src/gpio.c    ****   * File Name          : gpio.c
   4:Src/gpio.c    ****   * Description        : This file provides code for the configuration
   5:Src/gpio.c    ****   *                      of all used GPIO pins.
   6:Src/gpio.c    ****   ******************************************************************************
   7:Src/gpio.c    ****   * @attention
   8:Src/gpio.c    ****   *
   9:Src/gpio.c    ****   * <h2><center>&copy; Copyright (c) 2020 STMicroelectronics.
  10:Src/gpio.c    ****   * All rights reserved.</center></h2>
  11:Src/gpio.c    ****   *
  12:Src/gpio.c    ****   * This software component is licensed by ST under BSD 3-Clause license,
  13:Src/gpio.c    ****   * the "License"; You may not use this file except in compliance with the
  14:Src/gpio.c    ****   * License. You may obtain a copy of the License at:
  15:Src/gpio.c    ****   *                        opensource.org/licenses/BSD-3-Clause
  16:Src/gpio.c    ****   *
  17:Src/gpio.c    ****   ******************************************************************************
  18:Src/gpio.c    ****   */
  19:Src/gpio.c    **** 
  20:Src/gpio.c    **** /* Includes ------------------------------------------------------------------*/
  21:Src/gpio.c    **** #include "gpio.h"
  22:Src/gpio.c    **** /* USER CODE BEGIN 0 */
  23:Src/gpio.c    **** 
  24:Src/gpio.c    **** /* USER CODE END 0 */
  25:Src/gpio.c    **** 
  26:Src/gpio.c    **** /*----------------------------------------------------------------------------*/
  27:Src/gpio.c    **** /* Configure GPIO                                                             */
  28:Src/gpio.c    **** /*----------------------------------------------------------------------------*/
  29:Src/gpio.c    **** /* USER CODE BEGIN 1 */
  30:Src/gpio.c    **** 
ARM GAS  C:\Temp\ccSp9qnl.s 			page 2


  31:Src/gpio.c    **** /* USER CODE END 1 */
  32:Src/gpio.c    **** 
  33:Src/gpio.c    **** /** Configure pins
  34:Src/gpio.c    **** */
  35:Src/gpio.c    **** void MX_GPIO_Init(void)
  36:Src/gpio.c    **** {
  29              		.loc 1 36 1 view -0
  30              		.cfi_startproc
  31              		@ args = 0, pretend = 0, frame = 32
  32              		@ frame_needed = 0, uses_anonymous_args = 0
  33 0000 2DE9F043 		push	{r4, r5, r6, r7, r8, r9, lr}
  34              	.LCFI0:
  35              		.cfi_def_cfa_offset 28
  36              		.cfi_offset 4, -28
  37              		.cfi_offset 5, -24
  38              		.cfi_offset 6, -20
  39              		.cfi_offset 7, -16
  40              		.cfi_offset 8, -12
  41              		.cfi_offset 9, -8
  42              		.cfi_offset 14, -4
  43 0004 89B0     		sub	sp, sp, #36
  44              	.LCFI1:
  45              		.cfi_def_cfa_offset 64
  37:Src/gpio.c    **** 
  38:Src/gpio.c    ****   GPIO_InitTypeDef GPIO_InitStruct = {0};
  46              		.loc 1 38 3 view .LVU1
  47              		.loc 1 38 20 is_stmt 0 view .LVU2
  48 0006 0024     		movs	r4, #0
  49 0008 0394     		str	r4, [sp, #12]
  50 000a 0494     		str	r4, [sp, #16]
  51 000c 0594     		str	r4, [sp, #20]
  52 000e 0694     		str	r4, [sp, #24]
  53 0010 0794     		str	r4, [sp, #28]
  39:Src/gpio.c    **** 
  40:Src/gpio.c    ****   /* GPIO Ports Clock Enable */
  41:Src/gpio.c    ****   __HAL_RCC_GPIOA_CLK_ENABLE();
  54              		.loc 1 41 3 is_stmt 1 view .LVU3
  55              	.LBB2:
  56              		.loc 1 41 3 view .LVU4
  57 0012 0194     		str	r4, [sp, #4]
  58              		.loc 1 41 3 view .LVU5
  59 0014 274B     		ldr	r3, .L3
  60 0016 1A6B     		ldr	r2, [r3, #48]
  61 0018 42F00102 		orr	r2, r2, #1
  62 001c 1A63     		str	r2, [r3, #48]
  63              		.loc 1 41 3 view .LVU6
  64 001e 1A6B     		ldr	r2, [r3, #48]
  65 0020 02F00102 		and	r2, r2, #1
  66 0024 0192     		str	r2, [sp, #4]
  67              		.loc 1 41 3 view .LVU7
  68 0026 019A     		ldr	r2, [sp, #4]
  69              	.LBE2:
  70              		.loc 1 41 3 view .LVU8
  42:Src/gpio.c    ****   __HAL_RCC_GPIOB_CLK_ENABLE();
  71              		.loc 1 42 3 view .LVU9
  72              	.LBB3:
  73              		.loc 1 42 3 view .LVU10
ARM GAS  C:\Temp\ccSp9qnl.s 			page 3


  74 0028 0294     		str	r4, [sp, #8]
  75              		.loc 1 42 3 view .LVU11
  76 002a 1A6B     		ldr	r2, [r3, #48]
  77 002c 42F00202 		orr	r2, r2, #2
  78 0030 1A63     		str	r2, [r3, #48]
  79              		.loc 1 42 3 view .LVU12
  80 0032 1B6B     		ldr	r3, [r3, #48]
  81 0034 03F00203 		and	r3, r3, #2
  82 0038 0293     		str	r3, [sp, #8]
  83              		.loc 1 42 3 view .LVU13
  84 003a 029B     		ldr	r3, [sp, #8]
  85              	.LBE3:
  86              		.loc 1 42 3 view .LVU14
  43:Src/gpio.c    **** 
  44:Src/gpio.c    ****   /*Configure GPIO pin Output Level */
  45:Src/gpio.c    ****   HAL_GPIO_WritePin(GPIOA, LED_FL_Pin|LED_SL_Pin|LED_SR_Pin|LED_FR_Pin 
  87              		.loc 1 45 3 view .LVU15
  88 003c 1E4D     		ldr	r5, .L3+4
  89 003e 2246     		mov	r2, r4
  90 0040 43F6F011 		movw	r1, #14832
  91 0044 2846     		mov	r0, r5
  92 0046 FFF7FEFF 		bl	HAL_GPIO_WritePin
  93              	.LVL0:
  46:Src/gpio.c    ****                           |LED5_Pin|LED4_Pin|LED3_Pin|LED2_Pin, GPIO_PIN_RESET);
  47:Src/gpio.c    **** 
  48:Src/gpio.c    ****   /*Configure GPIO pin Output Level */
  49:Src/gpio.c    ****   HAL_GPIO_WritePin(gyro_CS_GPIO_Port, gyro_CS_Pin, GPIO_PIN_RESET);
  94              		.loc 1 49 3 view .LVU16
  95 004a DFF87080 		ldr	r8, .L3+8
  96 004e 2246     		mov	r2, r4
  97 0050 4FF48051 		mov	r1, #4096
  98 0054 4046     		mov	r0, r8
  99 0056 FFF7FEFF 		bl	HAL_GPIO_WritePin
 100              	.LVL1:
  50:Src/gpio.c    **** 
  51:Src/gpio.c    ****   /*Configure GPIO pins : PAPin PAPin PAPin PAPin */
  52:Src/gpio.c    ****   GPIO_InitStruct.Pin = LED_FL_Pin|LED_SL_Pin|LED_SR_Pin|LED_FR_Pin;
 101              		.loc 1 52 3 view .LVU17
 102              		.loc 1 52 23 is_stmt 0 view .LVU18
 103 005a F023     		movs	r3, #240
 104 005c 0393     		str	r3, [sp, #12]
  53:Src/gpio.c    ****   GPIO_InitStruct.Mode = GPIO_MODE_OUTPUT_PP;
 105              		.loc 1 53 3 is_stmt 1 view .LVU19
 106              		.loc 1 53 24 is_stmt 0 view .LVU20
 107 005e 0127     		movs	r7, #1
 108 0060 0497     		str	r7, [sp, #16]
  54:Src/gpio.c    ****   GPIO_InitStruct.Pull = GPIO_NOPULL;
 109              		.loc 1 54 3 is_stmt 1 view .LVU21
 110              		.loc 1 54 24 is_stmt 0 view .LVU22
 111 0062 0594     		str	r4, [sp, #20]
  55:Src/gpio.c    ****   GPIO_InitStruct.Speed = GPIO_SPEED_FREQ_VERY_HIGH;
 112              		.loc 1 55 3 is_stmt 1 view .LVU23
 113              		.loc 1 55 25 is_stmt 0 view .LVU24
 114 0064 0326     		movs	r6, #3
 115 0066 0696     		str	r6, [sp, #24]
  56:Src/gpio.c    ****   HAL_GPIO_Init(GPIOA, &GPIO_InitStruct);
 116              		.loc 1 56 3 is_stmt 1 view .LVU25
ARM GAS  C:\Temp\ccSp9qnl.s 			page 4


 117 0068 03A9     		add	r1, sp, #12
 118 006a 2846     		mov	r0, r5
 119 006c FFF7FEFF 		bl	HAL_GPIO_Init
 120              	.LVL2:
  57:Src/gpio.c    **** 
  58:Src/gpio.c    ****   /*Configure GPIO pin : PtPin */
  59:Src/gpio.c    ****   GPIO_InitStruct.Pin = Push_SW_Pin;
 121              		.loc 1 59 3 view .LVU26
 122              		.loc 1 59 23 is_stmt 0 view .LVU27
 123 0070 4FF00209 		mov	r9, #2
 124 0074 CDF80C90 		str	r9, [sp, #12]
  60:Src/gpio.c    ****   GPIO_InitStruct.Mode = GPIO_MODE_INPUT;
 125              		.loc 1 60 3 is_stmt 1 view .LVU28
 126              		.loc 1 60 24 is_stmt 0 view .LVU29
 127 0078 0494     		str	r4, [sp, #16]
  61:Src/gpio.c    ****   GPIO_InitStruct.Pull = GPIO_NOPULL;
 128              		.loc 1 61 3 is_stmt 1 view .LVU30
 129              		.loc 1 61 24 is_stmt 0 view .LVU31
 130 007a 0594     		str	r4, [sp, #20]
  62:Src/gpio.c    ****   HAL_GPIO_Init(Push_SW_GPIO_Port, &GPIO_InitStruct);
 131              		.loc 1 62 3 is_stmt 1 view .LVU32
 132 007c 03A9     		add	r1, sp, #12
 133 007e 4046     		mov	r0, r8
 134 0080 FFF7FEFF 		bl	HAL_GPIO_Init
 135              	.LVL3:
  63:Src/gpio.c    **** 
  64:Src/gpio.c    ****   /*Configure GPIO pin : PtPin */
  65:Src/gpio.c    ****   GPIO_InitStruct.Pin = gyro_CS_Pin;
 136              		.loc 1 65 3 view .LVU33
 137              		.loc 1 65 23 is_stmt 0 view .LVU34
 138 0084 4FF48053 		mov	r3, #4096
 139 0088 0393     		str	r3, [sp, #12]
  66:Src/gpio.c    ****   GPIO_InitStruct.Mode = GPIO_MODE_OUTPUT_PP;
 140              		.loc 1 66 3 is_stmt 1 view .LVU35
 141              		.loc 1 66 24 is_stmt 0 view .LVU36
 142 008a 0497     		str	r7, [sp, #16]
  67:Src/gpio.c    ****   GPIO_InitStruct.Pull = GPIO_NOPULL;
 143              		.loc 1 67 3 is_stmt 1 view .LVU37
 144              		.loc 1 67 24 is_stmt 0 view .LVU38
 145 008c 0594     		str	r4, [sp, #20]
  68:Src/gpio.c    ****   GPIO_InitStruct.Speed = GPIO_SPEED_FREQ_VERY_HIGH;
 146              		.loc 1 68 3 is_stmt 1 view .LVU39
 147              		.loc 1 68 25 is_stmt 0 view .LVU40
 148 008e 0696     		str	r6, [sp, #24]
  69:Src/gpio.c    ****   HAL_GPIO_Init(gyro_CS_GPIO_Port, &GPIO_InitStruct);
 149              		.loc 1 69 3 is_stmt 1 view .LVU41
 150 0090 03A9     		add	r1, sp, #12
 151 0092 4046     		mov	r0, r8
 152 0094 FFF7FEFF 		bl	HAL_GPIO_Init
 153              	.LVL4:
  70:Src/gpio.c    **** 
  71:Src/gpio.c    ****   /*Configure GPIO pins : PAPin PAPin PAPin PAPin */
  72:Src/gpio.c    ****   GPIO_InitStruct.Pin = LED5_Pin|LED4_Pin|LED3_Pin|LED2_Pin;
 154              		.loc 1 72 3 view .LVU42
 155              		.loc 1 72 23 is_stmt 0 view .LVU43
 156 0098 4FF46453 		mov	r3, #14592
 157 009c 0393     		str	r3, [sp, #12]
ARM GAS  C:\Temp\ccSp9qnl.s 			page 5


  73:Src/gpio.c    ****   GPIO_InitStruct.Mode = GPIO_MODE_OUTPUT_PP;
 158              		.loc 1 73 3 is_stmt 1 view .LVU44
 159              		.loc 1 73 24 is_stmt 0 view .LVU45
 160 009e 0497     		str	r7, [sp, #16]
  74:Src/gpio.c    ****   GPIO_InitStruct.Pull = GPIO_PULLDOWN;
 161              		.loc 1 74 3 is_stmt 1 view .LVU46
 162              		.loc 1 74 24 is_stmt 0 view .LVU47
 163 00a0 CDF81490 		str	r9, [sp, #20]
  75:Src/gpio.c    ****   GPIO_InitStruct.Speed = GPIO_SPEED_FREQ_VERY_HIGH;
 164              		.loc 1 75 3 is_stmt 1 view .LVU48
 165              		.loc 1 75 25 is_stmt 0 view .LVU49
 166 00a4 0696     		str	r6, [sp, #24]
  76:Src/gpio.c    ****   HAL_GPIO_Init(GPIOA, &GPIO_InitStruct);
 167              		.loc 1 76 3 is_stmt 1 view .LVU50
 168 00a6 03A9     		add	r1, sp, #12
 169 00a8 2846     		mov	r0, r5
 170 00aa FFF7FEFF 		bl	HAL_GPIO_Init
 171              	.LVL5:
  77:Src/gpio.c    **** 
  78:Src/gpio.c    **** }
 172              		.loc 1 78 1 is_stmt 0 view .LVU51
 173 00ae 09B0     		add	sp, sp, #36
 174              	.LCFI2:
 175              		.cfi_def_cfa_offset 28
 176              		@ sp needed
 177 00b0 BDE8F083 		pop	{r4, r5, r6, r7, r8, r9, pc}
 178              	.L4:
 179              		.align	2
 180              	.L3:
 181 00b4 00380240 		.word	1073887232
 182 00b8 00000240 		.word	1073872896
 183 00bc 00040240 		.word	1073873920
 184              		.cfi_endproc
 185              	.LFE130:
 187              		.text
 188              	.Letext0:
 189              		.file 2 "c:\\tools\\gcc-arm-none-eabi-9-2019-q4-major\\arm-none-eabi\\include\\machine\\_default_t
 190              		.file 3 "c:\\tools\\gcc-arm-none-eabi-9-2019-q4-major\\arm-none-eabi\\include\\sys\\_stdint.h"
 191              		.file 4 "Drivers/CMSIS/Include/core_cm4.h"
 192              		.file 5 "Drivers/CMSIS/Device/ST/STM32F4xx/Include/system_stm32f4xx.h"
 193              		.file 6 "Drivers/CMSIS/Device/ST/STM32F4xx/Include/stm32f413xx.h"
 194              		.file 7 "Drivers/STM32F4xx_HAL_Driver/Inc/stm32f4xx_hal_gpio.h"
ARM GAS  C:\Temp\ccSp9qnl.s 			page 6

