ARM GAS  C:\Temp\ccVg3W3c.s 			page 1


   1              		.cpu cortex-m4
   2              		.eabi_attribute 27, 1
   3              		.eabi_attribute 28, 1
   4              		.eabi_attribute 20, 1
   5              		.eabi_attribute 21, 1
   6              		.eabi_attribute 23, 3
   7              		.eabi_attribute 24, 1
   8              		.eabi_attribute 25, 1
   9              		.eabi_attribute 26, 1
  10              		.eabi_attribute 30, 1
  11              		.eabi_attribute 34, 1
  12              		.eabi_attribute 18, 4
  13              		.file	"interrupt.c"
  14              		.text
  15              	.Ltext0:
  16              		.cfi_sections	.debug_frame
  17              		.section	.text.Interrupt_Main,"ax",%progbits
  18              		.align	1
  19              		.global	Interrupt_Main
  20              		.arch armv7e-m
  21              		.syntax unified
  22              		.thumb
  23              		.thumb_func
  24              		.fpu fpv4-sp-d16
  26              	Interrupt_Main:
  27              	.LFB133:
  28              		.file 1 "Src/interrupt.c"
   1:Src/interrupt.c **** /*
   2:Src/interrupt.c ****  * interrupt.c
   3:Src/interrupt.c ****  *
   4:Src/interrupt.c ****  *  Created on: Aug 4, 2019
   5:Src/interrupt.c ****  *      Author: å²¡ç”° æ³°è£•
   6:Src/interrupt.c ****  */
   7:Src/interrupt.c **** 
   8:Src/interrupt.c **** 
   9:Src/interrupt.c **** //#include "index.h"
  10:Src/interrupt.c **** #include "module_test.h"
  11:Src/interrupt.c **** #include "stm32f4xx_hal.h"
  12:Src/interrupt.c **** #include "mode.h"
  13:Src/interrupt.c **** #include "tim.h"
  14:Src/interrupt.c **** #include "mouse_state.h"
  15:Src/interrupt.c **** #include "target.h"
  16:Src/interrupt.c **** #include "adjust.h"
  17:Src/interrupt.c **** #include "interrupt.h"
  18:Src/interrupt.c **** #include "control.h"
  19:Src/interrupt.c **** #include "param.h"
  20:Src/interrupt.c **** #include "exvol.h"
  21:Src/interrupt.c **** 
  22:Src/interrupt.c **** #define TIMER_COUNT		(__HAL_TIM_GET_COUNTER(&htim6))
  23:Src/interrupt.c **** #define TIMER_LOAD		(__HAL_TIM_GET_AUTORELOAD(&htim6))
  24:Src/interrupt.c **** #define TIMER_PSC		((&htim6)->Instance->PSC)
  25:Src/interrupt.c **** 
  26:Src/interrupt.c **** static uint32_t		interrupt_count_now;
  27:Src/interrupt.c **** static uint32_t		interrupt_duty;
  28:Src/interrupt.c **** static uint32_t		interrupt_duty_max = 0;
  29:Src/interrupt.c **** static float		boot_time = 0.f;
  30:Src/interrupt.c **** 
ARM GAS  C:\Temp\ccVg3W3c.s 			page 2


  31:Src/interrupt.c **** 
  32:Src/interrupt.c **** /* ---------------------------------------------------------------
  33:Src/interrupt.c **** 	1mså‘¨æœŸã§å‰²ã‚Šè¾¼ã¿å‡¦ç†é–¢æ•°
  34:Src/interrupt.c **** --------------------------------------------------------------- */
  35:Src/interrupt.c **** void Interrupt_Main( void )
  36:Src/interrupt.c **** {
  29              		.loc 1 36 1 view -0
  30              		.cfi_startproc
  31              		@ args = 0, pretend = 0, frame = 0
  32              		@ frame_needed = 0, uses_anonymous_args = 0
  33 0000 08B5     		push	{r3, lr}
  34              	.LCFI0:
  35              		.cfi_def_cfa_offset 8
  36              		.cfi_offset 3, -8
  37              		.cfi_offset 14, -4
  37:Src/interrupt.c **** 
  38:Src/interrupt.c **** 	calc_move_speed();
  38              		.loc 1 38 2 view .LVU1
  39 0002 FFF7FEFF 		bl	calc_move_speed
  40              	.LVL0:
  39:Src/interrupt.c **** 	filter_move_speed();
  41              		.loc 1 39 2 view .LVU2
  42 0006 FFF7FEFF 		bl	filter_move_speed
  43              	.LVL1:
  40:Src/interrupt.c **** 
  41:Src/interrupt.c **** 	if(get_mode_state() == process)
  44              		.loc 1 41 2 view .LVU3
  45              		.loc 1 41 5 is_stmt 0 view .LVU4
  46 000a FFF7FEFF 		bl	get_mode_state
  47              	.LVL2:
  48              		.loc 1 41 4 view .LVU5
  49 000e 0128     		cmp	r0, #1
  50 0010 00D0     		beq	.L13
  51              	.L1:
  42:Src/interrupt.c **** 	{
  43:Src/interrupt.c **** 		switch(get_mode_number())
  44:Src/interrupt.c **** 		{
  45:Src/interrupt.c **** 			case 0 ://ãƒ­ã‚°å‡ºåŠ›ç”¨
  46:Src/interrupt.c **** 				break;
  47:Src/interrupt.c **** 
  48:Src/interrupt.c **** 			case 1 :
  49:Src/interrupt.c **** 				 data_get();
  50:Src/interrupt.c **** 				 mouse_state_1ms();		//ãƒã‚¦ã‚¹ã®é€Ÿåº¦ã€è§’é€Ÿåº¦ã€ç§»å‹•è·é›¢ã€è§’åº¦ã‚’è¨ˆç®—
  51:Src/interrupt.c **** 				 target_1ms();			//ç›®æ¨™è·é›¢ã€è§’åº¦ã‹ã‚‰ç›®æ¨™é€Ÿåº¦ã€è§’é€Ÿåº¦ã€åŠ é€Ÿåº¦ã€è§’åŠ é€Ÿå
  52:Src/interrupt.c **** 				 calc_motor_vol_ctrl();	//é€Ÿåº¦ã€è§’é€Ÿåº¦åˆ¶å¾¡ã«ã‚ˆã‚‹å°åŠ é›»åœ§ã‚’è¨ˆç®—
  53:Src/interrupt.c **** 				 adjust_1ms();			//å£åˆ¶å¾¡ã«ã‚ˆã‚‹å°åŠ é›»åœ§ã‚’è¨ˆç®—
  54:Src/interrupt.c **** 				 motor_1ms();			//åˆ¶å¾¡ãƒ¢ãƒ¼ãƒ‰ã«å¿œã˜ãŸå°åŠ é›»åœ§ã‚’å‡ºåŠ›
  55:Src/interrupt.c **** 				break;
  56:Src/interrupt.c **** 
  57:Src/interrupt.c **** 			case 2 :
  58:Src/interrupt.c **** 				 data_get();
  59:Src/interrupt.c **** 				 mouse_state_1ms();		//ãƒã‚¦ã‚¹ã®é€Ÿåº¦ã€è§’é€Ÿåº¦ã€ç§»å‹•è·é›¢ã€è§’åº¦ã‚’è¨ˆç®—
  60:Src/interrupt.c **** 				 target_1ms();			//ç›®æ¨™è·é›¢ã€è§’åº¦ã‹ã‚‰ç›®æ¨™é€Ÿåº¦ã€è§’é€Ÿåº¦ã€åŠ é€Ÿåº¦ã€è§’åŠ é€Ÿå
  61:Src/interrupt.c **** 				 calc_motor_vol_ctrl();	//é€Ÿåº¦ã€è§’é€Ÿåº¦åˆ¶å¾¡ã«ã‚ˆã‚‹å°åŠ é›»åœ§ã‚’è¨ˆç®—
  62:Src/interrupt.c **** 				 adjust_1ms();			//å£åˆ¶å¾¡ã«ã‚ˆã‚‹å°åŠ é›»åœ§ã‚’è¨ˆç®—
  63:Src/interrupt.c **** 				 motor_1ms();			//åˆ¶å¾¡ãƒ¢ãƒ¼ãƒ‰ã«å¿œã˜ãŸå°åŠ é›»åœ§ã‚’å‡ºåŠ›
  64:Src/interrupt.c **** 
ARM GAS  C:\Temp\ccVg3W3c.s 			page 3


  65:Src/interrupt.c **** 				break;
  66:Src/interrupt.c **** 
  67:Src/interrupt.c **** 			case 3 :
  68:Src/interrupt.c ****  				 data_get();
  69:Src/interrupt.c **** 				 mouse_state_1ms();		//ãƒã‚¦ã‚¹ã®é€Ÿåº¦ã€è§’é€Ÿåº¦ã€ç§»å‹•è·é›¢ã€è§’åº¦ã‚’è¨ˆç®—
  70:Src/interrupt.c **** 				 target_1ms();			//ç›®æ¨™è·é›¢ã€è§’åº¦ã‹ã‚‰ç›®æ¨™é€Ÿåº¦ã€è§’é€Ÿåº¦ã€åŠ é€Ÿåº¦ã€è§’åŠ é€Ÿå
  71:Src/interrupt.c **** 				 calc_motor_vol_ctrl();	//é€Ÿåº¦ã€è§’é€Ÿåº¦åˆ¶å¾¡ã«ã‚ˆã‚‹å°åŠ é›»åœ§ã‚’è¨ˆç®—
  72:Src/interrupt.c **** 				 adjust_1ms();			//å£åˆ¶å¾¡ã«ã‚ˆã‚‹å°åŠ é›»åœ§ã‚’è¨ˆç®—
  73:Src/interrupt.c **** 				 motor_1ms();			//åˆ¶å¾¡ãƒ¢ãƒ¼ãƒ‰ã«å¿œã˜ãŸå°åŠ é›»åœ§ã‚’å‡ºåŠ›
  74:Src/interrupt.c **** 
  75:Src/interrupt.c **** 				break;
  76:Src/interrupt.c **** 
  77:Src/interrupt.c **** 			case 4 :
  78:Src/interrupt.c **** 				data_get();
  79:Src/interrupt.c **** 				break;
  80:Src/interrupt.c **** 
  81:Src/interrupt.c **** 			case 5 :
  82:Src/interrupt.c **** 				 data_get();
  83:Src/interrupt.c **** 				 mouse_state_1ms();		//ãƒã‚¦ã‚¹ã®é€Ÿåº¦ã€è§’é€Ÿåº¦ã€ç§»å‹•è·é›¢ã€è§’åº¦ã‚’è¨ˆç®—
  84:Src/interrupt.c **** 				 target_1ms();			//ç›®æ¨™è·é›¢ã€è§’åº¦ã‹ã‚‰ç›®æ¨™é€Ÿåº¦ã€è§’é€Ÿåº¦ã€åŠ é€Ÿåº¦ã€è§’åŠ é€Ÿå
  85:Src/interrupt.c **** 				 calc_motor_vol_ctrl();	//é€Ÿåº¦ã€è§’é€Ÿåº¦åˆ¶å¾¡ã«ã‚ˆã‚‹å°åŠ é›»åœ§ã‚’è¨ˆç®—
  86:Src/interrupt.c **** 				 adjust_1ms();			//å£åˆ¶å¾¡ã«ã‚ˆã‚‹å°åŠ é›»åœ§ã‚’è¨ˆç®—
  87:Src/interrupt.c **** 				 motor_1ms();			//åˆ¶å¾¡ãƒ¢ãƒ¼ãƒ‰ã«å¿œã˜ãŸå°åŠ é›»åœ§ã‚’å‡ºåŠ›
  88:Src/interrupt.c **** 				break;
  89:Src/interrupt.c **** 
  90:Src/interrupt.c **** 			case 6 :
  91:Src/interrupt.c **** 				data_get();
  92:Src/interrupt.c **** 				 mouse_state_1ms();		//ãƒã‚¦ã‚¹ã®é€Ÿåº¦ã€è§’é€Ÿåº¦ã€ç§»å‹•è·é›¢ã€è§’åº¦ã‚’è¨ˆç®—
  93:Src/interrupt.c **** 				 target_1ms();			//ç›®æ¨™è·é›¢ã€è§’åº¦ã‹ã‚‰ç›®æ¨™é€Ÿåº¦ã€è§’é€Ÿåº¦ã€åŠ é€Ÿåº¦ã€è§’åŠ é€Ÿå
  94:Src/interrupt.c **** 				 calc_motor_vol_ctrl();	//é€Ÿåº¦ã€è§’é€Ÿåº¦åˆ¶å¾¡ã«ã‚ˆã‚‹å°åŠ é›»åœ§ã‚’è¨ˆç®—
  95:Src/interrupt.c **** 				 adjust_1ms();			//å£åˆ¶å¾¡ã«ã‚ˆã‚‹å°åŠ é›»åœ§ã‚’è¨ˆç®—
  96:Src/interrupt.c **** 				 motor_1ms();			//åˆ¶å¾¡ãƒ¢ãƒ¼ãƒ‰ã«å¿œã˜ãŸå°åŠ é›»åœ§ã‚’å‡ºåŠ›
  97:Src/interrupt.c **** 
  98:Src/interrupt.c **** 				break;
  99:Src/interrupt.c **** 
 100:Src/interrupt.c **** 			case 7 :
 101:Src/interrupt.c **** 				data_get();
 102:Src/interrupt.c **** 				mouse_state_1ms();		//ãƒã‚¦ã‚¹ã®é€Ÿåº¦ã€è§’é€Ÿåº¦ã€ç§»å‹•è·é›¢ã€è§’åº¦ã‚’è¨ˆç®—
 103:Src/interrupt.c **** 				target_1ms();			//ç›®æ¨™è·é›¢ã€è§’åº¦ã‹ã‚‰ç›®æ¨™é€Ÿåº¦ã€è§’é€Ÿåº¦ã€åŠ é€Ÿåº¦ã€è§’åŠ é€Ÿåº
 104:Src/interrupt.c **** 				calc_motor_vol_ctrl();	//é€Ÿåº¦ã€è§’é€Ÿåº¦åˆ¶å¾¡ã«ã‚ˆã‚‹å°åŠ é›»åœ§ã‚’è¨ˆç®—
 105:Src/interrupt.c **** 				adjust_1ms();			//å£åˆ¶å¾¡ã«ã‚ˆã‚‹å°åŠ é›»åœ§ã‚’è¨ˆç®—
 106:Src/interrupt.c **** 				break;
 107:Src/interrupt.c **** 
 108:Src/interrupt.c **** 			case 15 :
 109:Src/interrupt.c **** 				data_get();
 110:Src/interrupt.c **** 				mouse_state_1ms();		//ãƒã‚¦ã‚¹ã®é€Ÿåº¦ã€è§’é€Ÿåº¦ã€ç§»å‹•è·é›¢ã€è§’åº¦ã‚’è¨ˆç®—
 111:Src/interrupt.c **** 				target_1ms();			//ç›®æ¨™è·é›¢ã€è§’åº¦ã‹ã‚‰ç›®æ¨™é€Ÿåº¦ã€è§’é€Ÿåº¦ã€åŠ é€Ÿåº¦ã€è§’åŠ é€Ÿåº
 112:Src/interrupt.c **** 				calc_motor_vol_ctrl();	//é€Ÿåº¦ã€è§’é€Ÿåº¦åˆ¶å¾¡ã«ã‚ˆã‚‹å°åŠ é›»åœ§ã‚’è¨ˆç®—
 113:Src/interrupt.c **** 				adjust_1ms();			//å£åˆ¶å¾¡ã«ã‚ˆã‚‹å°åŠ é›»åœ§ã‚’è¨ˆç®—
 114:Src/interrupt.c **** 				motor_1ms();			//åˆ¶å¾¡ãƒ¢ãƒ¼ãƒ‰ã«å¿œã˜ãŸå°åŠ é›»åœ§ã‚’å‡ºåŠ›
 115:Src/interrupt.c **** 				break;
 116:Src/interrupt.c **** 
 117:Src/interrupt.c **** 		}
 118:Src/interrupt.c **** 	}
 119:Src/interrupt.c **** }
  52              		.loc 1 119 1 view .LVU6
  53 0012 08BD     		pop	{r3, pc}
ARM GAS  C:\Temp\ccVg3W3c.s 			page 4


  54              	.L13:
  43:Src/interrupt.c **** 		{
  55              		.loc 1 43 3 is_stmt 1 view .LVU7
  43:Src/interrupt.c **** 		{
  56              		.loc 1 43 10 is_stmt 0 view .LVU8
  57 0014 FFF7FEFF 		bl	get_mode_number
  58              	.LVL3:
  59 0018 0138     		subs	r0, r0, #1
  60 001a 0E28     		cmp	r0, #14
  61 001c F9D8     		bhi	.L1
  62 001e 01A3     		adr	r3, .L4
  63 0020 53F820F0 		ldr	pc, [r3, r0, lsl #2]
  64              		.p2align 2
  65              	.L4:
  66 0024 61000000 		.word	.L11+1
  67 0028 7B000000 		.word	.L10+1
  68 002c 95000000 		.word	.L9+1
  69 0030 AF000000 		.word	.L8+1
  70 0034 B5000000 		.word	.L7+1
  71 0038 CF000000 		.word	.L6+1
  72 003c E9000000 		.word	.L5+1
  73 0040 13000000 		.word	.L1+1
  74 0044 13000000 		.word	.L1+1
  75 0048 13000000 		.word	.L1+1
  76 004c 13000000 		.word	.L1+1
  77 0050 13000000 		.word	.L1+1
  78 0054 13000000 		.word	.L1+1
  79 0058 13000000 		.word	.L1+1
  80 005c FF000000 		.word	.L3+1
  81              		.p2align 1
  82              	.L11:
  49:Src/interrupt.c **** 				 mouse_state_1ms();		//ãƒã‚¦ã‚¹ã®é€Ÿåº¦ã€è§’é€Ÿåº¦ã€ç§»å‹•è·é›¢ã€è§’åº¦ã‚’è¨ˆç®—
  83              		.loc 1 49 6 is_stmt 1 view .LVU9
  84 0060 FFF7FEFF 		bl	data_get
  85              	.LVL4:
  50:Src/interrupt.c **** 				 target_1ms();			//ç›®æ¨™è·é›¢ã€è§’åº¦ã‹ã‚‰ç›®æ¨™é€Ÿåº¦ã€è§’é€Ÿåº¦ã€åŠ é€Ÿåº¦ã€è§’åŠ é€Ÿå
  86              		.loc 1 50 6 view .LVU10
  87 0064 FFF7FEFF 		bl	mouse_state_1ms
  88              	.LVL5:
  51:Src/interrupt.c **** 				 calc_motor_vol_ctrl();	//é€Ÿåº¦ã€è§’é€Ÿåº¦åˆ¶å¾¡ã«ã‚ˆã‚‹å°åŠ é›»åœ§ã‚’è¨ˆç®—
  89              		.loc 1 51 6 view .LVU11
  90 0068 FFF7FEFF 		bl	target_1ms
  91              	.LVL6:
  52:Src/interrupt.c **** 				 adjust_1ms();			//å£åˆ¶å¾¡ã«ã‚ˆã‚‹å°åŠ é›»åœ§ã‚’è¨ˆç®—
  92              		.loc 1 52 6 view .LVU12
  93 006c FFF7FEFF 		bl	calc_motor_vol_ctrl
  94              	.LVL7:
  53:Src/interrupt.c **** 				 motor_1ms();			//åˆ¶å¾¡ãƒ¢ãƒ¼ãƒ‰ã«å¿œã˜ãŸå°åŠ é›»åœ§ã‚’å‡ºåŠ›
  95              		.loc 1 53 6 view .LVU13
  96 0070 FFF7FEFF 		bl	adjust_1ms
  97              	.LVL8:
  54:Src/interrupt.c **** 				break;
  98              		.loc 1 54 6 view .LVU14
  99 0074 FFF7FEFF 		bl	motor_1ms
 100              	.LVL9:
  55:Src/interrupt.c **** 
 101              		.loc 1 55 5 view .LVU15
ARM GAS  C:\Temp\ccVg3W3c.s 			page 5


 102 0078 CBE7     		b	.L1
 103              	.L10:
  58:Src/interrupt.c **** 				 mouse_state_1ms();		//ãƒã‚¦ã‚¹ã®é€Ÿåº¦ã€è§’é€Ÿåº¦ã€ç§»å‹•è·é›¢ã€è§’åº¦ã‚’è¨ˆç®—
 104              		.loc 1 58 6 view .LVU16
 105 007a FFF7FEFF 		bl	data_get
 106              	.LVL10:
  59:Src/interrupt.c **** 				 target_1ms();			//ç›®æ¨™è·é›¢ã€è§’åº¦ã‹ã‚‰ç›®æ¨™é€Ÿåº¦ã€è§’é€Ÿåº¦ã€åŠ é€Ÿåº¦ã€è§’åŠ é€Ÿå
 107              		.loc 1 59 6 view .LVU17
 108 007e FFF7FEFF 		bl	mouse_state_1ms
 109              	.LVL11:
  60:Src/interrupt.c **** 				 calc_motor_vol_ctrl();	//é€Ÿåº¦ã€è§’é€Ÿåº¦åˆ¶å¾¡ã«ã‚ˆã‚‹å°åŠ é›»åœ§ã‚’è¨ˆç®—
 110              		.loc 1 60 6 view .LVU18
 111 0082 FFF7FEFF 		bl	target_1ms
 112              	.LVL12:
  61:Src/interrupt.c **** 				 adjust_1ms();			//å£åˆ¶å¾¡ã«ã‚ˆã‚‹å°åŠ é›»åœ§ã‚’è¨ˆç®—
 113              		.loc 1 61 6 view .LVU19
 114 0086 FFF7FEFF 		bl	calc_motor_vol_ctrl
 115              	.LVL13:
  62:Src/interrupt.c **** 				 motor_1ms();			//åˆ¶å¾¡ãƒ¢ãƒ¼ãƒ‰ã«å¿œã˜ãŸå°åŠ é›»åœ§ã‚’å‡ºåŠ›
 116              		.loc 1 62 6 view .LVU20
 117 008a FFF7FEFF 		bl	adjust_1ms
 118              	.LVL14:
  63:Src/interrupt.c **** 
 119              		.loc 1 63 6 view .LVU21
 120 008e FFF7FEFF 		bl	motor_1ms
 121              	.LVL15:
  65:Src/interrupt.c **** 
 122              		.loc 1 65 5 view .LVU22
 123 0092 BEE7     		b	.L1
 124              	.L9:
  68:Src/interrupt.c **** 				 mouse_state_1ms();		//ãƒã‚¦ã‚¹ã®é€Ÿåº¦ã€è§’é€Ÿåº¦ã€ç§»å‹•è·é›¢ã€è§’åº¦ã‚’è¨ˆç®—
 125              		.loc 1 68 7 view .LVU23
 126 0094 FFF7FEFF 		bl	data_get
 127              	.LVL16:
  69:Src/interrupt.c **** 				 target_1ms();			//ç›®æ¨™è·é›¢ã€è§’åº¦ã‹ã‚‰ç›®æ¨™é€Ÿåº¦ã€è§’é€Ÿåº¦ã€åŠ é€Ÿåº¦ã€è§’åŠ é€Ÿå
 128              		.loc 1 69 6 view .LVU24
 129 0098 FFF7FEFF 		bl	mouse_state_1ms
 130              	.LVL17:
  70:Src/interrupt.c **** 				 calc_motor_vol_ctrl();	//é€Ÿåº¦ã€è§’é€Ÿåº¦åˆ¶å¾¡ã«ã‚ˆã‚‹å°åŠ é›»åœ§ã‚’è¨ˆç®—
 131              		.loc 1 70 6 view .LVU25
 132 009c FFF7FEFF 		bl	target_1ms
 133              	.LVL18:
  71:Src/interrupt.c **** 				 adjust_1ms();			//å£åˆ¶å¾¡ã«ã‚ˆã‚‹å°åŠ é›»åœ§ã‚’è¨ˆç®—
 134              		.loc 1 71 6 view .LVU26
 135 00a0 FFF7FEFF 		bl	calc_motor_vol_ctrl
 136              	.LVL19:
  72:Src/interrupt.c **** 				 motor_1ms();			//åˆ¶å¾¡ãƒ¢ãƒ¼ãƒ‰ã«å¿œã˜ãŸå°åŠ é›»åœ§ã‚’å‡ºåŠ›
 137              		.loc 1 72 6 view .LVU27
 138 00a4 FFF7FEFF 		bl	adjust_1ms
 139              	.LVL20:
  73:Src/interrupt.c **** 
 140              		.loc 1 73 6 view .LVU28
 141 00a8 FFF7FEFF 		bl	motor_1ms
 142              	.LVL21:
  75:Src/interrupt.c **** 
 143              		.loc 1 75 5 view .LVU29
 144 00ac B1E7     		b	.L1
ARM GAS  C:\Temp\ccVg3W3c.s 			page 6


 145              	.L8:
  78:Src/interrupt.c **** 				break;
 146              		.loc 1 78 5 view .LVU30
 147 00ae FFF7FEFF 		bl	data_get
 148              	.LVL22:
  79:Src/interrupt.c **** 
 149              		.loc 1 79 5 view .LVU31
 150 00b2 AEE7     		b	.L1
 151              	.L7:
  82:Src/interrupt.c **** 				 mouse_state_1ms();		//ãƒã‚¦ã‚¹ã®é€Ÿåº¦ã€è§’é€Ÿåº¦ã€ç§»å‹•è·é›¢ã€è§’åº¦ã‚’è¨ˆç®—
 152              		.loc 1 82 6 view .LVU32
 153 00b4 FFF7FEFF 		bl	data_get
 154              	.LVL23:
  83:Src/interrupt.c **** 				 target_1ms();			//ç›®æ¨™è·é›¢ã€è§’åº¦ã‹ã‚‰ç›®æ¨™é€Ÿåº¦ã€è§’é€Ÿåº¦ã€åŠ é€Ÿåº¦ã€è§’åŠ é€Ÿå
 155              		.loc 1 83 6 view .LVU33
 156 00b8 FFF7FEFF 		bl	mouse_state_1ms
 157              	.LVL24:
  84:Src/interrupt.c **** 				 calc_motor_vol_ctrl();	//é€Ÿåº¦ã€è§’é€Ÿåº¦åˆ¶å¾¡ã«ã‚ˆã‚‹å°åŠ é›»åœ§ã‚’è¨ˆç®—
 158              		.loc 1 84 6 view .LVU34
 159 00bc FFF7FEFF 		bl	target_1ms
 160              	.LVL25:
  85:Src/interrupt.c **** 				 adjust_1ms();			//å£åˆ¶å¾¡ã«ã‚ˆã‚‹å°åŠ é›»åœ§ã‚’è¨ˆç®—
 161              		.loc 1 85 6 view .LVU35
 162 00c0 FFF7FEFF 		bl	calc_motor_vol_ctrl
 163              	.LVL26:
  86:Src/interrupt.c **** 				 motor_1ms();			//åˆ¶å¾¡ãƒ¢ãƒ¼ãƒ‰ã«å¿œã˜ãŸå°åŠ é›»åœ§ã‚’å‡ºåŠ›
 164              		.loc 1 86 6 view .LVU36
 165 00c4 FFF7FEFF 		bl	adjust_1ms
 166              	.LVL27:
  87:Src/interrupt.c **** 				break;
 167              		.loc 1 87 6 view .LVU37
 168 00c8 FFF7FEFF 		bl	motor_1ms
 169              	.LVL28:
  88:Src/interrupt.c **** 
 170              		.loc 1 88 5 view .LVU38
 171 00cc A1E7     		b	.L1
 172              	.L6:
  91:Src/interrupt.c **** 				 mouse_state_1ms();		//ãƒã‚¦ã‚¹ã®é€Ÿåº¦ã€è§’é€Ÿåº¦ã€ç§»å‹•è·é›¢ã€è§’åº¦ã‚’è¨ˆç®—
 173              		.loc 1 91 5 view .LVU39
 174 00ce FFF7FEFF 		bl	data_get
 175              	.LVL29:
  92:Src/interrupt.c **** 				 target_1ms();			//ç›®æ¨™è·é›¢ã€è§’åº¦ã‹ã‚‰ç›®æ¨™é€Ÿåº¦ã€è§’é€Ÿåº¦ã€åŠ é€Ÿåº¦ã€è§’åŠ é€Ÿå
 176              		.loc 1 92 6 view .LVU40
 177 00d2 FFF7FEFF 		bl	mouse_state_1ms
 178              	.LVL30:
  93:Src/interrupt.c **** 				 calc_motor_vol_ctrl();	//é€Ÿåº¦ã€è§’é€Ÿåº¦åˆ¶å¾¡ã«ã‚ˆã‚‹å°åŠ é›»åœ§ã‚’è¨ˆç®—
 179              		.loc 1 93 6 view .LVU41
 180 00d6 FFF7FEFF 		bl	target_1ms
 181              	.LVL31:
  94:Src/interrupt.c **** 				 adjust_1ms();			//å£åˆ¶å¾¡ã«ã‚ˆã‚‹å°åŠ é›»åœ§ã‚’è¨ˆç®—
 182              		.loc 1 94 6 view .LVU42
 183 00da FFF7FEFF 		bl	calc_motor_vol_ctrl
 184              	.LVL32:
  95:Src/interrupt.c **** 				 motor_1ms();			//åˆ¶å¾¡ãƒ¢ãƒ¼ãƒ‰ã«å¿œã˜ãŸå°åŠ é›»åœ§ã‚’å‡ºåŠ›
 185              		.loc 1 95 6 view .LVU43
 186 00de FFF7FEFF 		bl	adjust_1ms
 187              	.LVL33:
ARM GAS  C:\Temp\ccVg3W3c.s 			page 7


  96:Src/interrupt.c **** 
 188              		.loc 1 96 6 view .LVU44
 189 00e2 FFF7FEFF 		bl	motor_1ms
 190              	.LVL34:
  98:Src/interrupt.c **** 
 191              		.loc 1 98 5 view .LVU45
 192 00e6 94E7     		b	.L1
 193              	.L5:
 101:Src/interrupt.c **** 				mouse_state_1ms();		//ãƒã‚¦ã‚¹ã®é€Ÿåº¦ã€è§’é€Ÿåº¦ã€ç§»å‹•è·é›¢ã€è§’åº¦ã‚’è¨ˆç®—
 194              		.loc 1 101 5 view .LVU46
 195 00e8 FFF7FEFF 		bl	data_get
 196              	.LVL35:
 102:Src/interrupt.c **** 				target_1ms();			//ç›®æ¨™è·é›¢ã€è§’åº¦ã‹ã‚‰ç›®æ¨™é€Ÿåº¦ã€è§’é€Ÿåº¦ã€åŠ é€Ÿåº¦ã€è§’åŠ é€Ÿåº
 197              		.loc 1 102 5 view .LVU47
 198 00ec FFF7FEFF 		bl	mouse_state_1ms
 199              	.LVL36:
 103:Src/interrupt.c **** 				calc_motor_vol_ctrl();	//é€Ÿåº¦ã€è§’é€Ÿåº¦åˆ¶å¾¡ã«ã‚ˆã‚‹å°åŠ é›»åœ§ã‚’è¨ˆç®—
 200              		.loc 1 103 5 view .LVU48
 201 00f0 FFF7FEFF 		bl	target_1ms
 202              	.LVL37:
 104:Src/interrupt.c **** 				adjust_1ms();			//å£åˆ¶å¾¡ã«ã‚ˆã‚‹å°åŠ é›»åœ§ã‚’è¨ˆç®—
 203              		.loc 1 104 5 view .LVU49
 204 00f4 FFF7FEFF 		bl	calc_motor_vol_ctrl
 205              	.LVL38:
 105:Src/interrupt.c **** 				break;
 206              		.loc 1 105 5 view .LVU50
 207 00f8 FFF7FEFF 		bl	adjust_1ms
 208              	.LVL39:
 106:Src/interrupt.c **** 
 209              		.loc 1 106 5 view .LVU51
 210 00fc 89E7     		b	.L1
 211              	.L3:
 109:Src/interrupt.c **** 				mouse_state_1ms();		//ãƒã‚¦ã‚¹ã®é€Ÿåº¦ã€è§’é€Ÿåº¦ã€ç§»å‹•è·é›¢ã€è§’åº¦ã‚’è¨ˆç®—
 212              		.loc 1 109 5 view .LVU52
 213 00fe FFF7FEFF 		bl	data_get
 214              	.LVL40:
 110:Src/interrupt.c **** 				target_1ms();			//ç›®æ¨™è·é›¢ã€è§’åº¦ã‹ã‚‰ç›®æ¨™é€Ÿåº¦ã€è§’é€Ÿåº¦ã€åŠ é€Ÿåº¦ã€è§’åŠ é€Ÿåº
 215              		.loc 1 110 5 view .LVU53
 216 0102 FFF7FEFF 		bl	mouse_state_1ms
 217              	.LVL41:
 111:Src/interrupt.c **** 				calc_motor_vol_ctrl();	//é€Ÿåº¦ã€è§’é€Ÿåº¦åˆ¶å¾¡ã«ã‚ˆã‚‹å°åŠ é›»åœ§ã‚’è¨ˆç®—
 218              		.loc 1 111 5 view .LVU54
 219 0106 FFF7FEFF 		bl	target_1ms
 220              	.LVL42:
 112:Src/interrupt.c **** 				adjust_1ms();			//å£åˆ¶å¾¡ã«ã‚ˆã‚‹å°åŠ é›»åœ§ã‚’è¨ˆç®—
 221              		.loc 1 112 5 view .LVU55
 222 010a FFF7FEFF 		bl	calc_motor_vol_ctrl
 223              	.LVL43:
 113:Src/interrupt.c **** 				motor_1ms();			//åˆ¶å¾¡ãƒ¢ãƒ¼ãƒ‰ã«å¿œã˜ãŸå°åŠ é›»åœ§ã‚’å‡ºåŠ›
 224              		.loc 1 113 5 view .LVU56
 225 010e FFF7FEFF 		bl	adjust_1ms
 226              	.LVL44:
 114:Src/interrupt.c **** 				break;
 227              		.loc 1 114 5 view .LVU57
 228 0112 FFF7FEFF 		bl	motor_1ms
 229              	.LVL45:
 115:Src/interrupt.c **** 
ARM GAS  C:\Temp\ccVg3W3c.s 			page 8


 230              		.loc 1 115 5 view .LVU58
 231              		.loc 1 119 1 is_stmt 0 view .LVU59
 232 0116 7CE7     		b	.L1
 233              		.cfi_endproc
 234              	.LFE133:
 236              		.section	.text.Interrupt_Initialize,"ax",%progbits
 237              		.align	1
 238              		.global	Interrupt_Initialize
 239              		.syntax unified
 240              		.thumb
 241              		.thumb_func
 242              		.fpu fpv4-sp-d16
 244              	Interrupt_Initialize:
 245              	.LFB134:
 120:Src/interrupt.c **** 
 121:Src/interrupt.c **** /* ---------------------------------------------------------------
 122:Src/interrupt.c **** 	ãƒ¡ã‚¤ãƒ³å‰²ã‚Šè¾¼ã¿ã®åˆæœŸè¨­å®šé–¢æ•°
 123:Src/interrupt.c **** --------------------------------------------------------------- */
 124:Src/interrupt.c **** void Interrupt_Initialize( void )
 125:Src/interrupt.c **** {
 246              		.loc 1 125 1 is_stmt 1 view -0
 247              		.cfi_startproc
 248              		@ args = 0, pretend = 0, frame = 0
 249              		@ frame_needed = 0, uses_anonymous_args = 0
 250 0000 08B5     		push	{r3, lr}
 251              	.LCFI1:
 252              		.cfi_def_cfa_offset 8
 253              		.cfi_offset 3, -8
 254              		.cfi_offset 14, -4
 126:Src/interrupt.c **** 	HAL_TIM_Base_Start_IT( &htim6 );
 255              		.loc 1 126 2 view .LVU61
 256 0002 0248     		ldr	r0, .L16
 257 0004 FFF7FEFF 		bl	HAL_TIM_Base_Start_IT
 258              	.LVL46:
 127:Src/interrupt.c **** }
 259              		.loc 1 127 1 is_stmt 0 view .LVU62
 260 0008 08BD     		pop	{r3, pc}
 261              	.L17:
 262 000a 00BF     		.align	2
 263              	.L16:
 264 000c 00000000 		.word	htim6
 265              		.cfi_endproc
 266              	.LFE134:
 268              		.global	__aeabi_ul2f
 269              		.section	.text.Interrupt_PreProcess,"ax",%progbits
 270              		.align	1
 271              		.global	Interrupt_PreProcess
 272              		.syntax unified
 273              		.thumb
 274              		.thumb_func
 275              		.fpu fpv4-sp-d16
 277              	Interrupt_PreProcess:
 278              	.LFB135:
 128:Src/interrupt.c **** 
 129:Src/interrupt.c **** /* ---------------------------------------------------------------
 130:Src/interrupt.c **** 	å‰²ã‚Šè¾¼ã¿å‰å‡¦ç†é–¢æ•°
 131:Src/interrupt.c **** --------------------------------------------------------------- */
ARM GAS  C:\Temp\ccVg3W3c.s 			page 9


 132:Src/interrupt.c **** void Interrupt_PreProcess( void )
 133:Src/interrupt.c **** {
 279              		.loc 1 133 1 is_stmt 1 view -0
 280              		.cfi_startproc
 281              		@ args = 0, pretend = 0, frame = 0
 282              		@ frame_needed = 0, uses_anonymous_args = 0
 283 0000 08B5     		push	{r3, lr}
 284              	.LCFI2:
 285              		.cfi_def_cfa_offset 8
 286              		.cfi_offset 3, -8
 287              		.cfi_offset 14, -4
 134:Src/interrupt.c **** //	static uint32_t		interrupt_count_old = 0;
 135:Src/interrupt.c **** //	static uint16_t		interrupt_count_old = 0;
 136:Src/interrupt.c **** 
 137:Src/interrupt.c **** 	static uint64_t		boot_time_count = 0;
 288              		.loc 1 137 2 view .LVU64
 138:Src/interrupt.c **** 
 139:Src/interrupt.c **** 	interrupt_count_now = TIMER_COUNT;
 289              		.loc 1 139 2 view .LVU65
 290              		.loc 1 139 24 is_stmt 0 view .LVU66
 291 0002 0C4B     		ldr	r3, .L20
 292 0004 1B68     		ldr	r3, [r3]
 293 0006 5A6A     		ldr	r2, [r3, #36]
 294              		.loc 1 139 22 view .LVU67
 295 0008 0B4B     		ldr	r3, .L20+4
 296 000a 1A60     		str	r2, [r3]
 140:Src/interrupt.c **** //	boot_time_count += (uint16_t)(interrupt_count_now - interrupt_count_old);
 141:Src/interrupt.c **** //	interrupt_count_old = interrupt_count_now;
 142:Src/interrupt.c **** //	boot_time = (float)boot_time_count / (float)(HAL_RCC_GetPCLK1Freq() *2 / ( TIMER_PSC + 1) );
 143:Src/interrupt.c **** 
 144:Src/interrupt.c **** 	boot_time_count += 1;
 297              		.loc 1 144 2 is_stmt 1 view .LVU68
 298              		.loc 1 144 18 is_stmt 0 view .LVU69
 299 000c 0B4B     		ldr	r3, .L20+8
 300 000e 1868     		ldr	r0, [r3]
 301 0010 5968     		ldr	r1, [r3, #4]
 302 0012 0130     		adds	r0, r0, #1
 303 0014 41F10001 		adc	r1, r1, #0
 304 0018 1860     		str	r0, [r3]
 305 001a 5960     		str	r1, [r3, #4]
 145:Src/interrupt.c **** 	boot_time = ((float)boot_time_count /(float)1000);
 306              		.loc 1 145 2 is_stmt 1 view .LVU70
 307              		.loc 1 145 15 is_stmt 0 view .LVU71
 308 001c FFF7FEFF 		bl	__aeabi_ul2f
 309              	.LVL47:
 310 0020 06EE900A 		vmov	s13, r0
 311              		.loc 1 145 38 view .LVU72
 312 0024 9FED067A 		vldr.32	s14, .L20+12
 313 0028 C6EE877A 		vdiv.f32	s15, s13, s14
 314              		.loc 1 145 12 view .LVU73
 315 002c 054B     		ldr	r3, .L20+16
 316 002e C3ED007A 		vstr.32	s15, [r3]
 146:Src/interrupt.c **** }
 317              		.loc 1 146 1 view .LVU74
 318 0032 08BD     		pop	{r3, pc}
 319              	.L21:
 320              		.align	2
ARM GAS  C:\Temp\ccVg3W3c.s 			page 10


 321              	.L20:
 322 0034 00000000 		.word	htim6
 323 0038 00000000 		.word	.LANCHOR0
 324 003c 00000000 		.word	.LANCHOR1
 325 0040 00007A44 		.word	1148846080
 326 0044 00000000 		.word	.LANCHOR2
 327              		.cfi_endproc
 328              	.LFE135:
 330              		.section	.text.Interrupt_PostProcess,"ax",%progbits
 331              		.align	1
 332              		.global	Interrupt_PostProcess
 333              		.syntax unified
 334              		.thumb
 335              		.thumb_func
 336              		.fpu fpv4-sp-d16
 338              	Interrupt_PostProcess:
 339              	.LFB136:
 147:Src/interrupt.c **** 
 148:Src/interrupt.c **** /* ---------------------------------------------------------------
 149:Src/interrupt.c **** 	å‰²ã‚Šè¾¼ã¿å¾Œå‡¦ç†é–¢æ•°
 150:Src/interrupt.c **** --------------------------------------------------------------- */
 151:Src/interrupt.c **** void Interrupt_PostProcess( void )
 152:Src/interrupt.c **** {
 340              		.loc 1 152 1 is_stmt 1 view -0
 341              		.cfi_startproc
 342              		@ args = 0, pretend = 0, frame = 0
 343              		@ frame_needed = 0, uses_anonymous_args = 0
 344              		@ link register save eliminated.
 153:Src/interrupt.c **** 	interrupt_duty = (TIMER_COUNT - interrupt_count_now) * 1000 / TIMER_LOAD;
 345              		.loc 1 153 2 view .LVU76
 346              		.loc 1 153 20 is_stmt 0 view .LVU77
 347 0000 0A4B     		ldr	r3, .L23
 348 0002 1968     		ldr	r1, [r3]
 349 0004 4B6A     		ldr	r3, [r1, #36]
 350              		.loc 1 153 32 view .LVU78
 351 0006 0A4A     		ldr	r2, .L23+4
 352 0008 1268     		ldr	r2, [r2]
 353 000a 9A1A     		subs	r2, r3, r2
 354              		.loc 1 153 55 view .LVU79
 355 000c 4FF47A73 		mov	r3, #1000
 356 0010 03FB02F3 		mul	r3, r3, r2
 357              		.loc 1 153 64 view .LVU80
 358 0014 CA6A     		ldr	r2, [r1, #44]
 359              		.loc 1 153 62 view .LVU81
 360 0016 B3FBF2F3 		udiv	r3, r3, r2
 361              		.loc 1 153 17 view .LVU82
 362 001a 064A     		ldr	r2, .L23+8
 363 001c 1360     		str	r3, [r2]
 154:Src/interrupt.c **** 	interrupt_duty_max = MAX( interrupt_duty_max, interrupt_duty );
 364              		.loc 1 154 2 is_stmt 1 view .LVU83
 365              		.loc 1 154 23 is_stmt 0 view .LVU84
 366 001e 064A     		ldr	r2, .L23+12
 367 0020 1168     		ldr	r1, [r2]
 368 0022 8B42     		cmp	r3, r1
 369 0024 38BF     		it	cc
 370 0026 0B46     		movcc	r3, r1
 371              		.loc 1 154 21 view .LVU85
ARM GAS  C:\Temp\ccVg3W3c.s 			page 11


 372 0028 1360     		str	r3, [r2]
 155:Src/interrupt.c **** }
 373              		.loc 1 155 1 view .LVU86
 374 002a 7047     		bx	lr
 375              	.L24:
 376              		.align	2
 377              	.L23:
 378 002c 00000000 		.word	htim6
 379 0030 00000000 		.word	.LANCHOR0
 380 0034 00000000 		.word	.LANCHOR3
 381 0038 00000000 		.word	.LANCHOR4
 382              		.cfi_endproc
 383              	.LFE136:
 385              		.section	.text.Interrupt_GetDuty,"ax",%progbits
 386              		.align	1
 387              		.global	Interrupt_GetDuty
 388              		.syntax unified
 389              		.thumb
 390              		.thumb_func
 391              		.fpu fpv4-sp-d16
 393              	Interrupt_GetDuty:
 394              	.LFB137:
 156:Src/interrupt.c **** 
 157:Src/interrupt.c **** /* ---------------------------------------------------------------
 158:Src/interrupt.c **** 	å‰²ã‚Šè¾¼ã¿å‘¨æœŸã«å ã‚ã‚‹å‘¼ã³å‡ºã—ä½ç½®ã¾ã§ã®å‡¦ç†æ™‚é–“ã®å‰²åˆã‚’å–å¾—ã™ã‚‹é–¢æ•
 159:Src/interrupt.c **** --------------------------------------------------------------- */
 160:Src/interrupt.c **** uint16_t Interrupt_GetDuty( void )
 161:Src/interrupt.c **** {
 395              		.loc 1 161 1 is_stmt 1 view -0
 396              		.cfi_startproc
 397              		@ args = 0, pretend = 0, frame = 0
 398              		@ frame_needed = 0, uses_anonymous_args = 0
 399              		@ link register save eliminated.
 162:Src/interrupt.c **** 	return interrupt_duty;
 400              		.loc 1 162 2 view .LVU88
 163:Src/interrupt.c **** }
 401              		.loc 1 163 1 is_stmt 0 view .LVU89
 402 0000 014B     		ldr	r3, .L26
 403 0002 1888     		ldrh	r0, [r3]
 404 0004 7047     		bx	lr
 405              	.L27:
 406 0006 00BF     		.align	2
 407              	.L26:
 408 0008 00000000 		.word	.LANCHOR3
 409              		.cfi_endproc
 410              	.LFE137:
 412              		.section	.text.Interrupt_GetDuty_Max,"ax",%progbits
 413              		.align	1
 414              		.global	Interrupt_GetDuty_Max
 415              		.syntax unified
 416              		.thumb
 417              		.thumb_func
 418              		.fpu fpv4-sp-d16
 420              	Interrupt_GetDuty_Max:
 421              	.LFB138:
 164:Src/interrupt.c **** 
 165:Src/interrupt.c **** /* ---------------------------------------------------------------
ARM GAS  C:\Temp\ccVg3W3c.s 			page 12


 166:Src/interrupt.c **** 	ä¸Šè¨˜å‰²åˆã®æœ€å¤§å€¤ã‚’å–å¾—ã™ã‚‹é–¢æ•°
 167:Src/interrupt.c **** --------------------------------------------------------------- */
 168:Src/interrupt.c **** uint16_t Interrupt_GetDuty_Max( void )
 169:Src/interrupt.c **** {
 422              		.loc 1 169 1 is_stmt 1 view -0
 423              		.cfi_startproc
 424              		@ args = 0, pretend = 0, frame = 0
 425              		@ frame_needed = 0, uses_anonymous_args = 0
 426              		@ link register save eliminated.
 170:Src/interrupt.c **** 	return interrupt_duty_max;
 427              		.loc 1 170 2 view .LVU91
 171:Src/interrupt.c **** }
 428              		.loc 1 171 1 is_stmt 0 view .LVU92
 429 0000 014B     		ldr	r3, .L29
 430 0002 1888     		ldrh	r0, [r3]
 431 0004 7047     		bx	lr
 432              	.L30:
 433 0006 00BF     		.align	2
 434              	.L29:
 435 0008 00000000 		.word	.LANCHOR4
 436              		.cfi_endproc
 437              	.LFE138:
 439              		.section	.text.Interrupt_GetBootTime,"ax",%progbits
 440              		.align	1
 441              		.global	Interrupt_GetBootTime
 442              		.syntax unified
 443              		.thumb
 444              		.thumb_func
 445              		.fpu fpv4-sp-d16
 447              	Interrupt_GetBootTime:
 448              	.LFB139:
 172:Src/interrupt.c **** 
 173:Src/interrupt.c **** /* ---------------------------------------------------------------
 174:Src/interrupt.c **** 	ãƒã‚¤ã‚³ãƒ³èµ·å‹•æ™‚ã‹ã‚‰ã®çµŒéæ™‚é–“ã‚’å–å¾—ã™ã‚‹é–¢æ•°
 175:Src/interrupt.c **** --------------------------------------------------------------- */
 176:Src/interrupt.c **** float Interrupt_GetBootTime( void )
 177:Src/interrupt.c **** {
 449              		.loc 1 177 1 is_stmt 1 view -0
 450              		.cfi_startproc
 451              		@ args = 0, pretend = 0, frame = 0
 452              		@ frame_needed = 0, uses_anonymous_args = 0
 453              		@ link register save eliminated.
 178:Src/interrupt.c **** 	return boot_time;
 454              		.loc 1 178 2 view .LVU94
 179:Src/interrupt.c **** }
 455              		.loc 1 179 1 is_stmt 0 view .LVU95
 456 0000 014B     		ldr	r3, .L32
 457 0002 93ED000A 		vldr.32	s0, [r3]
 458 0006 7047     		bx	lr
 459              	.L33:
 460              		.align	2
 461              	.L32:
 462 0008 00000000 		.word	.LANCHOR2
 463              		.cfi_endproc
 464              	.LFE139:
 466              		.section	.bss.boot_time,"aw",%nobits
 467              		.align	2
ARM GAS  C:\Temp\ccVg3W3c.s 			page 13


 468              		.set	.LANCHOR2,. + 0
 471              	boot_time:
 472 0000 00000000 		.space	4
 473              		.section	.bss.boot_time_count.9702,"aw",%nobits
 474              		.align	3
 475              		.set	.LANCHOR1,. + 0
 478              	boot_time_count.9702:
 479 0000 00000000 		.space	8
 479      00000000 
 480              		.section	.bss.interrupt_count_now,"aw",%nobits
 481              		.align	2
 482              		.set	.LANCHOR0,. + 0
 485              	interrupt_count_now:
 486 0000 00000000 		.space	4
 487              		.section	.bss.interrupt_duty,"aw",%nobits
 488              		.align	2
 489              		.set	.LANCHOR3,. + 0
 492              	interrupt_duty:
 493 0000 00000000 		.space	4
 494              		.section	.bss.interrupt_duty_max,"aw",%nobits
 495              		.align	2
 496              		.set	.LANCHOR4,. + 0
 499              	interrupt_duty_max:
 500 0000 00000000 		.space	4
 501              		.text
 502              	.Letext0:
 503              		.file 2 "c:\\tools\\gcc-arm-none-eabi-9-2019-q4-major\\arm-none-eabi\\include\\machine\\_default_t
 504              		.file 3 "c:\\tools\\gcc-arm-none-eabi-9-2019-q4-major\\arm-none-eabi\\include\\sys\\_stdint.h"
 505              		.file 4 "Drivers/CMSIS/Include/core_cm4.h"
 506              		.file 5 "Drivers/CMSIS/Device/ST/STM32F4xx/Include/system_stm32f4xx.h"
 507              		.file 6 "Drivers/CMSIS/Device/ST/STM32F4xx/Include/stm32f413xx.h"
 508              		.file 7 "Drivers/STM32F4xx_HAL_Driver/Inc/stm32f4xx_hal_def.h"
 509              		.file 8 "Drivers/STM32F4xx_HAL_Driver/Inc/stm32f4xx_hal_dma.h"
 510              		.file 9 "Drivers/STM32F4xx_HAL_Driver/Inc/stm32f4xx_hal_tim.h"
 511              		.file 10 "Inc/mode.h"
 512              		.file 11 "Inc/tim.h"
 513              		.file 12 "c:\\tools\\gcc-arm-none-eabi-9-2019-q4-major\\arm-none-eabi\\include\\sys\\lock.h"
 514              		.file 13 "c:\\tools\\gcc-arm-none-eabi-9-2019-q4-major\\arm-none-eabi\\include\\sys\\_types.h"
 515              		.file 14 "c:\\tools\\gcc-arm-none-eabi-9-2019-q4-major\\lib\\gcc\\arm-none-eabi\\9.2.1\\include\\s
 516              		.file 15 "c:\\tools\\gcc-arm-none-eabi-9-2019-q4-major\\arm-none-eabi\\include\\sys\\reent.h"
 517              		.file 16 "Inc/mouse_state.h"
 518              		.file 17 "Inc/module_test.h"
 519              		.file 18 "Inc/target.h"
 520              		.file 19 "Inc/control.h"
 521              		.file 20 "Inc/adjust.h"
 522              		.file 21 "Inc/exvol.h"
ARM GAS  C:\Temp\ccVg3W3c.s 			page 14


DEFINED SYMBOLS
                            *ABS*:00000000 interrupt.c
  C:\Temp\ccVg3W3c.s:18     .text.Interrupt_Main:00000000 $t
  C:\Temp\ccVg3W3c.s:26     .text.Interrupt_Main:00000000 Interrupt_Main
  C:\Temp\ccVg3W3c.s:66     .text.Interrupt_Main:00000024 $d
  C:\Temp\ccVg3W3c.s:81     .text.Interrupt_Main:00000060 $t
  C:\Temp\ccVg3W3c.s:237    .text.Interrupt_Initialize:00000000 $t
  C:\Temp\ccVg3W3c.s:244    .text.Interrupt_Initialize:00000000 Interrupt_Initialize
  C:\Temp\ccVg3W3c.s:264    .text.Interrupt_Initialize:0000000c $d
  C:\Temp\ccVg3W3c.s:270    .text.Interrupt_PreProcess:00000000 $t
  C:\Temp\ccVg3W3c.s:277    .text.Interrupt_PreProcess:00000000 Interrupt_PreProcess
  C:\Temp\ccVg3W3c.s:322    .text.Interrupt_PreProcess:00000034 $d
  C:\Temp\ccVg3W3c.s:331    .text.Interrupt_PostProcess:00000000 $t
  C:\Temp\ccVg3W3c.s:338    .text.Interrupt_PostProcess:00000000 Interrupt_PostProcess
  C:\Temp\ccVg3W3c.s:378    .text.Interrupt_PostProcess:0000002c $d
  C:\Temp\ccVg3W3c.s:386    .text.Interrupt_GetDuty:00000000 $t
  C:\Temp\ccVg3W3c.s:393    .text.Interrupt_GetDuty:00000000 Interrupt_GetDuty
  C:\Temp\ccVg3W3c.s:408    .text.Interrupt_GetDuty:00000008 $d
  C:\Temp\ccVg3W3c.s:413    .text.Interrupt_GetDuty_Max:00000000 $t
  C:\Temp\ccVg3W3c.s:420    .text.Interrupt_GetDuty_Max:00000000 Interrupt_GetDuty_Max
  C:\Temp\ccVg3W3c.s:435    .text.Interrupt_GetDuty_Max:00000008 $d
  C:\Temp\ccVg3W3c.s:440    .text.Interrupt_GetBootTime:00000000 $t
  C:\Temp\ccVg3W3c.s:447    .text.Interrupt_GetBootTime:00000000 Interrupt_GetBootTime
  C:\Temp\ccVg3W3c.s:462    .text.Interrupt_GetBootTime:00000008 $d
  C:\Temp\ccVg3W3c.s:467    .bss.boot_time:00000000 $d
  C:\Temp\ccVg3W3c.s:471    .bss.boot_time:00000000 boot_time
  C:\Temp\ccVg3W3c.s:474    .bss.boot_time_count.9702:00000000 $d
  C:\Temp\ccVg3W3c.s:478    .bss.boot_time_count.9702:00000000 boot_time_count.9702
  C:\Temp\ccVg3W3c.s:481    .bss.interrupt_count_now:00000000 $d
  C:\Temp\ccVg3W3c.s:485    .bss.interrupt_count_now:00000000 interrupt_count_now
  C:\Temp\ccVg3W3c.s:488    .bss.interrupt_duty:00000000 $d
  C:\Temp\ccVg3W3c.s:492    .bss.interrupt_duty:00000000 interrupt_duty
  C:\Temp\ccVg3W3c.s:495    .bss.interrupt_duty_max:00000000 $d
  C:\Temp\ccVg3W3c.s:499    .bss.interrupt_duty_max:00000000 interrupt_duty_max

UNDEFINED SYMBOLS
calc_move_speed
filter_move_speed
get_mode_state
get_mode_number
data_get
mouse_state_1ms
target_1ms
calc_motor_vol_ctrl
adjust_1ms
motor_1ms
HAL_TIM_Base_Start_IT
htim6
__aeabi_ul2f
