ARM GAS  C:\Temp\cc58uOGp.s 			page 1


   1              		.cpu cortex-m4
   2              		.eabi_attribute 27, 1
   3              		.eabi_attribute 28, 1
   4              		.eabi_attribute 20, 1
   5              		.eabi_attribute 21, 1
   6              		.eabi_attribute 23, 3
   7              		.eabi_attribute 24, 1
   8              		.eabi_attribute 25, 1
   9              		.eabi_attribute 26, 1
  10              		.eabi_attribute 30, 1
  11              		.eabi_attribute 34, 1
  12              		.eabi_attribute 18, 4
  13              		.file	"interrupt.c"
  14              		.text
  15              	.Ltext0:
  16              		.cfi_sections	.debug_frame
  17              		.section	.text.Interrupt_Main,"ax",%progbits
  18              		.align	1
  19              		.global	Interrupt_Main
  20              		.arch armv7e-m
  21              		.syntax unified
  22              		.thumb
  23              		.thumb_func
  24              		.fpu fpv4-sp-d16
  26              	Interrupt_Main:
  27              	.LFB133:
  28              		.file 1 "Src/interrupt.c"
   1:Src/interrupt.c **** /*
   2:Src/interrupt.c ****  * interrupt.c
   3:Src/interrupt.c ****  *
   4:Src/interrupt.c ****  *  Created on: Aug 4, 2019
   5:Src/interrupt.c ****  *      Author: å²¡ç”° æ³°è£•
   6:Src/interrupt.c ****  */
   7:Src/interrupt.c **** 
   8:Src/interrupt.c **** 
   9:Src/interrupt.c **** #include "index.h"
  10:Src/interrupt.c **** #include "mode.h"
  11:Src/interrupt.c **** #include "mouse_state.h"
  12:Src/interrupt.c **** 
  13:Src/interrupt.c **** #define TIMER_COUNT		(__HAL_TIM_GET_COUNTER(&htim6))
  14:Src/interrupt.c **** #define TIMER_LOAD		(__HAL_TIM_GET_AUTORELOAD(&htim6))
  15:Src/interrupt.c **** #define TIMER_PSC		((&htim6)->Instance->PSC)
  16:Src/interrupt.c **** 
  17:Src/interrupt.c ****  static uint32_t		interrupt_count_now;
  18:Src/interrupt.c **** //static uint16_t		interrupt_count_now;
  19:Src/interrupt.c **** static uint32_t		interrupt_duty;
  20:Src/interrupt.c **** static uint32_t		interrupt_duty_max = 0;
  21:Src/interrupt.c **** static float		boot_time = 0.f;
  22:Src/interrupt.c **** 
  23:Src/interrupt.c **** 
  24:Src/interrupt.c **** /* ---------------------------------------------------------------
  25:Src/interrupt.c **** 	1mså‘¨æœŸã§å‰²ã‚Šè¾¼ã¿å‡¦ç†é–¢æ•°
  26:Src/interrupt.c **** --------------------------------------------------------------- */
  27:Src/interrupt.c **** void Interrupt_Main( void )
  28:Src/interrupt.c **** {
  29              		.loc 1 28 1 view -0
  30              		.cfi_startproc
ARM GAS  C:\Temp\cc58uOGp.s 			page 2


  31              		@ args = 0, pretend = 0, frame = 0
  32              		@ frame_needed = 0, uses_anonymous_args = 0
  33 0000 08B5     		push	{r3, lr}
  34              	.LCFI0:
  35              		.cfi_def_cfa_offset 8
  36              		.cfi_offset 3, -8
  37              		.cfi_offset 14, -4
  29:Src/interrupt.c **** 
  30:Src/interrupt.c **** 	calc_move_speed();
  38              		.loc 1 30 2 view .LVU1
  39 0002 FFF7FEFF 		bl	calc_move_speed
  40              	.LVL0:
  31:Src/interrupt.c **** 	filter_move_speed();
  41              		.loc 1 31 2 view .LVU2
  42 0006 FFF7FEFF 		bl	filter_move_speed
  43              	.LVL1:
  32:Src/interrupt.c **** 
  33:Src/interrupt.c **** 	if(get_mode_state() == process)
  44              		.loc 1 33 2 view .LVU3
  45              		.loc 1 33 5 is_stmt 0 view .LVU4
  46 000a FFF7FEFF 		bl	get_mode_state
  47              	.LVL2:
  48              		.loc 1 33 4 view .LVU5
  49 000e 0128     		cmp	r0, #1
  50 0010 00D0     		beq	.L13
  51              	.L1:
  34:Src/interrupt.c **** 	{
  35:Src/interrupt.c **** 		switch(get_mode_number())
  36:Src/interrupt.c **** 		{
  37:Src/interrupt.c **** 			case 0 ://m åˆæœŸèµ·å‹•æ™‚ã«ã¨ãŠã‚‹ã®ã§ã€ã¤ã‹ã‚ãªã„ã“ã¨ã€‚(ãƒ­ã‚°å‡ºåŠ›ç”¨ï¼‰
  38:Src/interrupt.c **** 				break;
  39:Src/interrupt.c **** 
  40:Src/interrupt.c **** 			case 1 :
  41:Src/interrupt.c **** 				data_get();
  42:Src/interrupt.c **** 				calibrate_tim(); 			//må‰å£è£œæ­£ç”¨ã‚«ã‚¦ãƒ³ã‚¿
  43:Src/interrupt.c **** 				real_distance_m_calc();		//mç¾åœ¨é€Ÿåº¦ã‚’ç©åˆ†ã—ã¦è·é›¢ç®—å‡º
  44:Src/interrupt.c **** 				real_distance_w_calc();		//mç¾åœ¨è§’é€Ÿåº¦ã‚’ç©åˆ†ã—ã¦è§’åº¦ç®—å‡º
  45:Src/interrupt.c **** 				target_speed_m_calc();		//mç¾åœ¨è·é›¢ã¨ç›®æ¨™è·é›¢ã«å¿œã˜ã¦åŠ é€Ÿåº¦ã‚’åˆ‡ã‚Šæ›¿ãˆ
  46:Src/interrupt.c **** 				target_speed_w_calc();		//mç¾åœ¨è§’åº¦ã¨ç›®æ¨™è§’åº¦ã«å¿œã˜ã¦è§’åŠ é€Ÿåº¦ã‚’åˆ‡ã‚Šæ›¿ãˆ
  47:Src/interrupt.c **** 				target_speed_inc();			//måŠ é€Ÿåº¦ã€è§’åŠ é€Ÿåº¦ã‚’ç›®æ¨™é€Ÿåº¦ã«åŠ ç®—
  48:Src/interrupt.c **** 				Operation_amount_calc();
  49:Src/interrupt.c **** 				break;
  50:Src/interrupt.c **** 
  51:Src/interrupt.c **** 			case 2 :
  52:Src/interrupt.c **** 				data_get();
  53:Src/interrupt.c **** 				real_distance_m_calc();		//mç¾åœ¨é€Ÿåº¦ã‚’ç©åˆ†ã—ã¦è·é›¢ç®—å‡º
  54:Src/interrupt.c **** 				real_distance_w_calc();		//mç¾åœ¨è§’é€Ÿåº¦ã‚’ç©åˆ†ã—ã¦è§’åº¦ç®—å‡º
  55:Src/interrupt.c **** 				target_speed_m_calc();		//mç¾åœ¨è·é›¢ã¨ç›®æ¨™è·é›¢ã«å¿œã˜ã¦åŠ é€Ÿåº¦ã‚’åˆ‡ã‚Šæ›¿ãˆ
  56:Src/interrupt.c **** 				target_speed_w_calc();		//mç¾åœ¨è§’åº¦ã¨ç›®æ¨™è§’åº¦ã«å¿œã˜ã¦è§’åŠ é€Ÿåº¦ã‚’åˆ‡ã‚Šæ›¿ãˆ
  57:Src/interrupt.c **** 				target_speed_inc();			//måŠ é€Ÿåº¦ã€è§’åŠ é€Ÿåº¦ã‚’ç›®æ¨™é€Ÿåº¦ã«åŠ ç®—
  58:Src/interrupt.c **** 				Operation_amount_calc();	//mç›®æ¨™é€Ÿåº¦ã¨ç¾åœ¨é€Ÿåº¦ã®åå·®ã«å¿œã˜ã¦å„ãƒ¢ãƒ¼ã‚¿ã®é›»å
  59:Src/interrupt.c **** 				break;
  60:Src/interrupt.c **** 
  61:Src/interrupt.c **** 			case 3 :
  62:Src/interrupt.c **** 				data_get();
  63:Src/interrupt.c **** 				real_distance_m_calc();		//mç¾åœ¨é€Ÿåº¦ã‚’ç©åˆ†ã—ã¦è·é›¢ç®—å‡º
  64:Src/interrupt.c **** 				real_distance_w_calc();		//mç¾åœ¨è§’é€Ÿåº¦ã‚’ç©åˆ†ã—ã¦è§’åº¦ç®—å‡º
ARM GAS  C:\Temp\cc58uOGp.s 			page 3


  65:Src/interrupt.c **** 				target_speed_m_calc();		//mç¾åœ¨è·é›¢ã¨ç›®æ¨™è·é›¢ã«å¿œã˜ã¦åŠ é€Ÿåº¦ã‚’åˆ‡ã‚Šæ›¿ãˆ
  66:Src/interrupt.c **** 				target_speed_w_calc();		//mç¾åœ¨è§’åº¦ã¨ç›®æ¨™è§’åº¦ã«å¿œã˜ã¦è§’åŠ é€Ÿåº¦ã‚’åˆ‡ã‚Šæ›¿ãˆ
  67:Src/interrupt.c **** 				target_speed_inc();			//måŠ é€Ÿåº¦ã€è§’åŠ é€Ÿåº¦ã‚’ç›®æ¨™é€Ÿåº¦ã«åŠ ç®—
  68:Src/interrupt.c **** 				Operation_amount_calc();	//mç›®æ¨™é€Ÿåº¦ã¨ç¾åœ¨é€Ÿåº¦ã®åå·®ã«å¿œã˜ã¦å„ãƒ¢ãƒ¼ã‚¿ã®é›»å
  69:Src/interrupt.c **** 				break;
  70:Src/interrupt.c **** 
  71:Src/interrupt.c **** 			case 4 :
  72:Src/interrupt.c **** 				data_get();
  73:Src/interrupt.c **** 				break;
  74:Src/interrupt.c **** 
  75:Src/interrupt.c **** 			case 5 :
  76:Src/interrupt.c **** 				data_get();
  77:Src/interrupt.c **** 				break;
  78:Src/interrupt.c **** 
  79:Src/interrupt.c **** 			case 6 :
  80:Src/interrupt.c **** 				data_get();
  81:Src/interrupt.c **** 				real_distance_m_calc();		//mç¾åœ¨é€Ÿåº¦ã‚’ç©åˆ†ã—ã¦è·é›¢ç®—å‡º
  82:Src/interrupt.c **** 				real_distance_w_calc();		//mç¾åœ¨è§’é€Ÿåº¦ã‚’ç©åˆ†ã—ã¦è§’åº¦ç®—å‡º
  83:Src/interrupt.c **** 				target_speed_m_calc();		//mç¾åœ¨è·é›¢ã¨ç›®æ¨™è·é›¢ã«å¿œã˜ã¦åŠ é€Ÿåº¦ã‚’åˆ‡ã‚Šæ›¿ãˆ
  84:Src/interrupt.c **** 				target_speed_w_calc();		//mç¾åœ¨è§’åº¦ã¨ç›®æ¨™è§’åº¦ã«å¿œã˜ã¦è§’åŠ é€Ÿåº¦ã‚’åˆ‡ã‚Šæ›¿ãˆ
  85:Src/interrupt.c **** 				target_speed_inc();			//måŠ é€Ÿåº¦ã€è§’åŠ é€Ÿåº¦ã‚’ç›®æ¨™é€Ÿåº¦ã«åŠ ç®—
  86:Src/interrupt.c **** 				Operation_amount_calc();	//mç›®æ¨™é€Ÿåº¦ã¨ç¾åœ¨é€Ÿåº¦ã®åå·®ã«å¿œã˜ã¦å„ãƒ¢ãƒ¼ã‚¿ã®é›»å
  87:Src/interrupt.c **** 				break;
  88:Src/interrupt.c **** 
  89:Src/interrupt.c **** 			case 7 :
  90:Src/interrupt.c **** 				data_get();
  91:Src/interrupt.c **** 				calibrate_tim(); //må‰å£è£œæ­£ç”¨ã‚«ã‚¦ãƒ³ã‚¿
  92:Src/interrupt.c **** 				real_distance_m_calc();		//mç¾åœ¨é€Ÿåº¦ã‚’ç©åˆ†ã—ã¦è·é›¢ç®—å‡º
  93:Src/interrupt.c **** 				real_distance_w_calc();		//mç¾åœ¨è§’é€Ÿåº¦ã‚’ç©åˆ†ã—ã¦è§’åº¦ç®—å‡º
  94:Src/interrupt.c **** 				target_speed_m_calc();		//mç¾åœ¨è·é›¢ã¨ç›®æ¨™è·é›¢ã«å¿œã˜ã¦åŠ é€Ÿåº¦ã‚’åˆ‡ã‚Šæ›¿ãˆ
  95:Src/interrupt.c **** 				target_speed_w_calc();		//mç¾åœ¨è§’åº¦ã¨ç›®æ¨™è§’åº¦ã«å¿œã˜ã¦è§’åŠ é€Ÿåº¦ã‚’åˆ‡ã‚Šæ›¿ãˆ
  96:Src/interrupt.c **** 				target_speed_inc();			//måŠ é€Ÿåº¦ã€è§’åŠ é€Ÿåº¦ã‚’ç›®æ¨™é€Ÿåº¦ã«åŠ ç®—
  97:Src/interrupt.c **** 				Operation_amount_calc();
  98:Src/interrupt.c **** 				break;
  99:Src/interrupt.c **** 
 100:Src/interrupt.c **** 			case 15 :
 101:Src/interrupt.c **** 				data_get();
 102:Src/interrupt.c **** 				calibrate_tim(); 			//må‰å£è£œæ­£ç”¨ã‚«ã‚¦ãƒ³ã‚¿
 103:Src/interrupt.c **** 				real_distance_m_calc();		//mç¾åœ¨é€Ÿåº¦ã‚’ç©åˆ†ã—ã¦è·é›¢ç®—å‡º
 104:Src/interrupt.c **** 				real_distance_w_calc();		//mç¾åœ¨è§’é€Ÿåº¦ã‚’ç©åˆ†ã—ã¦è§’åº¦ç®—å‡º
 105:Src/interrupt.c **** 				target_speed_m_calc();		//mç¾åœ¨è·é›¢ã¨ç›®æ¨™è·é›¢ã«å¿œã˜ã¦åŠ é€Ÿåº¦ã‚’åˆ‡ã‚Šæ›¿ãˆ
 106:Src/interrupt.c **** 				target_speed_w_calc();		//mç¾åœ¨è§’åº¦ã¨ç›®æ¨™è§’åº¦ã«å¿œã˜ã¦è§’åŠ é€Ÿåº¦ã‚’åˆ‡ã‚Šæ›¿ãˆ
 107:Src/interrupt.c **** 				target_speed_inc();			//måŠ é€Ÿåº¦ã€è§’åŠ é€Ÿåº¦ã‚’ç›®æ¨™é€Ÿåº¦ã«åŠ ç®—
 108:Src/interrupt.c **** 				Operation_amount_calc();	//mç›®æ¨™é€Ÿåº¦ã¨ç¾åœ¨é€Ÿåº¦ã®åå·®ã«å¿œã˜ã¦å„ãƒ¢ãƒ¼ã‚¿ã®é›»å
 109:Src/interrupt.c **** 				break;
 110:Src/interrupt.c **** 
 111:Src/interrupt.c **** 		}
 112:Src/interrupt.c **** 	}
 113:Src/interrupt.c **** }
  52              		.loc 1 113 1 view .LVU6
  53 0012 08BD     		pop	{r3, pc}
  54              	.L13:
  35:Src/interrupt.c **** 		{
  55              		.loc 1 35 3 is_stmt 1 view .LVU7
  35:Src/interrupt.c **** 		{
  56              		.loc 1 35 10 is_stmt 0 view .LVU8
  57 0014 FFF7FEFF 		bl	get_mode_number
ARM GAS  C:\Temp\cc58uOGp.s 			page 4


  58              	.LVL3:
  59 0018 0138     		subs	r0, r0, #1
  60 001a 0E28     		cmp	r0, #14
  61 001c F9D8     		bhi	.L1
  62 001e 01A3     		adr	r3, .L4
  63 0020 53F820F0 		ldr	pc, [r3, r0, lsl #2]
  64              		.p2align 2
  65              	.L4:
  66 0024 61000000 		.word	.L11+1
  67 0028 83000000 		.word	.L10+1
  68 002c A1000000 		.word	.L9+1
  69 0030 BF000000 		.word	.L8+1
  70 0034 C5000000 		.word	.L7+1
  71 0038 CB000000 		.word	.L6+1
  72 003c E9000000 		.word	.L5+1
  73 0040 13000000 		.word	.L1+1
  74 0044 13000000 		.word	.L1+1
  75 0048 13000000 		.word	.L1+1
  76 004c 13000000 		.word	.L1+1
  77 0050 13000000 		.word	.L1+1
  78 0054 13000000 		.word	.L1+1
  79 0058 13000000 		.word	.L1+1
  80 005c 0B010000 		.word	.L3+1
  81              		.p2align 1
  82              	.L11:
  41:Src/interrupt.c **** 				calibrate_tim(); 			//må‰å£è£œæ­£ç”¨ã‚«ã‚¦ãƒ³ã‚¿
  83              		.loc 1 41 5 is_stmt 1 view .LVU9
  84 0060 FFF7FEFF 		bl	data_get
  85              	.LVL4:
  42:Src/interrupt.c **** 				real_distance_m_calc();		//mç¾åœ¨é€Ÿåº¦ã‚’ç©åˆ†ã—ã¦è·é›¢ç®—å‡º
  86              		.loc 1 42 5 view .LVU10
  87 0064 FFF7FEFF 		bl	calibrate_tim
  88              	.LVL5:
  43:Src/interrupt.c **** 				real_distance_w_calc();		//mç¾åœ¨è§’é€Ÿåº¦ã‚’ç©åˆ†ã—ã¦è§’åº¦ç®—å‡º
  89              		.loc 1 43 5 view .LVU11
  90 0068 FFF7FEFF 		bl	real_distance_m_calc
  91              	.LVL6:
  44:Src/interrupt.c **** 				target_speed_m_calc();		//mç¾åœ¨è·é›¢ã¨ç›®æ¨™è·é›¢ã«å¿œã˜ã¦åŠ é€Ÿåº¦ã‚’åˆ‡ã‚Šæ›¿ãˆ
  92              		.loc 1 44 5 view .LVU12
  93 006c FFF7FEFF 		bl	real_distance_w_calc
  94              	.LVL7:
  45:Src/interrupt.c **** 				target_speed_w_calc();		//mç¾åœ¨è§’åº¦ã¨ç›®æ¨™è§’åº¦ã«å¿œã˜ã¦è§’åŠ é€Ÿåº¦ã‚’åˆ‡ã‚Šæ›¿ãˆ
  95              		.loc 1 45 5 view .LVU13
  96 0070 FFF7FEFF 		bl	target_speed_m_calc
  97              	.LVL8:
  46:Src/interrupt.c **** 				target_speed_inc();			//måŠ é€Ÿåº¦ã€è§’åŠ é€Ÿåº¦ã‚’ç›®æ¨™é€Ÿåº¦ã«åŠ ç®—
  98              		.loc 1 46 5 view .LVU14
  99 0074 FFF7FEFF 		bl	target_speed_w_calc
 100              	.LVL9:
  47:Src/interrupt.c **** 				Operation_amount_calc();
 101              		.loc 1 47 5 view .LVU15
 102 0078 FFF7FEFF 		bl	target_speed_inc
 103              	.LVL10:
  48:Src/interrupt.c **** 				break;
 104              		.loc 1 48 5 view .LVU16
 105 007c FFF7FEFF 		bl	Operation_amount_calc
 106              	.LVL11:
ARM GAS  C:\Temp\cc58uOGp.s 			page 5


  49:Src/interrupt.c **** 
 107              		.loc 1 49 5 view .LVU17
 108 0080 C7E7     		b	.L1
 109              	.L10:
  52:Src/interrupt.c **** 				real_distance_m_calc();		//mç¾åœ¨é€Ÿåº¦ã‚’ç©åˆ†ã—ã¦è·é›¢ç®—å‡º
 110              		.loc 1 52 5 view .LVU18
 111 0082 FFF7FEFF 		bl	data_get
 112              	.LVL12:
  53:Src/interrupt.c **** 				real_distance_w_calc();		//mç¾åœ¨è§’é€Ÿåº¦ã‚’ç©åˆ†ã—ã¦è§’åº¦ç®—å‡º
 113              		.loc 1 53 5 view .LVU19
 114 0086 FFF7FEFF 		bl	real_distance_m_calc
 115              	.LVL13:
  54:Src/interrupt.c **** 				target_speed_m_calc();		//mç¾åœ¨è·é›¢ã¨ç›®æ¨™è·é›¢ã«å¿œã˜ã¦åŠ é€Ÿåº¦ã‚’åˆ‡ã‚Šæ›¿ãˆ
 116              		.loc 1 54 5 view .LVU20
 117 008a FFF7FEFF 		bl	real_distance_w_calc
 118              	.LVL14:
  55:Src/interrupt.c **** 				target_speed_w_calc();		//mç¾åœ¨è§’åº¦ã¨ç›®æ¨™è§’åº¦ã«å¿œã˜ã¦è§’åŠ é€Ÿåº¦ã‚’åˆ‡ã‚Šæ›¿ãˆ
 119              		.loc 1 55 5 view .LVU21
 120 008e FFF7FEFF 		bl	target_speed_m_calc
 121              	.LVL15:
  56:Src/interrupt.c **** 				target_speed_inc();			//måŠ é€Ÿåº¦ã€è§’åŠ é€Ÿåº¦ã‚’ç›®æ¨™é€Ÿåº¦ã«åŠ ç®—
 122              		.loc 1 56 5 view .LVU22
 123 0092 FFF7FEFF 		bl	target_speed_w_calc
 124              	.LVL16:
  57:Src/interrupt.c **** 				Operation_amount_calc();	//mç›®æ¨™é€Ÿåº¦ã¨ç¾åœ¨é€Ÿåº¦ã®åå·®ã«å¿œã˜ã¦å„ãƒ¢ãƒ¼ã‚¿ã®é›»å
 125              		.loc 1 57 5 view .LVU23
 126 0096 FFF7FEFF 		bl	target_speed_inc
 127              	.LVL17:
  58:Src/interrupt.c **** 				break;
 128              		.loc 1 58 5 view .LVU24
 129 009a FFF7FEFF 		bl	Operation_amount_calc
 130              	.LVL18:
  59:Src/interrupt.c **** 
 131              		.loc 1 59 5 view .LVU25
 132 009e B8E7     		b	.L1
 133              	.L9:
  62:Src/interrupt.c **** 				real_distance_m_calc();		//mç¾åœ¨é€Ÿåº¦ã‚’ç©åˆ†ã—ã¦è·é›¢ç®—å‡º
 134              		.loc 1 62 5 view .LVU26
 135 00a0 FFF7FEFF 		bl	data_get
 136              	.LVL19:
  63:Src/interrupt.c **** 				real_distance_w_calc();		//mç¾åœ¨è§’é€Ÿåº¦ã‚’ç©åˆ†ã—ã¦è§’åº¦ç®—å‡º
 137              		.loc 1 63 5 view .LVU27
 138 00a4 FFF7FEFF 		bl	real_distance_m_calc
 139              	.LVL20:
  64:Src/interrupt.c **** 				target_speed_m_calc();		//mç¾åœ¨è·é›¢ã¨ç›®æ¨™è·é›¢ã«å¿œã˜ã¦åŠ é€Ÿåº¦ã‚’åˆ‡ã‚Šæ›¿ãˆ
 140              		.loc 1 64 5 view .LVU28
 141 00a8 FFF7FEFF 		bl	real_distance_w_calc
 142              	.LVL21:
  65:Src/interrupt.c **** 				target_speed_w_calc();		//mç¾åœ¨è§’åº¦ã¨ç›®æ¨™è§’åº¦ã«å¿œã˜ã¦è§’åŠ é€Ÿåº¦ã‚’åˆ‡ã‚Šæ›¿ãˆ
 143              		.loc 1 65 5 view .LVU29
 144 00ac FFF7FEFF 		bl	target_speed_m_calc
 145              	.LVL22:
  66:Src/interrupt.c **** 				target_speed_inc();			//måŠ é€Ÿåº¦ã€è§’åŠ é€Ÿåº¦ã‚’ç›®æ¨™é€Ÿåº¦ã«åŠ ç®—
 146              		.loc 1 66 5 view .LVU30
 147 00b0 FFF7FEFF 		bl	target_speed_w_calc
 148              	.LVL23:
  67:Src/interrupt.c **** 				Operation_amount_calc();	//mç›®æ¨™é€Ÿåº¦ã¨ç¾åœ¨é€Ÿåº¦ã®åå·®ã«å¿œã˜ã¦å„ãƒ¢ãƒ¼ã‚¿ã®é›»å
ARM GAS  C:\Temp\cc58uOGp.s 			page 6


 149              		.loc 1 67 5 view .LVU31
 150 00b4 FFF7FEFF 		bl	target_speed_inc
 151              	.LVL24:
  68:Src/interrupt.c **** 				break;
 152              		.loc 1 68 5 view .LVU32
 153 00b8 FFF7FEFF 		bl	Operation_amount_calc
 154              	.LVL25:
  69:Src/interrupt.c **** 
 155              		.loc 1 69 5 view .LVU33
 156 00bc A9E7     		b	.L1
 157              	.L8:
  72:Src/interrupt.c **** 				break;
 158              		.loc 1 72 5 view .LVU34
 159 00be FFF7FEFF 		bl	data_get
 160              	.LVL26:
  73:Src/interrupt.c **** 
 161              		.loc 1 73 5 view .LVU35
 162 00c2 A6E7     		b	.L1
 163              	.L7:
  76:Src/interrupt.c **** 				break;
 164              		.loc 1 76 5 view .LVU36
 165 00c4 FFF7FEFF 		bl	data_get
 166              	.LVL27:
  77:Src/interrupt.c **** 
 167              		.loc 1 77 5 view .LVU37
 168 00c8 A3E7     		b	.L1
 169              	.L6:
  80:Src/interrupt.c **** 				real_distance_m_calc();		//mç¾åœ¨é€Ÿåº¦ã‚’ç©åˆ†ã—ã¦è·é›¢ç®—å‡º
 170              		.loc 1 80 5 view .LVU38
 171 00ca FFF7FEFF 		bl	data_get
 172              	.LVL28:
  81:Src/interrupt.c **** 				real_distance_w_calc();		//mç¾åœ¨è§’é€Ÿåº¦ã‚’ç©åˆ†ã—ã¦è§’åº¦ç®—å‡º
 173              		.loc 1 81 5 view .LVU39
 174 00ce FFF7FEFF 		bl	real_distance_m_calc
 175              	.LVL29:
  82:Src/interrupt.c **** 				target_speed_m_calc();		//mç¾åœ¨è·é›¢ã¨ç›®æ¨™è·é›¢ã«å¿œã˜ã¦åŠ é€Ÿåº¦ã‚’åˆ‡ã‚Šæ›¿ãˆ
 176              		.loc 1 82 5 view .LVU40
 177 00d2 FFF7FEFF 		bl	real_distance_w_calc
 178              	.LVL30:
  83:Src/interrupt.c **** 				target_speed_w_calc();		//mç¾åœ¨è§’åº¦ã¨ç›®æ¨™è§’åº¦ã«å¿œã˜ã¦è§’åŠ é€Ÿåº¦ã‚’åˆ‡ã‚Šæ›¿ãˆ
 179              		.loc 1 83 5 view .LVU41
 180 00d6 FFF7FEFF 		bl	target_speed_m_calc
 181              	.LVL31:
  84:Src/interrupt.c **** 				target_speed_inc();			//måŠ é€Ÿåº¦ã€è§’åŠ é€Ÿåº¦ã‚’ç›®æ¨™é€Ÿåº¦ã«åŠ ç®—
 182              		.loc 1 84 5 view .LVU42
 183 00da FFF7FEFF 		bl	target_speed_w_calc
 184              	.LVL32:
  85:Src/interrupt.c **** 				Operation_amount_calc();	//mç›®æ¨™é€Ÿåº¦ã¨ç¾åœ¨é€Ÿåº¦ã®åå·®ã«å¿œã˜ã¦å„ãƒ¢ãƒ¼ã‚¿ã®é›»å
 185              		.loc 1 85 5 view .LVU43
 186 00de FFF7FEFF 		bl	target_speed_inc
 187              	.LVL33:
  86:Src/interrupt.c **** 				break;
 188              		.loc 1 86 5 view .LVU44
 189 00e2 FFF7FEFF 		bl	Operation_amount_calc
 190              	.LVL34:
  87:Src/interrupt.c **** 
 191              		.loc 1 87 5 view .LVU45
ARM GAS  C:\Temp\cc58uOGp.s 			page 7


 192 00e6 94E7     		b	.L1
 193              	.L5:
  90:Src/interrupt.c **** 				calibrate_tim(); //må‰å£è£œæ­£ç”¨ã‚«ã‚¦ãƒ³ã‚¿
 194              		.loc 1 90 5 view .LVU46
 195 00e8 FFF7FEFF 		bl	data_get
 196              	.LVL35:
  91:Src/interrupt.c **** 				real_distance_m_calc();		//mç¾åœ¨é€Ÿåº¦ã‚’ç©åˆ†ã—ã¦è·é›¢ç®—å‡º
 197              		.loc 1 91 5 view .LVU47
 198 00ec FFF7FEFF 		bl	calibrate_tim
 199              	.LVL36:
  92:Src/interrupt.c **** 				real_distance_w_calc();		//mç¾åœ¨è§’é€Ÿåº¦ã‚’ç©åˆ†ã—ã¦è§’åº¦ç®—å‡º
 200              		.loc 1 92 5 view .LVU48
 201 00f0 FFF7FEFF 		bl	real_distance_m_calc
 202              	.LVL37:
  93:Src/interrupt.c **** 				target_speed_m_calc();		//mç¾åœ¨è·é›¢ã¨ç›®æ¨™è·é›¢ã«å¿œã˜ã¦åŠ é€Ÿåº¦ã‚’åˆ‡ã‚Šæ›¿ãˆ
 203              		.loc 1 93 5 view .LVU49
 204 00f4 FFF7FEFF 		bl	real_distance_w_calc
 205              	.LVL38:
  94:Src/interrupt.c **** 				target_speed_w_calc();		//mç¾åœ¨è§’åº¦ã¨ç›®æ¨™è§’åº¦ã«å¿œã˜ã¦è§’åŠ é€Ÿåº¦ã‚’åˆ‡ã‚Šæ›¿ãˆ
 206              		.loc 1 94 5 view .LVU50
 207 00f8 FFF7FEFF 		bl	target_speed_m_calc
 208              	.LVL39:
  95:Src/interrupt.c **** 				target_speed_inc();			//måŠ é€Ÿåº¦ã€è§’åŠ é€Ÿåº¦ã‚’ç›®æ¨™é€Ÿåº¦ã«åŠ ç®—
 209              		.loc 1 95 5 view .LVU51
 210 00fc FFF7FEFF 		bl	target_speed_w_calc
 211              	.LVL40:
  96:Src/interrupt.c **** 				Operation_amount_calc();
 212              		.loc 1 96 5 view .LVU52
 213 0100 FFF7FEFF 		bl	target_speed_inc
 214              	.LVL41:
  97:Src/interrupt.c **** 				break;
 215              		.loc 1 97 5 view .LVU53
 216 0104 FFF7FEFF 		bl	Operation_amount_calc
 217              	.LVL42:
  98:Src/interrupt.c **** 
 218              		.loc 1 98 5 view .LVU54
 219 0108 83E7     		b	.L1
 220              	.L3:
 101:Src/interrupt.c **** 				calibrate_tim(); 			//må‰å£è£œæ­£ç”¨ã‚«ã‚¦ãƒ³ã‚¿
 221              		.loc 1 101 5 view .LVU55
 222 010a FFF7FEFF 		bl	data_get
 223              	.LVL43:
 102:Src/interrupt.c **** 				real_distance_m_calc();		//mç¾åœ¨é€Ÿåº¦ã‚’ç©åˆ†ã—ã¦è·é›¢ç®—å‡º
 224              		.loc 1 102 5 view .LVU56
 225 010e FFF7FEFF 		bl	calibrate_tim
 226              	.LVL44:
 103:Src/interrupt.c **** 				real_distance_w_calc();		//mç¾åœ¨è§’é€Ÿåº¦ã‚’ç©åˆ†ã—ã¦è§’åº¦ç®—å‡º
 227              		.loc 1 103 5 view .LVU57
 228 0112 FFF7FEFF 		bl	real_distance_m_calc
 229              	.LVL45:
 104:Src/interrupt.c **** 				target_speed_m_calc();		//mç¾åœ¨è·é›¢ã¨ç›®æ¨™è·é›¢ã«å¿œã˜ã¦åŠ é€Ÿåº¦ã‚’åˆ‡ã‚Šæ›¿ãˆ
 230              		.loc 1 104 5 view .LVU58
 231 0116 FFF7FEFF 		bl	real_distance_w_calc
 232              	.LVL46:
 105:Src/interrupt.c **** 				target_speed_w_calc();		//mç¾åœ¨è§’åº¦ã¨ç›®æ¨™è§’åº¦ã«å¿œã˜ã¦è§’åŠ é€Ÿåº¦ã‚’åˆ‡ã‚Šæ›¿ãˆ
 233              		.loc 1 105 5 view .LVU59
 234 011a FFF7FEFF 		bl	target_speed_m_calc
ARM GAS  C:\Temp\cc58uOGp.s 			page 8


 235              	.LVL47:
 106:Src/interrupt.c **** 				target_speed_inc();			//måŠ é€Ÿåº¦ã€è§’åŠ é€Ÿåº¦ã‚’ç›®æ¨™é€Ÿåº¦ã«åŠ ç®—
 236              		.loc 1 106 5 view .LVU60
 237 011e FFF7FEFF 		bl	target_speed_w_calc
 238              	.LVL48:
 107:Src/interrupt.c **** 				Operation_amount_calc();	//mç›®æ¨™é€Ÿåº¦ã¨ç¾åœ¨é€Ÿåº¦ã®åå·®ã«å¿œã˜ã¦å„ãƒ¢ãƒ¼ã‚¿ã®é›»å
 239              		.loc 1 107 5 view .LVU61
 240 0122 FFF7FEFF 		bl	target_speed_inc
 241              	.LVL49:
 108:Src/interrupt.c **** 				break;
 242              		.loc 1 108 5 view .LVU62
 243 0126 FFF7FEFF 		bl	Operation_amount_calc
 244              	.LVL50:
 109:Src/interrupt.c **** 
 245              		.loc 1 109 5 view .LVU63
 246              		.loc 1 113 1 is_stmt 0 view .LVU64
 247 012a 72E7     		b	.L1
 248              		.cfi_endproc
 249              	.LFE133:
 251              		.section	.text.Interrupt_Initialize,"ax",%progbits
 252              		.align	1
 253              		.global	Interrupt_Initialize
 254              		.syntax unified
 255              		.thumb
 256              		.thumb_func
 257              		.fpu fpv4-sp-d16
 259              	Interrupt_Initialize:
 260              	.LFB134:
 114:Src/interrupt.c **** 
 115:Src/interrupt.c **** /* ---------------------------------------------------------------
 116:Src/interrupt.c **** 	ãƒ¡ã‚¤ãƒ³å‰²ã‚Šè¾¼ã¿ã®åˆæœŸè¨­å®šé–¢æ•°
 117:Src/interrupt.c **** --------------------------------------------------------------- */
 118:Src/interrupt.c **** void Interrupt_Initialize( void )
 119:Src/interrupt.c **** {
 261              		.loc 1 119 1 is_stmt 1 view -0
 262              		.cfi_startproc
 263              		@ args = 0, pretend = 0, frame = 0
 264              		@ frame_needed = 0, uses_anonymous_args = 0
 265 0000 08B5     		push	{r3, lr}
 266              	.LCFI1:
 267              		.cfi_def_cfa_offset 8
 268              		.cfi_offset 3, -8
 269              		.cfi_offset 14, -4
 120:Src/interrupt.c **** 	HAL_TIM_Base_Start_IT( &htim6 );
 270              		.loc 1 120 2 view .LVU66
 271 0002 0248     		ldr	r0, .L16
 272 0004 FFF7FEFF 		bl	HAL_TIM_Base_Start_IT
 273              	.LVL51:
 121:Src/interrupt.c **** }
 274              		.loc 1 121 1 is_stmt 0 view .LVU67
 275 0008 08BD     		pop	{r3, pc}
 276              	.L17:
 277 000a 00BF     		.align	2
 278              	.L16:
 279 000c 00000000 		.word	htim6
 280              		.cfi_endproc
 281              	.LFE134:
ARM GAS  C:\Temp\cc58uOGp.s 			page 9


 283              		.global	__aeabi_ul2f
 284              		.section	.text.Interrupt_PreProcess,"ax",%progbits
 285              		.align	1
 286              		.global	Interrupt_PreProcess
 287              		.syntax unified
 288              		.thumb
 289              		.thumb_func
 290              		.fpu fpv4-sp-d16
 292              	Interrupt_PreProcess:
 293              	.LFB135:
 122:Src/interrupt.c **** 
 123:Src/interrupt.c **** /* ---------------------------------------------------------------
 124:Src/interrupt.c **** 	å‰²ã‚Šè¾¼ã¿å‰å‡¦ç†é–¢æ•°
 125:Src/interrupt.c **** --------------------------------------------------------------- */
 126:Src/interrupt.c **** void Interrupt_PreProcess( void )
 127:Src/interrupt.c **** {
 294              		.loc 1 127 1 is_stmt 1 view -0
 295              		.cfi_startproc
 296              		@ args = 0, pretend = 0, frame = 0
 297              		@ frame_needed = 0, uses_anonymous_args = 0
 298 0000 08B5     		push	{r3, lr}
 299              	.LCFI2:
 300              		.cfi_def_cfa_offset 8
 301              		.cfi_offset 3, -8
 302              		.cfi_offset 14, -4
 128:Src/interrupt.c **** //	static uint32_t		interrupt_count_old = 0;
 129:Src/interrupt.c **** //	static uint16_t		interrupt_count_old = 0;
 130:Src/interrupt.c **** 
 131:Src/interrupt.c **** 	static uint64_t		boot_time_count = 0;
 303              		.loc 1 131 2 view .LVU69
 132:Src/interrupt.c **** 
 133:Src/interrupt.c **** 	interrupt_count_now = TIMER_COUNT;
 304              		.loc 1 133 2 view .LVU70
 305              		.loc 1 133 24 is_stmt 0 view .LVU71
 306 0002 0C4B     		ldr	r3, .L20
 307 0004 1B68     		ldr	r3, [r3]
 308 0006 5A6A     		ldr	r2, [r3, #36]
 309              		.loc 1 133 22 view .LVU72
 310 0008 0B4B     		ldr	r3, .L20+4
 311 000a 1A60     		str	r2, [r3]
 134:Src/interrupt.c **** //	boot_time_count += (uint16_t)(interrupt_count_now - interrupt_count_old);
 135:Src/interrupt.c **** //	interrupt_count_old = interrupt_count_now;
 136:Src/interrupt.c **** //	boot_time = (float)boot_time_count / (float)(HAL_RCC_GetPCLK1Freq() *2 / ( TIMER_PSC + 1) );
 137:Src/interrupt.c **** 
 138:Src/interrupt.c **** 	boot_time_count += 1;
 312              		.loc 1 138 2 is_stmt 1 view .LVU73
 313              		.loc 1 138 18 is_stmt 0 view .LVU74
 314 000c 0B4B     		ldr	r3, .L20+8
 315 000e 1868     		ldr	r0, [r3]
 316 0010 5968     		ldr	r1, [r3, #4]
 317 0012 0130     		adds	r0, r0, #1
 318 0014 41F10001 		adc	r1, r1, #0
 319 0018 1860     		str	r0, [r3]
 320 001a 5960     		str	r1, [r3, #4]
 139:Src/interrupt.c **** 	boot_time = ((float)boot_time_count /(float)1000);
 321              		.loc 1 139 2 is_stmt 1 view .LVU75
 322              		.loc 1 139 15 is_stmt 0 view .LVU76
ARM GAS  C:\Temp\cc58uOGp.s 			page 10


 323 001c FFF7FEFF 		bl	__aeabi_ul2f
 324              	.LVL52:
 325 0020 06EE900A 		vmov	s13, r0
 326              		.loc 1 139 38 view .LVU77
 327 0024 9FED067A 		vldr.32	s14, .L20+12
 328 0028 C6EE877A 		vdiv.f32	s15, s13, s14
 329              		.loc 1 139 12 view .LVU78
 330 002c 054B     		ldr	r3, .L20+16
 331 002e C3ED007A 		vstr.32	s15, [r3]
 140:Src/interrupt.c **** }
 332              		.loc 1 140 1 view .LVU79
 333 0032 08BD     		pop	{r3, pc}
 334              	.L21:
 335              		.align	2
 336              	.L20:
 337 0034 00000000 		.word	htim6
 338 0038 00000000 		.word	.LANCHOR0
 339 003c 00000000 		.word	.LANCHOR1
 340 0040 00007A44 		.word	1148846080
 341 0044 00000000 		.word	.LANCHOR2
 342              		.cfi_endproc
 343              	.LFE135:
 345              		.section	.text.Interrupt_PostProcess,"ax",%progbits
 346              		.align	1
 347              		.global	Interrupt_PostProcess
 348              		.syntax unified
 349              		.thumb
 350              		.thumb_func
 351              		.fpu fpv4-sp-d16
 353              	Interrupt_PostProcess:
 354              	.LFB136:
 141:Src/interrupt.c **** 
 142:Src/interrupt.c **** /* ---------------------------------------------------------------
 143:Src/interrupt.c **** 	å‰²ã‚Šè¾¼ã¿å¾Œå‡¦ç†é–¢æ•°
 144:Src/interrupt.c **** --------------------------------------------------------------- */
 145:Src/interrupt.c **** void Interrupt_PostProcess( void )
 146:Src/interrupt.c **** {
 355              		.loc 1 146 1 is_stmt 1 view -0
 356              		.cfi_startproc
 357              		@ args = 0, pretend = 0, frame = 0
 358              		@ frame_needed = 0, uses_anonymous_args = 0
 359              		@ link register save eliminated.
 147:Src/interrupt.c **** 	interrupt_duty = (TIMER_COUNT - interrupt_count_now) * 1000 / TIMER_LOAD;
 360              		.loc 1 147 2 view .LVU81
 361              		.loc 1 147 20 is_stmt 0 view .LVU82
 362 0000 0A4B     		ldr	r3, .L23
 363 0002 1968     		ldr	r1, [r3]
 364 0004 4B6A     		ldr	r3, [r1, #36]
 365              		.loc 1 147 32 view .LVU83
 366 0006 0A4A     		ldr	r2, .L23+4
 367 0008 1268     		ldr	r2, [r2]
 368 000a 9A1A     		subs	r2, r3, r2
 369              		.loc 1 147 55 view .LVU84
 370 000c 4FF47A73 		mov	r3, #1000
 371 0010 03FB02F3 		mul	r3, r3, r2
 372              		.loc 1 147 64 view .LVU85
 373 0014 CA6A     		ldr	r2, [r1, #44]
ARM GAS  C:\Temp\cc58uOGp.s 			page 11


 374              		.loc 1 147 62 view .LVU86
 375 0016 B3FBF2F3 		udiv	r3, r3, r2
 376              		.loc 1 147 17 view .LVU87
 377 001a 064A     		ldr	r2, .L23+8
 378 001c 1360     		str	r3, [r2]
 148:Src/interrupt.c **** 	interrupt_duty_max = MAX( interrupt_duty_max, interrupt_duty );
 379              		.loc 1 148 2 is_stmt 1 view .LVU88
 380              		.loc 1 148 23 is_stmt 0 view .LVU89
 381 001e 064A     		ldr	r2, .L23+12
 382 0020 1168     		ldr	r1, [r2]
 383 0022 8B42     		cmp	r3, r1
 384 0024 38BF     		it	cc
 385 0026 0B46     		movcc	r3, r1
 386              		.loc 1 148 21 view .LVU90
 387 0028 1360     		str	r3, [r2]
 149:Src/interrupt.c **** }
 388              		.loc 1 149 1 view .LVU91
 389 002a 7047     		bx	lr
 390              	.L24:
 391              		.align	2
 392              	.L23:
 393 002c 00000000 		.word	htim6
 394 0030 00000000 		.word	.LANCHOR0
 395 0034 00000000 		.word	.LANCHOR3
 396 0038 00000000 		.word	.LANCHOR4
 397              		.cfi_endproc
 398              	.LFE136:
 400              		.section	.text.Interrupt_GetDuty,"ax",%progbits
 401              		.align	1
 402              		.global	Interrupt_GetDuty
 403              		.syntax unified
 404              		.thumb
 405              		.thumb_func
 406              		.fpu fpv4-sp-d16
 408              	Interrupt_GetDuty:
 409              	.LFB137:
 150:Src/interrupt.c **** 
 151:Src/interrupt.c **** /* ---------------------------------------------------------------
 152:Src/interrupt.c **** 	å‰²ã‚Šè¾¼ã¿å‘¨æœŸã«å ã‚ã‚‹å‘¼ã³å‡ºã—ä½ç½®ã¾ã§ã®å‡¦ç†æ™‚é–“ã®å‰²åˆã‚’å–å¾—ã™ã‚‹é–¢æ•
 153:Src/interrupt.c **** --------------------------------------------------------------- */
 154:Src/interrupt.c **** uint16_t Interrupt_GetDuty( void )
 155:Src/interrupt.c **** {
 410              		.loc 1 155 1 is_stmt 1 view -0
 411              		.cfi_startproc
 412              		@ args = 0, pretend = 0, frame = 0
 413              		@ frame_needed = 0, uses_anonymous_args = 0
 414              		@ link register save eliminated.
 156:Src/interrupt.c **** 	return interrupt_duty;
 415              		.loc 1 156 2 view .LVU93
 157:Src/interrupt.c **** }
 416              		.loc 1 157 1 is_stmt 0 view .LVU94
 417 0000 014B     		ldr	r3, .L26
 418 0002 1888     		ldrh	r0, [r3]
 419 0004 7047     		bx	lr
 420              	.L27:
 421 0006 00BF     		.align	2
 422              	.L26:
ARM GAS  C:\Temp\cc58uOGp.s 			page 12


 423 0008 00000000 		.word	.LANCHOR3
 424              		.cfi_endproc
 425              	.LFE137:
 427              		.section	.text.Interrupt_GetDuty_Max,"ax",%progbits
 428              		.align	1
 429              		.global	Interrupt_GetDuty_Max
 430              		.syntax unified
 431              		.thumb
 432              		.thumb_func
 433              		.fpu fpv4-sp-d16
 435              	Interrupt_GetDuty_Max:
 436              	.LFB138:
 158:Src/interrupt.c **** 
 159:Src/interrupt.c **** /* ---------------------------------------------------------------
 160:Src/interrupt.c **** 	ä¸Šè¨˜å‰²åˆã®æœ€å¤§å€¤ã‚’å–å¾—ã™ã‚‹é–¢æ•°
 161:Src/interrupt.c **** --------------------------------------------------------------- */
 162:Src/interrupt.c **** uint16_t Interrupt_GetDuty_Max( void )
 163:Src/interrupt.c **** {
 437              		.loc 1 163 1 is_stmt 1 view -0
 438              		.cfi_startproc
 439              		@ args = 0, pretend = 0, frame = 0
 440              		@ frame_needed = 0, uses_anonymous_args = 0
 441              		@ link register save eliminated.
 164:Src/interrupt.c **** 	return interrupt_duty_max;
 442              		.loc 1 164 2 view .LVU96
 165:Src/interrupt.c **** }
 443              		.loc 1 165 1 is_stmt 0 view .LVU97
 444 0000 014B     		ldr	r3, .L29
 445 0002 1888     		ldrh	r0, [r3]
 446 0004 7047     		bx	lr
 447              	.L30:
 448 0006 00BF     		.align	2
 449              	.L29:
 450 0008 00000000 		.word	.LANCHOR4
 451              		.cfi_endproc
 452              	.LFE138:
 454              		.section	.text.Interrupt_GetBootTime,"ax",%progbits
 455              		.align	1
 456              		.global	Interrupt_GetBootTime
 457              		.syntax unified
 458              		.thumb
 459              		.thumb_func
 460              		.fpu fpv4-sp-d16
 462              	Interrupt_GetBootTime:
 463              	.LFB139:
 166:Src/interrupt.c **** 
 167:Src/interrupt.c **** /* ---------------------------------------------------------------
 168:Src/interrupt.c **** 	ãƒã‚¤ã‚³ãƒ³èµ·å‹•æ™‚ã‹ã‚‰ã®çµŒéæ™‚é–“ã‚’å–å¾—ã™ã‚‹é–¢æ•°
 169:Src/interrupt.c **** --------------------------------------------------------------- */
 170:Src/interrupt.c **** float Interrupt_GetBootTime( void )
 171:Src/interrupt.c **** {
 464              		.loc 1 171 1 is_stmt 1 view -0
 465              		.cfi_startproc
 466              		@ args = 0, pretend = 0, frame = 0
 467              		@ frame_needed = 0, uses_anonymous_args = 0
 468              		@ link register save eliminated.
 172:Src/interrupt.c **** 	return boot_time;
ARM GAS  C:\Temp\cc58uOGp.s 			page 13


 469              		.loc 1 172 2 view .LVU99
 173:Src/interrupt.c **** }
 470              		.loc 1 173 1 is_stmt 0 view .LVU100
 471 0000 014B     		ldr	r3, .L32
 472 0002 93ED000A 		vldr.32	s0, [r3]
 473 0006 7047     		bx	lr
 474              	.L33:
 475              		.align	2
 476              	.L32:
 477 0008 00000000 		.word	.LANCHOR2
 478              		.cfi_endproc
 479              	.LFE139:
 481              		.section	.bss.boot_time,"aw",%nobits
 482              		.align	2
 483              		.set	.LANCHOR2,. + 0
 486              	boot_time:
 487 0000 00000000 		.space	4
 488              		.section	.bss.boot_time_count.10219,"aw",%nobits
 489              		.align	3
 490              		.set	.LANCHOR1,. + 0
 493              	boot_time_count.10219:
 494 0000 00000000 		.space	8
 494      00000000 
 495              		.section	.bss.interrupt_count_now,"aw",%nobits
 496              		.align	2
 497              		.set	.LANCHOR0,. + 0
 500              	interrupt_count_now:
 501 0000 00000000 		.space	4
 502              		.section	.bss.interrupt_duty,"aw",%nobits
 503              		.align	2
 504              		.set	.LANCHOR3,. + 0
 507              	interrupt_duty:
 508 0000 00000000 		.space	4
 509              		.section	.bss.interrupt_duty_max,"aw",%nobits
 510              		.align	2
 511              		.set	.LANCHOR4,. + 0
 514              	interrupt_duty_max:
 515 0000 00000000 		.space	4
 516              		.text
 517              	.Letext0:
 518              		.file 2 "c:\\tools\\gcc-arm-none-eabi-9-2019-q4-major\\arm-none-eabi\\include\\machine\\_default_t
 519              		.file 3 "c:\\tools\\gcc-arm-none-eabi-9-2019-q4-major\\arm-none-eabi\\include\\sys\\lock.h"
 520              		.file 4 "c:\\tools\\gcc-arm-none-eabi-9-2019-q4-major\\arm-none-eabi\\include\\sys\\_types.h"
 521              		.file 5 "c:\\tools\\gcc-arm-none-eabi-9-2019-q4-major\\lib\\gcc\\arm-none-eabi\\9.2.1\\include\\st
 522              		.file 6 "c:\\tools\\gcc-arm-none-eabi-9-2019-q4-major\\arm-none-eabi\\include\\sys\\reent.h"
 523              		.file 7 "c:\\tools\\gcc-arm-none-eabi-9-2019-q4-major\\arm-none-eabi\\include\\sys\\_stdint.h"
 524              		.file 8 "c:\\tools\\gcc-arm-none-eabi-9-2019-q4-major\\arm-none-eabi\\include\\math.h"
 525              		.file 9 "Drivers/CMSIS/Include/core_cm4.h"
 526              		.file 10 "Drivers/CMSIS/Device/ST/STM32F4xx/Include/system_stm32f4xx.h"
 527              		.file 11 "Drivers/CMSIS/Device/ST/STM32F4xx/Include/stm32f413xx.h"
 528              		.file 12 "Drivers/CMSIS/Device/ST/STM32F4xx/Include/stm32f4xx.h"
 529              		.file 13 "Drivers/STM32F4xx_HAL_Driver/Inc/stm32f4xx_hal_def.h"
 530              		.file 14 "Drivers/STM32F4xx_HAL_Driver/Inc/stm32f4xx_hal_dma.h"
 531              		.file 15 "Drivers/STM32F4xx_HAL_Driver/Inc/stm32f4xx_hal_adc.h"
 532              		.file 16 "Drivers/STM32F4xx_HAL_Driver/Inc/stm32f4xx_hal_spi.h"
 533              		.file 17 "Drivers/STM32F4xx_HAL_Driver/Inc/stm32f4xx_hal_tim.h"
 534              		.file 18 "Drivers/STM32F4xx_HAL_Driver/Inc/stm32f4xx_hal_uart.h"
ARM GAS  C:\Temp\cc58uOGp.s 			page 14


 535              		.file 19 "Inc/adc.h"
 536              		.file 20 "Inc/spi.h"
 537              		.file 21 "Inc/tim.h"
 538              		.file 22 "Inc/usart.h"
 539              		.file 23 "Inc/index.h"
 540              		.file 24 "Inc/mode.h"
 541              		.file 25 "Inc/mouse_state.h"
ARM GAS  C:\Temp\cc58uOGp.s 			page 15

