ARM GAS  C:\Temp\ccwn0vz7.s 			page 1


   1              		.cpu cortex-m4
   2              		.eabi_attribute 27, 1
   3              		.eabi_attribute 28, 1
   4              		.eabi_attribute 20, 1
   5              		.eabi_attribute 21, 1
   6              		.eabi_attribute 23, 3
   7              		.eabi_attribute 24, 1
   8              		.eabi_attribute 25, 1
   9              		.eabi_attribute 26, 1
  10              		.eabi_attribute 30, 1
  11              		.eabi_attribute 34, 1
  12              		.eabi_attribute 18, 4
  13              		.file	"lookuptable.c"
  14              		.text
  15              	.Ltext0:
  16              		.cfi_sections	.debug_frame
  17              		.section	.text.get_frontrightwall_dis_table,"ax",%progbits
  18              		.align	1
  19              		.global	get_frontrightwall_dis_table
  20              		.arch armv7e-m
  21              		.syntax unified
  22              		.thumb
  23              		.thumb_func
  24              		.fpu fpv4-sp-d16
  26              	get_frontrightwall_dis_table:
  27              	.LVL0:
  28              	.LFB3:
  29              		.file 1 "Src/lookuptable.c"
   1:Src/lookuptable.c **** #include <stdio.h>
   2:Src/lookuptable.c **** #include "lookuptable.h"
   3:Src/lookuptable.c **** 
   4:Src/lookuptable.c **** float table_sidewall[table_num_sidewall] = {
   5:Src/lookuptable.c ****     0,
   6:Src/lookuptable.c ****     0.0249860385419959,
   7:Src/lookuptable.c ****     0.0353832462503951,
   8:Src/lookuptable.c ****     0.0414652228720175,
   9:Src/lookuptable.c ****     0.0457804539587943,
  10:Src/lookuptable.c ****     0.0491276072285074,
  11:Src/lookuptable.c ****     0.0518624305804167,
  12:Src/lookuptable.c ****     0.0541746907778256,
  13:Src/lookuptable.c ****     0.0561776616671934,
  14:Src/lookuptable.c ****     0.0579444072020392,
  15:Src/lookuptable.c ****     0.0595248149369066,
  16:Src/lookuptable.c ****     0.0609544676339715,
  17:Src/lookuptable.c ****     0.0622596382888159,
  18:Src/lookuptable.c ****     0.0634602789039189,
  19:Src/lookuptable.c ****     0.0645718984862248,
  20:Src/lookuptable.c ****     0.0656067915585291,
  21:Src/lookuptable.c ****     0.0665748693755926,
  22:Src/lookuptable.c ****     0.0674842387028391,
  23:Src/lookuptable.c ****     0.0683416149104384,
  24:Src/lookuptable.c ****     0.0691526232294925,
  25:Src/lookuptable.c ****     0.0699220226453058,
  26:Src/lookuptable.c ****     0.0706538751078472,
  27:Src/lookuptable.c ****     0.0713516753423706,
  28:Src/lookuptable.c ****     0.0720184517809331,
  29:Src/lookuptable.c ****     0.0726568459972151,
ARM GAS  C:\Temp\ccwn0vz7.s 			page 2


  30:Src/lookuptable.c ****     0.0732691759150189,
  31:Src/lookuptable.c ****     0.0738574866123181,
  32:Src/lookuptable.c ****     0.0744235915320608,
  33:Src/lookuptable.c ****     0.0749691061946239,
  34:Src/lookuptable.c ****     0.075495475991793,
  35:Src/lookuptable.c ****     0.0760039992669282,
  36:Src/lookuptable.c ****     0.0764958466092731,
  37:Src/lookuptable.c ****     0.0769720770839918,
  38:Src/lookuptable.c ****     0.0774336519639931,
  39:Src/lookuptable.c ****     0.0778814464112383,
  40:Src/lookuptable.c ****     0.0783162594643371,
  41:Src/lookuptable.c ****     0.0787388226188376,
  42:Src/lookuptable.c ****     0.0791498072316593,
  43:Src/lookuptable.c ****     0.0795498309378917,
  44:Src/lookuptable.c ****     0.0799394632339406,
  45:Src/lookuptable.c ****     0.0803192303537049,
  46:Src/lookuptable.c ****     0.0806896195425605,
  47:Src/lookuptable.c ****     0.0810510828162464,
  48:Src/lookuptable.c ****     0.0814040402773993,
  49:Src/lookuptable.c ****     0.0817488830507698,
  50:Src/lookuptable.c ****     0.0820859758885507,
  51:Src/lookuptable.c ****     0.0824156594893323,
  52:Src/lookuptable.c ****     0.0827382525676468,
  53:Src/lookuptable.c ****     0.0830540537056143,
  54:Src/lookuptable.c ****     0.0833633430136553,
  55:Src/lookuptable.c ****     0.0836663836234181,
  56:Src/lookuptable.c ****     0.0839634230328608,
  57:Src/lookuptable.c ****     0.0842546943207173,
  58:Src/lookuptable.c ****     0.0845404172452777,
  59:Src/lookuptable.c ****     0.08482079924046,
  60:Src/lookuptable.c ****     0.085096036320483,
  61:Src/lookuptable.c ****     0.0853663139030231,
  62:Src/lookuptable.c ****     0.0856318075595141,
  63:Src/lookuptable.c ****     0.0858926837001922,
  64:Src/lookuptable.c ****     0.0861491002005817,
  65:Src/lookuptable.c ****     0.0864012069753274,
  66:Src/lookuptable.c ****     0.0866491465045956,
  67:Src/lookuptable.c ****     0.0868930543176723,
  68:Src/lookuptable.c ****     0.0871330594378689
  69:Src/lookuptable.c **** };
  70:Src/lookuptable.c **** 
  71:Src/lookuptable.c **** float table_front_right_wall[table_num_frontwall] = {
  72:Src/lookuptable.c ****     0.09,
  73:Src/lookuptable.c ****     0.06023,
  74:Src/lookuptable.c ****     0.050611,
  75:Src/lookuptable.c ****     0.04318,
  76:Src/lookuptable.c ****     0.036382,
  77:Src/lookuptable.c ****     0.030802,
  78:Src/lookuptable.c ****     0.027069,
  79:Src/lookuptable.c ****     0.024288,
  80:Src/lookuptable.c ****     0.021629,
  81:Src/lookuptable.c ****     0.02021,
  82:Src/lookuptable.c ****     0.018828,
  83:Src/lookuptable.c ****     0.017416,
  84:Src/lookuptable.c ****     0.016468,
  85:Src/lookuptable.c ****     0.014989,
  86:Src/lookuptable.c ****     0.014015,
ARM GAS  C:\Temp\ccwn0vz7.s 			page 3


  87:Src/lookuptable.c ****     0.013527,
  88:Src/lookuptable.c ****     0.012541,
  89:Src/lookuptable.c ****     0.011573,
  90:Src/lookuptable.c ****     0.011085,
  91:Src/lookuptable.c ****     0.010596,
  92:Src/lookuptable.c ****     0.010094,
  93:Src/lookuptable.c ****     0.0096,
  94:Src/lookuptable.c ****     0.009114,
  95:Src/lookuptable.c ****     0.00863499999999999,
  96:Src/lookuptable.c ****     0.008129,
  97:Src/lookuptable.c ****     0.0079,
  98:Src/lookuptable.c ****     0.00762499999999999,
  99:Src/lookuptable.c ****     0.00713699999999999,
 100:Src/lookuptable.c ****     0.0068,
 101:Src/lookuptable.c ****     0.00663999999999999,
 102:Src/lookuptable.c ****     0.006161,
 103:Src/lookuptable.c ****     0.005674,
 104:Src/lookuptable.c **** };
 105:Src/lookuptable.c **** 
 106:Src/lookuptable.c **** float table_front_left_wall[table_num_frontwall] = {
 107:Src/lookuptable.c ****         0.09,
 108:Src/lookuptable.c ****     0.054043,
 109:Src/lookuptable.c ****     0.045573,
 110:Src/lookuptable.c ****     0.038322,
 111:Src/lookuptable.c ****     0.031608,
 112:Src/lookuptable.c ****     0.026939,
 113:Src/lookuptable.c ****     0.024025,
 114:Src/lookuptable.c ****     0.021606,
 115:Src/lookuptable.c ****     0.019535,
 116:Src/lookuptable.c ****     0.017441,
 117:Src/lookuptable.c ****     0.015916,
 118:Src/lookuptable.c ****     0.014976,
 119:Src/lookuptable.c ****     0.01361,
 120:Src/lookuptable.c ****     0.012644,
 121:Src/lookuptable.c ****     0.011652,
 122:Src/lookuptable.c ****     0.010634,
 123:Src/lookuptable.c ****     0.010111,
 124:Src/lookuptable.c ****     0.009085,
 125:Src/lookuptable.c ****     0.00856999999999999,
 126:Src/lookuptable.c ****     0.008059,
 127:Src/lookuptable.c ****     0.00755,
 128:Src/lookuptable.c ****     0.007033,
 129:Src/lookuptable.c ****     0.006524,
 130:Src/lookuptable.c ****     0.006025,
 131:Src/lookuptable.c ****     0.00551,
 132:Src/lookuptable.c ****     0.00498899999999999,
 133:Src/lookuptable.c ****     0.0047,
 134:Src/lookuptable.c ****     0.004469,
 135:Src/lookuptable.c ****     0.003938,
 136:Src/lookuptable.c ****     0.003402,
 137:Src/lookuptable.c ****     0.002862,
 138:Src/lookuptable.c ****     0.002313,
 139:Src/lookuptable.c **** };
 140:Src/lookuptable.c **** 
 141:Src/lookuptable.c **** //機能	: 前右壁センサ値をルックアップテーブルにより距離に変換する
 142:Src/lookuptable.c **** //引数	: 前右壁センサ値
 143:Src/lookuptable.c **** //返り値	: 距離
ARM GAS  C:\Temp\ccwn0vz7.s 			page 4


 144:Src/lookuptable.c **** float get_frontrightwall_dis_table ( int16_t sensor_value )
 145:Src/lookuptable.c **** {
  30              		.loc 1 145 1 view -0
  31              		.cfi_startproc
  32              		@ args = 0, pretend = 0, frame = 0
  33              		@ frame_needed = 0, uses_anonymous_args = 0
  34              		@ link register save eliminated.
 146:Src/lookuptable.c ****     int16_t table_int = 0;//テーブルの整数部
  35              		.loc 1 146 5 view .LVU1
 147:Src/lookuptable.c ****     int16_t table_deci = 0;//テーブルの少数部
  36              		.loc 1 147 5 view .LVU2
 148:Src/lookuptable.c ****     float table_tilt = 0;//テーブル間の傾き
  37              		.loc 1 148 5 view .LVU3
 149:Src/lookuptable.c ****     float wall_dis = 0; //距離変換結果
  38              		.loc 1 149 5 view .LVU4
 150:Src/lookuptable.c **** 
 151:Src/lookuptable.c ****     table_int = sensor_value / table_step_frontwall;
  39              		.loc 1 151 5 view .LVU5
  40              		.loc 1 151 15 is_stmt 0 view .LVU6
  41 0000 1C4A     		ldr	r2, .L5
  42 0002 82FB0032 		smull	r3, r2, r2, r0
  43 0006 C317     		asrs	r3, r0, #31
  44 0008 C3EB6213 		rsb	r3, r3, r2, asr #5
  45 000c 1BB2     		sxth	r3, r3
  46              	.LVL1:
 152:Src/lookuptable.c **** 
 153:Src/lookuptable.c ****     if( table_int < 0 ){
  47              		.loc 1 153 5 is_stmt 1 view .LVU7
  48              		.loc 1 153 7 is_stmt 0 view .LVU8
  49 000e 10F1630F 		cmn	r0, #99
  50 0012 03DA     		bge	.L2
 154:Src/lookuptable.c ****         wall_dis = table_front_right_wall[0];
  51              		.loc 1 154 9 is_stmt 1 view .LVU9
  52              		.loc 1 154 18 is_stmt 0 view .LVU10
  53 0014 184B     		ldr	r3, .L5+4
  54              	.LVL2:
  55              		.loc 1 154 18 view .LVU11
  56 0016 93ED000A 		vldr.32	s0, [r3]
  57              	.LVL3:
  58              		.loc 1 154 18 view .LVU12
  59 001a 7047     		bx	lr
  60              	.LVL4:
  61              	.L2:
 155:Src/lookuptable.c ****     }
 156:Src/lookuptable.c ****     else if (table_int >= table_num_frontwall -1 ){
  62              		.loc 1 156 10 is_stmt 1 view .LVU13
  63              		.loc 1 156 13 is_stmt 0 view .LVU14
  64 001c 40F61B42 		movw	r2, #3099
  65 0020 9042     		cmp	r0, r2
  66 0022 03DD     		ble	.L4
 157:Src/lookuptable.c ****         wall_dis = table_front_right_wall[table_num_frontwall -1 ];
  67              		.loc 1 157 9 is_stmt 1 view .LVU15
  68              		.loc 1 157 18 is_stmt 0 view .LVU16
  69 0024 144B     		ldr	r3, .L5+4
  70              	.LVL5:
  71              		.loc 1 157 18 view .LVU17
  72 0026 93ED1F0A 		vldr.32	s0, [r3, #124]
ARM GAS  C:\Temp\ccwn0vz7.s 			page 5


  73              	.LVL6:
  74              		.loc 1 157 18 view .LVU18
  75 002a 7047     		bx	lr
  76              	.LVL7:
  77              	.L4:
 158:Src/lookuptable.c ****     }
 159:Src/lookuptable.c ****     else
 160:Src/lookuptable.c ****     {
 161:Src/lookuptable.c ****         table_deci = sensor_value % table_step_frontwall;
  78              		.loc 1 161 9 is_stmt 1 view .LVU19
  79              		.loc 1 161 20 is_stmt 0 view .LVU20
  80 002c 1149     		ldr	r1, .L5
  81 002e 81FB0021 		smull	r2, r1, r1, r0
  82 0032 C217     		asrs	r2, r0, #31
  83 0034 C2EB6112 		rsb	r2, r2, r1, asr #5
  84 0038 6421     		movs	r1, #100
  85 003a 01FB1200 		mls	r0, r1, r2, r0
  86              	.LVL8:
  87              		.loc 1 161 20 view .LVU21
  88 003e 00B2     		sxth	r0, r0
  89              	.LVL9:
 162:Src/lookuptable.c ****         table_tilt = (table_front_right_wall[table_int+1]-table_front_right_wall[table_int])/table_
  90              		.loc 1 162 9 is_stmt 1 view .LVU22
  91              		.loc 1 162 55 is_stmt 0 view .LVU23
  92 0040 591C     		adds	r1, r3, #1
  93              		.loc 1 162 45 view .LVU24
  94 0042 0D4A     		ldr	r2, .L5+4
  95 0044 02EB8101 		add	r1, r2, r1, lsl #2
  96 0048 91ED007A 		vldr.32	s14, [r1]
  97              		.loc 1 162 81 view .LVU25
  98 004c 02EB8303 		add	r3, r2, r3, lsl #2
  99              	.LVL10:
 100              		.loc 1 162 81 view .LVU26
 101 0050 D3ED007A 		vldr.32	s15, [r3]
 102              		.loc 1 162 58 view .LVU27
 103 0054 37EE677A 		vsub.f32	s14, s14, s15
 104              		.loc 1 162 20 view .LVU28
 105 0058 9FED086A 		vldr.32	s12, .L5+8
 106 005c C7EE066A 		vdiv.f32	s13, s14, s12
 107              	.LVL11:
 163:Src/lookuptable.c ****         wall_dis = table_front_right_wall[table_int] + (float)table_deci * table_tilt;
 108              		.loc 1 163 9 is_stmt 1 view .LVU29
 109              		.loc 1 163 56 is_stmt 0 view .LVU30
 110 0060 07EE100A 		vmov	s14, r0	@ int
 111 0064 B8EEC70A 		vcvt.f32.s32	s0, s14
 112              		.loc 1 163 74 view .LVU31
 113 0068 20EE260A 		vmul.f32	s0, s0, s13
 114              		.loc 1 163 18 view .LVU32
 115 006c 37EE800A 		vadd.f32	s0, s15, s0
 116              	.LVL12:
 164:Src/lookuptable.c ****     }
 165:Src/lookuptable.c **** 
 166:Src/lookuptable.c ****     return wall_dis;
 117              		.loc 1 166 5 is_stmt 1 view .LVU33
 167:Src/lookuptable.c **** }
 118              		.loc 1 167 1 is_stmt 0 view .LVU34
 119 0070 7047     		bx	lr
ARM GAS  C:\Temp\ccwn0vz7.s 			page 6


 120              	.L6:
 121 0072 00BF     		.align	2
 122              	.L5:
 123 0074 1F85EB51 		.word	1374389535
 124 0078 00000000 		.word	.LANCHOR0
 125 007c 0000C842 		.word	1120403456
 126              		.cfi_endproc
 127              	.LFE3:
 129              		.section	.text.get_frontleftwall_dis_table,"ax",%progbits
 130              		.align	1
 131              		.global	get_frontleftwall_dis_table
 132              		.syntax unified
 133              		.thumb
 134              		.thumb_func
 135              		.fpu fpv4-sp-d16
 137              	get_frontleftwall_dis_table:
 138              	.LVL13:
 139              	.LFB4:
 168:Src/lookuptable.c **** 
 169:Src/lookuptable.c **** //機能	: 前左壁センサ値をルックアップテーブルにより距離に変換する
 170:Src/lookuptable.c **** //引数	: 前左壁センサ値
 171:Src/lookuptable.c **** //返り値	: 距離
 172:Src/lookuptable.c **** float get_frontleftwall_dis_table ( int16_t sensor_value )
 173:Src/lookuptable.c **** {
 140              		.loc 1 173 1 is_stmt 1 view -0
 141              		.cfi_startproc
 142              		@ args = 0, pretend = 0, frame = 0
 143              		@ frame_needed = 0, uses_anonymous_args = 0
 144              		@ link register save eliminated.
 174:Src/lookuptable.c ****     int16_t table_int = 0;//テーブルの整数部
 145              		.loc 1 174 5 view .LVU36
 175:Src/lookuptable.c ****     int16_t table_deci = 0;//テーブルの少数部
 146              		.loc 1 175 5 view .LVU37
 176:Src/lookuptable.c ****     float table_tilt = 0;//テーブル間の傾き
 147              		.loc 1 176 5 view .LVU38
 177:Src/lookuptable.c ****     float wall_dis = 0; //距離変換結果
 148              		.loc 1 177 5 view .LVU39
 178:Src/lookuptable.c **** 
 179:Src/lookuptable.c ****     table_int = sensor_value / table_step_frontwall;
 149              		.loc 1 179 5 view .LVU40
 150              		.loc 1 179 15 is_stmt 0 view .LVU41
 151 0000 1C4A     		ldr	r2, .L11
 152 0002 82FB0032 		smull	r3, r2, r2, r0
 153 0006 C317     		asrs	r3, r0, #31
 154 0008 C3EB6213 		rsb	r3, r3, r2, asr #5
 155 000c 1BB2     		sxth	r3, r3
 156              	.LVL14:
 180:Src/lookuptable.c **** 
 181:Src/lookuptable.c ****     if( table_int < 0 ){
 157              		.loc 1 181 5 is_stmt 1 view .LVU42
 158              		.loc 1 181 7 is_stmt 0 view .LVU43
 159 000e 10F1630F 		cmn	r0, #99
 160 0012 03DA     		bge	.L8
 182:Src/lookuptable.c ****         wall_dis = table_front_left_wall[0];
 161              		.loc 1 182 9 is_stmt 1 view .LVU44
 162              		.loc 1 182 18 is_stmt 0 view .LVU45
 163 0014 184B     		ldr	r3, .L11+4
ARM GAS  C:\Temp\ccwn0vz7.s 			page 7


 164              	.LVL15:
 165              		.loc 1 182 18 view .LVU46
 166 0016 93ED000A 		vldr.32	s0, [r3]
 167              	.LVL16:
 168              		.loc 1 182 18 view .LVU47
 169 001a 7047     		bx	lr
 170              	.LVL17:
 171              	.L8:
 183:Src/lookuptable.c ****     }
 184:Src/lookuptable.c ****     else if (table_int >= table_num_frontwall -1 ){
 172              		.loc 1 184 10 is_stmt 1 view .LVU48
 173              		.loc 1 184 13 is_stmt 0 view .LVU49
 174 001c 40F61B42 		movw	r2, #3099
 175 0020 9042     		cmp	r0, r2
 176 0022 03DD     		ble	.L10
 185:Src/lookuptable.c ****         wall_dis = table_front_left_wall[table_num_frontwall -1 ];
 177              		.loc 1 185 9 is_stmt 1 view .LVU50
 178              		.loc 1 185 18 is_stmt 0 view .LVU51
 179 0024 144B     		ldr	r3, .L11+4
 180              	.LVL18:
 181              		.loc 1 185 18 view .LVU52
 182 0026 93ED1F0A 		vldr.32	s0, [r3, #124]
 183              	.LVL19:
 184              		.loc 1 185 18 view .LVU53
 185 002a 7047     		bx	lr
 186              	.LVL20:
 187              	.L10:
 186:Src/lookuptable.c ****     }
 187:Src/lookuptable.c ****     else
 188:Src/lookuptable.c ****     {
 189:Src/lookuptable.c ****         table_deci = sensor_value % table_step_frontwall;
 188              		.loc 1 189 9 is_stmt 1 view .LVU54
 189              		.loc 1 189 20 is_stmt 0 view .LVU55
 190 002c 1149     		ldr	r1, .L11
 191 002e 81FB0021 		smull	r2, r1, r1, r0
 192 0032 C217     		asrs	r2, r0, #31
 193 0034 C2EB6112 		rsb	r2, r2, r1, asr #5
 194 0038 6421     		movs	r1, #100
 195 003a 01FB1200 		mls	r0, r1, r2, r0
 196              	.LVL21:
 197              		.loc 1 189 20 view .LVU56
 198 003e 00B2     		sxth	r0, r0
 199              	.LVL22:
 190:Src/lookuptable.c ****         table_tilt = (table_front_left_wall[table_int+1]-table_front_left_wall[table_int])/table_st
 200              		.loc 1 190 9 is_stmt 1 view .LVU57
 201              		.loc 1 190 54 is_stmt 0 view .LVU58
 202 0040 591C     		adds	r1, r3, #1
 203              		.loc 1 190 44 view .LVU59
 204 0042 0D4A     		ldr	r2, .L11+4
 205 0044 02EB8101 		add	r1, r2, r1, lsl #2
 206 0048 91ED007A 		vldr.32	s14, [r1]
 207              		.loc 1 190 79 view .LVU60
 208 004c 02EB8303 		add	r3, r2, r3, lsl #2
 209              	.LVL23:
 210              		.loc 1 190 79 view .LVU61
 211 0050 D3ED007A 		vldr.32	s15, [r3]
 212              		.loc 1 190 57 view .LVU62
ARM GAS  C:\Temp\ccwn0vz7.s 			page 8


 213 0054 37EE677A 		vsub.f32	s14, s14, s15
 214              		.loc 1 190 20 view .LVU63
 215 0058 9FED086A 		vldr.32	s12, .L11+8
 216 005c C7EE066A 		vdiv.f32	s13, s14, s12
 217              	.LVL24:
 191:Src/lookuptable.c ****         wall_dis = table_front_left_wall[table_int] + (float)table_deci * table_tilt;
 218              		.loc 1 191 9 is_stmt 1 view .LVU64
 219              		.loc 1 191 55 is_stmt 0 view .LVU65
 220 0060 07EE100A 		vmov	s14, r0	@ int
 221 0064 B8EEC70A 		vcvt.f32.s32	s0, s14
 222              		.loc 1 191 73 view .LVU66
 223 0068 20EE260A 		vmul.f32	s0, s0, s13
 224              		.loc 1 191 18 view .LVU67
 225 006c 37EE800A 		vadd.f32	s0, s15, s0
 226              	.LVL25:
 192:Src/lookuptable.c ****     }
 193:Src/lookuptable.c **** 
 194:Src/lookuptable.c ****     return wall_dis;
 227              		.loc 1 194 5 is_stmt 1 view .LVU68
 195:Src/lookuptable.c **** }
 228              		.loc 1 195 1 is_stmt 0 view .LVU69
 229 0070 7047     		bx	lr
 230              	.L12:
 231 0072 00BF     		.align	2
 232              	.L11:
 233 0074 1F85EB51 		.word	1374389535
 234 0078 00000000 		.word	.LANCHOR1
 235 007c 0000C842 		.word	1120403456
 236              		.cfi_endproc
 237              	.LFE4:
 239              		.global	__aeabi_f2d
 240              		.global	__aeabi_dsub
 241              		.global	__aeabi_d2f
 242              		.section	.text.get_sidewall_dis_table,"ax",%progbits
 243              		.align	1
 244              		.global	get_sidewall_dis_table
 245              		.syntax unified
 246              		.thumb
 247              		.thumb_func
 248              		.fpu fpv4-sp-d16
 250              	get_sidewall_dis_table:
 251              	.LVL26:
 252              	.LFB5:
 196:Src/lookuptable.c **** 
 197:Src/lookuptable.c **** 
 198:Src/lookuptable.c **** 
 199:Src/lookuptable.c **** //機能	: 横壁センサ値をルックアップテーブルにより距離に変換する
 200:Src/lookuptable.c **** //引数	: 横壁センサ値
 201:Src/lookuptable.c **** //返り値	: 距離
 202:Src/lookuptable.c **** float get_sidewall_dis_table ( int16_t sensor_value )
 203:Src/lookuptable.c **** {
 253              		.loc 1 203 1 is_stmt 1 view -0
 254              		.cfi_startproc
 255              		@ args = 0, pretend = 0, frame = 0
 256              		@ frame_needed = 0, uses_anonymous_args = 0
 257              		.loc 1 203 1 is_stmt 0 view .LVU71
 258 0000 08B5     		push	{r3, lr}
ARM GAS  C:\Temp\ccwn0vz7.s 			page 9


 259              	.LCFI0:
 260              		.cfi_def_cfa_offset 8
 261              		.cfi_offset 3, -8
 262              		.cfi_offset 14, -4
 204:Src/lookuptable.c ****     int16_t table_int = 0;//テーブルの整数部
 263              		.loc 1 204 5 is_stmt 1 view .LVU72
 264              	.LVL27:
 205:Src/lookuptable.c ****     int16_t table_deci = 0;//テーブルの少数部
 265              		.loc 1 205 5 view .LVU73
 206:Src/lookuptable.c ****     float table_tilt = 0;//テーブル間の傾き
 266              		.loc 1 206 5 view .LVU74
 207:Src/lookuptable.c ****     float side_wall_dis = 0; //距離変換結果
 267              		.loc 1 207 5 view .LVU75
 208:Src/lookuptable.c **** 
 209:Src/lookuptable.c ****     table_int = sensor_value / table_step_sidewall;
 268              		.loc 1 209 5 view .LVU76
 269              		.loc 1 209 15 is_stmt 0 view .LVU77
 270 0002 0346     		mov	r3, r0
 271 0004 0028     		cmp	r0, #0
 272 0006 13DB     		blt	.L19
 273              	.L14:
 274 0008 5B11     		asrs	r3, r3, #5
 275              	.LVL28:
 210:Src/lookuptable.c **** 
 211:Src/lookuptable.c ****     if( table_int < 0 ){
 276              		.loc 1 211 5 is_stmt 1 view .LVU78
 277              		.loc 1 211 7 is_stmt 0 view .LVU79
 278 000a 10F11F0F 		cmn	r0, #31
 279 000e 12DA     		bge	.L15
 212:Src/lookuptable.c ****         side_wall_dis = table_sidewall[0];
 280              		.loc 1 212 9 is_stmt 1 view .LVU80
 281              		.loc 1 212 23 is_stmt 0 view .LVU81
 282 0010 1F4B     		ldr	r3, .L20+8
 283              	.LVL29:
 284              		.loc 1 212 23 view .LVU82
 285 0012 1868     		ldr	r0, [r3]	@ float
 286              	.LVL30:
 287              	.L16:
 213:Src/lookuptable.c ****     }
 214:Src/lookuptable.c ****     else if (table_int >= table_num_sidewall -1 ){
 215:Src/lookuptable.c ****         side_wall_dis = table_sidewall[table_num_sidewall -1 ];
 216:Src/lookuptable.c ****     }
 217:Src/lookuptable.c ****     else
 218:Src/lookuptable.c ****     {
 219:Src/lookuptable.c ****         table_deci = sensor_value % table_step_sidewall;
 220:Src/lookuptable.c ****         table_tilt = (table_sidewall[table_int+1]-table_sidewall[table_int])/table_step_sidewall;
 221:Src/lookuptable.c ****         side_wall_dis = table_sidewall[table_int] + (float)table_deci * table_tilt;
 222:Src/lookuptable.c ****     }
 223:Src/lookuptable.c **** 
 224:Src/lookuptable.c ****     side_wall_dis = 0.09 - side_wall_dis;
 288              		.loc 1 224 5 is_stmt 1 view .LVU83
 289              		.loc 1 224 26 is_stmt 0 view .LVU84
 290 0014 FFF7FEFF 		bl	__aeabi_f2d
 291              	.LVL31:
 292              		.loc 1 224 26 view .LVU85
 293 0018 0246     		mov	r2, r0
 294 001a 0B46     		mov	r3, r1
ARM GAS  C:\Temp\ccwn0vz7.s 			page 10


 295 001c 1AA1     		adr	r1, .L20
 296 001e D1E90001 		ldrd	r0, [r1]
 297 0022 FFF7FEFF 		bl	__aeabi_dsub
 298              	.LVL32:
 299              		.loc 1 224 19 view .LVU86
 300 0026 FFF7FEFF 		bl	__aeabi_d2f
 301              	.LVL33:
 225:Src/lookuptable.c ****     return side_wall_dis;
 302              		.loc 1 225 5 is_stmt 1 view .LVU87
 226:Src/lookuptable.c **** }...
 303              		.loc 1 226 1 is_stmt 0 view .LVU88
 304 002a 00EE100A 		vmov	s0, r0
 305 002e 08BD     		pop	{r3, pc}
 306              	.LVL34:
 307              	.L19:
 209:Src/lookuptable.c ****     table_int = sensor_value / table_step_sidewall;
 308              		.loc 1 209 15 view .LVU89
 309 0030 00F11F03 		add	r3, r0, #31
 310 0034 E8E7     		b	.L14
 311              	.LVL35:
 312              	.L15:
 214:Src/lookuptable.c ****     else if (table_int >= table_num_sidewall -1 ){
 313              		.loc 1 214 10 is_stmt 1 view .LVU90
 214:Src/lookuptable.c ****     else if (table_int >= table_num_sidewall -1 ){
 314              		.loc 1 214 13 is_stmt 0 view .LVU91
 315 0036 B0F5FC6F 		cmp	r0, #2016
 316 003a 03DB     		blt	.L17
 215:Src/lookuptable.c ****         side_wall_dis = table_sidewall[table_num_sidewall -1 ];
 317              		.loc 1 215 9 is_stmt 1 view .LVU92
 215:Src/lookuptable.c ****         side_wall_dis = table_sidewall[table_num_sidewall -1 ];
 318              		.loc 1 215 23 is_stmt 0 view .LVU93
 319 003c 144B     		ldr	r3, .L20+8
 320              	.LVL36:
 215:Src/lookuptable.c ****         side_wall_dis = table_sidewall[table_num_sidewall -1 ];
 321              		.loc 1 215 23 view .LVU94
 322 003e D3F8FC00 		ldr	r0, [r3, #252]	@ float
 323              	.LVL37:
 215:Src/lookuptable.c ****         side_wall_dis = table_sidewall[table_num_sidewall -1 ];
 324              		.loc 1 215 23 view .LVU95
 325 0042 E7E7     		b	.L16
 326              	.LVL38:
 327              	.L17:
 219:Src/lookuptable.c ****         table_deci = sensor_value % table_step_sidewall;
 328              		.loc 1 219 9 is_stmt 1 view .LVU96
 219:Src/lookuptable.c ****         table_deci = sensor_value % table_step_sidewall;
 329              		.loc 1 219 20 is_stmt 0 view .LVU97
 330 0044 4242     		rsbs	r2, r0, #0
 331 0046 00F01F00 		and	r0, r0, #31
 332              	.LVL39:
 219:Src/lookuptable.c ****         table_deci = sensor_value % table_step_sidewall;
 333              		.loc 1 219 20 view .LVU98
 334 004a 02F01F02 		and	r2, r2, #31
 335 004e 58BF     		it	pl
 336 0050 5042     		rsbpl	r0, r2, #0
 337              	.LVL40:
 220:Src/lookuptable.c ****         table_tilt = (table_sidewall[table_int+1]-table_sidewall[table_int])/table_step_sidewall;
 338              		.loc 1 220 9 is_stmt 1 view .LVU99
ARM GAS  C:\Temp\ccwn0vz7.s 			page 11


 220:Src/lookuptable.c ****         table_tilt = (table_sidewall[table_int+1]-table_sidewall[table_int])/table_step_sidewall;
 339              		.loc 1 220 47 is_stmt 0 view .LVU100
 340 0052 591C     		adds	r1, r3, #1
 220:Src/lookuptable.c ****         table_tilt = (table_sidewall[table_int+1]-table_sidewall[table_int])/table_step_sidewall;
 341              		.loc 1 220 37 view .LVU101
 342 0054 0E4A     		ldr	r2, .L20+8
 343 0056 02EB8101 		add	r1, r2, r1, lsl #2
 344 005a D1ED007A 		vldr.32	s15, [r1]
 220:Src/lookuptable.c ****         table_tilt = (table_sidewall[table_int+1]-table_sidewall[table_int])/table_step_sidewall;
 345              		.loc 1 220 65 view .LVU102
 346 005e 02EB8303 		add	r3, r2, r3, lsl #2
 347              	.LVL41:
 220:Src/lookuptable.c ****         table_tilt = (table_sidewall[table_int+1]-table_sidewall[table_int])/table_step_sidewall;
 348              		.loc 1 220 65 view .LVU103
 349 0062 93ED007A 		vldr.32	s14, [r3]
 220:Src/lookuptable.c ****         table_tilt = (table_sidewall[table_int+1]-table_sidewall[table_int])/table_step_sidewall;
 350              		.loc 1 220 50 view .LVU104
 351 0066 77EEC77A 		vsub.f32	s15, s15, s14
 220:Src/lookuptable.c ****         table_tilt = (table_sidewall[table_int+1]-table_sidewall[table_int])/table_step_sidewall;
 352              		.loc 1 220 20 view .LVU105
 353 006a DFED0A6A 		vldr.32	s13, .L20+12
 354 006e 67EEA66A 		vmul.f32	s13, s15, s13
 355              	.LVL42:
 221:Src/lookuptable.c ****         side_wall_dis = table_sidewall[table_int] + (float)table_deci * table_tilt;
 356              		.loc 1 221 9 is_stmt 1 view .LVU106
 221:Src/lookuptable.c ****         side_wall_dis = table_sidewall[table_int] + (float)table_deci * table_tilt;
 357              		.loc 1 221 53 is_stmt 0 view .LVU107
 358 0072 07EE900A 		vmov	s15, r0	@ int
 359 0076 F8EEE77A 		vcvt.f32.s32	s15, s15
 221:Src/lookuptable.c ****         side_wall_dis = table_sidewall[table_int] + (float)table_deci * table_tilt;
 360              		.loc 1 221 71 view .LVU108
 361 007a 67EEA67A 		vmul.f32	s15, s15, s13
 221:Src/lookuptable.c ****         side_wall_dis = table_sidewall[table_int] + (float)table_deci * table_tilt;
 362              		.loc 1 221 23 view .LVU109
 363 007e 77EE277A 		vadd.f32	s15, s14, s15
 364 0082 17EE900A 		vmov	r0, s15
 365              	.LVL43:
 221:Src/lookuptable.c ****         side_wall_dis = table_sidewall[table_int] + (float)table_deci * table_tilt;
 366              		.loc 1 221 23 view .LVU110
 367 0086 C5E7     		b	.L16
 368              	.L21:
 369              		.align	3
 370              	.L20:
 371 0088 0AD7A370 		.word	1889785610
 372 008c 3D0AB73F 		.word	1068960317
 373 0090 00000000 		.word	.LANCHOR2
 374 0094 0000003D 		.word	1023410176
 375              		.cfi_endproc
 376              	.LFE5:
 378              		.global	table_front_left_wall
 379              		.global	table_front_right_wall
 380              		.global	table_sidewall
 381              		.section	.data.table_front_left_wall,"aw"
 382              		.align	2
 383              		.set	.LANCHOR1,. + 0
 386              	table_front_left_wall:
 387 0000 EC51B83D 		.word	1035489772
ARM GAS  C:\Temp\ccwn0vz7.s 			page 12


 388 0004 315C5D3D 		.word	1029528625
 389 0008 C1AA3A3D 		.word	1027254977
 390 000c 88F71C3D 		.word	1025308552
 391 0010 6477013D 		.word	1023506276
 392 0014 2DAFDC3C 		.word	1021095725
 393 0018 14D0C43C 		.word	1019531284
 394 001c 11FFB03C 		.word	1018232593
 395 0020 DD07A03C 		.word	1017120733
 396 0024 6EE08E3C 		.word	1015996526
 397 0028 4562823C 		.word	1015177797
 398 002c E65D753C 		.word	1014324710
 399 0030 7AFC5E3C 		.word	1012857978
 400 0034 C8284F3C 		.word	1011820744
 401 0038 08E83E3C 		.word	1010755592
 402 003c 3B3A2E3C 		.word	1009662523
 403 0040 9CA8253C 		.word	1009100956
 404 0044 40D9143C 		.word	1007999296
 405 0048 2F690C3C 		.word	1007446319
 406 004c E509043C 		.word	1006897637
 407 0050 FE65F73B 		.word	1006069246
 408 0054 1475E63B 		.word	1004958996
 409 0058 47C7D53B 		.word	1003865927
 410 005c 5D6DC53B 		.word	1002794333
 411 0060 3B8DB43B 		.word	1001688379
 412 0064 C47AA33B 		.word	1000569540
 413 0068 75029A3B 		.word	999948917
 414 006c B070923B 		.word	999452848
 415 0070 570A813B 		.word	998312535
 416 0074 17F45E3B 		.word	996078615
 417 0078 64903B3B 		.word	993759332
 418 007c B395173B 		.word	991401395
 419              		.section	.data.table_front_right_wall,"aw"
 420              		.align	2
 421              		.set	.LANCHOR0,. + 0
 424              	table_front_right_wall:
 425 0000 EC51B83D 		.word	1035489772
 426 0004 BCB3763D 		.word	1031189436
 427 0008 7B4D4F3D 		.word	1028607355
 428 000c 83DD303D 		.word	1026612611
 429 0010 4B05153D 		.word	1024787787
 430 0014 7A54FC3C 		.word	1023169658
 431 0018 CFBFDD3C 		.word	1021165519
 432 001c A1F7C63C 		.word	1019672481
 433 0020 4D2FB13C 		.word	1018244941
 434 0024 718FA53C 		.word	1017483121
 435 0028 2E3D9A3C 		.word	1016741166
 436 002c 00AC8E3C 		.word	1015983104
 437 0030 E6E7863C 		.word	1015474150
 438 0034 6C94753C 		.word	1014338668
 439 0038 2C9F653C 		.word	1013292844
 440 003c 5AA05D3C 		.word	1012768858
 441 0040 C4784D3C 		.word	1011710148
 442 0044 AE9C3D3C 		.word	1010670766
 443 0048 DC9D353C 		.word	1010146780
 444 004c D89A2D3C 		.word	1009621720
 445 0050 4E61253C 		.word	1009082702
 446 0054 52491D3C 		.word	1008552274
ARM GAS  C:\Temp\ccwn0vz7.s 			page 13


 447 0058 E352153C 		.word	1008030435
 448 005c D1790D3C 		.word	1007516113
 449 0060 7F2F053C 		.word	1006972799
 450 0064 006F013C 		.word	1006726912
 451 0068 23DBF93B 		.word	1006230307
 452 006c 7FDDE93B 		.word	1005182335
 453 0070 89D2DE3B 		.word	1004458633
 454 0074 5B94D93B 		.word	1004115035
 455 0078 37E2C93B 		.word	1003086391
 456 007c F6ECB93B 		.word	1002040566
 457              		.section	.data.table_sidewall,"aw"
 458              		.align	2
 459              		.set	.LANCHOR2,. + 0
 462              	table_sidewall:
 463 0000 00000000 		.word	0
 464 0004 85AFCC3C 		.word	1020047237
 465 0008 06EE103D 		.word	1024519686
 466 000c 70D7293D 		.word	1026152304
 467 0010 49843B3D 		.word	1027310665
 468 0014 083A493D 		.word	1028209160
 469 0018 B36D543D 		.word	1028943283
 470 001c 48E65D3D 		.word	1029563976
 471 0020 8C1A663D 		.word	1030101644
 472 0024 1D576D3D 		.word	1030575901
 473 0028 4BD0733D 		.word	1031000139
 474 002c 64AB793D 		.word	1031383908
 475 0030 F6037F3D 		.word	1031734262
 476 0034 76F7813D 		.word	1031927670
 477 0038 463E843D 		.word	1032076870
 478 003c DB5C863D 		.word	1032215771
 479 0040 6858883D 		.word	1032345704
 480 0044 2D358A3D 		.word	1032467757
 481 0048 B0F68B3D 		.word	1032582832
 482 004c E49F8D3D 		.word	1032691684
 483 0050 47338F3D 		.word	1032794951
 484 0054 FBB2903D 		.word	1032893179
 485 0058 D420923D 		.word	1032986836
 486 005c 697E933D 		.word	1033076329
 487 0060 1DCD943D 		.word	1033162013
 488 0064 260E963D 		.word	1033244198
 489 0068 9842973D 		.word	1033323160
 490 006c 656B983D 		.word	1033399141
 491 0070 6789993D 		.word	1033472359
 492 0074 5F9D9A3D 		.word	1033543007
 493 0078 FCA79B3D 		.word	1033611260
 494 007c DBA99C3D 		.word	1033677275
 495 0080 89A39D3D 		.word	1033741193
 496 0084 89959E3D 		.word	1033803145
 497 0088 4F809F3D 		.word	1033863247
 498 008c 4664A03D 		.word	1033921606
 499 0090 D241A13D 		.word	1033978322
 500 0094 4B19A23D 		.word	1034033483
 501 0098 06EBA23D 		.word	1034087174
 502 009c 4DB7A33D 		.word	1034139469
 503 00a0 697EA43D 		.word	1034190441
 504 00a4 9940A53D 		.word	1034240153
 505 00a8 1CFEA53D 		.word	1034288668
ARM GAS  C:\Temp\ccwn0vz7.s 			page 14


 506 00ac 29B7A63D 		.word	1034336041
 507 00b0 F56BA73D 		.word	1034382325
 508 00b4 B11CA83D 		.word	1034427569
 509 00b8 8BC9A83D 		.word	1034471819
 510 00bc AC72A93D 		.word	1034515116
 511 00c0 3E18AA3D 		.word	1034557502
 512 00c4 66BAAA3D 		.word	1034599014
 513 00c8 4859AB3D 		.word	1034639688
 514 00cc 04F5AB3D 		.word	1034679556
 515 00d0 BA8DAC3D 		.word	1034718650
 516 00d4 8723AD3D 		.word	1034756999
 517 00d8 87B6AD3D 		.word	1034794631
 518 00dc D546AE3D 		.word	1034831573
 519 00e0 89D4AE3D 		.word	1034867849
 520 00e4 BB5FAF3D 		.word	1034903483
 521 00e8 81E8AF3D 		.word	1034938497
 522 00ec F06EB03D 		.word	1034972912
 523 00f0 1EF3B03D 		.word	1035006750
 524 00f4 1C75B13D 		.word	1035040028
 525 00f8 FCF4B13D 		.word	1035072764
 526 00fc D172B23D 		.word	1035104977
 527              		.text
 528              	.Letext0:
 529              		.file 2 "c:\\tools\\gcc-arm-none-eabi-9-2019-q4-major\\arm-none-eabi\\include\\machine\\_default_t
 530              		.file 3 "c:\\tools\\gcc-arm-none-eabi-9-2019-q4-major\\arm-none-eabi\\include\\sys\\lock.h"
 531              		.file 4 "c:\\tools\\gcc-arm-none-eabi-9-2019-q4-major\\arm-none-eabi\\include\\sys\\_types.h"
 532              		.file 5 "c:\\tools\\gcc-arm-none-eabi-9-2019-q4-major\\lib\\gcc\\arm-none-eabi\\9.2.1\\include\\st
 533              		.file 6 "c:\\tools\\gcc-arm-none-eabi-9-2019-q4-major\\arm-none-eabi\\include\\sys\\reent.h"
 534              		.file 7 "c:\\tools\\gcc-arm-none-eabi-9-2019-q4-major\\arm-none-eabi\\include\\sys\\_stdint.h"
ARM GAS  C:\Temp\ccwn0vz7.s 			page 15

