ARM GAS  C:\Temp\ccONjyJU.s 			page 1


   1              		.cpu cortex-m4
   2              		.eabi_attribute 27, 1
   3              		.eabi_attribute 28, 1
   4              		.eabi_attribute 20, 1
   5              		.eabi_attribute 21, 1
   6              		.eabi_attribute 23, 3
   7              		.eabi_attribute 24, 1
   8              		.eabi_attribute 25, 1
   9              		.eabi_attribute 26, 1
  10              		.eabi_attribute 30, 1
  11              		.eabi_attribute 34, 1
  12              		.eabi_attribute 18, 4
  13              		.file	"main.c"
  14              		.text
  15              	.Ltext0:
  16              		.cfi_sections	.debug_frame
  17              		.section	.text.SystemClock_Config,"ax",%progbits
  18              		.align	1
  19              		.global	SystemClock_Config
  20              		.arch armv7e-m
  21              		.syntax unified
  22              		.thumb
  23              		.thumb_func
  24              		.fpu fpv4-sp-d16
  26              	SystemClock_Config:
  27              	.LFB134:
  28              		.file 1 "Src/main.c"
   1:Src/main.c    **** /* USER CODE BEGIN Header */
   2:Src/main.c    **** /**
   3:Src/main.c    ****   ******************************************************************************
   4:Src/main.c    ****   * @file           : main.c
   5:Src/main.c    ****   * @brief          : Main program body
   6:Src/main.c    ****   ******************************************************************************
   7:Src/main.c    ****   * @attention
   8:Src/main.c    ****   *
   9:Src/main.c    ****   * <h2><center>&copy; Copyright (c) 2020 STMicroelectronics.
  10:Src/main.c    ****   * All rights reserved.</center></h2>
  11:Src/main.c    ****   *
  12:Src/main.c    ****   * This software component is licensed by ST under BSD 3-Clause license,
  13:Src/main.c    ****   * the "License"; You may not use this file except in compliance with the
  14:Src/main.c    ****   * License. You may obtain a copy of the License at:
  15:Src/main.c    ****   *                        opensource.org/licenses/BSD-3-Clause
  16:Src/main.c    ****   *
  17:Src/main.c    ****   ******************************************************************************
  18:Src/main.c    ****   */
  19:Src/main.c    **** /* USER CODE END Header */
  20:Src/main.c    **** 
  21:Src/main.c    **** /* Includes ------------------------------------------------------------------*/
  22:Src/main.c    **** #include "main.h"
  23:Src/main.c    **** #include "adc.h"
  24:Src/main.c    **** #include "dma.h"
  25:Src/main.c    **** #include "spi.h"
  26:Src/main.c    **** #include "tim.h"
  27:Src/main.c    **** #include "usart.h"
  28:Src/main.c    **** #include "gpio.h"
  29:Src/main.c    **** 
  30:Src/main.c    **** /* Private includes ----------------------------------------------------------*/
ARM GAS  C:\Temp\ccONjyJU.s 			page 2


  31:Src/main.c    **** /* USER CODE BEGIN Includes */
  32:Src/main.c    **** //#include "index.h"
  33:Src/main.c    **** #include "mode.h"
  34:Src/main.c    **** #include "ir_sensor.h"
  35:Src/main.c    **** #include "interrupt.h"
  36:Src/main.c    **** #include "imu.h"
  37:Src/main.c    **** #include "motor.h"
  38:Src/main.c    **** #include "encorder.h"
  39:Src/main.c    **** #include "target.h"
  40:Src/main.c    **** #include "movement.h"
  41:Src/main.c    **** #include "exvol.h"
  42:Src/main.c    **** #include "control.h"
  43:Src/main.c    **** #include "module_test.h"
  44:Src/main.c    **** #include "param.h"
  45:Src/main.c    **** #include "adjust.h"
  46:Src/main.c    **** #include "mouse_state.h"
  47:Src/main.c    **** 
  48:Src/main.c    **** /*from matlab*/
  49:Src/main.c    **** #include "maze_init.h"
  50:Src/main.c    **** #include "maze_solve.h"
  51:Src/main.c    **** #include "matlab_code_gen_data.h"
  52:Src/main.c    **** /* USER CODE END Includes */
  53:Src/main.c    **** 
  54:Src/main.c    **** /* Private typedef -----------------------------------------------------------*/
  55:Src/main.c    **** /* USER CODE BEGIN PTD */
  56:Src/main.c    **** typedef enum {
  57:Src/main.c    **** 	search_mode 	= 0,
  58:Src/main.c    ****  	fust_run_mode 	= 1,
  59:Src/main.c    **** } maze_search_flg;
  60:Src/main.c    **** 
  61:Src/main.c    **** /* USER CODE END PTD */
  62:Src/main.c    **** 
  63:Src/main.c    **** /* Private define ------------------------------------------------------------*/
  64:Src/main.c    **** /* USER CODE BEGIN PD */
  65:Src/main.c    **** 
  66:Src/main.c    **** /* USER CODE END PD */
  67:Src/main.c    **** 
  68:Src/main.c    **** /* Private macro -------------------------------------------------------------*/
  69:Src/main.c    **** /* USER CODE BEGIN PM */
  70:Src/main.c    **** 
  71:Src/main.c    **** /* USER CODE END PM */
  72:Src/main.c    **** 
  73:Src/main.c    **** /* Private variables ---------------------------------------------------------*/
  74:Src/main.c    **** 
  75:Src/main.c    **** /* USER CODE BEGIN PV */
  76:Src/main.c    **** 
  77:Src/main.c    **** /* USER CODE END PV */
  78:Src/main.c    **** 
  79:Src/main.c    **** /* Private function prototypes -----------------------------------------------*/
  80:Src/main.c    **** void SystemClock_Config(void);
  81:Src/main.c    **** /* USER CODE BEGIN PFP */
  82:Src/main.c    **** 
  83:Src/main.c    **** /* USER CODE END PFP */
  84:Src/main.c    **** 
  85:Src/main.c    **** /* Private user code ---------------------------------------------------------*/
  86:Src/main.c    **** /* USER CODE BEGIN 0 */
  87:Src/main.c    **** 
ARM GAS  C:\Temp\ccONjyJU.s 			page 3


  88:Src/main.c    **** 
  89:Src/main.c    **** /* USER CODE END 0 */
  90:Src/main.c    **** 
  91:Src/main.c    **** /**
  92:Src/main.c    ****   * @brief  The application entry point.
  93:Src/main.c    ****   * @retval int
  94:Src/main.c    ****   */
  95:Src/main.c    **** int main(void)
  96:Src/main.c    **** {
  97:Src/main.c    ****   /* USER CODE BEGIN 1 */
  98:Src/main.c    ****   /*迷路変数定義*/
  99:Src/main.c    ****   static uint8_t maze_x_size = x_size;//x方向の壁の枚数(x方向のマスの数+1)
 100:Src/main.c    ****   static uint8_t maze_y_size = y_size;//y方向の壁の枚数(y方向のマスの数+1)
 101:Src/main.c    ****   static uint8_t goal_size = g_size; //ゴールのマスの数
 102:Src/main.c    ****   static uint8_t maze_goal[18] = goal_cordinate;
 103:Src/main.c    ****   static uint8_t m_wall_tmp[1024];//迷路情報格納用配列
 104:Src/main.c    ****   static uint8_t m_search_tmp[1024];//探索情報格納用配列
 105:Src/main.c    ****   static uint8_t run_mode = search_mode;
 106:Src/main.c    **** 
 107:Src/main.c    ****   /* USER CODE END 1 */
 108:Src/main.c    ****   
 109:Src/main.c    **** 
 110:Src/main.c    ****   /* MCU Configuration--------------------------------------------------------*/
 111:Src/main.c    **** 
 112:Src/main.c    ****   /* Reset of all peripherals, Initializes the Flash interface and the Systick. */
 113:Src/main.c    ****   HAL_Init();
 114:Src/main.c    **** 
 115:Src/main.c    ****   /* USER CODE BEGIN Init */
 116:Src/main.c    **** 
 117:Src/main.c    ****   /* USER CODE END Init */
 118:Src/main.c    **** 
 119:Src/main.c    ****   /* Configure the system clock */
 120:Src/main.c    ****   SystemClock_Config();
 121:Src/main.c    **** 
 122:Src/main.c    ****   /* USER CODE BEGIN SysInit */
 123:Src/main.c    **** 
 124:Src/main.c    ****   /* USER CODE END SysInit */
 125:Src/main.c    **** 
 126:Src/main.c    ****   /* Initialize all configured peripherals */
 127:Src/main.c    ****   MX_GPIO_Init();
 128:Src/main.c    ****   MX_DMA_Init();
 129:Src/main.c    ****   MX_USART1_UART_Init();
 130:Src/main.c    ****   MX_TIM4_Init();
 131:Src/main.c    ****   MX_SPI2_Init();
 132:Src/main.c    ****   MX_ADC1_Init();
 133:Src/main.c    ****   MX_TIM2_Init();
 134:Src/main.c    ****   MX_TIM3_Init();
 135:Src/main.c    ****   MX_TIM6_Init();
 136:Src/main.c    ****   MX_TIM1_Init();
 137:Src/main.c    ****   /* USER CODE BEGIN 2 */
 138:Src/main.c    **** 
 139:Src/main.c    ****   /* m 各関数初期化　*/
 140:Src/main.c    ****   Motor_Initialize(); 			/*モータ用タイマ設定*/
 141:Src/main.c    ****   Communication_Initialize( );	/*printf,scanf用の設定*/
 142:Src/main.c    ****   IMU_Initialize();				/*IMU初期設定*/
 143:Src/main.c    ****   Encoder_Initialize();			/*Encoderタイマ設定、位相初期化*/
 144:Src/main.c    ****   Interrupt_Initialize( );		/*interrupt処理用タイマ(TIM6)初期化*/
ARM GAS  C:\Temp\ccONjyJU.s 			page 4


 145:Src/main.c    ****   //Battery_LimiterVoltage();		/*a バッテリー下限処理*/
 146:Src/main.c    **** 
 147:Src/main.c    ****   /* USER CODE END 2 */
 148:Src/main.c    **** 
 149:Src/main.c    ****   /* Infinite loop */
 150:Src/main.c    ****   /* USER CODE BEGIN WHILE */
 151:Src/main.c    ****   while (1)
 152:Src/main.c    ****   {
 153:Src/main.c    ****     /* USER CODE END WHILE */
 154:Src/main.c    **** 
 155:Src/main.c    ****     /* USER CODE BEGIN 3 */
 156:Src/main.c    **** 	  mode_main();//モードの選定、開始処理
 157:Src/main.c    **** 
 158:Src/main.c    ****   	/*ここからモードごとの処理に移行*/
 159:Src/main.c    **** 	  switch(get_mode_number()){
 160:Src/main.c    **** 
 161:Src/main.c    **** 	    case 0://データ吐き出し用
 162:Src/main.c    ****   	  data_read();
 163:Src/main.c    **** 	    break;
 164:Src/main.c    **** 
 165:Src/main.c    **** 	  case 1:
 166:Src/main.c    ****        log_init();
 167:Src/main.c    **** 	     set_mode_ctrl(trace);
 168:Src/main.c    ****        set_accel_mode(deceleration);
 169:Src/main.c    ****        set_target_length(0.63);
 170:Src/main.c    ****        HAL_Delay(5000);
 171:Src/main.c    **** 		  break;
 172:Src/main.c    **** 
 173:Src/main.c    **** 	  case 2:
 174:Src/main.c    ****        log_init();
 175:Src/main.c    ****        set_accel_mode(deceleration);
 176:Src/main.c    ****       // HAL_Delay(1000);
 177:Src/main.c    ****  		  for(int i=0; i<=100; i += 1){
 178:Src/main.c    **** 			  set_duty_r(i);
 179:Src/main.c    **** 			  set_duty_l(-i);
 180:Src/main.c    **** 			  HAL_Delay(5);
 181:Src/main.c    **** 		  }
 182:Src/main.c    **** 		  for(int i=100; i>=-100; i -= 1){
 183:Src/main.c    **** 			  set_duty_r(i);
 184:Src/main.c    **** 			  set_duty_l(-i);
 185:Src/main.c    **** 			  HAL_Delay(5);
 186:Src/main.c    **** 		  }
 187:Src/main.c    ****  		  for(int i=-100; i<0; i += 1){
 188:Src/main.c    **** 			  set_duty_r(i);
 189:Src/main.c    **** 			  set_duty_l(-i);
 190:Src/main.c    **** 			  HAL_Delay(5);
 191:Src/main.c    **** 		  }
 192:Src/main.c    **** 		  
 193:Src/main.c    ****       break;
 194:Src/main.c    **** 
 195:Src/main.c    **** 	  case 3:
 196:Src/main.c    ****       // set_mode_ctrl(front_wall);
 197:Src/main.c    ****       // HAL_Delay(5000);
 198:Src/main.c    ****       fornt_wall_calibrate();
 199:Src/main.c    **** 		  break;
 200:Src/main.c    **** 
 201:Src/main.c    **** 	  case 4:
ARM GAS  C:\Temp\ccONjyJU.s 			page 5


 202:Src/main.c    ****       set_accel_mode(deceleration);
 203:Src/main.c    ****       turn_clk_90();
 204:Src/main.c    ****       HAL_Delay(500);
 205:Src/main.c    ****       turn_conclk_90();
 206:Src/main.c    ****       HAL_Delay(500);
 207:Src/main.c    **** 		  break;
 208:Src/main.c    **** 
 209:Src/main.c    **** 	  case 5:
 210:Src/main.c    ****     //スラロームテスト
 211:Src/main.c    ****       set_mode_ctrl(side_wall);
 212:Src/main.c    ****       start_acceleration();
 213:Src/main.c    ****       half_acceleration();
 214:Src/main.c    ****       constant_speed();
 215:Src/main.c    ****       constant_speed();
 216:Src/main.c    ****       set_mode_ctrl(trace);
 217:Src/main.c    ****       //slalom_conclock_90();
 218:Src/main.c    ****       constant_speed();
 219:Src/main.c    ****       constant_speed();
 220:Src/main.c    ****       half_deceleration();
 221:Src/main.c    **** 		  break;
 222:Src/main.c    **** 
 223:Src/main.c    **** 	  case 6:
 224:Src/main.c    ****     //スラロームテスト
 225:Src/main.c    ****       set_mode_ctrl(side_wall);
 226:Src/main.c    ****       start_acceleration();
 227:Src/main.c    ****       half_acceleration();
 228:Src/main.c    ****       constant_speed();
 229:Src/main.c    ****       constant_speed();
 230:Src/main.c    ****       set_mode_ctrl(trace);
 231:Src/main.c    ****       slalom_clock_90();
 232:Src/main.c    ****       constant_speed();
 233:Src/main.c    ****       constant_speed();
 234:Src/main.c    ****       half_deceleration();
 235:Src/main.c    ****       break;
 236:Src/main.c    **** 
 237:Src/main.c    **** 	  case 7:
 238:Src/main.c    ****       module_test();
 239:Src/main.c    **** 		  break;
 240:Src/main.c    **** 
 241:Src/main.c    **** 	  /*最短走行*/
 242:Src/main.c    **** 	  case 14:
 243:Src/main.c    **** 
 244:Src/main.c    **** 		  break;
 245:Src/main.c    **** 
 246:Src/main.c    **** 	  /*迷路探索*/
 247:Src/main.c    **** 	  case 15:
 248:Src/main.c    **** 		  /*m迷路データの初期化*/
 249:Src/main.c    **** 		  maze_init(maze_y_size, maze_x_size, m_wall_tmp, m_search_tmp);
 250:Src/main.c    **** 
 251:Src/main.c    **** 		  /*探索モードで走行*/
 252:Src/main.c    **** 		  run_mode = search_mode;
 253:Src/main.c    **** 		  maze_solve(m_wall_tmp, m_search_tmp, maze_y_size, maze_x_size, maze_goal, goal_size, run_mode);
 254:Src/main.c    **** 
 255:Src/main.c    **** 		  break;
 256:Src/main.c    **** 	  }
 257:Src/main.c    ****     clr_mode_state();
 258:Src/main.c    ****     Sensor_StopADC();
ARM GAS  C:\Temp\ccONjyJU.s 			page 6


 259:Src/main.c    **** 
 260:Src/main.c    **** 	  set_duty_r(0);	//motor_r 停止
 261:Src/main.c    **** 	  set_duty_l(0);	//motor_l 停止
 262:Src/main.c    **** 
 263:Src/main.c    **** 	  for(int i=0; i<3; i++){ //m モード処理終了時、LEDを3回点灯
 264:Src/main.c    **** 	  HAL_GPIO_WritePin(GPIOA,LED2_Pin|LED3_Pin|LED4_Pin|LED5_Pin, GPIO_PIN_SET);
 265:Src/main.c    **** 	  HAL_Delay(700);
 266:Src/main.c    **** 	  HAL_GPIO_WritePin(GPIOA,LED2_Pin|LED3_Pin|LED4_Pin|LED5_Pin, GPIO_PIN_RESET);
 267:Src/main.c    **** 	  HAL_Delay(300);
 268:Src/main.c    **** 	  }
 269:Src/main.c    **** 
 270:Src/main.c    ****   }
 271:Src/main.c    ****   /* USER CODE END 3 */
 272:Src/main.c    **** }
 273:Src/main.c    **** 
 274:Src/main.c    **** /**
 275:Src/main.c    ****   * @brief System Clock Configuration
 276:Src/main.c    ****   * @retval None
 277:Src/main.c    ****   */
 278:Src/main.c    **** void SystemClock_Config(void)
 279:Src/main.c    **** {
  29              		.loc 1 279 1 view -0
  30              		.cfi_startproc
  31              		@ args = 0, pretend = 0, frame = 80
  32              		@ frame_needed = 0, uses_anonymous_args = 0
  33 0000 30B5     		push	{r4, r5, lr}
  34              	.LCFI0:
  35              		.cfi_def_cfa_offset 12
  36              		.cfi_offset 4, -12
  37              		.cfi_offset 5, -8
  38              		.cfi_offset 14, -4
  39 0002 95B0     		sub	sp, sp, #84
  40              	.LCFI1:
  41              		.cfi_def_cfa_offset 96
 280:Src/main.c    ****   RCC_OscInitTypeDef RCC_OscInitStruct = {0};
  42              		.loc 1 280 3 view .LVU1
  43              		.loc 1 280 22 is_stmt 0 view .LVU2
  44 0004 3422     		movs	r2, #52
  45 0006 0021     		movs	r1, #0
  46 0008 07A8     		add	r0, sp, #28
  47 000a FFF7FEFF 		bl	memset
  48              	.LVL0:
 281:Src/main.c    ****   RCC_ClkInitTypeDef RCC_ClkInitStruct = {0};
  49              		.loc 1 281 3 is_stmt 1 view .LVU3
  50              		.loc 1 281 22 is_stmt 0 view .LVU4
  51 000e 0024     		movs	r4, #0
  52 0010 0294     		str	r4, [sp, #8]
  53 0012 0394     		str	r4, [sp, #12]
  54 0014 0494     		str	r4, [sp, #16]
  55 0016 0594     		str	r4, [sp, #20]
  56 0018 0694     		str	r4, [sp, #24]
 282:Src/main.c    **** 
 283:Src/main.c    ****   /** Configure the main internal regulator output voltage 
 284:Src/main.c    ****   */
 285:Src/main.c    ****   __HAL_RCC_PWR_CLK_ENABLE();
  57              		.loc 1 285 3 is_stmt 1 view .LVU5
  58              	.LBB2:
ARM GAS  C:\Temp\ccONjyJU.s 			page 7


  59              		.loc 1 285 3 view .LVU6
  60 001a 0094     		str	r4, [sp]
  61              		.loc 1 285 3 view .LVU7
  62 001c 194B     		ldr	r3, .L3
  63 001e 1A6C     		ldr	r2, [r3, #64]
  64 0020 42F08052 		orr	r2, r2, #268435456
  65 0024 1A64     		str	r2, [r3, #64]
  66              		.loc 1 285 3 view .LVU8
  67 0026 1B6C     		ldr	r3, [r3, #64]
  68 0028 03F08053 		and	r3, r3, #268435456
  69 002c 0093     		str	r3, [sp]
  70              		.loc 1 285 3 view .LVU9
  71 002e 009B     		ldr	r3, [sp]
  72              	.LBE2:
  73              		.loc 1 285 3 view .LVU10
 286:Src/main.c    ****   __HAL_PWR_VOLTAGESCALING_CONFIG(PWR_REGULATOR_VOLTAGE_SCALE1);
  74              		.loc 1 286 3 view .LVU11
  75              	.LBB3:
  76              		.loc 1 286 3 view .LVU12
  77 0030 0194     		str	r4, [sp, #4]
  78              		.loc 1 286 3 view .LVU13
  79 0032 154B     		ldr	r3, .L3+4
  80 0034 1A68     		ldr	r2, [r3]
  81 0036 42F44042 		orr	r2, r2, #49152
  82 003a 1A60     		str	r2, [r3]
  83              		.loc 1 286 3 view .LVU14
  84 003c 1B68     		ldr	r3, [r3]
  85 003e 03F44043 		and	r3, r3, #49152
  86 0042 0193     		str	r3, [sp, #4]
  87              		.loc 1 286 3 view .LVU15
  88 0044 019B     		ldr	r3, [sp, #4]
  89              	.LBE3:
  90              		.loc 1 286 3 view .LVU16
 287:Src/main.c    ****   /** Initializes the CPU, AHB and APB busses clocks 
 288:Src/main.c    ****   */
 289:Src/main.c    ****   RCC_OscInitStruct.OscillatorType = RCC_OSCILLATORTYPE_HSI;
  91              		.loc 1 289 3 view .LVU17
  92              		.loc 1 289 36 is_stmt 0 view .LVU18
  93 0046 0225     		movs	r5, #2
  94 0048 0795     		str	r5, [sp, #28]
 290:Src/main.c    ****   RCC_OscInitStruct.HSIState = RCC_HSI_ON;
  95              		.loc 1 290 3 is_stmt 1 view .LVU19
  96              		.loc 1 290 30 is_stmt 0 view .LVU20
  97 004a 0123     		movs	r3, #1
  98 004c 0A93     		str	r3, [sp, #40]
 291:Src/main.c    ****   RCC_OscInitStruct.HSICalibrationValue = RCC_HSICALIBRATION_DEFAULT;
  99              		.loc 1 291 3 is_stmt 1 view .LVU21
 100              		.loc 1 291 41 is_stmt 0 view .LVU22
 101 004e 1023     		movs	r3, #16
 102 0050 0B93     		str	r3, [sp, #44]
 292:Src/main.c    ****   RCC_OscInitStruct.PLL.PLLState = RCC_PLL_ON;
 103              		.loc 1 292 3 is_stmt 1 view .LVU23
 104              		.loc 1 292 34 is_stmt 0 view .LVU24
 105 0052 0D95     		str	r5, [sp, #52]
 293:Src/main.c    ****   RCC_OscInitStruct.PLL.PLLSource = RCC_PLLSOURCE_HSI;
 106              		.loc 1 293 3 is_stmt 1 view .LVU25
 107              		.loc 1 293 35 is_stmt 0 view .LVU26
ARM GAS  C:\Temp\ccONjyJU.s 			page 8


 108 0054 0E94     		str	r4, [sp, #56]
 294:Src/main.c    ****   RCC_OscInitStruct.PLL.PLLM = 16;
 109              		.loc 1 294 3 is_stmt 1 view .LVU27
 110              		.loc 1 294 30 is_stmt 0 view .LVU28
 111 0056 0F93     		str	r3, [sp, #60]
 295:Src/main.c    ****   RCC_OscInitStruct.PLL.PLLN = 192;
 112              		.loc 1 295 3 is_stmt 1 view .LVU29
 113              		.loc 1 295 30 is_stmt 0 view .LVU30
 114 0058 C023     		movs	r3, #192
 115 005a 1093     		str	r3, [sp, #64]
 296:Src/main.c    ****   RCC_OscInitStruct.PLL.PLLP = RCC_PLLP_DIV2;
 116              		.loc 1 296 3 is_stmt 1 view .LVU31
 117              		.loc 1 296 30 is_stmt 0 view .LVU32
 118 005c 1195     		str	r5, [sp, #68]
 297:Src/main.c    ****   RCC_OscInitStruct.PLL.PLLQ = 2;
 119              		.loc 1 297 3 is_stmt 1 view .LVU33
 120              		.loc 1 297 30 is_stmt 0 view .LVU34
 121 005e 1295     		str	r5, [sp, #72]
 298:Src/main.c    ****   RCC_OscInitStruct.PLL.PLLR = 2;
 122              		.loc 1 298 3 is_stmt 1 view .LVU35
 123              		.loc 1 298 30 is_stmt 0 view .LVU36
 124 0060 1395     		str	r5, [sp, #76]
 299:Src/main.c    ****   if (HAL_RCC_OscConfig(&RCC_OscInitStruct) != HAL_OK)
 125              		.loc 1 299 3 is_stmt 1 view .LVU37
 126              		.loc 1 299 7 is_stmt 0 view .LVU38
 127 0062 07A8     		add	r0, sp, #28
 128 0064 FFF7FEFF 		bl	HAL_RCC_OscConfig
 129              	.LVL1:
 300:Src/main.c    ****   {
 301:Src/main.c    ****     Error_Handler();
 302:Src/main.c    ****   }
 303:Src/main.c    ****   /** Initializes the CPU, AHB and APB busses clocks 
 304:Src/main.c    ****   */
 305:Src/main.c    ****   RCC_ClkInitStruct.ClockType = RCC_CLOCKTYPE_HCLK|RCC_CLOCKTYPE_SYSCLK
 130              		.loc 1 305 3 is_stmt 1 view .LVU39
 131              		.loc 1 305 31 is_stmt 0 view .LVU40
 132 0068 0F23     		movs	r3, #15
 133 006a 0293     		str	r3, [sp, #8]
 306:Src/main.c    ****                               |RCC_CLOCKTYPE_PCLK1|RCC_CLOCKTYPE_PCLK2;
 307:Src/main.c    ****   RCC_ClkInitStruct.SYSCLKSource = RCC_SYSCLKSOURCE_PLLCLK;
 134              		.loc 1 307 3 is_stmt 1 view .LVU41
 135              		.loc 1 307 34 is_stmt 0 view .LVU42
 136 006c 0395     		str	r5, [sp, #12]
 308:Src/main.c    ****   RCC_ClkInitStruct.AHBCLKDivider = RCC_SYSCLK_DIV1;
 137              		.loc 1 308 3 is_stmt 1 view .LVU43
 138              		.loc 1 308 35 is_stmt 0 view .LVU44
 139 006e 0494     		str	r4, [sp, #16]
 309:Src/main.c    ****   RCC_ClkInitStruct.APB1CLKDivider = RCC_HCLK_DIV2;
 140              		.loc 1 309 3 is_stmt 1 view .LVU45
 141              		.loc 1 309 36 is_stmt 0 view .LVU46
 142 0070 4FF48053 		mov	r3, #4096
 143 0074 0593     		str	r3, [sp, #20]
 310:Src/main.c    ****   RCC_ClkInitStruct.APB2CLKDivider = RCC_HCLK_DIV1;
 144              		.loc 1 310 3 is_stmt 1 view .LVU47
 145              		.loc 1 310 36 is_stmt 0 view .LVU48
 146 0076 0694     		str	r4, [sp, #24]
 311:Src/main.c    **** 
ARM GAS  C:\Temp\ccONjyJU.s 			page 9


 312:Src/main.c    ****   if (HAL_RCC_ClockConfig(&RCC_ClkInitStruct, FLASH_LATENCY_3) != HAL_OK)
 147              		.loc 1 312 3 is_stmt 1 view .LVU49
 148              		.loc 1 312 7 is_stmt 0 view .LVU50
 149 0078 0321     		movs	r1, #3
 150 007a 02A8     		add	r0, sp, #8
 151 007c FFF7FEFF 		bl	HAL_RCC_ClockConfig
 152              	.LVL2:
 313:Src/main.c    ****   {
 314:Src/main.c    ****     Error_Handler();
 315:Src/main.c    ****   }
 316:Src/main.c    **** }
 153              		.loc 1 316 1 view .LVU51
 154 0080 15B0     		add	sp, sp, #84
 155              	.LCFI2:
 156              		.cfi_def_cfa_offset 12
 157              		@ sp needed
 158 0082 30BD     		pop	{r4, r5, pc}
 159              	.L4:
 160              		.align	2
 161              	.L3:
 162 0084 00380240 		.word	1073887232
 163 0088 00700040 		.word	1073770496
 164              		.cfi_endproc
 165              	.LFE134:
 167              		.section	.text.main,"ax",%progbits
 168              		.align	1
 169              		.global	main
 170              		.syntax unified
 171              		.thumb
 172              		.thumb_func
 173              		.fpu fpv4-sp-d16
 175              	main:
 176              	.LFB133:
  96:Src/main.c    ****   /* USER CODE BEGIN 1 */
 177              		.loc 1 96 1 is_stmt 1 view -0
 178              		.cfi_startproc
 179              		@ args = 0, pretend = 0, frame = 0
 180              		@ frame_needed = 0, uses_anonymous_args = 0
 181 0000 30B5     		push	{r4, r5, lr}
 182              	.LCFI3:
 183              		.cfi_def_cfa_offset 12
 184              		.cfi_offset 4, -12
 185              		.cfi_offset 5, -8
 186              		.cfi_offset 14, -4
 187 0002 85B0     		sub	sp, sp, #20
 188              	.LCFI4:
 189              		.cfi_def_cfa_offset 32
  99:Src/main.c    ****   static uint8_t maze_y_size = y_size;//y方向の壁の枚数(y方向のマスの数+1)
 190              		.loc 1 99 3 view .LVU53
 100:Src/main.c    ****   static uint8_t goal_size = g_size; //ゴールのマスの数
 191              		.loc 1 100 3 view .LVU54
 101:Src/main.c    ****   static uint8_t maze_goal[18] = goal_cordinate;
 192              		.loc 1 101 3 view .LVU55
 102:Src/main.c    ****   static uint8_t m_wall_tmp[1024];//迷路情報格納用配列
 193              		.loc 1 102 3 view .LVU56
 103:Src/main.c    ****   static uint8_t m_search_tmp[1024];//探索情報格納用配列
 194              		.loc 1 103 3 view .LVU57
ARM GAS  C:\Temp\ccONjyJU.s 			page 10


 104:Src/main.c    ****   static uint8_t run_mode = search_mode;
 195              		.loc 1 104 3 view .LVU58
 105:Src/main.c    **** 
 196              		.loc 1 105 3 view .LVU59
 113:Src/main.c    **** 
 197              		.loc 1 113 3 view .LVU60
 198 0004 FFF7FEFF 		bl	HAL_Init
 199              	.LVL3:
 120:Src/main.c    **** 
 200              		.loc 1 120 3 view .LVU61
 201 0008 FFF7FEFF 		bl	SystemClock_Config
 202              	.LVL4:
 127:Src/main.c    ****   MX_DMA_Init();
 203              		.loc 1 127 3 view .LVU62
 204 000c FFF7FEFF 		bl	MX_GPIO_Init
 205              	.LVL5:
 128:Src/main.c    ****   MX_USART1_UART_Init();
 206              		.loc 1 128 3 view .LVU63
 207 0010 FFF7FEFF 		bl	MX_DMA_Init
 208              	.LVL6:
 129:Src/main.c    ****   MX_TIM4_Init();
 209              		.loc 1 129 3 view .LVU64
 210 0014 FFF7FEFF 		bl	MX_USART1_UART_Init
 211              	.LVL7:
 130:Src/main.c    ****   MX_SPI2_Init();
 212              		.loc 1 130 3 view .LVU65
 213 0018 FFF7FEFF 		bl	MX_TIM4_Init
 214              	.LVL8:
 131:Src/main.c    ****   MX_ADC1_Init();
 215              		.loc 1 131 3 view .LVU66
 216 001c FFF7FEFF 		bl	MX_SPI2_Init
 217              	.LVL9:
 132:Src/main.c    ****   MX_TIM2_Init();
 218              		.loc 1 132 3 view .LVU67
 219 0020 FFF7FEFF 		bl	MX_ADC1_Init
 220              	.LVL10:
 133:Src/main.c    ****   MX_TIM3_Init();
 221              		.loc 1 133 3 view .LVU68
 222 0024 FFF7FEFF 		bl	MX_TIM2_Init
 223              	.LVL11:
 134:Src/main.c    ****   MX_TIM6_Init();
 224              		.loc 1 134 3 view .LVU69
 225 0028 FFF7FEFF 		bl	MX_TIM3_Init
 226              	.LVL12:
 135:Src/main.c    ****   MX_TIM1_Init();
 227              		.loc 1 135 3 view .LVU70
 228 002c FFF7FEFF 		bl	MX_TIM6_Init
 229              	.LVL13:
 136:Src/main.c    ****   /* USER CODE BEGIN 2 */
 230              		.loc 1 136 3 view .LVU71
 231 0030 FFF7FEFF 		bl	MX_TIM1_Init
 232              	.LVL14:
 140:Src/main.c    ****   Communication_Initialize( );	/*printf,scanf用の設定*/
 233              		.loc 1 140 3 view .LVU72
 234 0034 FFF7FEFF 		bl	Motor_Initialize
 235              	.LVL15:
 141:Src/main.c    ****   IMU_Initialize();				/*IMU初期設定*/
ARM GAS  C:\Temp\ccONjyJU.s 			page 11


 236              		.loc 1 141 3 view .LVU73
 237 0038 FFF7FEFF 		bl	Communication_Initialize
 238              	.LVL16:
 142:Src/main.c    ****   Encoder_Initialize();			/*Encoderタイマ設定、位相初期化*/
 239              		.loc 1 142 3 view .LVU74
 240 003c FFF7FEFF 		bl	IMU_Initialize
 241              	.LVL17:
 143:Src/main.c    ****   Interrupt_Initialize( );		/*interrupt処理用タイマ(TIM6)初期化*/
 242              		.loc 1 143 3 view .LVU75
 243 0040 FFF7FEFF 		bl	Encoder_Initialize
 244              	.LVL18:
 144:Src/main.c    ****   //Battery_LimiterVoltage();		/*a バッテリー下限処理*/
 245              		.loc 1 144 3 view .LVU76
 246 0044 FFF7FEFF 		bl	Interrupt_Initialize
 247              	.LVL19:
 248 0048 C1E0     		b	.L25
 249              	.L16:
 162:Src/main.c    **** 	    break;
 250              		.loc 1 162 6 view .LVU77
 251 004a FFF7FEFF 		bl	data_read
 252              	.LVL20:
 163:Src/main.c    **** 
 253              		.loc 1 163 6 view .LVU78
 254              	.L6:
 257:Src/main.c    ****     Sensor_StopADC();
 255              		.loc 1 257 5 view .LVU79
 256 004e FFF7FEFF 		bl	clr_mode_state
 257              	.LVL21:
 258:Src/main.c    **** 
 258              		.loc 1 258 5 view .LVU80
 259 0052 FFF7FEFF 		bl	Sensor_StopADC
 260              	.LVL22:
 260:Src/main.c    **** 	  set_duty_l(0);	//motor_l 停止
 261              		.loc 1 260 4 view .LVU81
 262 0056 0020     		movs	r0, #0
 263 0058 FFF7FEFF 		bl	set_duty_r
 264              	.LVL23:
 261:Src/main.c    **** 
 265              		.loc 1 261 4 view .LVU82
 266 005c 0020     		movs	r0, #0
 267 005e FFF7FEFF 		bl	set_duty_l
 268              	.LVL24:
 263:Src/main.c    **** 	  HAL_GPIO_WritePin(GPIOA,LED2_Pin|LED3_Pin|LED4_Pin|LED5_Pin, GPIO_PIN_SET);
 269              		.loc 1 263 4 view .LVU83
 270              	.LBB4:
 263:Src/main.c    **** 	  HAL_GPIO_WritePin(GPIOA,LED2_Pin|LED3_Pin|LED4_Pin|LED5_Pin, GPIO_PIN_SET);
 271              		.loc 1 263 8 view .LVU84
 263:Src/main.c    **** 	  HAL_GPIO_WritePin(GPIOA,LED2_Pin|LED3_Pin|LED4_Pin|LED5_Pin, GPIO_PIN_SET);
 272              		.loc 1 263 12 is_stmt 0 view .LVU85
 273 0062 0024     		movs	r4, #0
 263:Src/main.c    **** 	  HAL_GPIO_WritePin(GPIOA,LED2_Pin|LED3_Pin|LED4_Pin|LED5_Pin, GPIO_PIN_SET);
 274              		.loc 1 263 4 view .LVU86
 275 0064 B1E0     		b	.L23
 276              	.LVL25:
 277              	.L15:
 263:Src/main.c    **** 	  HAL_GPIO_WritePin(GPIOA,LED2_Pin|LED3_Pin|LED4_Pin|LED5_Pin, GPIO_PIN_SET);
 278              		.loc 1 263 4 view .LVU87
ARM GAS  C:\Temp\ccONjyJU.s 			page 12


 279              	.LBE4:
 166:Src/main.c    **** 	     set_mode_ctrl(trace);
 280              		.loc 1 166 8 is_stmt 1 view .LVU88
 281 0066 FFF7FEFF 		bl	log_init
 282              	.LVL26:
 167:Src/main.c    ****        set_accel_mode(deceleration);
 283              		.loc 1 167 7 view .LVU89
 284 006a 0020     		movs	r0, #0
 285 006c FFF7FEFF 		bl	set_mode_ctrl
 286              	.LVL27:
 168:Src/main.c    ****        set_target_length(0.63);
 287              		.loc 1 168 8 view .LVU90
 288 0070 0120     		movs	r0, #1
 289 0072 FFF7FEFF 		bl	set_accel_mode
 290              	.LVL28:
 169:Src/main.c    ****        HAL_Delay(5000);
 291              		.loc 1 169 8 view .LVU91
 292 0076 9FED6B0A 		vldr.32	s0, .L29
 293 007a FFF7FEFF 		bl	set_target_length
 294              	.LVL29:
 170:Src/main.c    **** 		  break;
 295              		.loc 1 170 8 view .LVU92
 296 007e 41F28830 		movw	r0, #5000
 297 0082 FFF7FEFF 		bl	HAL_Delay
 298              	.LVL30:
 171:Src/main.c    **** 
 299              		.loc 1 171 5 view .LVU93
 300 0086 E2E7     		b	.L6
 301              	.L14:
 174:Src/main.c    ****        set_accel_mode(deceleration);
 302              		.loc 1 174 8 view .LVU94
 303 0088 FFF7FEFF 		bl	log_init
 304              	.LVL31:
 175:Src/main.c    ****       // HAL_Delay(1000);
 305              		.loc 1 175 8 view .LVU95
 306 008c 0120     		movs	r0, #1
 307 008e FFF7FEFF 		bl	set_accel_mode
 308              	.LVL32:
 177:Src/main.c    **** 			  set_duty_r(i);
 309              		.loc 1 177 6 view .LVU96
 310              	.LBB5:
 177:Src/main.c    **** 			  set_duty_r(i);
 311              		.loc 1 177 10 view .LVU97
 177:Src/main.c    **** 			  set_duty_r(i);
 312              		.loc 1 177 14 is_stmt 0 view .LVU98
 313 0092 0024     		movs	r4, #0
 314              	.LVL33:
 315              	.L17:
 177:Src/main.c    **** 			  set_duty_r(i);
 316              		.loc 1 177 19 is_stmt 1 discriminator 1 view .LVU99
 177:Src/main.c    **** 			  set_duty_r(i);
 317              		.loc 1 177 6 is_stmt 0 discriminator 1 view .LVU100
 318 0094 642C     		cmp	r4, #100
 319 0096 0BDC     		bgt	.L27
 178:Src/main.c    **** 			  set_duty_l(-i);
 320              		.loc 1 178 6 is_stmt 1 discriminator 3 view .LVU101
 321 0098 20B2     		sxth	r0, r4
ARM GAS  C:\Temp\ccONjyJU.s 			page 13


 322 009a FFF7FEFF 		bl	set_duty_r
 323              	.LVL34:
 179:Src/main.c    **** 			  HAL_Delay(5);
 324              		.loc 1 179 6 discriminator 3 view .LVU102
 325 009e 6042     		rsbs	r0, r4, #0
 326 00a0 00B2     		sxth	r0, r0
 327 00a2 FFF7FEFF 		bl	set_duty_l
 328              	.LVL35:
 180:Src/main.c    **** 		  }
 329              		.loc 1 180 6 discriminator 3 view .LVU103
 330 00a6 0520     		movs	r0, #5
 331 00a8 FFF7FEFF 		bl	HAL_Delay
 332              	.LVL36:
 177:Src/main.c    **** 			  set_duty_r(i);
 333              		.loc 1 177 27 discriminator 3 view .LVU104
 177:Src/main.c    **** 			  set_duty_r(i);
 334              		.loc 1 177 29 is_stmt 0 discriminator 3 view .LVU105
 335 00ac 0134     		adds	r4, r4, #1
 336              	.LVL37:
 177:Src/main.c    **** 			  set_duty_r(i);
 337              		.loc 1 177 29 discriminator 3 view .LVU106
 338 00ae F1E7     		b	.L17
 339              	.L27:
 177:Src/main.c    **** 			  set_duty_r(i);
 340              		.loc 1 177 29 discriminator 3 view .LVU107
 341              	.LBE5:
 342              	.LBB6:
 182:Src/main.c    **** 			  set_duty_r(i);
 343              		.loc 1 182 13 view .LVU108
 344 00b0 6424     		movs	r4, #100
 345              	.LVL38:
 346              	.L19:
 182:Src/main.c    **** 			  set_duty_r(i);
 347              		.loc 1 182 20 is_stmt 1 discriminator 1 view .LVU109
 182:Src/main.c    **** 			  set_duty_r(i);
 348              		.loc 1 182 5 is_stmt 0 discriminator 1 view .LVU110
 349 00b2 14F1640F 		cmn	r4, #100
 350 00b6 0BDB     		blt	.L28
 183:Src/main.c    **** 			  set_duty_l(-i);
 351              		.loc 1 183 6 is_stmt 1 discriminator 3 view .LVU111
 352 00b8 20B2     		sxth	r0, r4
 353 00ba FFF7FEFF 		bl	set_duty_r
 354              	.LVL39:
 184:Src/main.c    **** 			  HAL_Delay(5);
 355              		.loc 1 184 6 discriminator 3 view .LVU112
 356 00be 6042     		rsbs	r0, r4, #0
 357 00c0 00B2     		sxth	r0, r0
 358 00c2 FFF7FEFF 		bl	set_duty_l
 359              	.LVL40:
 185:Src/main.c    **** 		  }
 360              		.loc 1 185 6 discriminator 3 view .LVU113
 361 00c6 0520     		movs	r0, #5
 362 00c8 FFF7FEFF 		bl	HAL_Delay
 363              	.LVL41:
 182:Src/main.c    **** 			  set_duty_r(i);
 364              		.loc 1 182 29 discriminator 3 view .LVU114
 182:Src/main.c    **** 			  set_duty_r(i);
ARM GAS  C:\Temp\ccONjyJU.s 			page 14


 365              		.loc 1 182 31 is_stmt 0 discriminator 3 view .LVU115
 366 00cc 013C     		subs	r4, r4, #1
 367              	.LVL42:
 182:Src/main.c    **** 			  set_duty_r(i);
 368              		.loc 1 182 31 discriminator 3 view .LVU116
 369 00ce F0E7     		b	.L19
 370              	.L28:
 182:Src/main.c    **** 			  set_duty_r(i);
 371              		.loc 1 182 31 discriminator 3 view .LVU117
 372              	.LBE6:
 373              	.LBB7:
 187:Src/main.c    **** 			  set_duty_r(i);
 374              		.loc 1 187 14 view .LVU118
 375 00d0 6FF06304 		mvn	r4, #99
 376              	.LVL43:
 377              	.L21:
 187:Src/main.c    **** 			  set_duty_r(i);
 378              		.loc 1 187 22 is_stmt 1 discriminator 1 view .LVU119
 187:Src/main.c    **** 			  set_duty_r(i);
 379              		.loc 1 187 6 is_stmt 0 discriminator 1 view .LVU120
 380 00d4 002C     		cmp	r4, #0
 381 00d6 BADA     		bge	.L6
 188:Src/main.c    **** 			  set_duty_l(-i);
 382              		.loc 1 188 6 is_stmt 1 discriminator 3 view .LVU121
 383 00d8 20B2     		sxth	r0, r4
 384 00da FFF7FEFF 		bl	set_duty_r
 385              	.LVL44:
 189:Src/main.c    **** 			  HAL_Delay(5);
 386              		.loc 1 189 6 discriminator 3 view .LVU122
 387 00de 6042     		rsbs	r0, r4, #0
 388 00e0 00B2     		sxth	r0, r0
 389 00e2 FFF7FEFF 		bl	set_duty_l
 390              	.LVL45:
 190:Src/main.c    **** 		  }
 391              		.loc 1 190 6 discriminator 3 view .LVU123
 392 00e6 0520     		movs	r0, #5
 393 00e8 FFF7FEFF 		bl	HAL_Delay
 394              	.LVL46:
 187:Src/main.c    **** 			  set_duty_r(i);
 395              		.loc 1 187 27 discriminator 3 view .LVU124
 187:Src/main.c    **** 			  set_duty_r(i);
 396              		.loc 1 187 29 is_stmt 0 discriminator 3 view .LVU125
 397 00ec 0134     		adds	r4, r4, #1
 398              	.LVL47:
 187:Src/main.c    **** 			  set_duty_r(i);
 399              		.loc 1 187 29 discriminator 3 view .LVU126
 400 00ee F1E7     		b	.L21
 401              	.LVL48:
 402              	.L13:
 187:Src/main.c    **** 			  set_duty_r(i);
 403              		.loc 1 187 29 discriminator 3 view .LVU127
 404              	.LBE7:
 198:Src/main.c    **** 		  break;
 405              		.loc 1 198 7 is_stmt 1 view .LVU128
 406 00f0 FFF7FEFF 		bl	fornt_wall_calibrate
 407              	.LVL49:
 199:Src/main.c    **** 
ARM GAS  C:\Temp\ccONjyJU.s 			page 15


 408              		.loc 1 199 5 view .LVU129
 409 00f4 ABE7     		b	.L6
 410              	.L12:
 202:Src/main.c    ****       turn_clk_90();
 411              		.loc 1 202 7 view .LVU130
 412 00f6 0120     		movs	r0, #1
 413 00f8 FFF7FEFF 		bl	set_accel_mode
 414              	.LVL50:
 203:Src/main.c    ****       HAL_Delay(500);
 415              		.loc 1 203 7 view .LVU131
 416 00fc FFF7FEFF 		bl	turn_clk_90
 417              	.LVL51:
 204:Src/main.c    ****       turn_conclk_90();
 418              		.loc 1 204 7 view .LVU132
 419 0100 4FF4FA70 		mov	r0, #500
 420 0104 FFF7FEFF 		bl	HAL_Delay
 421              	.LVL52:
 205:Src/main.c    ****       HAL_Delay(500);
 422              		.loc 1 205 7 view .LVU133
 423 0108 FFF7FEFF 		bl	turn_conclk_90
 424              	.LVL53:
 206:Src/main.c    **** 		  break;
 425              		.loc 1 206 7 view .LVU134
 426 010c 4FF4FA70 		mov	r0, #500
 427 0110 FFF7FEFF 		bl	HAL_Delay
 428              	.LVL54:
 207:Src/main.c    **** 
 429              		.loc 1 207 5 view .LVU135
 430 0114 9BE7     		b	.L6
 431              	.L11:
 211:Src/main.c    ****       start_acceleration();
 432              		.loc 1 211 7 view .LVU136
 433 0116 0220     		movs	r0, #2
 434 0118 FFF7FEFF 		bl	set_mode_ctrl
 435              	.LVL55:
 212:Src/main.c    ****       half_acceleration();
 436              		.loc 1 212 7 view .LVU137
 437 011c FFF7FEFF 		bl	start_acceleration
 438              	.LVL56:
 213:Src/main.c    ****       constant_speed();
 439              		.loc 1 213 7 view .LVU138
 440 0120 FFF7FEFF 		bl	half_acceleration
 441              	.LVL57:
 214:Src/main.c    ****       constant_speed();
 442              		.loc 1 214 7 view .LVU139
 443 0124 FFF7FEFF 		bl	constant_speed
 444              	.LVL58:
 215:Src/main.c    ****       set_mode_ctrl(trace);
 445              		.loc 1 215 7 view .LVU140
 446 0128 FFF7FEFF 		bl	constant_speed
 447              	.LVL59:
 216:Src/main.c    ****       //slalom_conclock_90();
 448              		.loc 1 216 7 view .LVU141
 449 012c 0020     		movs	r0, #0
 450 012e FFF7FEFF 		bl	set_mode_ctrl
 451              	.LVL60:
 218:Src/main.c    ****       constant_speed();
ARM GAS  C:\Temp\ccONjyJU.s 			page 16


 452              		.loc 1 218 7 view .LVU142
 453 0132 FFF7FEFF 		bl	constant_speed
 454              	.LVL61:
 219:Src/main.c    ****       half_deceleration();
 455              		.loc 1 219 7 view .LVU143
 456 0136 FFF7FEFF 		bl	constant_speed
 457              	.LVL62:
 220:Src/main.c    **** 		  break;
 458              		.loc 1 220 7 view .LVU144
 459 013a FFF7FEFF 		bl	half_deceleration
 460              	.LVL63:
 221:Src/main.c    **** 
 461              		.loc 1 221 5 view .LVU145
 462 013e 86E7     		b	.L6
 463              	.L10:
 225:Src/main.c    ****       start_acceleration();
 464              		.loc 1 225 7 view .LVU146
 465 0140 0220     		movs	r0, #2
 466 0142 FFF7FEFF 		bl	set_mode_ctrl
 467              	.LVL64:
 226:Src/main.c    ****       half_acceleration();
 468              		.loc 1 226 7 view .LVU147
 469 0146 FFF7FEFF 		bl	start_acceleration
 470              	.LVL65:
 227:Src/main.c    ****       constant_speed();
 471              		.loc 1 227 7 view .LVU148
 472 014a FFF7FEFF 		bl	half_acceleration
 473              	.LVL66:
 228:Src/main.c    ****       constant_speed();
 474              		.loc 1 228 7 view .LVU149
 475 014e FFF7FEFF 		bl	constant_speed
 476              	.LVL67:
 229:Src/main.c    ****       set_mode_ctrl(trace);
 477              		.loc 1 229 7 view .LVU150
 478 0152 FFF7FEFF 		bl	constant_speed
 479              	.LVL68:
 230:Src/main.c    ****       slalom_clock_90();
 480              		.loc 1 230 7 view .LVU151
 481 0156 0020     		movs	r0, #0
 482 0158 FFF7FEFF 		bl	set_mode_ctrl
 483              	.LVL69:
 231:Src/main.c    ****       constant_speed();
 484              		.loc 1 231 7 view .LVU152
 485 015c FFF7FEFF 		bl	slalom_clock_90
 486              	.LVL70:
 232:Src/main.c    ****       constant_speed();
 487              		.loc 1 232 7 view .LVU153
 488 0160 FFF7FEFF 		bl	constant_speed
 489              	.LVL71:
 233:Src/main.c    ****       half_deceleration();
 490              		.loc 1 233 7 view .LVU154
 491 0164 FFF7FEFF 		bl	constant_speed
 492              	.LVL72:
 234:Src/main.c    ****       break;
 493              		.loc 1 234 7 view .LVU155
 494 0168 FFF7FEFF 		bl	half_deceleration
 495              	.LVL73:
ARM GAS  C:\Temp\ccONjyJU.s 			page 17


 235:Src/main.c    **** 
 496              		.loc 1 235 7 view .LVU156
 497 016c 6FE7     		b	.L6
 498              	.L9:
 238:Src/main.c    **** 		  break;
 499              		.loc 1 238 7 view .LVU157
 500 016e FFF7FEFF 		bl	module_test
 501              	.LVL74:
 239:Src/main.c    **** 
 502              		.loc 1 239 5 view .LVU158
 503 0172 6CE7     		b	.L6
 504              	.L7:
 249:Src/main.c    **** 
 505              		.loc 1 249 5 view .LVU159
 506 0174 2C4D     		ldr	r5, .L29+4
 507 0176 2D4C     		ldr	r4, .L29+8
 508 0178 2B46     		mov	r3, r5
 509 017a 2246     		mov	r2, r4
 510 017c 0A21     		movs	r1, #10
 511 017e 0846     		mov	r0, r1
 512 0180 FFF7FEFF 		bl	maze_init
 513              	.LVL75:
 252:Src/main.c    **** 		  maze_solve(m_wall_tmp, m_search_tmp, maze_y_size, maze_x_size, maze_goal, goal_size, run_mode);
 514              		.loc 1 252 5 view .LVU160
 253:Src/main.c    **** 
 515              		.loc 1 253 5 view .LVU161
 516 0184 0023     		movs	r3, #0
 517 0186 0293     		str	r3, [sp, #8]
 518 0188 0123     		movs	r3, #1
 519 018a 0193     		str	r3, [sp, #4]
 520 018c 284B     		ldr	r3, .L29+12
 521 018e 0093     		str	r3, [sp]
 522 0190 0A23     		movs	r3, #10
 523 0192 1A46     		mov	r2, r3
 524 0194 2946     		mov	r1, r5
 525 0196 2046     		mov	r0, r4
 526 0198 FFF7FEFF 		bl	maze_solve
 527              	.LVL76:
 255:Src/main.c    **** 	  }
 528              		.loc 1 255 5 view .LVU162
 529 019c 57E7     		b	.L6
 530              	.LVL77:
 531              	.L24:
 532              	.LBB8:
 264:Src/main.c    **** 	  HAL_Delay(700);
 533              		.loc 1 264 4 discriminator 3 view .LVU163
 534 019e 254D     		ldr	r5, .L29+16
 535 01a0 0122     		movs	r2, #1
 536 01a2 4FF46451 		mov	r1, #14592
 537 01a6 2846     		mov	r0, r5
 538 01a8 FFF7FEFF 		bl	HAL_GPIO_WritePin
 539              	.LVL78:
 265:Src/main.c    **** 	  HAL_GPIO_WritePin(GPIOA,LED2_Pin|LED3_Pin|LED4_Pin|LED5_Pin, GPIO_PIN_RESET);
 540              		.loc 1 265 4 discriminator 3 view .LVU164
 541 01ac 4FF42F70 		mov	r0, #700
 542 01b0 FFF7FEFF 		bl	HAL_Delay
 543              	.LVL79:
ARM GAS  C:\Temp\ccONjyJU.s 			page 18


 266:Src/main.c    **** 	  HAL_Delay(300);
 544              		.loc 1 266 4 discriminator 3 view .LVU165
 545 01b4 0022     		movs	r2, #0
 546 01b6 4FF46451 		mov	r1, #14592
 547 01ba 2846     		mov	r0, r5
 548 01bc FFF7FEFF 		bl	HAL_GPIO_WritePin
 549              	.LVL80:
 267:Src/main.c    **** 	  }
 550              		.loc 1 267 4 discriminator 3 view .LVU166
 551 01c0 4FF49670 		mov	r0, #300
 552 01c4 FFF7FEFF 		bl	HAL_Delay
 553              	.LVL81:
 263:Src/main.c    **** 	  HAL_GPIO_WritePin(GPIOA,LED2_Pin|LED3_Pin|LED4_Pin|LED5_Pin, GPIO_PIN_SET);
 554              		.loc 1 263 22 discriminator 3 view .LVU167
 263:Src/main.c    **** 	  HAL_GPIO_WritePin(GPIOA,LED2_Pin|LED3_Pin|LED4_Pin|LED5_Pin, GPIO_PIN_SET);
 555              		.loc 1 263 23 is_stmt 0 discriminator 3 view .LVU168
 556 01c8 0134     		adds	r4, r4, #1
 557              	.LVL82:
 558              	.L23:
 263:Src/main.c    **** 	  HAL_GPIO_WritePin(GPIOA,LED2_Pin|LED3_Pin|LED4_Pin|LED5_Pin, GPIO_PIN_SET);
 559              		.loc 1 263 17 is_stmt 1 discriminator 1 view .LVU169
 263:Src/main.c    **** 	  HAL_GPIO_WritePin(GPIOA,LED2_Pin|LED3_Pin|LED4_Pin|LED5_Pin, GPIO_PIN_SET);
 560              		.loc 1 263 4 is_stmt 0 discriminator 1 view .LVU170
 561 01ca 022C     		cmp	r4, #2
 562 01cc E7DD     		ble	.L24
 563              	.LVL83:
 564              	.L25:
 263:Src/main.c    **** 	  HAL_GPIO_WritePin(GPIOA,LED2_Pin|LED3_Pin|LED4_Pin|LED5_Pin, GPIO_PIN_SET);
 565              		.loc 1 263 4 discriminator 1 view .LVU171
 566              	.LBE8:
 151:Src/main.c    ****   {
 567              		.loc 1 151 3 is_stmt 1 view .LVU172
 156:Src/main.c    **** 
 568              		.loc 1 156 4 view .LVU173
 569 01ce FFF7FEFF 		bl	mode_main
 570              	.LVL84:
 159:Src/main.c    **** 
 571              		.loc 1 159 4 view .LVU174
 159:Src/main.c    **** 
 572              		.loc 1 159 11 is_stmt 0 view .LVU175
 573 01d2 FFF7FEFF 		bl	get_mode_number
 574              	.LVL85:
 575 01d6 0F28     		cmp	r0, #15
 576 01d8 3FF639AF 		bhi	.L6
 577 01dc 01A3     		adr	r3, .L8
 578 01de 53F820F0 		ldr	pc, [r3, r0, lsl #2]
 579 01e2 00BF     		.p2align 2
 580              	.L8:
 581 01e4 4B000000 		.word	.L16+1
 582 01e8 67000000 		.word	.L15+1
 583 01ec 89000000 		.word	.L14+1
 584 01f0 F1000000 		.word	.L13+1
 585 01f4 F7000000 		.word	.L12+1
 586 01f8 17010000 		.word	.L11+1
 587 01fc 41010000 		.word	.L10+1
 588 0200 6F010000 		.word	.L9+1
 589 0204 4F000000 		.word	.L6+1
ARM GAS  C:\Temp\ccONjyJU.s 			page 19


 590 0208 4F000000 		.word	.L6+1
 591 020c 4F000000 		.word	.L6+1
 592 0210 4F000000 		.word	.L6+1
 593 0214 4F000000 		.word	.L6+1
 594 0218 4F000000 		.word	.L6+1
 595 021c 4F000000 		.word	.L6+1
 596 0220 75010000 		.word	.L7+1
 597              		.p2align 1
 598              	.L30:
 599              		.align	2
 600              	.L29:
 601 0224 AE47213F 		.word	1059145646
 602 0228 00000000 		.word	.LANCHOR0
 603 022c 00000000 		.word	.LANCHOR1
 604 0230 00000000 		.word	.LANCHOR2
 605 0234 00000240 		.word	1073872896
 606              		.cfi_endproc
 607              	.LFE133:
 609              		.section	.text.Error_Handler,"ax",%progbits
 610              		.align	1
 611              		.global	Error_Handler
 612              		.syntax unified
 613              		.thumb
 614              		.thumb_func
 615              		.fpu fpv4-sp-d16
 617              	Error_Handler:
 618              	.LFB135:
 317:Src/main.c    **** 
 318:Src/main.c    **** /* USER CODE BEGIN 4 */
 319:Src/main.c    **** 
 320:Src/main.c    **** /* USER CODE END 4 */
 321:Src/main.c    **** 
 322:Src/main.c    **** /**
 323:Src/main.c    ****   * @brief  This function is executed in case of error occurrence.
 324:Src/main.c    ****   * @retval None
 325:Src/main.c    ****   */
 326:Src/main.c    **** void Error_Handler(void)
 327:Src/main.c    **** {
 619              		.loc 1 327 1 is_stmt 1 view -0
 620              		.cfi_startproc
 621              		@ args = 0, pretend = 0, frame = 0
 622              		@ frame_needed = 0, uses_anonymous_args = 0
 623              		@ link register save eliminated.
 328:Src/main.c    ****   /* USER CODE BEGIN Error_Handler_Debug */
 329:Src/main.c    ****   /* User can add his own implementation to report the HAL error return state */
 330:Src/main.c    **** 
 331:Src/main.c    ****   /* USER CODE END Error_Handler_Debug */
 332:Src/main.c    **** }
 624              		.loc 1 332 1 view .LVU177
 625 0000 7047     		bx	lr
 626              		.cfi_endproc
 627              	.LFE135:
 629              		.section	.bss.m_search_tmp.10827,"aw",%nobits
 630              		.align	2
 631              		.set	.LANCHOR0,. + 0
 634              	m_search_tmp.10827:
 635 0000 00000000 		.space	1024
ARM GAS  C:\Temp\ccONjyJU.s 			page 20


 635      00000000 
 635      00000000 
 635      00000000 
 635      00000000 
 636              		.section	.bss.m_wall_tmp.10826,"aw",%nobits
 637              		.align	2
 638              		.set	.LANCHOR1,. + 0
 641              	m_wall_tmp.10826:
 642 0000 00000000 		.space	1024
 642      00000000 
 642      00000000 
 642      00000000 
 642      00000000 
 643              		.section	.data.maze_goal.10825,"aw"
 644              		.align	2
 645              		.set	.LANCHOR2,. + 0
 648              	maze_goal.10825:
 649 0000 01070808 		.ascii	"\001\007\010\010\003\003\004\004\004\011\013\012\013"
 649      03030404 
 649      04090B0A 
 649      0B
 650 000d 02030102 		.ascii	"\002\003\001\002\003"
 650      03
 651              		.text
 652              	.Letext0:
 653              		.file 2 "c:\\tools\\gcc-arm-none-eabi-9-2019-q4-major\\arm-none-eabi\\include\\machine\\_default_t
 654              		.file 3 "c:\\tools\\gcc-arm-none-eabi-9-2019-q4-major\\arm-none-eabi\\include\\sys\\_stdint.h"
 655              		.file 4 "Drivers/CMSIS/Include/core_cm4.h"
 656              		.file 5 "Drivers/CMSIS/Device/ST/STM32F4xx/Include/system_stm32f4xx.h"
 657              		.file 6 "Drivers/CMSIS/Device/ST/STM32F4xx/Include/stm32f413xx.h"
 658              		.file 7 "Drivers/CMSIS/Device/ST/STM32F4xx/Include/stm32f4xx.h"
 659              		.file 8 "Drivers/STM32F4xx_HAL_Driver/Inc/stm32f4xx_hal_def.h"
 660              		.file 9 "Drivers/STM32F4xx_HAL_Driver/Inc/stm32f4xx_hal_rcc_ex.h"
 661              		.file 10 "Drivers/STM32F4xx_HAL_Driver/Inc/stm32f4xx_hal_rcc.h"
 662              		.file 11 "Drivers/STM32F4xx_HAL_Driver/Inc/stm32f4xx_hal_gpio.h"
 663              		.file 12 "Drivers/STM32F4xx_HAL_Driver/Inc/stm32f4xx_hal_dma.h"
 664              		.file 13 "Drivers/STM32F4xx_HAL_Driver/Inc/stm32f4xx_hal_adc.h"
 665              		.file 14 "Drivers/STM32F4xx_HAL_Driver/Inc/stm32f4xx_hal_spi.h"
 666              		.file 15 "Drivers/STM32F4xx_HAL_Driver/Inc/stm32f4xx_hal_tim.h"
 667              		.file 16 "Drivers/STM32F4xx_HAL_Driver/Inc/stm32f4xx_hal_uart.h"
 668              		.file 17 "Inc/adc.h"
 669              		.file 18 "Inc/spi.h"
 670              		.file 19 "Inc/tim.h"
 671              		.file 20 "Inc/usart.h"
 672              		.file 21 "c:\\tools\\gcc-arm-none-eabi-9-2019-q4-major\\arm-none-eabi\\include\\sys\\lock.h"
 673              		.file 22 "c:\\tools\\gcc-arm-none-eabi-9-2019-q4-major\\arm-none-eabi\\include\\sys\\_types.h"
 674              		.file 23 "c:\\tools\\gcc-arm-none-eabi-9-2019-q4-major\\lib\\gcc\\arm-none-eabi\\9.2.1\\include\\s
 675              		.file 24 "c:\\tools\\gcc-arm-none-eabi-9-2019-q4-major\\arm-none-eabi\\include\\sys\\reent.h"
 676              		.file 25 "c:\\tools\\gcc-arm-none-eabi-9-2019-q4-major\\arm-none-eabi\\include\\math.h"
 677              		.file 26 "Inc/target.h"
 678              		.file 27 "Inc/exvol.h"
 679              		.file 28 "c:\\tools\\gcc-arm-none-eabi-9-2019-q4-major\\arm-none-eabi\\include\\stdlib.h"
 680              		.file 29 "Inc/maze_solve.h"
 681              		.file 30 "Inc/motor.h"
 682              		.file 31 "Drivers/STM32F4xx_HAL_Driver/Inc/stm32f4xx_hal.h"
 683              		.file 32 "Inc/gpio.h"
 684              		.file 33 "Inc/dma.h"
ARM GAS  C:\Temp\ccONjyJU.s 			page 21


 685              		.file 34 "Inc/index.h"
 686              		.file 35 "Inc/imu.h"
 687              		.file 36 "Inc/encorder.h"
 688              		.file 37 "Inc/interrupt.h"
 689              		.file 38 "Inc/module_test.h"
 690              		.file 39 "Inc/mode.h"
 691              		.file 40 "Inc/ir_sensor.h"
 692              		.file 41 "Inc/adjust.h"
 693              		.file 42 "Inc/movement.h"
 694              		.file 43 "Inc/maze_init.h"
 695              		.file 44 "<built-in>"
ARM GAS  C:\Temp\ccONjyJU.s 			page 22


DEFINED SYMBOLS
                            *ABS*:00000000 main.c
  C:\Temp\ccONjyJU.s:18     .text.SystemClock_Config:00000000 $t
  C:\Temp\ccONjyJU.s:26     .text.SystemClock_Config:00000000 SystemClock_Config
  C:\Temp\ccONjyJU.s:162    .text.SystemClock_Config:00000084 $d
  C:\Temp\ccONjyJU.s:168    .text.main:00000000 $t
  C:\Temp\ccONjyJU.s:175    .text.main:00000000 main
  C:\Temp\ccONjyJU.s:581    .text.main:000001e4 $d
  C:\Temp\ccONjyJU.s:601    .text.main:00000224 $d
  C:\Temp\ccONjyJU.s:610    .text.Error_Handler:00000000 $t
  C:\Temp\ccONjyJU.s:617    .text.Error_Handler:00000000 Error_Handler
  C:\Temp\ccONjyJU.s:630    .bss.m_search_tmp.10827:00000000 $d
  C:\Temp\ccONjyJU.s:634    .bss.m_search_tmp.10827:00000000 m_search_tmp.10827
  C:\Temp\ccONjyJU.s:637    .bss.m_wall_tmp.10826:00000000 $d
  C:\Temp\ccONjyJU.s:641    .bss.m_wall_tmp.10826:00000000 m_wall_tmp.10826
  C:\Temp\ccONjyJU.s:644    .data.maze_goal.10825:00000000 $d
  C:\Temp\ccONjyJU.s:648    .data.maze_goal.10825:00000000 maze_goal.10825

UNDEFINED SYMBOLS
memset
HAL_RCC_OscConfig
HAL_RCC_ClockConfig
HAL_Init
MX_GPIO_Init
MX_DMA_Init
MX_USART1_UART_Init
MX_TIM4_Init
MX_SPI2_Init
MX_ADC1_Init
MX_TIM2_Init
MX_TIM3_Init
MX_TIM6_Init
MX_TIM1_Init
Motor_Initialize
Communication_Initialize
IMU_Initialize
Encoder_Initialize
Interrupt_Initialize
data_read
clr_mode_state
Sensor_StopADC
set_duty_r
set_duty_l
log_init
set_mode_ctrl
set_accel_mode
set_target_length
HAL_Delay
fornt_wall_calibrate
turn_clk_90
turn_conclk_90
start_acceleration
half_acceleration
constant_speed
half_deceleration
slalom_clock_90
module_test
ARM GAS  C:\Temp\ccONjyJU.s 			page 23


maze_init
maze_solve
HAL_GPIO_WritePin
mode_main
get_mode_number
