ARM GAS  C:\Temp\ccblKoAz.s 			page 1


   1              		.cpu cortex-m4
   2              		.eabi_attribute 27, 1
   3              		.eabi_attribute 28, 1
   4              		.eabi_attribute 20, 1
   5              		.eabi_attribute 21, 1
   6              		.eabi_attribute 23, 3
   7              		.eabi_attribute 24, 1
   8              		.eabi_attribute 25, 1
   9              		.eabi_attribute 26, 1
  10              		.eabi_attribute 30, 1
  11              		.eabi_attribute 34, 1
  12              		.eabi_attribute 18, 4
  13              		.file	"main.c"
  14              		.text
  15              	.Ltext0:
  16              		.cfi_sections	.debug_frame
  17              		.section	.text.SystemClock_Config,"ax",%progbits
  18              		.align	1
  19              		.global	SystemClock_Config
  20              		.arch armv7e-m
  21              		.syntax unified
  22              		.thumb
  23              		.thumb_func
  24              		.fpu fpv4-sp-d16
  26              	SystemClock_Config:
  27              	.LFB134:
  28              		.file 1 "Src/main.c"
   1:Src/main.c    **** /* USER CODE BEGIN Header */
   2:Src/main.c    **** /**
   3:Src/main.c    ****   ******************************************************************************
   4:Src/main.c    ****   * @file           : main.c
   5:Src/main.c    ****   * @brief          : Main program body
   6:Src/main.c    ****   ******************************************************************************
   7:Src/main.c    ****   * @attention
   8:Src/main.c    ****   *
   9:Src/main.c    ****   * <h2><center>&copy; Copyright (c) 2020 STMicroelectronics.
  10:Src/main.c    ****   * All rights reserved.</center></h2>
  11:Src/main.c    ****   *
  12:Src/main.c    ****   * This software component is licensed by ST under BSD 3-Clause license,
  13:Src/main.c    ****   * the "License"; You may not use this file except in compliance with the
  14:Src/main.c    ****   * License. You may obtain a copy of the License at:
  15:Src/main.c    ****   *                        opensource.org/licenses/BSD-3-Clause
  16:Src/main.c    ****   *
  17:Src/main.c    ****   ******************************************************************************
  18:Src/main.c    ****   */
  19:Src/main.c    **** /* USER CODE END Header */
  20:Src/main.c    **** 
  21:Src/main.c    **** /* Includes ------------------------------------------------------------------*/
  22:Src/main.c    **** #include "main.h"
  23:Src/main.c    **** #include "adc.h"
  24:Src/main.c    **** #include "dma.h"
  25:Src/main.c    **** #include "spi.h"
  26:Src/main.c    **** #include "tim.h"
  27:Src/main.c    **** #include "usart.h"
  28:Src/main.c    **** #include "gpio.h"
  29:Src/main.c    **** 
  30:Src/main.c    **** /* Private includes ----------------------------------------------------------*/
ARM GAS  C:\Temp\ccblKoAz.s 			page 2


  31:Src/main.c    **** /* USER CODE BEGIN Includes */
  32:Src/main.c    **** //#include "index.h"
  33:Src/main.c    **** #include "mode.h"
  34:Src/main.c    **** #include "ir_sensor.h"
  35:Src/main.c    **** #include "interrupt.h"
  36:Src/main.c    **** #include "imu.h"
  37:Src/main.c    **** #include "motor.h"
  38:Src/main.c    **** #include "encorder.h"
  39:Src/main.c    **** #include "target.h"
  40:Src/main.c    **** #include "movement.h"
  41:Src/main.c    **** #include "exvol.h"
  42:Src/main.c    **** #include "control.h"
  43:Src/main.c    **** #include "module_test.h"
  44:Src/main.c    **** #include "param.h"
  45:Src/main.c    **** #include "adjust.h"
  46:Src/main.c    **** 
  47:Src/main.c    **** /*from matlab*/
  48:Src/main.c    **** #include "maze_init.h"
  49:Src/main.c    **** #include "maze_solve.h"
  50:Src/main.c    **** #include "matlab_code_gen_data.h"
  51:Src/main.c    **** /* USER CODE END Includes */
  52:Src/main.c    **** 
  53:Src/main.c    **** /* Private typedef -----------------------------------------------------------*/
  54:Src/main.c    **** /* USER CODE BEGIN PTD */
  55:Src/main.c    **** typedef enum {
  56:Src/main.c    **** 	search_mode 	= 0,
  57:Src/main.c    ****  	fust_run_mode 	= 1,
  58:Src/main.c    **** } maze_search_flg;
  59:Src/main.c    **** 
  60:Src/main.c    **** /* USER CODE END PTD */
  61:Src/main.c    **** 
  62:Src/main.c    **** /* Private define ------------------------------------------------------------*/
  63:Src/main.c    **** /* USER CODE BEGIN PD */
  64:Src/main.c    **** 
  65:Src/main.c    **** /* USER CODE END PD */
  66:Src/main.c    **** 
  67:Src/main.c    **** /* Private macro -------------------------------------------------------------*/
  68:Src/main.c    **** /* USER CODE BEGIN PM */
  69:Src/main.c    **** 
  70:Src/main.c    **** /* USER CODE END PM */
  71:Src/main.c    **** 
  72:Src/main.c    **** /* Private variables ---------------------------------------------------------*/
  73:Src/main.c    **** 
  74:Src/main.c    **** /* USER CODE BEGIN PV */
  75:Src/main.c    **** /*迷路パラメータ設定*/
  76:Src/main.c    **** uint8_t maze_x_size = 8;//x方向の壁の枚数(x方向のマスの数+1)
  77:Src/main.c    **** uint8_t maze_y_size = 17;//y方向の壁の枚数(y方向のマスの数+1)
  78:Src/main.c    **** uint8_t goal_size = 4; //m ゴールのマスの数
  79:Src/main.c    **** uint8_t maze_goal[18] = {2, 2, 3, 3, 0, 0, 0, 0, 0,    	 //mゴールのx座標
  80:Src/main.c    **** 		  	  	  	  	 1, 2, 1, 2, 0, 0, 0, 0, 0};	 //mゴールのy座標
  81:Src/main.c    **** uint8_t m_wall_tmp[1024];//迷路情報格納用配列
  82:Src/main.c    **** uint8_t m_search_tmp[1024];//探索情報格納用配列
  83:Src/main.c    **** 
  84:Src/main.c    **** uint8_t run_mode = search_mode;
  85:Src/main.c    **** 
  86:Src/main.c    **** /* USER CODE END PV */
  87:Src/main.c    **** 
ARM GAS  C:\Temp\ccblKoAz.s 			page 3


  88:Src/main.c    **** /* Private function prototypes -----------------------------------------------*/
  89:Src/main.c    **** void SystemClock_Config(void);
  90:Src/main.c    **** /* USER CODE BEGIN PFP */
  91:Src/main.c    **** 
  92:Src/main.c    **** /* USER CODE END PFP */
  93:Src/main.c    **** 
  94:Src/main.c    **** /* Private user code ---------------------------------------------------------*/
  95:Src/main.c    **** /* USER CODE BEGIN 0 */
  96:Src/main.c    **** 
  97:Src/main.c    **** 
  98:Src/main.c    **** /* USER CODE END 0 */
  99:Src/main.c    **** 
 100:Src/main.c    **** /**
 101:Src/main.c    ****   * @brief  The application entry point.
 102:Src/main.c    ****   * @retval int
 103:Src/main.c    ****   */
 104:Src/main.c    **** int main(void)
 105:Src/main.c    **** {
 106:Src/main.c    ****   /* USER CODE BEGIN 1 */
 107:Src/main.c    **** 
 108:Src/main.c    ****   /* USER CODE END 1 */
 109:Src/main.c    ****   
 110:Src/main.c    **** 
 111:Src/main.c    ****   /* MCU Configuration--------------------------------------------------------*/
 112:Src/main.c    **** 
 113:Src/main.c    ****   /* Reset of all peripherals, Initializes the Flash interface and the Systick. */
 114:Src/main.c    ****   HAL_Init();
 115:Src/main.c    **** 
 116:Src/main.c    ****   /* USER CODE BEGIN Init */
 117:Src/main.c    **** 
 118:Src/main.c    ****   /* USER CODE END Init */
 119:Src/main.c    **** 
 120:Src/main.c    ****   /* Configure the system clock */
 121:Src/main.c    ****   SystemClock_Config();
 122:Src/main.c    **** 
 123:Src/main.c    ****   /* USER CODE BEGIN SysInit */
 124:Src/main.c    **** 
 125:Src/main.c    ****   /* USER CODE END SysInit */
 126:Src/main.c    **** 
 127:Src/main.c    ****   /* Initialize all configured peripherals */
 128:Src/main.c    ****   MX_GPIO_Init();
 129:Src/main.c    ****   MX_DMA_Init();
 130:Src/main.c    ****   MX_USART1_UART_Init();
 131:Src/main.c    ****   MX_TIM4_Init();
 132:Src/main.c    ****   MX_SPI2_Init();
 133:Src/main.c    ****   MX_ADC1_Init();
 134:Src/main.c    ****   MX_TIM2_Init();
 135:Src/main.c    ****   MX_TIM3_Init();
 136:Src/main.c    ****   MX_TIM6_Init();
 137:Src/main.c    ****   MX_TIM1_Init();
 138:Src/main.c    ****   /* USER CODE BEGIN 2 */
 139:Src/main.c    **** 
 140:Src/main.c    ****   /* m 各関数初期化　*/
 141:Src/main.c    ****   Motor_Initialize(); 			/*モータ用タイマ設定*/
 142:Src/main.c    ****   Communication_Initialize( );	/*printf,scanf用の設定*/
 143:Src/main.c    ****   IMU_Initialize();				/*IMU初期設定*/
 144:Src/main.c    ****   Encoder_Initialize();			/*Encoderタイマ設定、位相初期化*/
ARM GAS  C:\Temp\ccblKoAz.s 			page 4


 145:Src/main.c    ****   Interrupt_Initialize( );		/*interrupt処理用タイマ(TIM6)初期化*/
 146:Src/main.c    ****   //Battery_LimiterVoltage();		/*a バッテリー下限処理*/
 147:Src/main.c    **** 
 148:Src/main.c    ****   /* USER CODE END 2 */
 149:Src/main.c    **** 
 150:Src/main.c    ****   /* Infinite loop */
 151:Src/main.c    ****   /* USER CODE BEGIN WHILE */
 152:Src/main.c    ****   while (1)
 153:Src/main.c    ****   {
 154:Src/main.c    ****     /* USER CODE END WHILE */
 155:Src/main.c    **** 
 156:Src/main.c    ****     /* USER CODE BEGIN 3 */
 157:Src/main.c    **** 	  mode_main();//モードの選定、開始処理
 158:Src/main.c    **** 	
 159:Src/main.c    **** 	/*ここからモードごとの処理に移行*/
 160:Src/main.c    **** 	  switch(get_mode_number()){
 161:Src/main.c    **** 
 162:Src/main.c    **** 	    case 0://データ吐き出し用
 163:Src/main.c    ****   	  data_read();
 164:Src/main.c    **** 	    break;
 165:Src/main.c    **** 
 166:Src/main.c    **** 	  case 1:
 167:Src/main.c    ****        log_init();
 168:Src/main.c    **** 	     set_mode_ctrl(trace);
 169:Src/main.c    ****        set_accel_mode(deceleration);
 170:Src/main.c    ****        set_target_length(0.09);
 171:Src/main.c    ****        HAL_Delay(3000);
 172:Src/main.c    **** 		  break;
 173:Src/main.c    **** 
 174:Src/main.c    **** 	  case 2:
 175:Src/main.c    ****       set_mode_ctrl(trace);
 176:Src/main.c    ****     	set_rotation_mode(counter_clockwise);
 177:Src/main.c    ****       set_accel_mode(deceleration);
 178:Src/main.c    ****       set_target_angle(PI/2);
 179:Src/main.c    ****       HAL_Delay(3000);
 180:Src/main.c    **** 		  break;
 181:Src/main.c    **** 
 182:Src/main.c    **** 	  case 3:
 183:Src/main.c    ****       fornt_wall_calibrate();
 184:Src/main.c    **** 		  break;
 185:Src/main.c    **** 
 186:Src/main.c    **** 	  case 4:
 187:Src/main.c    ****       
 188:Src/main.c    **** 		  break;
 189:Src/main.c    **** 
 190:Src/main.c    **** 	  case 5:
 191:Src/main.c    **** 		  break;
 192:Src/main.c    **** 
 193:Src/main.c    **** 	  case 6:
 194:Src/main.c    **** 		  break;
 195:Src/main.c    **** 
 196:Src/main.c    **** 	  case 7:
 197:Src/main.c    ****       module_test();
 198:Src/main.c    **** 		  break;
 199:Src/main.c    **** 
 200:Src/main.c    **** 	  /*最短走行*/
 201:Src/main.c    **** 	  case 14:
ARM GAS  C:\Temp\ccblKoAz.s 			page 5


 202:Src/main.c    **** 
 203:Src/main.c    **** 		  break;
 204:Src/main.c    **** 
 205:Src/main.c    **** 	  /*迷路探索*/
 206:Src/main.c    **** 	  case 15:
 207:Src/main.c    **** 		  /*m迷路データの初期化*/
 208:Src/main.c    **** 		  maze_init(maze_y_size, maze_x_size, m_wall_tmp, m_search_tmp);
 209:Src/main.c    **** 
 210:Src/main.c    **** 		  /*探索モードで走行*/
 211:Src/main.c    **** 		  run_mode = search_mode;
 212:Src/main.c    **** 		  maze_solve(m_wall_tmp, m_search_tmp, maze_y_size, maze_x_size, maze_goal, goal_size, run_mode);
 213:Src/main.c    **** 
 214:Src/main.c    **** 		  break;
 215:Src/main.c    **** 	  }
 216:Src/main.c    ****     clr_mode_state();
 217:Src/main.c    ****     Sensor_StopADC();
 218:Src/main.c    **** 
 219:Src/main.c    **** 	  set_duty_r(0);	//motor_r 停止
 220:Src/main.c    **** 	  set_duty_l(0);	//motor_l 停止
 221:Src/main.c    **** 
 222:Src/main.c    **** 	  for(int i=0; i<3; i++){ //m モード処理終了時、LEDを3回点灯
 223:Src/main.c    **** 	  HAL_GPIO_WritePin(GPIOA,LED2_Pin|LED3_Pin|LED4_Pin|LED5_Pin, GPIO_PIN_SET);
 224:Src/main.c    **** 	  HAL_Delay(700);
 225:Src/main.c    **** 	  HAL_GPIO_WritePin(GPIOA,LED2_Pin|LED3_Pin|LED4_Pin|LED5_Pin, GPIO_PIN_RESET);
 226:Src/main.c    **** 	  HAL_Delay(300);
 227:Src/main.c    **** 	  }
 228:Src/main.c    **** 
 229:Src/main.c    ****   }
 230:Src/main.c    ****   /* USER CODE END 3 */
 231:Src/main.c    **** }
 232:Src/main.c    **** 
 233:Src/main.c    **** /**
 234:Src/main.c    ****   * @brief System Clock Configuration
 235:Src/main.c    ****   * @retval None
 236:Src/main.c    ****   */
 237:Src/main.c    **** void SystemClock_Config(void)
 238:Src/main.c    **** {
  29              		.loc 1 238 1 view -0
  30              		.cfi_startproc
  31              		@ args = 0, pretend = 0, frame = 80
  32              		@ frame_needed = 0, uses_anonymous_args = 0
  33 0000 30B5     		push	{r4, r5, lr}
  34              	.LCFI0:
  35              		.cfi_def_cfa_offset 12
  36              		.cfi_offset 4, -12
  37              		.cfi_offset 5, -8
  38              		.cfi_offset 14, -4
  39 0002 95B0     		sub	sp, sp, #84
  40              	.LCFI1:
  41              		.cfi_def_cfa_offset 96
 239:Src/main.c    ****   RCC_OscInitTypeDef RCC_OscInitStruct = {0};
  42              		.loc 1 239 3 view .LVU1
  43              		.loc 1 239 22 is_stmt 0 view .LVU2
  44 0004 3422     		movs	r2, #52
  45 0006 0021     		movs	r1, #0
  46 0008 07A8     		add	r0, sp, #28
  47 000a FFF7FEFF 		bl	memset
ARM GAS  C:\Temp\ccblKoAz.s 			page 6


  48              	.LVL0:
 240:Src/main.c    ****   RCC_ClkInitTypeDef RCC_ClkInitStruct = {0};
  49              		.loc 1 240 3 is_stmt 1 view .LVU3
  50              		.loc 1 240 22 is_stmt 0 view .LVU4
  51 000e 0024     		movs	r4, #0
  52 0010 0294     		str	r4, [sp, #8]
  53 0012 0394     		str	r4, [sp, #12]
  54 0014 0494     		str	r4, [sp, #16]
  55 0016 0594     		str	r4, [sp, #20]
  56 0018 0694     		str	r4, [sp, #24]
 241:Src/main.c    **** 
 242:Src/main.c    ****   /** Configure the main internal regulator output voltage 
 243:Src/main.c    ****   */
 244:Src/main.c    ****   __HAL_RCC_PWR_CLK_ENABLE();
  57              		.loc 1 244 3 is_stmt 1 view .LVU5
  58              	.LBB2:
  59              		.loc 1 244 3 view .LVU6
  60 001a 0094     		str	r4, [sp]
  61              		.loc 1 244 3 view .LVU7
  62 001c 194B     		ldr	r3, .L3
  63 001e 1A6C     		ldr	r2, [r3, #64]
  64 0020 42F08052 		orr	r2, r2, #268435456
  65 0024 1A64     		str	r2, [r3, #64]
  66              		.loc 1 244 3 view .LVU8
  67 0026 1B6C     		ldr	r3, [r3, #64]
  68 0028 03F08053 		and	r3, r3, #268435456
  69 002c 0093     		str	r3, [sp]
  70              		.loc 1 244 3 view .LVU9
  71 002e 009B     		ldr	r3, [sp]
  72              	.LBE2:
  73              		.loc 1 244 3 view .LVU10
 245:Src/main.c    ****   __HAL_PWR_VOLTAGESCALING_CONFIG(PWR_REGULATOR_VOLTAGE_SCALE1);
  74              		.loc 1 245 3 view .LVU11
  75              	.LBB3:
  76              		.loc 1 245 3 view .LVU12
  77 0030 0194     		str	r4, [sp, #4]
  78              		.loc 1 245 3 view .LVU13
  79 0032 154B     		ldr	r3, .L3+4
  80 0034 1A68     		ldr	r2, [r3]
  81 0036 42F44042 		orr	r2, r2, #49152
  82 003a 1A60     		str	r2, [r3]
  83              		.loc 1 245 3 view .LVU14
  84 003c 1B68     		ldr	r3, [r3]
  85 003e 03F44043 		and	r3, r3, #49152
  86 0042 0193     		str	r3, [sp, #4]
  87              		.loc 1 245 3 view .LVU15
  88 0044 019B     		ldr	r3, [sp, #4]
  89              	.LBE3:
  90              		.loc 1 245 3 view .LVU16
 246:Src/main.c    ****   /** Initializes the CPU, AHB and APB busses clocks 
 247:Src/main.c    ****   */
 248:Src/main.c    ****   RCC_OscInitStruct.OscillatorType = RCC_OSCILLATORTYPE_HSI;
  91              		.loc 1 248 3 view .LVU17
  92              		.loc 1 248 36 is_stmt 0 view .LVU18
  93 0046 0225     		movs	r5, #2
  94 0048 0795     		str	r5, [sp, #28]
 249:Src/main.c    ****   RCC_OscInitStruct.HSIState = RCC_HSI_ON;
ARM GAS  C:\Temp\ccblKoAz.s 			page 7


  95              		.loc 1 249 3 is_stmt 1 view .LVU19
  96              		.loc 1 249 30 is_stmt 0 view .LVU20
  97 004a 0123     		movs	r3, #1
  98 004c 0A93     		str	r3, [sp, #40]
 250:Src/main.c    ****   RCC_OscInitStruct.HSICalibrationValue = RCC_HSICALIBRATION_DEFAULT;
  99              		.loc 1 250 3 is_stmt 1 view .LVU21
 100              		.loc 1 250 41 is_stmt 0 view .LVU22
 101 004e 1023     		movs	r3, #16
 102 0050 0B93     		str	r3, [sp, #44]
 251:Src/main.c    ****   RCC_OscInitStruct.PLL.PLLState = RCC_PLL_ON;
 103              		.loc 1 251 3 is_stmt 1 view .LVU23
 104              		.loc 1 251 34 is_stmt 0 view .LVU24
 105 0052 0D95     		str	r5, [sp, #52]
 252:Src/main.c    ****   RCC_OscInitStruct.PLL.PLLSource = RCC_PLLSOURCE_HSI;
 106              		.loc 1 252 3 is_stmt 1 view .LVU25
 107              		.loc 1 252 35 is_stmt 0 view .LVU26
 108 0054 0E94     		str	r4, [sp, #56]
 253:Src/main.c    ****   RCC_OscInitStruct.PLL.PLLM = 16;
 109              		.loc 1 253 3 is_stmt 1 view .LVU27
 110              		.loc 1 253 30 is_stmt 0 view .LVU28
 111 0056 0F93     		str	r3, [sp, #60]
 254:Src/main.c    ****   RCC_OscInitStruct.PLL.PLLN = 192;
 112              		.loc 1 254 3 is_stmt 1 view .LVU29
 113              		.loc 1 254 30 is_stmt 0 view .LVU30
 114 0058 C023     		movs	r3, #192
 115 005a 1093     		str	r3, [sp, #64]
 255:Src/main.c    ****   RCC_OscInitStruct.PLL.PLLP = RCC_PLLP_DIV2;
 116              		.loc 1 255 3 is_stmt 1 view .LVU31
 117              		.loc 1 255 30 is_stmt 0 view .LVU32
 118 005c 1195     		str	r5, [sp, #68]
 256:Src/main.c    ****   RCC_OscInitStruct.PLL.PLLQ = 2;
 119              		.loc 1 256 3 is_stmt 1 view .LVU33
 120              		.loc 1 256 30 is_stmt 0 view .LVU34
 121 005e 1295     		str	r5, [sp, #72]
 257:Src/main.c    ****   RCC_OscInitStruct.PLL.PLLR = 2;
 122              		.loc 1 257 3 is_stmt 1 view .LVU35
 123              		.loc 1 257 30 is_stmt 0 view .LVU36
 124 0060 1395     		str	r5, [sp, #76]
 258:Src/main.c    ****   if (HAL_RCC_OscConfig(&RCC_OscInitStruct) != HAL_OK)
 125              		.loc 1 258 3 is_stmt 1 view .LVU37
 126              		.loc 1 258 7 is_stmt 0 view .LVU38
 127 0062 07A8     		add	r0, sp, #28
 128 0064 FFF7FEFF 		bl	HAL_RCC_OscConfig
 129              	.LVL1:
 259:Src/main.c    ****   {
 260:Src/main.c    ****     Error_Handler();
 261:Src/main.c    ****   }
 262:Src/main.c    ****   /** Initializes the CPU, AHB and APB busses clocks 
 263:Src/main.c    ****   */
 264:Src/main.c    ****   RCC_ClkInitStruct.ClockType = RCC_CLOCKTYPE_HCLK|RCC_CLOCKTYPE_SYSCLK
 130              		.loc 1 264 3 is_stmt 1 view .LVU39
 131              		.loc 1 264 31 is_stmt 0 view .LVU40
 132 0068 0F23     		movs	r3, #15
 133 006a 0293     		str	r3, [sp, #8]
 265:Src/main.c    ****                               |RCC_CLOCKTYPE_PCLK1|RCC_CLOCKTYPE_PCLK2;
 266:Src/main.c    ****   RCC_ClkInitStruct.SYSCLKSource = RCC_SYSCLKSOURCE_PLLCLK;
 134              		.loc 1 266 3 is_stmt 1 view .LVU41
ARM GAS  C:\Temp\ccblKoAz.s 			page 8


 135              		.loc 1 266 34 is_stmt 0 view .LVU42
 136 006c 0395     		str	r5, [sp, #12]
 267:Src/main.c    ****   RCC_ClkInitStruct.AHBCLKDivider = RCC_SYSCLK_DIV1;
 137              		.loc 1 267 3 is_stmt 1 view .LVU43
 138              		.loc 1 267 35 is_stmt 0 view .LVU44
 139 006e 0494     		str	r4, [sp, #16]
 268:Src/main.c    ****   RCC_ClkInitStruct.APB1CLKDivider = RCC_HCLK_DIV2;
 140              		.loc 1 268 3 is_stmt 1 view .LVU45
 141              		.loc 1 268 36 is_stmt 0 view .LVU46
 142 0070 4FF48053 		mov	r3, #4096
 143 0074 0593     		str	r3, [sp, #20]
 269:Src/main.c    ****   RCC_ClkInitStruct.APB2CLKDivider = RCC_HCLK_DIV1;
 144              		.loc 1 269 3 is_stmt 1 view .LVU47
 145              		.loc 1 269 36 is_stmt 0 view .LVU48
 146 0076 0694     		str	r4, [sp, #24]
 270:Src/main.c    **** 
 271:Src/main.c    ****   if (HAL_RCC_ClockConfig(&RCC_ClkInitStruct, FLASH_LATENCY_3) != HAL_OK)
 147              		.loc 1 271 3 is_stmt 1 view .LVU49
 148              		.loc 1 271 7 is_stmt 0 view .LVU50
 149 0078 0321     		movs	r1, #3
 150 007a 02A8     		add	r0, sp, #8
 151 007c FFF7FEFF 		bl	HAL_RCC_ClockConfig
 152              	.LVL2:
 272:Src/main.c    ****   {
 273:Src/main.c    ****     Error_Handler();
 274:Src/main.c    ****   }
 275:Src/main.c    **** }
 153              		.loc 1 275 1 view .LVU51
 154 0080 15B0     		add	sp, sp, #84
 155              	.LCFI2:
 156              		.cfi_def_cfa_offset 12
 157              		@ sp needed
 158 0082 30BD     		pop	{r4, r5, pc}
 159              	.L4:
 160              		.align	2
 161              	.L3:
 162 0084 00380240 		.word	1073887232
 163 0088 00700040 		.word	1073770496
 164              		.cfi_endproc
 165              	.LFE134:
 167              		.section	.text.main,"ax",%progbits
 168              		.align	1
 169              		.global	main
 170              		.syntax unified
 171              		.thumb
 172              		.thumb_func
 173              		.fpu fpv4-sp-d16
 175              	main:
 176              	.LFB133:
 105:Src/main.c    ****   /* USER CODE BEGIN 1 */
 177              		.loc 1 105 1 is_stmt 1 view -0
 178              		.cfi_startproc
 179              		@ args = 0, pretend = 0, frame = 0
 180              		@ frame_needed = 0, uses_anonymous_args = 0
 181 0000 F0B5     		push	{r4, r5, r6, r7, lr}
 182              	.LCFI3:
 183              		.cfi_def_cfa_offset 20
ARM GAS  C:\Temp\ccblKoAz.s 			page 9


 184              		.cfi_offset 4, -20
 185              		.cfi_offset 5, -16
 186              		.cfi_offset 6, -12
 187              		.cfi_offset 7, -8
 188              		.cfi_offset 14, -4
 189 0002 85B0     		sub	sp, sp, #20
 190              	.LCFI4:
 191              		.cfi_def_cfa_offset 40
 114:Src/main.c    **** 
 192              		.loc 1 114 3 view .LVU53
 193 0004 FFF7FEFF 		bl	HAL_Init
 194              	.LVL3:
 121:Src/main.c    **** 
 195              		.loc 1 121 3 view .LVU54
 196 0008 FFF7FEFF 		bl	SystemClock_Config
 197              	.LVL4:
 128:Src/main.c    ****   MX_DMA_Init();
 198              		.loc 1 128 3 view .LVU55
 199 000c FFF7FEFF 		bl	MX_GPIO_Init
 200              	.LVL5:
 129:Src/main.c    ****   MX_USART1_UART_Init();
 201              		.loc 1 129 3 view .LVU56
 202 0010 FFF7FEFF 		bl	MX_DMA_Init
 203              	.LVL6:
 130:Src/main.c    ****   MX_TIM4_Init();
 204              		.loc 1 130 3 view .LVU57
 205 0014 FFF7FEFF 		bl	MX_USART1_UART_Init
 206              	.LVL7:
 131:Src/main.c    ****   MX_SPI2_Init();
 207              		.loc 1 131 3 view .LVU58
 208 0018 FFF7FEFF 		bl	MX_TIM4_Init
 209              	.LVL8:
 132:Src/main.c    ****   MX_ADC1_Init();
 210              		.loc 1 132 3 view .LVU59
 211 001c FFF7FEFF 		bl	MX_SPI2_Init
 212              	.LVL9:
 133:Src/main.c    ****   MX_TIM2_Init();
 213              		.loc 1 133 3 view .LVU60
 214 0020 FFF7FEFF 		bl	MX_ADC1_Init
 215              	.LVL10:
 134:Src/main.c    ****   MX_TIM3_Init();
 216              		.loc 1 134 3 view .LVU61
 217 0024 FFF7FEFF 		bl	MX_TIM2_Init
 218              	.LVL11:
 135:Src/main.c    ****   MX_TIM6_Init();
 219              		.loc 1 135 3 view .LVU62
 220 0028 FFF7FEFF 		bl	MX_TIM3_Init
 221              	.LVL12:
 136:Src/main.c    ****   MX_TIM1_Init();
 222              		.loc 1 136 3 view .LVU63
 223 002c FFF7FEFF 		bl	MX_TIM6_Init
 224              	.LVL13:
 137:Src/main.c    ****   /* USER CODE BEGIN 2 */
 225              		.loc 1 137 3 view .LVU64
 226 0030 FFF7FEFF 		bl	MX_TIM1_Init
 227              	.LVL14:
 141:Src/main.c    ****   Communication_Initialize( );	/*printf,scanf用の設定*/
ARM GAS  C:\Temp\ccblKoAz.s 			page 10


 228              		.loc 1 141 3 view .LVU65
 229 0034 FFF7FEFF 		bl	Motor_Initialize
 230              	.LVL15:
 142:Src/main.c    ****   IMU_Initialize();				/*IMU初期設定*/
 231              		.loc 1 142 3 view .LVU66
 232 0038 FFF7FEFF 		bl	Communication_Initialize
 233              	.LVL16:
 143:Src/main.c    ****   Encoder_Initialize();			/*Encoderタイマ設定、位相初期化*/
 234              		.loc 1 143 3 view .LVU67
 235 003c FFF7FEFF 		bl	IMU_Initialize
 236              	.LVL17:
 144:Src/main.c    ****   Interrupt_Initialize( );		/*interrupt処理用タイマ(TIM6)初期化*/
 237              		.loc 1 144 3 view .LVU68
 238 0040 FFF7FEFF 		bl	Encoder_Initialize
 239              	.LVL18:
 145:Src/main.c    ****   //Battery_LimiterVoltage();		/*a バッテリー下限処理*/
 240              		.loc 1 145 3 view .LVU69
 241 0044 FFF7FEFF 		bl	Interrupt_Initialize
 242              	.LVL19:
 243 0048 68E0     		b	.L16
 244              	.L13:
 163:Src/main.c    **** 	    break;
 245              		.loc 1 163 6 view .LVU70
 246 004a FFF7FEFF 		bl	data_read
 247              	.LVL20:
 164:Src/main.c    **** 
 248              		.loc 1 164 6 view .LVU71
 249              	.L6:
 216:Src/main.c    ****     Sensor_StopADC();
 250              		.loc 1 216 5 view .LVU72
 251 004e FFF7FEFF 		bl	clr_mode_state
 252              	.LVL21:
 217:Src/main.c    **** 
 253              		.loc 1 217 5 view .LVU73
 254 0052 FFF7FEFF 		bl	Sensor_StopADC
 255              	.LVL22:
 219:Src/main.c    **** 	  set_duty_l(0);	//motor_l 停止
 256              		.loc 1 219 4 view .LVU74
 257 0056 0020     		movs	r0, #0
 258 0058 FFF7FEFF 		bl	set_duty_r
 259              	.LVL23:
 220:Src/main.c    **** 
 260              		.loc 1 220 4 view .LVU75
 261 005c 0020     		movs	r0, #0
 262 005e FFF7FEFF 		bl	set_duty_l
 263              	.LVL24:
 222:Src/main.c    **** 	  HAL_GPIO_WritePin(GPIOA,LED2_Pin|LED3_Pin|LED4_Pin|LED5_Pin, GPIO_PIN_SET);
 264              		.loc 1 222 4 view .LVU76
 265              	.LBB4:
 222:Src/main.c    **** 	  HAL_GPIO_WritePin(GPIOA,LED2_Pin|LED3_Pin|LED4_Pin|LED5_Pin, GPIO_PIN_SET);
 266              		.loc 1 222 8 view .LVU77
 222:Src/main.c    **** 	  HAL_GPIO_WritePin(GPIOA,LED2_Pin|LED3_Pin|LED4_Pin|LED5_Pin, GPIO_PIN_SET);
 267              		.loc 1 222 12 is_stmt 0 view .LVU78
 268 0062 0024     		movs	r4, #0
 222:Src/main.c    **** 	  HAL_GPIO_WritePin(GPIOA,LED2_Pin|LED3_Pin|LED4_Pin|LED5_Pin, GPIO_PIN_SET);
 269              		.loc 1 222 4 view .LVU79
 270 0064 58E0     		b	.L14
ARM GAS  C:\Temp\ccblKoAz.s 			page 11


 271              	.LVL25:
 272              	.L12:
 222:Src/main.c    **** 	  HAL_GPIO_WritePin(GPIOA,LED2_Pin|LED3_Pin|LED4_Pin|LED5_Pin, GPIO_PIN_SET);
 273              		.loc 1 222 4 view .LVU80
 274              	.LBE4:
 167:Src/main.c    **** 	     set_mode_ctrl(trace);
 275              		.loc 1 167 8 is_stmt 1 view .LVU81
 276 0066 FFF7FEFF 		bl	log_init
 277              	.LVL26:
 168:Src/main.c    ****        set_accel_mode(deceleration);
 278              		.loc 1 168 7 view .LVU82
 279 006a 0020     		movs	r0, #0
 280 006c FFF7FEFF 		bl	set_mode_ctrl
 281              	.LVL27:
 169:Src/main.c    ****        set_target_length(0.09);
 282              		.loc 1 169 8 view .LVU83
 283 0070 0120     		movs	r0, #1
 284 0072 FFF7FEFF 		bl	set_accel_mode
 285              	.LVL28:
 170:Src/main.c    ****        HAL_Delay(3000);
 286              		.loc 1 170 8 view .LVU84
 287 0076 9FED3E0A 		vldr.32	s0, .L18
 288 007a FFF7FEFF 		bl	set_target_length
 289              	.LVL29:
 171:Src/main.c    **** 		  break;
 290              		.loc 1 171 8 view .LVU85
 291 007e 40F6B830 		movw	r0, #3000
 292 0082 FFF7FEFF 		bl	HAL_Delay
 293              	.LVL30:
 172:Src/main.c    **** 
 294              		.loc 1 172 5 view .LVU86
 295 0086 E2E7     		b	.L6
 296              	.L11:
 175:Src/main.c    ****     	set_rotation_mode(counter_clockwise);
 297              		.loc 1 175 7 view .LVU87
 298 0088 0020     		movs	r0, #0
 299 008a FFF7FEFF 		bl	set_mode_ctrl
 300              	.LVL31:
 176:Src/main.c    ****       set_accel_mode(deceleration);
 301              		.loc 1 176 6 view .LVU88
 302 008e 0020     		movs	r0, #0
 303 0090 FFF7FEFF 		bl	set_rotation_mode
 304              	.LVL32:
 177:Src/main.c    ****       set_target_angle(PI/2);
 305              		.loc 1 177 7 view .LVU89
 306 0094 0120     		movs	r0, #1
 307 0096 FFF7FEFF 		bl	set_accel_mode
 308              	.LVL33:
 178:Src/main.c    ****       HAL_Delay(3000);
 309              		.loc 1 178 7 view .LVU90
 310 009a 9FED360A 		vldr.32	s0, .L18+4
 311 009e FFF7FEFF 		bl	set_target_angle
 312              	.LVL34:
 179:Src/main.c    **** 		  break;
 313              		.loc 1 179 7 view .LVU91
 314 00a2 40F6B830 		movw	r0, #3000
 315 00a6 FFF7FEFF 		bl	HAL_Delay
ARM GAS  C:\Temp\ccblKoAz.s 			page 12


 316              	.LVL35:
 180:Src/main.c    **** 
 317              		.loc 1 180 5 view .LVU92
 318 00aa D0E7     		b	.L6
 319              	.L10:
 183:Src/main.c    **** 		  break;
 320              		.loc 1 183 7 view .LVU93
 321 00ac FFF7FEFF 		bl	fornt_wall_calibrate
 322              	.LVL36:
 184:Src/main.c    **** 
 323              		.loc 1 184 5 view .LVU94
 324 00b0 CDE7     		b	.L6
 325              	.L9:
 197:Src/main.c    **** 		  break;
 326              		.loc 1 197 7 view .LVU95
 327 00b2 FFF7FEFF 		bl	module_test
 328              	.LVL37:
 198:Src/main.c    **** 
 329              		.loc 1 198 5 view .LVU96
 330 00b6 CAE7     		b	.L6
 331              	.L7:
 208:Src/main.c    **** 
 332              		.loc 1 208 5 view .LVU97
 333 00b8 2F4D     		ldr	r5, .L18+8
 334 00ba 304C     		ldr	r4, .L18+12
 335 00bc 304F     		ldr	r7, .L18+16
 336 00be 314E     		ldr	r6, .L18+20
 337 00c0 2B46     		mov	r3, r5
 338 00c2 2246     		mov	r2, r4
 339 00c4 3978     		ldrb	r1, [r7]	@ zero_extendqisi2
 340 00c6 3078     		ldrb	r0, [r6]	@ zero_extendqisi2
 341 00c8 FFF7FEFF 		bl	maze_init
 342              	.LVL38:
 211:Src/main.c    **** 		  maze_solve(m_wall_tmp, m_search_tmp, maze_y_size, maze_x_size, maze_goal, goal_size, run_mode);
 343              		.loc 1 211 5 view .LVU98
 211:Src/main.c    **** 		  maze_solve(m_wall_tmp, m_search_tmp, maze_y_size, maze_x_size, maze_goal, goal_size, run_mode);
 344              		.loc 1 211 14 is_stmt 0 view .LVU99
 345 00cc 0023     		movs	r3, #0
 346 00ce 2E4A     		ldr	r2, .L18+24
 347 00d0 1370     		strb	r3, [r2]
 212:Src/main.c    **** 
 348              		.loc 1 212 5 is_stmt 1 view .LVU100
 349 00d2 0293     		str	r3, [sp, #8]
 350 00d4 2D4B     		ldr	r3, .L18+28
 351 00d6 1B78     		ldrb	r3, [r3]	@ zero_extendqisi2
 352 00d8 0193     		str	r3, [sp, #4]
 353 00da 2D4B     		ldr	r3, .L18+32
 354 00dc 0093     		str	r3, [sp]
 355 00de 3B78     		ldrb	r3, [r7]	@ zero_extendqisi2
 356 00e0 3278     		ldrb	r2, [r6]	@ zero_extendqisi2
 357 00e2 2946     		mov	r1, r5
 358 00e4 2046     		mov	r0, r4
 359 00e6 FFF7FEFF 		bl	maze_solve
 360              	.LVL39:
 214:Src/main.c    **** 	  }
 361              		.loc 1 214 5 view .LVU101
 362 00ea B0E7     		b	.L6
ARM GAS  C:\Temp\ccblKoAz.s 			page 13


 363              	.LVL40:
 364              	.L15:
 365              	.LBB5:
 223:Src/main.c    **** 	  HAL_Delay(700);
 366              		.loc 1 223 4 discriminator 3 view .LVU102
 367 00ec 294D     		ldr	r5, .L18+36
 368 00ee 0122     		movs	r2, #1
 369 00f0 4FF46451 		mov	r1, #14592
 370 00f4 2846     		mov	r0, r5
 371 00f6 FFF7FEFF 		bl	HAL_GPIO_WritePin
 372              	.LVL41:
 224:Src/main.c    **** 	  HAL_GPIO_WritePin(GPIOA,LED2_Pin|LED3_Pin|LED4_Pin|LED5_Pin, GPIO_PIN_RESET);
 373              		.loc 1 224 4 discriminator 3 view .LVU103
 374 00fa 4FF42F70 		mov	r0, #700
 375 00fe FFF7FEFF 		bl	HAL_Delay
 376              	.LVL42:
 225:Src/main.c    **** 	  HAL_Delay(300);
 377              		.loc 1 225 4 discriminator 3 view .LVU104
 378 0102 0022     		movs	r2, #0
 379 0104 4FF46451 		mov	r1, #14592
 380 0108 2846     		mov	r0, r5
 381 010a FFF7FEFF 		bl	HAL_GPIO_WritePin
 382              	.LVL43:
 226:Src/main.c    **** 	  }
 383              		.loc 1 226 4 discriminator 3 view .LVU105
 384 010e 4FF49670 		mov	r0, #300
 385 0112 FFF7FEFF 		bl	HAL_Delay
 386              	.LVL44:
 222:Src/main.c    **** 	  HAL_GPIO_WritePin(GPIOA,LED2_Pin|LED3_Pin|LED4_Pin|LED5_Pin, GPIO_PIN_SET);
 387              		.loc 1 222 22 discriminator 3 view .LVU106
 222:Src/main.c    **** 	  HAL_GPIO_WritePin(GPIOA,LED2_Pin|LED3_Pin|LED4_Pin|LED5_Pin, GPIO_PIN_SET);
 388              		.loc 1 222 23 is_stmt 0 discriminator 3 view .LVU107
 389 0116 0134     		adds	r4, r4, #1
 390              	.LVL45:
 391              	.L14:
 222:Src/main.c    **** 	  HAL_GPIO_WritePin(GPIOA,LED2_Pin|LED3_Pin|LED4_Pin|LED5_Pin, GPIO_PIN_SET);
 392              		.loc 1 222 17 is_stmt 1 discriminator 1 view .LVU108
 222:Src/main.c    **** 	  HAL_GPIO_WritePin(GPIOA,LED2_Pin|LED3_Pin|LED4_Pin|LED5_Pin, GPIO_PIN_SET);
 393              		.loc 1 222 4 is_stmt 0 discriminator 1 view .LVU109
 394 0118 022C     		cmp	r4, #2
 395 011a E7DD     		ble	.L15
 396              	.LVL46:
 397              	.L16:
 222:Src/main.c    **** 	  HAL_GPIO_WritePin(GPIOA,LED2_Pin|LED3_Pin|LED4_Pin|LED5_Pin, GPIO_PIN_SET);
 398              		.loc 1 222 4 discriminator 1 view .LVU110
 399              	.LBE5:
 152:Src/main.c    ****   {
 400              		.loc 1 152 3 is_stmt 1 view .LVU111
 157:Src/main.c    **** 	
 401              		.loc 1 157 4 view .LVU112
 402 011c FFF7FEFF 		bl	mode_main
 403              	.LVL47:
 160:Src/main.c    **** 
 404              		.loc 1 160 4 view .LVU113
 160:Src/main.c    **** 
 405              		.loc 1 160 11 is_stmt 0 view .LVU114
 406 0120 FFF7FEFF 		bl	get_mode_number
ARM GAS  C:\Temp\ccblKoAz.s 			page 14


 407              	.LVL48:
 408 0124 0F28     		cmp	r0, #15
 409 0126 92D8     		bhi	.L6
 410 0128 01A3     		adr	r3, .L8
 411 012a 53F820F0 		ldr	pc, [r3, r0, lsl #2]
 412 012e 00BF     		.p2align 2
 413              	.L8:
 414 0130 4B000000 		.word	.L13+1
 415 0134 67000000 		.word	.L12+1
 416 0138 89000000 		.word	.L11+1
 417 013c AD000000 		.word	.L10+1
 418 0140 4F000000 		.word	.L6+1
 419 0144 4F000000 		.word	.L6+1
 420 0148 4F000000 		.word	.L6+1
 421 014c B3000000 		.word	.L9+1
 422 0150 4F000000 		.word	.L6+1
 423 0154 4F000000 		.word	.L6+1
 424 0158 4F000000 		.word	.L6+1
 425 015c 4F000000 		.word	.L6+1
 426 0160 4F000000 		.word	.L6+1
 427 0164 4F000000 		.word	.L6+1
 428 0168 4F000000 		.word	.L6+1
 429 016c B9000000 		.word	.L7+1
 430              		.p2align 1
 431              	.L19:
 432              		.align	2
 433              	.L18:
 434 0170 EC51B83D 		.word	1035489772
 435 0174 DA0FC93F 		.word	1070141402
 436 0178 00000000 		.word	m_search_tmp
 437 017c 00000000 		.word	m_wall_tmp
 438 0180 00000000 		.word	.LANCHOR0
 439 0184 00000000 		.word	.LANCHOR1
 440 0188 00000000 		.word	.LANCHOR2
 441 018c 00000000 		.word	.LANCHOR3
 442 0190 00000000 		.word	.LANCHOR4
 443 0194 00000240 		.word	1073872896
 444              		.cfi_endproc
 445              	.LFE133:
 447              		.section	.text.Error_Handler,"ax",%progbits
 448              		.align	1
 449              		.global	Error_Handler
 450              		.syntax unified
 451              		.thumb
 452              		.thumb_func
 453              		.fpu fpv4-sp-d16
 455              	Error_Handler:
 456              	.LFB135:
 276:Src/main.c    **** 
 277:Src/main.c    **** /* USER CODE BEGIN 4 */
 278:Src/main.c    **** 
 279:Src/main.c    **** /* USER CODE END 4 */
 280:Src/main.c    **** 
 281:Src/main.c    **** /**
 282:Src/main.c    ****   * @brief  This function is executed in case of error occurrence.
 283:Src/main.c    ****   * @retval None
 284:Src/main.c    ****   */
ARM GAS  C:\Temp\ccblKoAz.s 			page 15


 285:Src/main.c    **** void Error_Handler(void)
 286:Src/main.c    **** {
 457              		.loc 1 286 1 is_stmt 1 view -0
 458              		.cfi_startproc
 459              		@ args = 0, pretend = 0, frame = 0
 460              		@ frame_needed = 0, uses_anonymous_args = 0
 461              		@ link register save eliminated.
 287:Src/main.c    ****   /* USER CODE BEGIN Error_Handler_Debug */
 288:Src/main.c    ****   /* User can add his own implementation to report the HAL error return state */
 289:Src/main.c    **** 
 290:Src/main.c    ****   /* USER CODE END Error_Handler_Debug */
 291:Src/main.c    **** }
 462              		.loc 1 291 1 view .LVU116
 463 0000 7047     		bx	lr
 464              		.cfi_endproc
 465              	.LFE135:
 467              		.global	run_mode
 468              		.comm	m_search_tmp,1024,4
 469              		.comm	m_wall_tmp,1024,4
 470              		.global	maze_goal
 471              		.global	goal_size
 472              		.global	maze_y_size
 473              		.global	maze_x_size
 474              		.section	.bss.run_mode,"aw",%nobits
 475              		.set	.LANCHOR2,. + 0
 478              	run_mode:
 479 0000 00       		.space	1
 480              		.section	.data.goal_size,"aw"
 481              		.set	.LANCHOR3,. + 0
 484              	goal_size:
 485 0000 04       		.byte	4
 486              		.section	.data.maze_goal,"aw"
 487              		.align	2
 488              		.set	.LANCHOR4,. + 0
 491              	maze_goal:
 492 0000 02020303 		.ascii	"\002\002\003\003\000\000\000\000\000\001\002\001\002"
 492      00000000 
 492      00010201 
 492      02
 493 000d 00000000 		.ascii	"\000\000\000\000\000"
 493      00
 494              		.section	.data.maze_x_size,"aw"
 495              		.set	.LANCHOR0,. + 0
 498              	maze_x_size:
 499 0000 08       		.byte	8
 500              		.section	.data.maze_y_size,"aw"
 501              		.set	.LANCHOR1,. + 0
 504              	maze_y_size:
 505 0000 11       		.byte	17
 506              		.text
 507              	.Letext0:
 508              		.file 2 "c:\\tools\\gcc-arm-none-eabi-9-2019-q4-major\\arm-none-eabi\\include\\machine\\_default_t
 509              		.file 3 "c:\\tools\\gcc-arm-none-eabi-9-2019-q4-major\\arm-none-eabi\\include\\sys\\_stdint.h"
 510              		.file 4 "Drivers/CMSIS/Include/core_cm4.h"
 511              		.file 5 "Drivers/CMSIS/Device/ST/STM32F4xx/Include/system_stm32f4xx.h"
 512              		.file 6 "Drivers/CMSIS/Device/ST/STM32F4xx/Include/stm32f413xx.h"
 513              		.file 7 "Drivers/CMSIS/Device/ST/STM32F4xx/Include/stm32f4xx.h"
ARM GAS  C:\Temp\ccblKoAz.s 			page 16


 514              		.file 8 "Drivers/STM32F4xx_HAL_Driver/Inc/stm32f4xx_hal_def.h"
 515              		.file 9 "Drivers/STM32F4xx_HAL_Driver/Inc/stm32f4xx_hal_rcc_ex.h"
 516              		.file 10 "Drivers/STM32F4xx_HAL_Driver/Inc/stm32f4xx_hal_rcc.h"
 517              		.file 11 "Drivers/STM32F4xx_HAL_Driver/Inc/stm32f4xx_hal_gpio.h"
 518              		.file 12 "Drivers/STM32F4xx_HAL_Driver/Inc/stm32f4xx_hal_dma.h"
 519              		.file 13 "Drivers/STM32F4xx_HAL_Driver/Inc/stm32f4xx_hal_adc.h"
 520              		.file 14 "Drivers/STM32F4xx_HAL_Driver/Inc/stm32f4xx_hal_spi.h"
 521              		.file 15 "Drivers/STM32F4xx_HAL_Driver/Inc/stm32f4xx_hal_tim.h"
 522              		.file 16 "Drivers/STM32F4xx_HAL_Driver/Inc/stm32f4xx_hal_uart.h"
 523              		.file 17 "Inc/adc.h"
 524              		.file 18 "Inc/spi.h"
 525              		.file 19 "Inc/tim.h"
 526              		.file 20 "Inc/usart.h"
 527              		.file 21 "c:\\tools\\gcc-arm-none-eabi-9-2019-q4-major\\arm-none-eabi\\include\\sys\\lock.h"
 528              		.file 22 "c:\\tools\\gcc-arm-none-eabi-9-2019-q4-major\\arm-none-eabi\\include\\sys\\_types.h"
 529              		.file 23 "c:\\tools\\gcc-arm-none-eabi-9-2019-q4-major\\lib\\gcc\\arm-none-eabi\\9.2.1\\include\\s
 530              		.file 24 "c:\\tools\\gcc-arm-none-eabi-9-2019-q4-major\\arm-none-eabi\\include\\sys\\reent.h"
 531              		.file 25 "c:\\tools\\gcc-arm-none-eabi-9-2019-q4-major\\arm-none-eabi\\include\\math.h"
 532              		.file 26 "Inc/target.h"
 533              		.file 27 "Inc/exvol.h"
 534              		.file 28 "c:\\tools\\gcc-arm-none-eabi-9-2019-q4-major\\arm-none-eabi\\include\\stdlib.h"
 535              		.file 29 "Inc/matlab_code_gen_data.h"
 536              		.file 30 "Drivers/STM32F4xx_HAL_Driver/Inc/stm32f4xx_hal.h"
 537              		.file 31 "Inc/gpio.h"
 538              		.file 32 "Inc/dma.h"
 539              		.file 33 "Inc/motor.h"
 540              		.file 34 "Inc/index.h"
 541              		.file 35 "Inc/imu.h"
 542              		.file 36 "Inc/encorder.h"
 543              		.file 37 "Inc/interrupt.h"
 544              		.file 38 "Inc/module_test.h"
 545              		.file 39 "Inc/mode.h"
 546              		.file 40 "Inc/ir_sensor.h"
 547              		.file 41 "Inc/adjust.h"
 548              		.file 42 "Inc/maze_init.h"
 549              		.file 43 "Inc/maze_solve.h"
 550              		.file 44 "<built-in>"
ARM GAS  C:\Temp\ccblKoAz.s 			page 17


DEFINED SYMBOLS
                            *ABS*:00000000 main.c
  C:\Temp\ccblKoAz.s:18     .text.SystemClock_Config:00000000 $t
  C:\Temp\ccblKoAz.s:26     .text.SystemClock_Config:00000000 SystemClock_Config
  C:\Temp\ccblKoAz.s:162    .text.SystemClock_Config:00000084 $d
  C:\Temp\ccblKoAz.s:168    .text.main:00000000 $t
  C:\Temp\ccblKoAz.s:175    .text.main:00000000 main
  C:\Temp\ccblKoAz.s:414    .text.main:00000130 $d
  C:\Temp\ccblKoAz.s:434    .text.main:00000170 $d
                            *COM*:00000400 m_search_tmp
                            *COM*:00000400 m_wall_tmp
  C:\Temp\ccblKoAz.s:448    .text.Error_Handler:00000000 $t
  C:\Temp\ccblKoAz.s:455    .text.Error_Handler:00000000 Error_Handler
  C:\Temp\ccblKoAz.s:478    .bss.run_mode:00000000 run_mode
  C:\Temp\ccblKoAz.s:491    .data.maze_goal:00000000 maze_goal
  C:\Temp\ccblKoAz.s:484    .data.goal_size:00000000 goal_size
  C:\Temp\ccblKoAz.s:504    .data.maze_y_size:00000000 maze_y_size
  C:\Temp\ccblKoAz.s:498    .data.maze_x_size:00000000 maze_x_size
  C:\Temp\ccblKoAz.s:479    .bss.run_mode:00000000 $d
  C:\Temp\ccblKoAz.s:487    .data.maze_goal:00000000 $d

UNDEFINED SYMBOLS
memset
HAL_RCC_OscConfig
HAL_RCC_ClockConfig
HAL_Init
MX_GPIO_Init
MX_DMA_Init
MX_USART1_UART_Init
MX_TIM4_Init
MX_SPI2_Init
MX_ADC1_Init
MX_TIM2_Init
MX_TIM3_Init
MX_TIM6_Init
MX_TIM1_Init
Motor_Initialize
Communication_Initialize
IMU_Initialize
Encoder_Initialize
Interrupt_Initialize
data_read
clr_mode_state
Sensor_StopADC
set_duty_r
set_duty_l
log_init
set_mode_ctrl
set_accel_mode
set_target_length
HAL_Delay
set_rotation_mode
set_target_angle
fornt_wall_calibrate
module_test
maze_init
maze_solve
ARM GAS  C:\Temp\ccblKoAz.s 			page 18


HAL_GPIO_WritePin
mode_main
get_mode_number
