ARM GAS  C:\Temp\cc4yiJU0.s 			page 1


   1              		.cpu cortex-m4
   2              		.eabi_attribute 27, 1
   3              		.eabi_attribute 28, 1
   4              		.eabi_attribute 20, 1
   5              		.eabi_attribute 21, 1
   6              		.eabi_attribute 23, 3
   7              		.eabi_attribute 24, 1
   8              		.eabi_attribute 25, 1
   9              		.eabi_attribute 26, 1
  10              		.eabi_attribute 30, 1
  11              		.eabi_attribute 34, 1
  12              		.eabi_attribute 18, 4
  13              		.file	"maze_solve.c"
  14              		.text
  15              	.Ltext0:
  16              		.cfi_sections	.debug_frame
  17              		.section	.text.fust_run,"ax",%progbits
  18              		.align	1
  19              		.arch armv7e-m
  20              		.syntax unified
  21              		.thumb
  22              		.thumb_func
  23              		.fpu fpv4-sp-d16
  25              	fust_run:
  26              	.LVL0:
  27              	.LFB133:
  28              		.file 1 "Src/maze_solve.c"
   1:Src/maze_solve.c **** /*
   2:Src/maze_solve.c ****  * Sponsored License - for use in support of a program or activity
   3:Src/maze_solve.c ****  * sponsored by MathWorks.  Not for government, commercial or other
   4:Src/maze_solve.c ****  * non-sponsored organizational use.
   5:Src/maze_solve.c ****  * File: maze_solve.c
   6:Src/maze_solve.c ****  *
   7:Src/maze_solve.c ****  * MATLAB Coder version            : 4.2
   8:Src/maze_solve.c ****  * C/C++ source code generated on  : 18-Nov-2019 23:53:15
   9:Src/maze_solve.c ****  */
  10:Src/maze_solve.c **** 
  11:Src/maze_solve.c **** /* Include Files */
  12:Src/maze_solve.c **** #include "maze_init.h"
  13:Src/maze_solve.c **** #include "maze_solve.h"
  14:Src/maze_solve.c **** #include "idivide.h"
  15:Src/maze_solve.c **** #include "rem.h"
  16:Src/maze_solve.c **** #include "matlab_code_gen_data.h"
  17:Src/maze_solve.c **** 
  18:Src/maze_solve.c **** /*Include original*/
  19:Src/maze_solve.c **** #include "index.h"
  20:Src/maze_solve.c **** #include "movement.h"
  21:Src/maze_solve.c **** #include "ir_sensor.h"
  22:Src/maze_solve.c **** #include "adjust.h"
  23:Src/maze_solve.c **** #include "target.h"
  24:Src/maze_solve.c **** 
  25:Src/maze_solve.c **** 
  26:Src/maze_solve.c **** /* Type Definitions */
  27:Src/maze_solve.c **** #ifndef typedef_coder_internal_ref
  28:Src/maze_solve.c **** #define typedef_coder_internal_ref
  29:Src/maze_solve.c **** 
  30:Src/maze_solve.c **** typedef struct {
ARM GAS  C:\Temp\cc4yiJU0.s 			page 2


  31:Src/maze_solve.c ****   unsigned char contents;
  32:Src/maze_solve.c **** } coder_internal_ref;
  33:Src/maze_solve.c **** 
  34:Src/maze_solve.c **** #endif                                 /*typedef_coder_internal_ref*/
  35:Src/maze_solve.c **** 
  36:Src/maze_solve.c **** #ifndef typedef_d_struct_T
  37:Src/maze_solve.c **** #define typedef_d_struct_T
  38:Src/maze_solve.c **** 
  39:Src/maze_solve.c **** typedef struct {
  40:Src/maze_solve.c ****   unsigned char unknown;
  41:Src/maze_solve.c ****   unsigned char known;
  42:Src/maze_solve.c **** } d_struct_T;
  43:Src/maze_solve.c **** 
  44:Src/maze_solve.c **** #endif                                 /*typedef_d_struct_T*/
  45:Src/maze_solve.c **** 
  46:Src/maze_solve.c **** #ifndef typedef_coder_internal_ref_1
  47:Src/maze_solve.c **** #define typedef_coder_internal_ref_1
  48:Src/maze_solve.c **** 
  49:Src/maze_solve.c **** typedef struct {
  50:Src/maze_solve.c ****   d_struct_T contents;
  51:Src/maze_solve.c **** } coder_internal_ref_1;
  52:Src/maze_solve.c **** 
  53:Src/maze_solve.c **** #endif                                 /*typedef_coder_internal_ref_1*/
  54:Src/maze_solve.c **** 
  55:Src/maze_solve.c **** #ifndef typedef_c_struct_T
  56:Src/maze_solve.c **** #define typedef_c_struct_T
  57:Src/maze_solve.c **** 
  58:Src/maze_solve.c **** typedef struct {
  59:Src/maze_solve.c ****   unsigned char nowall;
  60:Src/maze_solve.c ****   unsigned char wall;
  61:Src/maze_solve.c **** } c_struct_T;
  62:Src/maze_solve.c **** 
  63:Src/maze_solve.c **** #endif                                 /*typedef_c_struct_T*/
  64:Src/maze_solve.c **** 
  65:Src/maze_solve.c **** #ifndef typedef_coder_internal_ref_2
  66:Src/maze_solve.c **** #define typedef_coder_internal_ref_2
  67:Src/maze_solve.c **** 
  68:Src/maze_solve.c **** typedef struct {
  69:Src/maze_solve.c ****   c_struct_T contents;
  70:Src/maze_solve.c **** } coder_internal_ref_2;
  71:Src/maze_solve.c **** 
  72:Src/maze_solve.c **** #endif                                 /*typedef_coder_internal_ref_2*/
  73:Src/maze_solve.c **** 
  74:Src/maze_solve.c **** #ifndef typedef_b_struct_T
  75:Src/maze_solve.c **** #define typedef_b_struct_T
  76:Src/maze_solve.c **** 
  77:Src/maze_solve.c **** typedef struct {
  78:Src/maze_solve.c ****   unsigned char front;
  79:Src/maze_solve.c ****   unsigned char right;
  80:Src/maze_solve.c ****   unsigned char back;
  81:Src/maze_solve.c ****   unsigned char left;
  82:Src/maze_solve.c **** } b_struct_T;
  83:Src/maze_solve.c **** 
  84:Src/maze_solve.c **** #endif                                 /*typedef_b_struct_T*/
  85:Src/maze_solve.c **** 
  86:Src/maze_solve.c **** #ifndef typedef_coder_internal_ref_3
  87:Src/maze_solve.c **** #define typedef_coder_internal_ref_3
ARM GAS  C:\Temp\cc4yiJU0.s 			page 3


  88:Src/maze_solve.c **** 
  89:Src/maze_solve.c **** typedef struct {
  90:Src/maze_solve.c ****   b_struct_T contents;
  91:Src/maze_solve.c **** } coder_internal_ref_3;
  92:Src/maze_solve.c **** 
  93:Src/maze_solve.c **** #endif                                 /*typedef_coder_internal_ref_3*/
  94:Src/maze_solve.c **** 
  95:Src/maze_solve.c **** #ifndef typedef_struct_T
  96:Src/maze_solve.c **** #define typedef_struct_T
  97:Src/maze_solve.c **** 
  98:Src/maze_solve.c **** typedef struct {
  99:Src/maze_solve.c ****   unsigned char North;
 100:Src/maze_solve.c ****   unsigned char East;
 101:Src/maze_solve.c ****   unsigned char South;
 102:Src/maze_solve.c ****   unsigned char West;
 103:Src/maze_solve.c **** } struct_T;
 104:Src/maze_solve.c **** 
 105:Src/maze_solve.c **** #endif                                 /*typedef_struct_T*/
 106:Src/maze_solve.c **** 
 107:Src/maze_solve.c **** #ifndef typedef_coder_internal_ref_4
 108:Src/maze_solve.c **** #define typedef_coder_internal_ref_4
 109:Src/maze_solve.c **** 
 110:Src/maze_solve.c **** typedef struct {
 111:Src/maze_solve.c ****   struct_T contents;
 112:Src/maze_solve.c **** } coder_internal_ref_4;
 113:Src/maze_solve.c **** 
 114:Src/maze_solve.c **** #endif                                 /*typedef_coder_internal_ref_4*/
 115:Src/maze_solve.c **** 
 116:Src/maze_solve.c **** //ハンド追加部
 117:Src/maze_solve.c **** typedef enum{
 118:Src/maze_solve.c ****   other,              //ゴール直後以外か
 119:Src/maze_solve.c ****   immediately_after   //ゴール直後か
 120:Src/maze_solve.c **** }goal_after;
 121:Src/maze_solve.c **** 
 122:Src/maze_solve.c **** static goal_after goal_after_flg = other;
 123:Src/maze_solve.c **** //
 124:Src/maze_solve.c **** 
 125:Src/maze_solve.c **** /* Function Declarations */
 126:Src/maze_solve.c **** static void fust_run(const coder_internal_ref_4 *g_direction, coder_internal_ref
 127:Src/maze_solve.c ****                      *current_x, coder_internal_ref *current_y,
 128:Src/maze_solve.c ****                      coder_internal_ref *current_dir, const coder_internal_ref
 129:Src/maze_solve.c ****                      *goal_size, const coder_internal_ref_2 *wall, const
 130:Src/maze_solve.c ****                      coder_internal_ref_3 *l_direction, const unsigned char
 131:Src/maze_solve.c ****                      maze_wall[1024], const unsigned char contour_map[1024],
 132:Src/maze_solve.c ****                      const unsigned char maze_goal[18], unsigned char max_length);
 133:Src/maze_solve.c **** static void make_map_find(const coder_internal_ref_4 *g_direction, const
 134:Src/maze_solve.c ****   coder_internal_ref_2 *wall, unsigned char maze_row_size, unsigned char
 135:Src/maze_solve.c ****   maze_col_size, const unsigned char maze_goal[18], unsigned char l_goal_size,
 136:Src/maze_solve.c ****   const unsigned char maze_wall[1024], unsigned char contour_map[1024], unsigned
 137:Src/maze_solve.c ****   char *max_length);
 138:Src/maze_solve.c **** static void make_map_fustrun(const coder_internal_ref *goal_size, const
 139:Src/maze_solve.c ****   coder_internal_ref_4 *g_direction, const coder_internal_ref_2 *wall, const
 140:Src/maze_solve.c ****   coder_internal_ref_1 *search, unsigned char maze_row_size, unsigned char
 141:Src/maze_solve.c ****   maze_col_size, const unsigned char maze_goal[18], const unsigned char
 142:Src/maze_solve.c ****   maze_wall[1024], const unsigned char maze_wall_search[1024], unsigned char
 143:Src/maze_solve.c ****   contour_map[1024], unsigned char *max_length);
 144:Src/maze_solve.c **** static void move_step(const coder_internal_ref_4 *g_direction, unsigned char
ARM GAS  C:\Temp\cc4yiJU0.s 			page 4


 145:Src/maze_solve.c ****                       *current_x, unsigned char *current_y, unsigned char
 146:Src/maze_solve.c ****                       current_dir);
 147:Src/maze_solve.c **** static void search_adachi(const coder_internal_ref_2 *wall, const
 148:Src/maze_solve.c ****   coder_internal_ref_1 *search, const coder_internal_ref_4 *g_direction, const
 149:Src/maze_solve.c ****   coder_internal_ref_3 *l_direction, unsigned char *current_x, unsigned char
 150:Src/maze_solve.c ****   *current_y, unsigned char *current_dir, unsigned char maze_row_size, unsigned
 151:Src/maze_solve.c ****   char maze_col_size, unsigned char maze_wall[1024], unsigned char
 152:Src/maze_solve.c ****   maze_wall_search[1024], const unsigned char maze_goal[18], unsigned char
 153:Src/maze_solve.c ****   l_goal_size);
 154:Src/maze_solve.c **** 
 155:Src/maze_solve.c **** /* Function Definitions */
 156:Src/maze_solve.c **** 
 157:Src/maze_solve.c **** /*
 158:Src/maze_solve.c ****  * 入力　壁情報,壁探索情報,等高線MAP,ゴール座標,最大経路長
 159:Src/maze_solve.c ****  * 出力
 160:Src/maze_solve.c ****  * Arguments    : const coder_internal_ref_4 *g_direction
 161:Src/maze_solve.c ****  *                coder_internal_ref *current_x
 162:Src/maze_solve.c ****  *                coder_internal_ref *current_y
 163:Src/maze_solve.c ****  *                coder_internal_ref *current_dir
 164:Src/maze_solve.c ****  *                const coder_internal_ref *goal_size
 165:Src/maze_solve.c ****  *                const coder_internal_ref_2 *wall
 166:Src/maze_solve.c ****  *                const coder_internal_ref_3 *l_direction
 167:Src/maze_solve.c ****  *                const unsigned char maze_wall[1024]
 168:Src/maze_solve.c ****  *                const unsigned char contour_map[1024]
 169:Src/maze_solve.c ****  *                const unsigned char maze_goal[18]
 170:Src/maze_solve.c ****  *                unsigned char max_length
 171:Src/maze_solve.c ****  * Return Type  : void
 172:Src/maze_solve.c ****  */
 173:Src/maze_solve.c **** static void fust_run(const coder_internal_ref_4 *g_direction, coder_internal_ref
 174:Src/maze_solve.c ****                      *current_x, coder_internal_ref *current_y,
 175:Src/maze_solve.c ****                      coder_internal_ref *current_dir, const coder_internal_ref
 176:Src/maze_solve.c ****                      *goal_size, const coder_internal_ref_2 *wall, const
 177:Src/maze_solve.c ****                      coder_internal_ref_3 *l_direction, const unsigned char
 178:Src/maze_solve.c ****                      maze_wall[1024], const unsigned char contour_map[1024],
 179:Src/maze_solve.c ****                      const unsigned char maze_goal[18], unsigned char max_length)
 180:Src/maze_solve.c **** {
  29              		.loc 1 180 1 view -0
  30              		.cfi_startproc
  31              		@ args = 28, pretend = 0, frame = 32
  32              		@ frame_needed = 0, uses_anonymous_args = 0
  33              		.loc 1 180 1 is_stmt 0 view .LVU1
  34 0000 2DE9F04F 		push	{r4, r5, r6, r7, r8, r9, r10, fp, lr}
  35              	.LCFI0:
  36              		.cfi_def_cfa_offset 36
  37              		.cfi_offset 4, -36
  38              		.cfi_offset 5, -32
  39              		.cfi_offset 6, -28
  40              		.cfi_offset 7, -24
  41              		.cfi_offset 8, -20
  42              		.cfi_offset 9, -16
  43              		.cfi_offset 10, -12
  44              		.cfi_offset 11, -8
  45              		.cfi_offset 14, -4
  46 0004 89B0     		sub	sp, sp, #36
  47              	.LCFI1:
  48              		.cfi_def_cfa_offset 72
  49 0006 8246     		mov	r10, r0
ARM GAS  C:\Temp\cc4yiJU0.s 			page 5


  50 0008 9346     		mov	fp, r2
  51 000a 1846     		mov	r0, r3
  52              	.LVL1:
  53              		.loc 1 180 1 view .LVU2
  54 000c 0593     		str	r3, [sp, #20]
  55 000e 179B     		ldr	r3, [sp, #92]
  56              	.LVL2:
  57              		.loc 1 180 1 view .LVU3
  58 0010 9DF86020 		ldrb	r2, [sp, #96]	@ zero_extendqisi2
  59              	.LVL3:
  60              		.loc 1 180 1 view .LVU4
  61 0014 0292     		str	r2, [sp, #8]
 181:Src/maze_solve.c ****   unsigned char goal_flag;
  62              		.loc 1 181 3 is_stmt 1 view .LVU5
 182:Src/maze_solve.c ****   unsigned char little;
  63              		.loc 1 182 3 view .LVU6
 183:Src/maze_solve.c ****   unsigned char next_dir;
  64              		.loc 1 183 3 view .LVU7
 184:Src/maze_solve.c ****   int exitg1;
  65              		.loc 1 184 3 view .LVU8
 185:Src/maze_solve.c ****   unsigned char k;
  66              		.loc 1 185 3 view .LVU9
 186:Src/maze_solve.c ****   int q0;
  67              		.loc 1 186 3 view .LVU10
 187:Src/maze_solve.c ****   int tempi;
  68              		.loc 1 187 3 view .LVU11
 188:Src/maze_solve.c ****   unsigned char a;
  69              		.loc 1 188 3 view .LVU12
 189:Src/maze_solve.c ****   int b_k;
  70              		.loc 1 189 3 view .LVU13
 190:Src/maze_solve.c ****   int c_k;
  71              		.loc 1 190 3 view .LVU14
 191:Src/maze_solve.c ****   int d_k;
  72              		.loc 1 191 3 view .LVU15
 192:Src/maze_solve.c ****   unsigned int qY;
  73              		.loc 1 192 3 view .LVU16
 193:Src/maze_solve.c ****   int e_k;
  74              		.loc 1 193 3 view .LVU17
 194:Src/maze_solve.c ****   unsigned char varargin_2;
  75              		.loc 1 194 3 view .LVU18
 195:Src/maze_solve.c ****   unsigned char varargin_3;
  76              		.loc 1 195 3 view .LVU19
 196:Src/maze_solve.c ****   unsigned char varargin_4;
  77              		.loc 1 196 3 view .LVU20
 197:Src/maze_solve.c **** 
 198:Src/maze_solve.c ****   /*  fust_run 最短経路導出 */
 199:Src/maze_solve.c ****   /* local変数宣言 */
 200:Src/maze_solve.c ****   goal_flag = 0U;
  78              		.loc 1 200 3 view .LVU21
  79              	.LVL4:
 201:Src/maze_solve.c **** 
 202:Src/maze_solve.c ****   /* ゴール判定フラグ */
 203:Src/maze_solve.c ****   little = max_length;
  80              		.loc 1 203 3 view .LVU22
 204:Src/maze_solve.c **** 
 205:Src/maze_solve.c ****   /* 進行方向選定用閾値 */
 206:Src/maze_solve.c ****   /* マウス位置表示用オブジェクト */
ARM GAS  C:\Temp\cc4yiJU0.s 			page 6


 207:Src/maze_solve.c ****   /* マウスの初期位置設定 */
 208:Src/maze_solve.c ****   current_x->contents = 1U;
  81              		.loc 1 208 3 view .LVU23
  82              		.loc 1 208 23 is_stmt 0 view .LVU24
  83 0016 0122     		movs	r2, #1
  84 0018 0A70     		strb	r2, [r1]
 209:Src/maze_solve.c ****   current_y->contents = 1U;
  85              		.loc 1 209 3 is_stmt 1 view .LVU25
  86              		.loc 1 209 23 is_stmt 0 view .LVU26
  87 001a 8BF80020 		strb	r2, [fp]
 210:Src/maze_solve.c ****   current_dir->contents = g_direction->contents.North;
  88              		.loc 1 210 3 is_stmt 1 view .LVU27
  89              		.loc 1 210 48 is_stmt 0 view .LVU28
  90 001e 9AF80020 		ldrb	r2, [r10]	@ zero_extendqisi2
  91 0022 0392     		str	r2, [sp, #12]
  92              		.loc 1 210 25 view .LVU29
  93 0024 0270     		strb	r2, [r0]
 211:Src/maze_solve.c ****   next_dir = g_direction->contents.North;
  94              		.loc 1 211 3 is_stmt 1 view .LVU30
  95              	.LVL5:
 200:Src/maze_solve.c **** 
  96              		.loc 1 200 13 is_stmt 0 view .LVU31
  97 0026 0022     		movs	r2, #0
  98 0028 0192     		str	r2, [sp, #4]
  99 002a D146     		mov	r9, r10
 100 002c DDF850A0 		ldr	r10, [sp, #80]
 101              	.LVL6:
 200:Src/maze_solve.c **** 
 102              		.loc 1 200 13 view .LVU32
 103 0030 B8E1     		b	.L60
 104              	.LVL7:
 105              	.L3:
 212:Src/maze_solve.c **** 
 213:Src/maze_solve.c ****   /* 探索開始時x */
 214:Src/maze_solve.c ****   /* 探索開始時y */
 215:Src/maze_solve.c ****   /* 探索開始位置プロット */
 216:Src/maze_solve.c ****   /* 足跡プロット */
 217:Src/maze_solve.c ****   do {
 218:Src/maze_solve.c ****     exitg1 = 0;
 219:Src/maze_solve.c **** 
 220:Src/maze_solve.c ****     /* 現在位置がゴールか判定 */
 221:Src/maze_solve.c ****     k = goal_size->contents;
 222:Src/maze_solve.c ****     q0 = k;
 223:Src/maze_solve.c ****     for (tempi = 0; tempi < q0; tempi++) {
 106              		.loc 1 223 33 is_stmt 1 discriminator 2 view .LVU33
 107              		.loc 1 223 38 is_stmt 0 discriminator 2 view .LVU34
 108 0032 0132     		adds	r2, r2, #1
 109              	.LVL8:
 110              	.L2:
 111              		.loc 1 223 21 is_stmt 1 discriminator 1 view .LVU35
 112              		.loc 1 223 5 is_stmt 0 discriminator 1 view .LVU36
 113 0034 AA42     		cmp	r2, r5
 114 0036 0CDA     		bge	.L99
 224:Src/maze_solve.c ****       if ((current_x->contents == maze_goal[tempi]) && (current_y->contents ==
 115              		.loc 1 224 7 is_stmt 1 view .LVU37
 116              		.loc 1 224 21 is_stmt 0 view .LVU38
 117 0038 0C78     		ldrb	r4, [r1]	@ zero_extendqisi2
ARM GAS  C:\Temp\cc4yiJU0.s 			page 7


 118              		.loc 1 224 44 view .LVU39
 119 003a 985C     		ldrb	r0, [r3, r2]	@ zero_extendqisi2
 120              		.loc 1 224 10 view .LVU40
 121 003c 8442     		cmp	r4, r0
 122 003e F8D1     		bne	.L3
 123              		.loc 1 224 66 discriminator 1 view .LVU41
 124 0040 9BF80040 		ldrb	r4, [fp]	@ zero_extendqisi2
 225:Src/maze_solve.c ****            maze_goal[tempi + 9])) {
 125              		.loc 1 225 21 discriminator 1 view .LVU42
 126 0044 9818     		adds	r0, r3, r2
 127 0046 407A     		ldrb	r0, [r0, #9]	@ zero_extendqisi2
 224:Src/maze_solve.c ****       if ((current_x->contents == maze_goal[tempi]) && (current_y->contents ==
 128              		.loc 1 224 53 discriminator 1 view .LVU43
 129 0048 8442     		cmp	r4, r0
 130 004a F2D1     		bne	.L3
 226:Src/maze_solve.c ****         goal_flag = 1U;
 131              		.loc 1 226 19 view .LVU44
 132 004c 0120     		movs	r0, #1
 133 004e 0190     		str	r0, [sp, #4]
 134              	.LVL9:
 135              		.loc 1 226 19 view .LVU45
 136 0050 EFE7     		b	.L3
 137              	.LVL10:
 138              	.L99:
 227:Src/maze_solve.c ****       }
 228:Src/maze_solve.c ****     }
 229:Src/maze_solve.c **** 
 230:Src/maze_solve.c ****     if (goal_flag == 1) {
 139              		.loc 1 230 5 is_stmt 1 view .LVU46
 140              		.loc 1 230 8 is_stmt 0 view .LVU47
 141 0052 019A     		ldr	r2, [sp, #4]
 142              	.LVL11:
 143              		.loc 1 230 8 view .LVU48
 144 0054 002A     		cmp	r2, #0
 145 0056 40F0A381 		bne	.L62
 231:Src/maze_solve.c ****       exitg1 = 1;
 232:Src/maze_solve.c ****     } else {
 233:Src/maze_solve.c ****       /*             %%進行方向選定 */
 234:Src/maze_solve.c ****       /* 優先順位　北⇒東⇒南⇒西 */
 235:Src/maze_solve.c ****       /* 北側の壁のありなし */
 236:Src/maze_solve.c ****       k = g_direction->contents.North;
 146              		.loc 1 236 7 is_stmt 1 view .LVU49
 147              		.loc 1 236 9 is_stmt 0 view .LVU50
 148 005a 99F80080 		ldrb	r8, [r9]	@ zero_extendqisi2
 149              	.LVL12:
 237:Src/maze_solve.c ****       a = maze_wall[(current_y->contents + ((current_x->contents - 1) << 5)) - 1];
 150              		.loc 1 237 7 is_stmt 1 view .LVU51
 151              		.loc 1 237 31 is_stmt 0 view .LVU52
 152 005e 9BF80040 		ldrb	r4, [fp]	@ zero_extendqisi2
 153 0062 0494     		str	r4, [sp, #16]
 154              		.loc 1 237 55 view .LVU53
 155 0064 0D78     		ldrb	r5, [r1]	@ zero_extendqisi2
 156              	.LVL13:
 157              		.loc 1 237 66 view .LVU54
 158 0066 6A1E     		subs	r2, r5, #1
 159              		.loc 1 237 71 view .LVU55
 160 0068 5601     		lsls	r6, r2, #5
ARM GAS  C:\Temp\cc4yiJU0.s 			page 8


 161              		.loc 1 237 42 view .LVU56
 162 006a 04EB4212 		add	r2, r4, r2, lsl #5
 163              		.loc 1 237 20 view .LVU57
 164 006e 013A     		subs	r2, r2, #1
 165              		.loc 1 237 9 view .LVU58
 166 0070 1598     		ldr	r0, [sp, #84]
 167 0072 825C     		ldrb	r2, [r0, r2]	@ zero_extendqisi2
 168              	.LVL14:
 238:Src/maze_solve.c ****       if (k <= 7) {
 169              		.loc 1 238 7 is_stmt 1 view .LVU59
 170              		.loc 1 238 10 is_stmt 0 view .LVU60
 171 0074 B8F1070F 		cmp	r8, #7
 172 0078 53D8     		bhi	.L63
 239:Src/maze_solve.c ****         b_k = (unsigned char)(1 << k);
 173              		.loc 1 239 9 is_stmt 1 view .LVU61
 174              		.loc 1 239 33 is_stmt 0 view .LVU62
 175 007a 0120     		movs	r0, #1
 176 007c 00FA08F0 		lsl	r0, r0, r8
 177 0080 C0B2     		uxtb	r0, r0
 178              	.LVL15:
 179              	.L6:
 240:Src/maze_solve.c ****       } else {
 241:Src/maze_solve.c ****         b_k = 0;
 242:Src/maze_solve.c ****       }
 243:Src/maze_solve.c **** 
 244:Src/maze_solve.c ****       if ((a & b_k) == wall->contents.nowall) {
 180              		.loc 1 244 7 is_stmt 1 view .LVU63
 181              		.loc 1 244 14 is_stmt 0 view .LVU64
 182 0082 1040     		ands	r0, r0, r2
 183              	.LVL16:
 184              		.loc 1 244 38 view .LVU65
 185 0084 139F     		ldr	r7, [sp, #76]
 186 0086 97F800E0 		ldrb	lr, [r7]	@ zero_extendqisi2
 187              		.loc 1 244 10 view .LVU66
 188 008a 7045     		cmp	r0, lr
 189 008c 4BD0     		beq	.L100
 190              	.LVL17:
 191              	.L7:
 245:Src/maze_solve.c ****         /* 北側の等高線mapが閾値より低ければ、 */
 246:Src/maze_solve.c ****         q0 = (int)(current_y->contents + 1U);
 247:Src/maze_solve.c ****         if ((unsigned int)q0 > 255U) {
 248:Src/maze_solve.c ****           q0 = 255;
 249:Src/maze_solve.c ****         }
 250:Src/maze_solve.c **** 
 251:Src/maze_solve.c ****         if (contour_map[(q0 + ((current_x->contents - 1) << 5)) - 1] < little) {
 252:Src/maze_solve.c ****           /* 閾値を北側の等高map値に変更 */
 253:Src/maze_solve.c ****           q0 = (int)(current_y->contents + 1U);
 254:Src/maze_solve.c ****           if ((unsigned int)q0 > 255U) {
 255:Src/maze_solve.c ****             q0 = 255;
 256:Src/maze_solve.c ****           }
 257:Src/maze_solve.c **** 
 258:Src/maze_solve.c ****           little = contour_map[(q0 + ((current_x->contents - 1) << 5)) - 1];
 259:Src/maze_solve.c **** 
 260:Src/maze_solve.c ****           /* 北側を進行方向に変更y */
 261:Src/maze_solve.c ****           next_dir = g_direction->contents.North;
 262:Src/maze_solve.c ****         }
 263:Src/maze_solve.c ****       }
ARM GAS  C:\Temp\cc4yiJU0.s 			page 9


 264:Src/maze_solve.c **** 
 265:Src/maze_solve.c ****       /* 東側 */
 266:Src/maze_solve.c ****       k = g_direction->contents.East;
 192              		.loc 1 266 7 is_stmt 1 view .LVU67
 193              		.loc 1 266 9 is_stmt 0 view .LVU68
 194 008e 99F801C0 		ldrb	ip, [r9, #1]	@ zero_extendqisi2
 195              	.LVL18:
 267:Src/maze_solve.c ****       a = maze_wall[(current_y->contents + ((current_x->contents - 1) << 5)) - 1];
 196              		.loc 1 267 7 is_stmt 1 view .LVU69
 268:Src/maze_solve.c ****       if (k <= 7) {
 197              		.loc 1 268 7 view .LVU70
 198              		.loc 1 268 10 is_stmt 0 view .LVU71
 199 0092 BCF1070F 		cmp	ip, #7
 200 0096 56D8     		bhi	.L66
 269:Src/maze_solve.c ****         c_k = (unsigned char)(1 << k);
 201              		.loc 1 269 9 is_stmt 1 view .LVU72
 202              		.loc 1 269 33 is_stmt 0 view .LVU73
 203 0098 0120     		movs	r0, #1
 204 009a 00FA0CF0 		lsl	r0, r0, ip
 205 009e C0B2     		uxtb	r0, r0
 206              	.LVL19:
 207              	.L9:
 270:Src/maze_solve.c ****       } else {
 271:Src/maze_solve.c ****         c_k = 0;
 272:Src/maze_solve.c ****       }
 273:Src/maze_solve.c **** 
 274:Src/maze_solve.c ****       if ((a & c_k) == wall->contents.nowall) {
 208              		.loc 1 274 7 is_stmt 1 view .LVU74
 209              		.loc 1 274 14 is_stmt 0 view .LVU75
 210 00a0 1040     		ands	r0, r0, r2
 211              	.LVL20:
 212              		.loc 1 274 10 view .LVU76
 213 00a2 8645     		cmp	lr, r0
 214 00a4 51D0     		beq	.L101
 215              	.LVL21:
 216              	.L10:
 275:Src/maze_solve.c ****         q0 = (int)(current_x->contents + 1U);
 276:Src/maze_solve.c ****         if ((unsigned int)q0 > 255U) {
 277:Src/maze_solve.c ****           q0 = 255;
 278:Src/maze_solve.c ****         }
 279:Src/maze_solve.c **** 
 280:Src/maze_solve.c ****         if (contour_map[(current_y->contents + ((q0 - 1) << 5)) - 1] < little) {
 281:Src/maze_solve.c ****           q0 = (int)(current_x->contents + 1U);
 282:Src/maze_solve.c ****           if ((unsigned int)q0 > 255U) {
 283:Src/maze_solve.c ****             q0 = 255;
 284:Src/maze_solve.c ****           }
 285:Src/maze_solve.c **** 
 286:Src/maze_solve.c ****           little = contour_map[(current_y->contents + ((q0 - 1) << 5)) - 1];
 287:Src/maze_solve.c ****           next_dir = g_direction->contents.East;
 288:Src/maze_solve.c ****         }
 289:Src/maze_solve.c ****       }
 290:Src/maze_solve.c **** 
 291:Src/maze_solve.c ****       /* 南側 */
 292:Src/maze_solve.c ****       k = g_direction->contents.South;
 217              		.loc 1 292 7 is_stmt 1 view .LVU77
 218              		.loc 1 292 9 is_stmt 0 view .LVU78
 219 00a6 99F80270 		ldrb	r7, [r9, #2]	@ zero_extendqisi2
ARM GAS  C:\Temp\cc4yiJU0.s 			page 10


 220              	.LVL22:
 293:Src/maze_solve.c ****       a = maze_wall[(current_y->contents + ((current_x->contents - 1) << 5)) - 1];
 221              		.loc 1 293 7 is_stmt 1 view .LVU79
 294:Src/maze_solve.c ****       if (k <= 7) {
 222              		.loc 1 294 7 view .LVU80
 223              		.loc 1 294 10 is_stmt 0 view .LVU81
 224 00aa 072F     		cmp	r7, #7
 225 00ac 60D8     		bhi	.L69
 295:Src/maze_solve.c ****         d_k = (unsigned char)(1 << k);
 226              		.loc 1 295 9 is_stmt 1 view .LVU82
 227              		.loc 1 295 33 is_stmt 0 view .LVU83
 228 00ae 0120     		movs	r0, #1
 229 00b0 B840     		lsls	r0, r0, r7
 230 00b2 C0B2     		uxtb	r0, r0
 231              	.LVL23:
 232              	.L12:
 296:Src/maze_solve.c ****       } else {
 297:Src/maze_solve.c ****         d_k = 0;
 298:Src/maze_solve.c ****       }
 299:Src/maze_solve.c **** 
 300:Src/maze_solve.c ****       if ((a & d_k) == wall->contents.nowall) {
 233              		.loc 1 300 7 is_stmt 1 view .LVU84
 234              		.loc 1 300 14 is_stmt 0 view .LVU85
 235 00b4 1040     		ands	r0, r0, r2
 236              	.LVL24:
 237              		.loc 1 300 10 view .LVU86
 238 00b6 8645     		cmp	lr, r0
 239 00b8 5CD0     		beq	.L102
 240              	.LVL25:
 241              	.L13:
 301:Src/maze_solve.c ****         q0 = current_y->contents;
 302:Src/maze_solve.c ****         qY = q0 - 1U;
 303:Src/maze_solve.c ****         if (qY > (unsigned int)q0) {
 304:Src/maze_solve.c ****           qY = 0U;
 305:Src/maze_solve.c ****         }
 306:Src/maze_solve.c **** 
 307:Src/maze_solve.c ****         if (contour_map[((int)qY + ((current_x->contents - 1) << 5)) - 1] <
 308:Src/maze_solve.c ****             little) {
 309:Src/maze_solve.c ****           q0 = current_y->contents;
 310:Src/maze_solve.c ****           qY = q0 - 1U;
 311:Src/maze_solve.c ****           if (qY > (unsigned int)q0) {
 312:Src/maze_solve.c ****             qY = 0U;
 313:Src/maze_solve.c ****           }
 314:Src/maze_solve.c **** 
 315:Src/maze_solve.c ****           little = contour_map[((int)qY + ((current_x->contents - 1) << 5)) - 1];
 316:Src/maze_solve.c ****           next_dir = g_direction->contents.South;
 317:Src/maze_solve.c ****         }
 318:Src/maze_solve.c ****       }
 319:Src/maze_solve.c **** 
 320:Src/maze_solve.c ****       /* 西側 */
 321:Src/maze_solve.c ****       k = g_direction->contents.West;
 242              		.loc 1 321 7 is_stmt 1 view .LVU87
 243              		.loc 1 321 9 is_stmt 0 view .LVU88
 244 00ba 99F80360 		ldrb	r6, [r9, #3]	@ zero_extendqisi2
 245 00be 0696     		str	r6, [sp, #24]
 246              	.LVL26:
 322:Src/maze_solve.c ****       a = maze_wall[(current_y->contents + ((current_x->contents - 1) << 5)) - 1];
ARM GAS  C:\Temp\cc4yiJU0.s 			page 11


 247              		.loc 1 322 7 is_stmt 1 view .LVU89
 323:Src/maze_solve.c ****       if (k <= 7) {
 248              		.loc 1 323 7 view .LVU90
 249              		.loc 1 323 10 is_stmt 0 view .LVU91
 250 00c0 072E     		cmp	r6, #7
 251 00c2 66D8     		bhi	.L72
 324:Src/maze_solve.c ****         e_k = (unsigned char)(1 << k);
 252              		.loc 1 324 9 is_stmt 1 view .LVU92
 253              		.loc 1 324 33 is_stmt 0 view .LVU93
 254 00c4 0120     		movs	r0, #1
 255 00c6 B040     		lsls	r0, r0, r6
 256 00c8 C0B2     		uxtb	r0, r0
 257              	.LVL27:
 258              	.L15:
 325:Src/maze_solve.c ****       } else {
 326:Src/maze_solve.c ****         e_k = 0;
 327:Src/maze_solve.c ****       }
 328:Src/maze_solve.c **** 
 329:Src/maze_solve.c ****       if ((a & e_k) == wall->contents.nowall) {
 259              		.loc 1 329 7 is_stmt 1 view .LVU94
 260              		.loc 1 329 14 is_stmt 0 view .LVU95
 261 00ca 0240     		ands	r2, r2, r0
 262              	.LVL28:
 263              		.loc 1 329 10 view .LVU96
 264 00cc 9645     		cmp	lr, r2
 265 00ce 62D0     		beq	.L103
 266              	.LVL29:
 267              	.L16:
 330:Src/maze_solve.c ****         q0 = current_x->contents;
 331:Src/maze_solve.c ****         qY = q0 - 1U;
 332:Src/maze_solve.c ****         if (qY > (unsigned int)q0) {
 333:Src/maze_solve.c ****           qY = 0U;
 334:Src/maze_solve.c ****         }
 335:Src/maze_solve.c **** 
 336:Src/maze_solve.c ****         if (contour_map[(current_y->contents + (((int)qY - 1) << 5)) - 1] <
 337:Src/maze_solve.c ****             little) {
 338:Src/maze_solve.c ****           q0 = current_x->contents;
 339:Src/maze_solve.c ****           qY = q0 - 1U;
 340:Src/maze_solve.c ****           if (qY > (unsigned int)q0) {
 341:Src/maze_solve.c ****             qY = 0U;
 342:Src/maze_solve.c ****           }
 343:Src/maze_solve.c **** 
 344:Src/maze_solve.c ****           little = contour_map[(current_y->contents + (((int)qY - 1) << 5)) - 1];
 345:Src/maze_solve.c ****           next_dir = g_direction->contents.West;
 346:Src/maze_solve.c ****         }
 347:Src/maze_solve.c ****       }
 348:Src/maze_solve.c **** 
 349:Src/maze_solve.c ****       /*             %%現在方向と進行方向に応じた処理 */
 350:Src/maze_solve.c ****       q0 = (int)(4U + next_dir);
 268              		.loc 1 350 7 is_stmt 1 view .LVU97
 269              		.loc 1 350 21 is_stmt 0 view .LVU98
 270 00d0 039A     		ldr	r2, [sp, #12]
 271 00d2 02F1040E 		add	lr, r2, #4
 272              	.LVL30:
 351:Src/maze_solve.c ****       if ((unsigned int)q0 > 255U) {
 273              		.loc 1 351 7 is_stmt 1 view .LVU99
 274              		.loc 1 351 10 is_stmt 0 view .LVU100
ARM GAS  C:\Temp\cc4yiJU0.s 			page 12


 275 00d6 BEF1FF0F 		cmp	lr, #255
 276 00da 01D9     		bls	.L18
 352:Src/maze_solve.c ****         q0 = 255;
 277              		.loc 1 352 12 view .LVU101
 278 00dc 4FF0FF0E 		mov	lr, #255
 279              	.LVL31:
 280              	.L18:
 353:Src/maze_solve.c ****       }
 354:Src/maze_solve.c **** 
 355:Src/maze_solve.c ****       qY = (unsigned int)q0 - current_dir->contents;
 281              		.loc 1 355 7 is_stmt 1 view .LVU102
 282              		.loc 1 355 42 is_stmt 0 view .LVU103
 283 00e0 059A     		ldr	r2, [sp, #20]
 284 00e2 1278     		ldrb	r2, [r2]	@ zero_extendqisi2
 285              		.loc 1 355 10 view .LVU104
 286 00e4 AEEB0200 		sub	r0, lr, r2
 287              	.LVL32:
 356:Src/maze_solve.c ****       if (qY > (unsigned int)q0) {
 288              		.loc 1 356 7 is_stmt 1 view .LVU105
 289              		.loc 1 356 10 is_stmt 0 view .LVU106
 290 00e8 8645     		cmp	lr, r0
 291 00ea 00D2     		bcs	.L19
 357:Src/maze_solve.c ****         qY = 0U;
 292              		.loc 1 357 12 view .LVU107
 293 00ec 0020     		movs	r0, #0
 294              	.LVL33:
 295              	.L19:
 358:Src/maze_solve.c ****       }
 359:Src/maze_solve.c **** 
 360:Src/maze_solve.c ****       k = (unsigned char)((unsigned char)qY % 4);
 296              		.loc 1 360 7 is_stmt 1 view .LVU108
 297              		.loc 1 360 9 is_stmt 0 view .LVU109
 298 00ee 00F00300 		and	r0, r0, #3
 299              	.LVL34:
 361:Src/maze_solve.c ****       a = l_direction->contents.front;
 300              		.loc 1 361 7 is_stmt 1 view .LVU110
 301              		.loc 1 361 9 is_stmt 0 view .LVU111
 302 00f2 9AF800E0 		ldrb	lr, [r10]	@ zero_extendqisi2
 303              	.LVL35:
 362:Src/maze_solve.c ****       varargin_2 = l_direction->contents.right;
 304              		.loc 1 362 7 is_stmt 1 view .LVU112
 305              		.loc 1 362 18 is_stmt 0 view .LVU113
 306 00f6 9AF80160 		ldrb	r6, [r10, #1]	@ zero_extendqisi2
 307 00fa 0496     		str	r6, [sp, #16]
 308              	.LVL36:
 363:Src/maze_solve.c ****       varargin_3 = l_direction->contents.back;
 309              		.loc 1 363 7 is_stmt 1 view .LVU114
 310              		.loc 1 363 18 is_stmt 0 view .LVU115
 311 00fc 9AF80260 		ldrb	r6, [r10, #2]	@ zero_extendqisi2
 312 0100 0796     		str	r6, [sp, #28]
 313              	.LVL37:
 364:Src/maze_solve.c ****       varargin_4 = l_direction->contents.left;
 314              		.loc 1 364 7 is_stmt 1 view .LVU116
 315              		.loc 1 364 18 is_stmt 0 view .LVU117
 316 0102 9AF80360 		ldrb	r6, [r10, #3]	@ zero_extendqisi2
 317              	.LVL38:
 365:Src/maze_solve.c ****       if (a == k) {
ARM GAS  C:\Temp\cc4yiJU0.s 			page 13


 318              		.loc 1 365 7 is_stmt 1 view .LVU118
 319              		.loc 1 365 10 is_stmt 0 view .LVU119
 320 0106 7045     		cmp	r0, lr
 321 0108 58D0     		beq	.L104
 366:Src/maze_solve.c ****         q0 = 0;
 367:Src/maze_solve.c ****       } else if (varargin_2 == k) {
 322              		.loc 1 367 14 is_stmt 1 view .LVU120
 323              		.loc 1 367 17 is_stmt 0 view .LVU121
 324 010a 049C     		ldr	r4, [sp, #16]
 325 010c A042     		cmp	r0, r4
 326 010e 00F0B880 		beq	.L23
 368:Src/maze_solve.c ****         q0 = 1;
 369:Src/maze_solve.c ****       } else if (varargin_3 == k) {
 327              		.loc 1 369 14 is_stmt 1 view .LVU122
 328              		.loc 1 369 17 is_stmt 0 view .LVU123
 329 0112 079C     		ldr	r4, [sp, #28]
 330 0114 A042     		cmp	r0, r4
 331 0116 00F08E80 		beq	.L24
 370:Src/maze_solve.c ****         q0 = 2;
 371:Src/maze_solve.c ****       } else if (varargin_4 == k) {
 332              		.loc 1 371 14 is_stmt 1 view .LVU124
 333              		.loc 1 371 17 is_stmt 0 view .LVU125
 334 011a B042     		cmp	r0, r6
 335 011c 60D0     		beq	.L105
 218:Src/maze_solve.c **** 
 336              		.loc 1 218 12 view .LVU126
 337 011e 0022     		movs	r2, #0
 338 0120 3FE1     		b	.L5
 339              	.LVL39:
 340              	.L63:
 241:Src/maze_solve.c ****       }
 341              		.loc 1 241 13 view .LVU127
 342 0122 0020     		movs	r0, #0
 343 0124 ADE7     		b	.L6
 344              	.L100:
 246:Src/maze_solve.c ****         if ((unsigned int)q0 > 255U) {
 345              		.loc 1 246 9 is_stmt 1 view .LVU128
 246:Src/maze_solve.c ****         if ((unsigned int)q0 > 255U) {
 346              		.loc 1 246 40 is_stmt 0 view .LVU129
 347 0126 601C     		adds	r0, r4, #1
 348              	.LVL40:
 247:Src/maze_solve.c ****           q0 = 255;
 349              		.loc 1 247 9 is_stmt 1 view .LVU130
 247:Src/maze_solve.c ****           q0 = 255;
 350              		.loc 1 247 12 is_stmt 0 view .LVU131
 351 0128 FF28     		cmp	r0, #255
 352 012a 00D9     		bls	.L8
 248:Src/maze_solve.c ****         }
 353              		.loc 1 248 14 view .LVU132
 354 012c FF20     		movs	r0, #255
 355              	.LVL41:
 356              	.L8:
 251:Src/maze_solve.c ****           /* 閾値を北側の等高map値に変更 */
 357              		.loc 1 251 9 is_stmt 1 view .LVU133
 251:Src/maze_solve.c ****           /* 閾値を北側の等高map値に変更 */
 358              		.loc 1 251 29 is_stmt 0 view .LVU134
 359 012e 3044     		add	r0, r0, r6
ARM GAS  C:\Temp\cc4yiJU0.s 			page 14


 360              	.LVL42:
 251:Src/maze_solve.c ****           /* 閾値を北側の等高map値に変更 */
 361              		.loc 1 251 24 view .LVU135
 362 0130 169F     		ldr	r7, [sp, #88]
 363 0132 3844     		add	r0, r0, r7
 364 0134 10F8010C 		ldrb	r0, [r0, #-1]	@ zero_extendqisi2
 251:Src/maze_solve.c ****           /* 閾値を北側の等高map値に変更 */
 365              		.loc 1 251 12 view .LVU136
 366 0138 029F     		ldr	r7, [sp, #8]
 367 013a B842     		cmp	r0, r7
 368 013c A7D2     		bcs	.L7
 261:Src/maze_solve.c ****         }
 369              		.loc 1 261 20 view .LVU137
 370 013e CDF80C80 		str	r8, [sp, #12]
 371              	.LVL43:
 258:Src/maze_solve.c **** 
 372              		.loc 1 258 18 view .LVU138
 373 0142 0290     		str	r0, [sp, #8]
 374              	.LVL44:
 258:Src/maze_solve.c **** 
 375              		.loc 1 258 18 view .LVU139
 376 0144 A3E7     		b	.L7
 377              	.LVL45:
 378              	.L66:
 271:Src/maze_solve.c ****       }
 379              		.loc 1 271 13 view .LVU140
 380 0146 0020     		movs	r0, #0
 381 0148 AAE7     		b	.L9
 382              	.L101:
 275:Src/maze_solve.c ****         if ((unsigned int)q0 > 255U) {
 383              		.loc 1 275 9 is_stmt 1 view .LVU141
 275:Src/maze_solve.c ****         if ((unsigned int)q0 > 255U) {
 384              		.loc 1 275 40 is_stmt 0 view .LVU142
 385 014a 681C     		adds	r0, r5, #1
 386              	.LVL46:
 276:Src/maze_solve.c ****           q0 = 255;
 387              		.loc 1 276 9 is_stmt 1 view .LVU143
 276:Src/maze_solve.c ****           q0 = 255;
 388              		.loc 1 276 12 is_stmt 0 view .LVU144
 389 014c FF28     		cmp	r0, #255
 390 014e 00D9     		bls	.L11
 277:Src/maze_solve.c ****         }
 391              		.loc 1 277 14 view .LVU145
 392 0150 FF20     		movs	r0, #255
 393              	.LVL47:
 394              	.L11:
 280:Src/maze_solve.c ****           q0 = (int)(current_x->contents + 1U);
 395              		.loc 1 280 9 is_stmt 1 view .LVU146
 280:Src/maze_solve.c ****           q0 = (int)(current_x->contents + 1U);
 396              		.loc 1 280 53 is_stmt 0 view .LVU147
 397 0152 0138     		subs	r0, r0, #1
 398              	.LVL48:
 280:Src/maze_solve.c ****           q0 = (int)(current_x->contents + 1U);
 399              		.loc 1 280 46 view .LVU148
 400 0154 049F     		ldr	r7, [sp, #16]
 401 0156 07EB4010 		add	r0, r7, r0, lsl #5
 402              	.LVL49:
ARM GAS  C:\Temp\cc4yiJU0.s 			page 15


 280:Src/maze_solve.c ****           q0 = (int)(current_x->contents + 1U);
 403              		.loc 1 280 24 view .LVU149
 404 015a 169F     		ldr	r7, [sp, #88]
 405 015c 3844     		add	r0, r0, r7
 406 015e 10F8010C 		ldrb	r0, [r0, #-1]	@ zero_extendqisi2
 280:Src/maze_solve.c ****           q0 = (int)(current_x->contents + 1U);
 407              		.loc 1 280 12 view .LVU150
 408 0162 029F     		ldr	r7, [sp, #8]
 409 0164 B842     		cmp	r0, r7
 410 0166 9ED2     		bcs	.L10
 287:Src/maze_solve.c ****         }
 411              		.loc 1 287 20 view .LVU151
 412 0168 CDF80CC0 		str	ip, [sp, #12]
 413              	.LVL50:
 286:Src/maze_solve.c ****           next_dir = g_direction->contents.East;
 414              		.loc 1 286 18 view .LVU152
 415 016c 0290     		str	r0, [sp, #8]
 416              	.LVL51:
 286:Src/maze_solve.c ****           next_dir = g_direction->contents.East;
 417              		.loc 1 286 18 view .LVU153
 418 016e 9AE7     		b	.L10
 419              	.LVL52:
 420              	.L69:
 297:Src/maze_solve.c ****       }
 421              		.loc 1 297 13 view .LVU154
 422 0170 0020     		movs	r0, #0
 423 0172 9FE7     		b	.L12
 424              	.L102:
 301:Src/maze_solve.c ****         qY = q0 - 1U;
 425              		.loc 1 301 9 is_stmt 1 view .LVU155
 426              	.LVL53:
 302:Src/maze_solve.c ****         if (qY > (unsigned int)q0) {
 427              		.loc 1 302 9 view .LVU156
 302:Src/maze_solve.c ****         if (qY > (unsigned int)q0) {
 428              		.loc 1 302 12 is_stmt 0 view .LVU157
 429 0174 601E     		subs	r0, r4, #1
 430              	.LVL54:
 303:Src/maze_solve.c ****           qY = 0U;
 431              		.loc 1 303 9 is_stmt 1 view .LVU158
 303:Src/maze_solve.c ****           qY = 0U;
 432              		.loc 1 303 12 is_stmt 0 view .LVU159
 433 0176 8442     		cmp	r4, r0
 434 0178 00D2     		bcs	.L14
 304:Src/maze_solve.c ****         }
 435              		.loc 1 304 14 view .LVU160
 436 017a 0020     		movs	r0, #0
 437              	.LVL55:
 438              	.L14:
 307:Src/maze_solve.c ****             little) {
 439              		.loc 1 307 9 is_stmt 1 view .LVU161
 307:Src/maze_solve.c ****             little) {
 440              		.loc 1 307 34 is_stmt 0 view .LVU162
 441 017c 3044     		add	r0, r0, r6
 442              	.LVL56:
 307:Src/maze_solve.c ****             little) {
 443              		.loc 1 307 24 view .LVU163
 444 017e 169E     		ldr	r6, [sp, #88]
ARM GAS  C:\Temp\cc4yiJU0.s 			page 16


 445 0180 3044     		add	r0, r0, r6
 446 0182 10F8010C 		ldrb	r0, [r0, #-1]	@ zero_extendqisi2
 307:Src/maze_solve.c ****             little) {
 447              		.loc 1 307 12 view .LVU164
 448 0186 029E     		ldr	r6, [sp, #8]
 449 0188 B042     		cmp	r0, r6
 450 018a 96D2     		bcs	.L13
 316:Src/maze_solve.c ****         }
 451              		.loc 1 316 20 view .LVU165
 452 018c 0397     		str	r7, [sp, #12]
 453              	.LVL57:
 315:Src/maze_solve.c ****           next_dir = g_direction->contents.South;
 454              		.loc 1 315 18 view .LVU166
 455 018e 0290     		str	r0, [sp, #8]
 456              	.LVL58:
 315:Src/maze_solve.c ****           next_dir = g_direction->contents.South;
 457              		.loc 1 315 18 view .LVU167
 458 0190 93E7     		b	.L13
 459              	.LVL59:
 460              	.L72:
 326:Src/maze_solve.c ****       }
 461              		.loc 1 326 13 view .LVU168
 462 0192 0020     		movs	r0, #0
 463 0194 99E7     		b	.L15
 464              	.LVL60:
 465              	.L103:
 330:Src/maze_solve.c ****         qY = q0 - 1U;
 466              		.loc 1 330 9 is_stmt 1 view .LVU169
 331:Src/maze_solve.c ****         if (qY > (unsigned int)q0) {
 467              		.loc 1 331 9 view .LVU170
 331:Src/maze_solve.c ****         if (qY > (unsigned int)q0) {
 468              		.loc 1 331 12 is_stmt 0 view .LVU171
 469 0196 6A1E     		subs	r2, r5, #1
 470              	.LVL61:
 332:Src/maze_solve.c ****           qY = 0U;
 471              		.loc 1 332 9 is_stmt 1 view .LVU172
 332:Src/maze_solve.c ****           qY = 0U;
 472              		.loc 1 332 12 is_stmt 0 view .LVU173
 473 0198 9542     		cmp	r5, r2
 474 019a 00D2     		bcs	.L17
 333:Src/maze_solve.c ****         }
 475              		.loc 1 333 14 view .LVU174
 476 019c 0022     		movs	r2, #0
 477              	.LVL62:
 478              	.L17:
 336:Src/maze_solve.c ****             little) {
 479              		.loc 1 336 9 is_stmt 1 view .LVU175
 336:Src/maze_solve.c ****             little) {
 480              		.loc 1 336 58 is_stmt 0 view .LVU176
 481 019e 013A     		subs	r2, r2, #1
 482              	.LVL63:
 336:Src/maze_solve.c ****             little) {
 483              		.loc 1 336 46 view .LVU177
 484 01a0 0498     		ldr	r0, [sp, #16]
 485              	.LVL64:
 336:Src/maze_solve.c ****             little) {
 486              		.loc 1 336 46 view .LVU178
ARM GAS  C:\Temp\cc4yiJU0.s 			page 17


 487 01a2 00EB4212 		add	r2, r0, r2, lsl #5
 488              	.LVL65:
 336:Src/maze_solve.c ****             little) {
 489              		.loc 1 336 24 view .LVU179
 490 01a6 1698     		ldr	r0, [sp, #88]
 491 01a8 0244     		add	r2, r2, r0
 492 01aa 12F8012C 		ldrb	r2, [r2, #-1]	@ zero_extendqisi2
 336:Src/maze_solve.c ****             little) {
 493              		.loc 1 336 12 view .LVU180
 494 01ae 0298     		ldr	r0, [sp, #8]
 495 01b0 8242     		cmp	r2, r0
 496 01b2 8DD2     		bcs	.L16
 345:Src/maze_solve.c ****         }
 497              		.loc 1 345 20 view .LVU181
 498 01b4 0698     		ldr	r0, [sp, #24]
 499 01b6 0390     		str	r0, [sp, #12]
 500              	.LVL66:
 344:Src/maze_solve.c ****           next_dir = g_direction->contents.West;
 501              		.loc 1 344 18 view .LVU182
 502 01b8 0292     		str	r2, [sp, #8]
 503              	.LVL67:
 344:Src/maze_solve.c ****           next_dir = g_direction->contents.West;
 504              		.loc 1 344 18 view .LVU183
 505 01ba 89E7     		b	.L16
 506              	.LVL68:
 507              	.L104:
 372:Src/maze_solve.c ****         q0 = 3;
 373:Src/maze_solve.c ****       } else {
 374:Src/maze_solve.c ****         q0 = -1;
 375:Src/maze_solve.c ****       }
 376:Src/maze_solve.c **** 
 377:Src/maze_solve.c ****       switch (q0) {
 508              		.loc 1 377 7 is_stmt 1 view .LVU184
 378:Src/maze_solve.c ****        case 0:
 379:Src/maze_solve.c ****         k = current_x->contents;
 509              		.loc 1 379 9 view .LVU185
 380:Src/maze_solve.c ****         a = current_y->contents;
 510              		.loc 1 380 9 view .LVU186
 381:Src/maze_solve.c ****         varargin_2 = current_dir->contents;
 511              		.loc 1 381 9 view .LVU187
 382:Src/maze_solve.c **** 
 383:Src/maze_solve.c ****         /* 入力 現在位置x,y,現在方向 */
 384:Src/maze_solve.c ****         /* 出力 現在位置x,y */
 385:Src/maze_solve.c ****         /*  move_step 一マス前進する関数 */
 386:Src/maze_solve.c ****         /* 北に一マス */
 387:Src/maze_solve.c ****         if (varargin_2 == g_direction->contents.North) {
 512              		.loc 1 387 9 view .LVU188
 513              		.loc 1 387 12 is_stmt 0 view .LVU189
 514 01bc 4245     		cmp	r2, r8
 515 01be 00F08980 		beq	.L106
 516              	.LVL69:
 517              	.L22:
 388:Src/maze_solve.c ****           q0 = (int)(a + 1U);
 389:Src/maze_solve.c ****           if ((unsigned int)q0 > 255U) {
 390:Src/maze_solve.c ****             q0 = 255;
 391:Src/maze_solve.c ****           }
 392:Src/maze_solve.c **** 
ARM GAS  C:\Temp\cc4yiJU0.s 			page 18


 393:Src/maze_solve.c ****           a = (unsigned char)q0;
 394:Src/maze_solve.c **** 
 395:Src/maze_solve.c ****           /* disp("north_step") */
 396:Src/maze_solve.c ****         }
 397:Src/maze_solve.c **** 
 398:Src/maze_solve.c ****         /* 東に一マス */
 399:Src/maze_solve.c ****         if (varargin_2 == g_direction->contents.East) {
 518              		.loc 1 399 9 is_stmt 1 view .LVU190
 519              		.loc 1 399 12 is_stmt 0 view .LVU191
 520 01c2 6245     		cmp	r2, ip
 521 01c4 00F08C80 		beq	.L107
 522              	.L29:
 400:Src/maze_solve.c ****           q0 = (int)(k + 1U);
 401:Src/maze_solve.c ****           if ((unsigned int)q0 > 255U) {
 402:Src/maze_solve.c ****             q0 = 255;
 403:Src/maze_solve.c ****           }
 404:Src/maze_solve.c **** 
 405:Src/maze_solve.c ****           k = (unsigned char)q0;
 406:Src/maze_solve.c **** 
 407:Src/maze_solve.c ****           /* disp("east_step") */
 408:Src/maze_solve.c ****         }
 409:Src/maze_solve.c **** 
 410:Src/maze_solve.c ****         /* 南に一マス */
 411:Src/maze_solve.c ****         if (varargin_2 == g_direction->contents.South) {
 523              		.loc 1 411 9 is_stmt 1 view .LVU192
 524              		.loc 1 411 12 is_stmt 0 view .LVU193
 525 01c8 BA42     		cmp	r2, r7
 526 01ca 00F08F80 		beq	.L108
 527              	.L31:
 412:Src/maze_solve.c ****           qY = a - 1U;
 413:Src/maze_solve.c ****           if (qY > a) {
 414:Src/maze_solve.c ****             qY = 0U;
 415:Src/maze_solve.c ****           }
 416:Src/maze_solve.c **** 
 417:Src/maze_solve.c ****           a = (unsigned char)qY;
 418:Src/maze_solve.c **** 
 419:Src/maze_solve.c ****           /* disp("south_step") */
 420:Src/maze_solve.c ****         }
 421:Src/maze_solve.c **** 
 422:Src/maze_solve.c ****         /* 西に一マス */
 423:Src/maze_solve.c ****         if (varargin_2 == g_direction->contents.West) {
 528              		.loc 1 423 9 is_stmt 1 view .LVU194
 529              		.loc 1 423 12 is_stmt 0 view .LVU195
 530 01ce 0698     		ldr	r0, [sp, #24]
 531 01d0 8242     		cmp	r2, r0
 532 01d2 00F09180 		beq	.L109
 533              	.LVL70:
 534              	.L33:
 424:Src/maze_solve.c ****           qY = k - 1U;
 425:Src/maze_solve.c ****           if (qY > k) {
 426:Src/maze_solve.c ****             qY = 0U;
 427:Src/maze_solve.c ****           }
 428:Src/maze_solve.c **** 
 429:Src/maze_solve.c ****           k = (unsigned char)qY;
 430:Src/maze_solve.c **** 
 431:Src/maze_solve.c ****           /* disp("west_step") */
 432:Src/maze_solve.c ****         }
ARM GAS  C:\Temp\cc4yiJU0.s 			page 19


 433:Src/maze_solve.c **** 
 434:Src/maze_solve.c ****         current_x->contents = k;
 535              		.loc 1 434 9 is_stmt 1 view .LVU196
 536              		.loc 1 434 29 is_stmt 0 view .LVU197
 537 01d6 0D70     		strb	r5, [r1]
 538              	.LVL71:
 435:Src/maze_solve.c ****         current_y->contents = a;
 539              		.loc 1 435 9 is_stmt 1 view .LVU198
 540              		.loc 1 435 29 is_stmt 0 view .LVU199
 541 01d8 8BF80040 		strb	r4, [fp]
 436:Src/maze_solve.c **** 
 437:Src/maze_solve.c ****         /* disp("front") */
 438:Src/maze_solve.c ****         break;
 542              		.loc 1 438 9 is_stmt 1 view .LVU200
 218:Src/maze_solve.c **** 
 543              		.loc 1 218 12 is_stmt 0 view .LVU201
 544 01dc 0022     		movs	r2, #0
 545              		.loc 1 438 9 view .LVU202
 546 01de E0E0     		b	.L5
 547              	.LVL72:
 548              	.L105:
 377:Src/maze_solve.c ****        case 0:
 549              		.loc 1 377 7 is_stmt 1 view .LVU203
 439:Src/maze_solve.c **** 
 440:Src/maze_solve.c ****        case 1:
 441:Src/maze_solve.c ****         k = current_dir->contents;
 442:Src/maze_solve.c **** 
 443:Src/maze_solve.c ****         /* 入力 現在方向 */
 444:Src/maze_solve.c ****         /* 出力 現在方向 */
 445:Src/maze_solve.c ****         /*  turn_clk_90deg 時計周りに90度ターンする関数  */
 446:Src/maze_solve.c ****         q0 = (int)(4U + k);
 447:Src/maze_solve.c ****         if ((unsigned int)q0 > 255U) {
 448:Src/maze_solve.c ****           q0 = 255;
 449:Src/maze_solve.c ****         }
 450:Src/maze_solve.c **** 
 451:Src/maze_solve.c ****         q0++;
 452:Src/maze_solve.c ****         if ((unsigned int)q0 > 255U) {
 453:Src/maze_solve.c ****           q0 = 255;
 454:Src/maze_solve.c ****         }
 455:Src/maze_solve.c **** 
 456:Src/maze_solve.c ****         current_dir->contents = (unsigned char)(q0 % 4);
 457:Src/maze_solve.c ****         k = current_x->contents;
 458:Src/maze_solve.c ****         a = current_y->contents;
 459:Src/maze_solve.c ****         varargin_2 = current_dir->contents;
 460:Src/maze_solve.c **** 
 461:Src/maze_solve.c ****         /* 入力 現在位置x,y,現在方向 */
 462:Src/maze_solve.c ****         /* 出力 現在位置x,y */
 463:Src/maze_solve.c ****         /*  move_step 一マス前進する関数 */
 464:Src/maze_solve.c ****         /* 北に一マス */
 465:Src/maze_solve.c ****         if (varargin_2 == g_direction->contents.North) {
 466:Src/maze_solve.c ****           q0 = (int)(a + 1U);
 467:Src/maze_solve.c ****           if ((unsigned int)q0 > 255U) {
 468:Src/maze_solve.c ****             q0 = 255;
 469:Src/maze_solve.c ****           }
 470:Src/maze_solve.c **** 
 471:Src/maze_solve.c ****           a = (unsigned char)q0;
 472:Src/maze_solve.c **** 
ARM GAS  C:\Temp\cc4yiJU0.s 			page 20


 473:Src/maze_solve.c ****           /* disp("north_step") */
 474:Src/maze_solve.c ****         }
 475:Src/maze_solve.c **** 
 476:Src/maze_solve.c ****         /* 東に一マス */
 477:Src/maze_solve.c ****         if (varargin_2 == g_direction->contents.East) {
 478:Src/maze_solve.c ****           q0 = (int)(k + 1U);
 479:Src/maze_solve.c ****           if ((unsigned int)q0 > 255U) {
 480:Src/maze_solve.c ****             q0 = 255;
 481:Src/maze_solve.c ****           }
 482:Src/maze_solve.c **** 
 483:Src/maze_solve.c ****           k = (unsigned char)q0;
 484:Src/maze_solve.c **** 
 485:Src/maze_solve.c ****           /* disp("east_step") */
 486:Src/maze_solve.c ****         }
 487:Src/maze_solve.c **** 
 488:Src/maze_solve.c ****         /* 南に一マス */
 489:Src/maze_solve.c ****         if (varargin_2 == g_direction->contents.South) {
 490:Src/maze_solve.c ****           qY = a - 1U;
 491:Src/maze_solve.c ****           if (qY > a) {
 492:Src/maze_solve.c ****             qY = 0U;
 493:Src/maze_solve.c ****           }
 494:Src/maze_solve.c **** 
 495:Src/maze_solve.c ****           a = (unsigned char)qY;
 496:Src/maze_solve.c **** 
 497:Src/maze_solve.c ****           /* disp("south_step") */
 498:Src/maze_solve.c ****         }
 499:Src/maze_solve.c **** 
 500:Src/maze_solve.c ****         /* 西に一マス */
 501:Src/maze_solve.c ****         if (varargin_2 == g_direction->contents.West) {
 502:Src/maze_solve.c ****           qY = k - 1U;
 503:Src/maze_solve.c ****           if (qY > k) {
 504:Src/maze_solve.c ****             qY = 0U;
 505:Src/maze_solve.c ****           }
 506:Src/maze_solve.c **** 
 507:Src/maze_solve.c ****           k = (unsigned char)qY;
 508:Src/maze_solve.c **** 
 509:Src/maze_solve.c ****           /* disp("west_step") */
 510:Src/maze_solve.c ****         }
 511:Src/maze_solve.c **** 
 512:Src/maze_solve.c ****         current_x->contents = k;
 513:Src/maze_solve.c ****         current_y->contents = a;
 514:Src/maze_solve.c **** 
 515:Src/maze_solve.c ****         /* disp("right") */
 516:Src/maze_solve.c ****         break;
 517:Src/maze_solve.c **** 
 518:Src/maze_solve.c ****        case 2:
 519:Src/maze_solve.c ****         k = current_dir->contents;
 520:Src/maze_solve.c **** 
 521:Src/maze_solve.c ****         /* 入力 現在方向 */
 522:Src/maze_solve.c ****         /* 出力 現在方向 */
 523:Src/maze_solve.c ****         /*  turn_180deg 180度ターンする関数 */
 524:Src/maze_solve.c ****         q0 = (int)(4U + k);
 525:Src/maze_solve.c ****         if ((unsigned int)q0 > 255U) {
 526:Src/maze_solve.c ****           q0 = 255;
 527:Src/maze_solve.c ****         }
 528:Src/maze_solve.c **** 
 529:Src/maze_solve.c ****         current_dir->contents = (unsigned char)((q0 - 2) % 4);
ARM GAS  C:\Temp\cc4yiJU0.s 			page 21


 530:Src/maze_solve.c ****         k = current_x->contents;
 531:Src/maze_solve.c ****         a = current_y->contents;
 532:Src/maze_solve.c ****         varargin_2 = current_dir->contents;
 533:Src/maze_solve.c **** 
 534:Src/maze_solve.c ****         /* 入力 現在位置x,y,現在方向 */
 535:Src/maze_solve.c ****         /* 出力 現在位置x,y */
 536:Src/maze_solve.c ****         /*  move_step 一マス前進する関数 */
 537:Src/maze_solve.c ****         /* 北に一マス */
 538:Src/maze_solve.c ****         if (varargin_2 == g_direction->contents.North) {
 539:Src/maze_solve.c ****           q0 = (int)(a + 1U);
 540:Src/maze_solve.c ****           if ((unsigned int)q0 > 255U) {
 541:Src/maze_solve.c ****             q0 = 255;
 542:Src/maze_solve.c ****           }
 543:Src/maze_solve.c **** 
 544:Src/maze_solve.c ****           a = (unsigned char)q0;
 545:Src/maze_solve.c **** 
 546:Src/maze_solve.c ****           /* disp("north_step") */
 547:Src/maze_solve.c ****         }
 548:Src/maze_solve.c **** 
 549:Src/maze_solve.c ****         /* 東に一マス */
 550:Src/maze_solve.c ****         if (varargin_2 == g_direction->contents.East) {
 551:Src/maze_solve.c ****           q0 = (int)(k + 1U);
 552:Src/maze_solve.c ****           if ((unsigned int)q0 > 255U) {
 553:Src/maze_solve.c ****             q0 = 255;
 554:Src/maze_solve.c ****           }
 555:Src/maze_solve.c **** 
 556:Src/maze_solve.c ****           k = (unsigned char)q0;
 557:Src/maze_solve.c **** 
 558:Src/maze_solve.c ****           /* disp("east_step") */
 559:Src/maze_solve.c ****         }
 560:Src/maze_solve.c **** 
 561:Src/maze_solve.c ****         /* 南に一マス */
 562:Src/maze_solve.c ****         if (varargin_2 == g_direction->contents.South) {
 563:Src/maze_solve.c ****           qY = a - 1U;
 564:Src/maze_solve.c ****           if (qY > a) {
 565:Src/maze_solve.c ****             qY = 0U;
 566:Src/maze_solve.c ****           }
 567:Src/maze_solve.c **** 
 568:Src/maze_solve.c ****           a = (unsigned char)qY;
 569:Src/maze_solve.c **** 
 570:Src/maze_solve.c ****           /* disp("south_step") */
 571:Src/maze_solve.c ****         }
 572:Src/maze_solve.c **** 
 573:Src/maze_solve.c ****         /* 西に一マス */
 574:Src/maze_solve.c ****         if (varargin_2 == g_direction->contents.West) {
 575:Src/maze_solve.c ****           qY = k - 1U;
 576:Src/maze_solve.c ****           if (qY > k) {
 577:Src/maze_solve.c ****             qY = 0U;
 578:Src/maze_solve.c ****           }
 579:Src/maze_solve.c **** 
 580:Src/maze_solve.c ****           k = (unsigned char)qY;
 581:Src/maze_solve.c **** 
 582:Src/maze_solve.c ****           /* disp("west_step") */
 583:Src/maze_solve.c ****         }
 584:Src/maze_solve.c **** 
 585:Src/maze_solve.c ****         current_x->contents = k;
 586:Src/maze_solve.c ****         current_y->contents = a;
ARM GAS  C:\Temp\cc4yiJU0.s 			page 22


 587:Src/maze_solve.c **** 
 588:Src/maze_solve.c ****         /* disp("back") */
 589:Src/maze_solve.c ****         break;
 590:Src/maze_solve.c **** 
 591:Src/maze_solve.c ****        case 3:
 592:Src/maze_solve.c ****         k = current_dir->contents;
 550              		.loc 1 592 9 view .LVU204
 593:Src/maze_solve.c **** 
 594:Src/maze_solve.c ****         /* 入力　現在方向 */
 595:Src/maze_solve.c ****         /* 出力　現在方向 */
 596:Src/maze_solve.c ****         /*  turn_conclk_90deg 反時計周りに90度回る関数  */
 597:Src/maze_solve.c ****         q0 = (int)(4U + k);
 551              		.loc 1 597 9 view .LVU205
 552              		.loc 1 597 23 is_stmt 0 view .LVU206
 553 01e0 0432     		adds	r2, r2, #4
 554              	.LVL73:
 598:Src/maze_solve.c ****         if ((unsigned int)q0 > 255U) {
 555              		.loc 1 598 9 is_stmt 1 view .LVU207
 556              		.loc 1 598 12 is_stmt 0 view .LVU208
 557 01e2 FF2A     		cmp	r2, #255
 558 01e4 00F2C280 		bhi	.L78
 559              	.LVL74:
 560              	.L25:
 599:Src/maze_solve.c ****           q0 = 255;
 600:Src/maze_solve.c ****         }
 601:Src/maze_solve.c **** 
 602:Src/maze_solve.c ****         current_dir->contents = (unsigned char)((q0 - 1) % 4);
 561              		.loc 1 602 9 is_stmt 1 view .LVU209
 562              		.loc 1 602 53 is_stmt 0 view .LVU210
 563 01e8 013A     		subs	r2, r2, #1
 564              	.LVL75:
 565              		.loc 1 602 58 view .LVU211
 566 01ea 5042     		rsbs	r0, r2, #0
 567 01ec 02F00302 		and	r2, r2, #3
 568              	.LVL76:
 569              		.loc 1 602 58 view .LVU212
 570 01f0 00F00300 		and	r0, r0, #3
 571 01f4 58BF     		it	pl
 572 01f6 4242     		rsbpl	r2, r0, #0
 573              		.loc 1 602 33 view .LVU213
 574 01f8 D2B2     		uxtb	r2, r2
 575              		.loc 1 602 31 view .LVU214
 576 01fa 0598     		ldr	r0, [sp, #20]
 577 01fc 0270     		strb	r2, [r0]
 578              	.LVL77:
 603:Src/maze_solve.c ****         k = current_x->contents;
 579              		.loc 1 603 9 is_stmt 1 view .LVU215
 580              		.loc 1 603 11 is_stmt 0 view .LVU216
 581 01fe 0C78     		ldrb	r4, [r1]	@ zero_extendqisi2
 582              	.LVL78:
 604:Src/maze_solve.c ****         a = current_y->contents;
 583              		.loc 1 604 9 is_stmt 1 view .LVU217
 584              		.loc 1 604 11 is_stmt 0 view .LVU218
 585 0200 9BF80000 		ldrb	r0, [fp]	@ zero_extendqisi2
 586              	.LVL79:
 605:Src/maze_solve.c ****         varargin_2 = current_dir->contents;
 587              		.loc 1 605 9 is_stmt 1 view .LVU219
ARM GAS  C:\Temp\cc4yiJU0.s 			page 23


 606:Src/maze_solve.c **** 
 607:Src/maze_solve.c ****         /* 入力 現在位置x,y,現在方向 */
 608:Src/maze_solve.c ****         /* 出力 現在位置x,y */
 609:Src/maze_solve.c ****         /*  move_step 一マス前進する関数 */
 610:Src/maze_solve.c ****         /* 北に一マス */
 611:Src/maze_solve.c ****         if (varargin_2 == g_direction->contents.North) {
 588              		.loc 1 611 9 view .LVU220
 589              		.loc 1 611 48 is_stmt 0 view .LVU221
 590 0204 99F80050 		ldrb	r5, [r9]	@ zero_extendqisi2
 591              		.loc 1 611 12 view .LVU222
 592 0208 AA42     		cmp	r2, r5
 593 020a 00F0B180 		beq	.L110
 594              	.L52:
 612:Src/maze_solve.c ****           q0 = (int)(a + 1U);
 613:Src/maze_solve.c ****           if ((unsigned int)q0 > 255U) {
 614:Src/maze_solve.c ****             q0 = 255;
 615:Src/maze_solve.c ****           }
 616:Src/maze_solve.c **** 
 617:Src/maze_solve.c ****           a = (unsigned char)q0;
 618:Src/maze_solve.c **** 
 619:Src/maze_solve.c ****           /* disp("north_step") */
 620:Src/maze_solve.c ****         }
 621:Src/maze_solve.c **** 
 622:Src/maze_solve.c ****         /* 東に一マス */
 623:Src/maze_solve.c ****         if (varargin_2 == g_direction->contents.East) {
 595              		.loc 1 623 9 is_stmt 1 view .LVU223
 596              		.loc 1 623 48 is_stmt 0 view .LVU224
 597 020e 99F80150 		ldrb	r5, [r9, #1]	@ zero_extendqisi2
 598              		.loc 1 623 12 view .LVU225
 599 0212 AA42     		cmp	r2, r5
 600 0214 00F0B280 		beq	.L111
 601              	.L54:
 624:Src/maze_solve.c ****           q0 = (int)(k + 1U);
 625:Src/maze_solve.c ****           if ((unsigned int)q0 > 255U) {
 626:Src/maze_solve.c ****             q0 = 255;
 627:Src/maze_solve.c ****           }
 628:Src/maze_solve.c **** 
 629:Src/maze_solve.c ****           k = (unsigned char)q0;
 630:Src/maze_solve.c **** 
 631:Src/maze_solve.c ****           /* disp("east_step") */
 632:Src/maze_solve.c ****         }
 633:Src/maze_solve.c **** 
 634:Src/maze_solve.c ****         /* 南に一マス */
 635:Src/maze_solve.c ****         if (varargin_2 == g_direction->contents.South) {
 602              		.loc 1 635 9 is_stmt 1 view .LVU226
 603              		.loc 1 635 48 is_stmt 0 view .LVU227
 604 0218 99F80250 		ldrb	r5, [r9, #2]	@ zero_extendqisi2
 605              		.loc 1 635 12 view .LVU228
 606 021c AA42     		cmp	r2, r5
 607 021e 00F0B380 		beq	.L112
 608              	.L56:
 636:Src/maze_solve.c ****           qY = a - 1U;
 637:Src/maze_solve.c ****           if (qY > a) {
 638:Src/maze_solve.c ****             qY = 0U;
 639:Src/maze_solve.c ****           }
 640:Src/maze_solve.c **** 
 641:Src/maze_solve.c ****           a = (unsigned char)qY;
ARM GAS  C:\Temp\cc4yiJU0.s 			page 24


 642:Src/maze_solve.c **** 
 643:Src/maze_solve.c ****           /* disp("south_step") */
 644:Src/maze_solve.c ****         }
 645:Src/maze_solve.c **** 
 646:Src/maze_solve.c ****         /* 西に一マス */
 647:Src/maze_solve.c ****         if (varargin_2 == g_direction->contents.West) {
 609              		.loc 1 647 9 is_stmt 1 view .LVU229
 610              		.loc 1 647 48 is_stmt 0 view .LVU230
 611 0222 99F80350 		ldrb	r5, [r9, #3]	@ zero_extendqisi2
 612              		.loc 1 647 12 view .LVU231
 613 0226 AA42     		cmp	r2, r5
 614 0228 00F0B480 		beq	.L113
 615              	.LVL80:
 616              	.L58:
 648:Src/maze_solve.c ****           qY = k - 1U;
 649:Src/maze_solve.c ****           if (qY > k) {
 650:Src/maze_solve.c ****             qY = 0U;
 651:Src/maze_solve.c ****           }
 652:Src/maze_solve.c **** 
 653:Src/maze_solve.c ****           k = (unsigned char)qY;
 654:Src/maze_solve.c **** 
 655:Src/maze_solve.c ****           /* disp("west_step") */
 656:Src/maze_solve.c ****         }
 657:Src/maze_solve.c **** 
 658:Src/maze_solve.c ****         current_x->contents = k;
 617              		.loc 1 658 9 is_stmt 1 view .LVU232
 618              		.loc 1 658 29 is_stmt 0 view .LVU233
 619 022c 0C70     		strb	r4, [r1]
 620              	.LVL81:
 659:Src/maze_solve.c ****         current_y->contents = a;
 621              		.loc 1 659 9 is_stmt 1 view .LVU234
 622              		.loc 1 659 29 is_stmt 0 view .LVU235
 623 022e 8BF80000 		strb	r0, [fp]
 660:Src/maze_solve.c **** 
 661:Src/maze_solve.c ****         /* disp("left") */
 662:Src/maze_solve.c ****         break;
 624              		.loc 1 662 9 is_stmt 1 view .LVU236
 218:Src/maze_solve.c **** 
 625              		.loc 1 218 12 is_stmt 0 view .LVU237
 626 0232 0022     		movs	r2, #0
 627              		.loc 1 662 9 view .LVU238
 628 0234 B5E0     		b	.L5
 629              	.LVL82:
 630              	.L24:
 377:Src/maze_solve.c ****        case 0:
 631              		.loc 1 377 7 is_stmt 1 view .LVU239
 519:Src/maze_solve.c **** 
 632              		.loc 1 519 9 view .LVU240
 524:Src/maze_solve.c ****         if ((unsigned int)q0 > 255U) {
 633              		.loc 1 524 9 view .LVU241
 524:Src/maze_solve.c ****         if ((unsigned int)q0 > 255U) {
 634              		.loc 1 524 23 is_stmt 0 view .LVU242
 635 0236 0432     		adds	r2, r2, #4
 636              	.LVL83:
 525:Src/maze_solve.c ****           q0 = 255;
 637              		.loc 1 525 9 is_stmt 1 view .LVU243
 525:Src/maze_solve.c ****           q0 = 255;
ARM GAS  C:\Temp\cc4yiJU0.s 			page 25


 638              		.loc 1 525 12 is_stmt 0 view .LVU244
 639 0238 FF2A     		cmp	r2, #255
 640 023a 7DD8     		bhi	.L79
 641              	.LVL84:
 642              	.L26:
 529:Src/maze_solve.c ****         k = current_x->contents;
 643              		.loc 1 529 9 is_stmt 1 view .LVU245
 529:Src/maze_solve.c ****         k = current_x->contents;
 644              		.loc 1 529 53 is_stmt 0 view .LVU246
 645 023c 023A     		subs	r2, r2, #2
 646              	.LVL85:
 529:Src/maze_solve.c ****         k = current_x->contents;
 647              		.loc 1 529 58 view .LVU247
 648 023e 5042     		rsbs	r0, r2, #0
 649 0240 02F00302 		and	r2, r2, #3
 650              	.LVL86:
 529:Src/maze_solve.c ****         k = current_x->contents;
 651              		.loc 1 529 58 view .LVU248
 652 0244 00F00300 		and	r0, r0, #3
 653 0248 58BF     		it	pl
 654 024a 4242     		rsbpl	r2, r0, #0
 529:Src/maze_solve.c ****         k = current_x->contents;
 655              		.loc 1 529 33 view .LVU249
 656 024c D2B2     		uxtb	r2, r2
 529:Src/maze_solve.c ****         k = current_x->contents;
 657              		.loc 1 529 31 view .LVU250
 658 024e 0598     		ldr	r0, [sp, #20]
 659 0250 0270     		strb	r2, [r0]
 660              	.LVL87:
 530:Src/maze_solve.c ****         a = current_y->contents;
 661              		.loc 1 530 9 is_stmt 1 view .LVU251
 530:Src/maze_solve.c ****         a = current_y->contents;
 662              		.loc 1 530 11 is_stmt 0 view .LVU252
 663 0252 0C78     		ldrb	r4, [r1]	@ zero_extendqisi2
 664              	.LVL88:
 531:Src/maze_solve.c ****         varargin_2 = current_dir->contents;
 665              		.loc 1 531 9 is_stmt 1 view .LVU253
 531:Src/maze_solve.c ****         varargin_2 = current_dir->contents;
 666              		.loc 1 531 11 is_stmt 0 view .LVU254
 667 0254 9BF80000 		ldrb	r0, [fp]	@ zero_extendqisi2
 668              	.LVL89:
 532:Src/maze_solve.c **** 
 669              		.loc 1 532 9 is_stmt 1 view .LVU255
 538:Src/maze_solve.c ****           q0 = (int)(a + 1U);
 670              		.loc 1 538 9 view .LVU256
 538:Src/maze_solve.c ****           q0 = (int)(a + 1U);
 671              		.loc 1 538 48 is_stmt 0 view .LVU257
 672 0258 99F80050 		ldrb	r5, [r9]	@ zero_extendqisi2
 538:Src/maze_solve.c ****           q0 = (int)(a + 1U);
 673              		.loc 1 538 12 view .LVU258
 674 025c AA42     		cmp	r2, r5
 675 025e 6DD0     		beq	.L114
 676              	.L44:
 550:Src/maze_solve.c ****           q0 = (int)(k + 1U);
 677              		.loc 1 550 9 is_stmt 1 view .LVU259
 550:Src/maze_solve.c ****           q0 = (int)(k + 1U);
 678              		.loc 1 550 48 is_stmt 0 view .LVU260
ARM GAS  C:\Temp\cc4yiJU0.s 			page 26


 679 0260 99F80150 		ldrb	r5, [r9, #1]	@ zero_extendqisi2
 550:Src/maze_solve.c ****           q0 = (int)(k + 1U);
 680              		.loc 1 550 12 view .LVU261
 681 0264 AA42     		cmp	r2, r5
 682 0266 6FD0     		beq	.L115
 683              	.L46:
 562:Src/maze_solve.c ****           qY = a - 1U;
 684              		.loc 1 562 9 is_stmt 1 view .LVU262
 562:Src/maze_solve.c ****           qY = a - 1U;
 685              		.loc 1 562 48 is_stmt 0 view .LVU263
 686 0268 99F80250 		ldrb	r5, [r9, #2]	@ zero_extendqisi2
 562:Src/maze_solve.c ****           qY = a - 1U;
 687              		.loc 1 562 12 view .LVU264
 688 026c AA42     		cmp	r2, r5
 689 026e 71D0     		beq	.L116
 690              	.L48:
 574:Src/maze_solve.c ****           qY = k - 1U;
 691              		.loc 1 574 9 is_stmt 1 view .LVU265
 574:Src/maze_solve.c ****           qY = k - 1U;
 692              		.loc 1 574 48 is_stmt 0 view .LVU266
 693 0270 99F80350 		ldrb	r5, [r9, #3]	@ zero_extendqisi2
 574:Src/maze_solve.c ****           qY = k - 1U;
 694              		.loc 1 574 12 view .LVU267
 695 0274 AA42     		cmp	r2, r5
 696 0276 73D0     		beq	.L117
 697              	.LVL90:
 698              	.L50:
 585:Src/maze_solve.c ****         current_y->contents = a;
 699              		.loc 1 585 9 is_stmt 1 view .LVU268
 585:Src/maze_solve.c ****         current_y->contents = a;
 700              		.loc 1 585 29 is_stmt 0 view .LVU269
 701 0278 0C70     		strb	r4, [r1]
 702              	.LVL91:
 586:Src/maze_solve.c **** 
 703              		.loc 1 586 9 is_stmt 1 view .LVU270
 586:Src/maze_solve.c **** 
 704              		.loc 1 586 29 is_stmt 0 view .LVU271
 705 027a 8BF80000 		strb	r0, [fp]
 589:Src/maze_solve.c **** 
 706              		.loc 1 589 9 is_stmt 1 view .LVU272
 218:Src/maze_solve.c **** 
 707              		.loc 1 218 12 is_stmt 0 view .LVU273
 708 027e 0022     		movs	r2, #0
 589:Src/maze_solve.c **** 
 709              		.loc 1 589 9 view .LVU274
 710 0280 8FE0     		b	.L5
 711              	.LVL92:
 712              	.L23:
 377:Src/maze_solve.c ****        case 0:
 713              		.loc 1 377 7 is_stmt 1 view .LVU275
 441:Src/maze_solve.c **** 
 714              		.loc 1 441 9 view .LVU276
 446:Src/maze_solve.c ****         if ((unsigned int)q0 > 255U) {
 715              		.loc 1 446 9 view .LVU277
 446:Src/maze_solve.c ****         if ((unsigned int)q0 > 255U) {
 716              		.loc 1 446 23 is_stmt 0 view .LVU278
 717 0282 0432     		adds	r2, r2, #4
ARM GAS  C:\Temp\cc4yiJU0.s 			page 27


 718              	.LVL93:
 447:Src/maze_solve.c ****           q0 = 255;
 719              		.loc 1 447 9 is_stmt 1 view .LVU279
 447:Src/maze_solve.c ****           q0 = 255;
 720              		.loc 1 447 12 is_stmt 0 view .LVU280
 721 0284 FF2A     		cmp	r2, #255
 722 0286 3DD8     		bhi	.L80
 723              	.LVL94:
 724              	.L27:
 451:Src/maze_solve.c ****         if ((unsigned int)q0 > 255U) {
 725              		.loc 1 451 9 is_stmt 1 view .LVU281
 451:Src/maze_solve.c ****         if ((unsigned int)q0 > 255U) {
 726              		.loc 1 451 11 is_stmt 0 view .LVU282
 727 0288 0132     		adds	r2, r2, #1
 728              	.LVL95:
 452:Src/maze_solve.c ****           q0 = 255;
 729              		.loc 1 452 9 is_stmt 1 view .LVU283
 452:Src/maze_solve.c ****           q0 = 255;
 730              		.loc 1 452 12 is_stmt 0 view .LVU284
 731 028a FF2A     		cmp	r2, #255
 732 028c 00D9     		bls	.L35
 453:Src/maze_solve.c ****         }
 733              		.loc 1 453 14 view .LVU285
 734 028e FF22     		movs	r2, #255
 735              	.LVL96:
 736              	.L35:
 456:Src/maze_solve.c ****         k = current_x->contents;
 737              		.loc 1 456 9 is_stmt 1 view .LVU286
 456:Src/maze_solve.c ****         k = current_x->contents;
 738              		.loc 1 456 52 is_stmt 0 view .LVU287
 739 0290 5042     		rsbs	r0, r2, #0
 740 0292 02F00302 		and	r2, r2, #3
 741              	.LVL97:
 456:Src/maze_solve.c ****         k = current_x->contents;
 742              		.loc 1 456 52 view .LVU288
 743 0296 00F00300 		and	r0, r0, #3
 744 029a 58BF     		it	pl
 745 029c 4242     		rsbpl	r2, r0, #0
 456:Src/maze_solve.c ****         k = current_x->contents;
 746              		.loc 1 456 33 view .LVU289
 747 029e D2B2     		uxtb	r2, r2
 456:Src/maze_solve.c ****         k = current_x->contents;
 748              		.loc 1 456 31 view .LVU290
 749 02a0 0598     		ldr	r0, [sp, #20]
 750 02a2 0270     		strb	r2, [r0]
 751              	.LVL98:
 457:Src/maze_solve.c ****         a = current_y->contents;
 752              		.loc 1 457 9 is_stmt 1 view .LVU291
 457:Src/maze_solve.c ****         a = current_y->contents;
 753              		.loc 1 457 11 is_stmt 0 view .LVU292
 754 02a4 0C78     		ldrb	r4, [r1]	@ zero_extendqisi2
 755              	.LVL99:
 458:Src/maze_solve.c ****         varargin_2 = current_dir->contents;
 756              		.loc 1 458 9 is_stmt 1 view .LVU293
 458:Src/maze_solve.c ****         varargin_2 = current_dir->contents;
 757              		.loc 1 458 11 is_stmt 0 view .LVU294
 758 02a6 9BF80000 		ldrb	r0, [fp]	@ zero_extendqisi2
ARM GAS  C:\Temp\cc4yiJU0.s 			page 28


 759              	.LVL100:
 459:Src/maze_solve.c **** 
 760              		.loc 1 459 9 is_stmt 1 view .LVU295
 465:Src/maze_solve.c ****           q0 = (int)(a + 1U);
 761              		.loc 1 465 9 view .LVU296
 465:Src/maze_solve.c ****           q0 = (int)(a + 1U);
 762              		.loc 1 465 48 is_stmt 0 view .LVU297
 763 02aa 99F80050 		ldrb	r5, [r9]	@ zero_extendqisi2
 465:Src/maze_solve.c ****           q0 = (int)(a + 1U);
 764              		.loc 1 465 12 view .LVU298
 765 02ae AA42     		cmp	r2, r5
 766 02b0 2AD0     		beq	.L118
 767              	.L36:
 477:Src/maze_solve.c ****           q0 = (int)(k + 1U);
 768              		.loc 1 477 9 is_stmt 1 view .LVU299
 477:Src/maze_solve.c ****           q0 = (int)(k + 1U);
 769              		.loc 1 477 48 is_stmt 0 view .LVU300
 770 02b2 99F80150 		ldrb	r5, [r9, #1]	@ zero_extendqisi2
 477:Src/maze_solve.c ****           q0 = (int)(k + 1U);
 771              		.loc 1 477 12 view .LVU301
 772 02b6 AA42     		cmp	r2, r5
 773 02b8 2CD0     		beq	.L119
 774              	.L38:
 489:Src/maze_solve.c ****           qY = a - 1U;
 775              		.loc 1 489 9 is_stmt 1 view .LVU302
 489:Src/maze_solve.c ****           qY = a - 1U;
 776              		.loc 1 489 48 is_stmt 0 view .LVU303
 777 02ba 99F80250 		ldrb	r5, [r9, #2]	@ zero_extendqisi2
 489:Src/maze_solve.c ****           qY = a - 1U;
 778              		.loc 1 489 12 view .LVU304
 779 02be AA42     		cmp	r2, r5
 780 02c0 2ED0     		beq	.L120
 781              	.L40:
 501:Src/maze_solve.c ****           qY = k - 1U;
 782              		.loc 1 501 9 is_stmt 1 view .LVU305
 501:Src/maze_solve.c ****           qY = k - 1U;
 783              		.loc 1 501 48 is_stmt 0 view .LVU306
 784 02c2 99F80350 		ldrb	r5, [r9, #3]	@ zero_extendqisi2
 501:Src/maze_solve.c ****           qY = k - 1U;
 785              		.loc 1 501 12 view .LVU307
 786 02c6 AA42     		cmp	r2, r5
 787 02c8 30D0     		beq	.L121
 788              	.LVL101:
 789              	.L42:
 512:Src/maze_solve.c ****         current_y->contents = a;
 790              		.loc 1 512 9 is_stmt 1 view .LVU308
 512:Src/maze_solve.c ****         current_y->contents = a;
 791              		.loc 1 512 29 is_stmt 0 view .LVU309
 792 02ca 0C70     		strb	r4, [r1]
 793              	.LVL102:
 513:Src/maze_solve.c **** 
 794              		.loc 1 513 9 is_stmt 1 view .LVU310
 513:Src/maze_solve.c **** 
 795              		.loc 1 513 29 is_stmt 0 view .LVU311
 796 02cc 8BF80000 		strb	r0, [fp]
 516:Src/maze_solve.c **** 
 797              		.loc 1 516 9 is_stmt 1 view .LVU312
ARM GAS  C:\Temp\cc4yiJU0.s 			page 29


 218:Src/maze_solve.c **** 
 798              		.loc 1 218 12 is_stmt 0 view .LVU313
 799 02d0 0022     		movs	r2, #0
 516:Src/maze_solve.c **** 
 800              		.loc 1 516 9 view .LVU314
 801 02d2 66E0     		b	.L5
 802              	.LVL103:
 803              	.L106:
 388:Src/maze_solve.c ****           if ((unsigned int)q0 > 255U) {
 804              		.loc 1 388 11 is_stmt 1 view .LVU315
 388:Src/maze_solve.c ****           if ((unsigned int)q0 > 255U) {
 805              		.loc 1 388 24 is_stmt 0 view .LVU316
 806 02d4 0134     		adds	r4, r4, #1
 807              	.LVL104:
 389:Src/maze_solve.c ****             q0 = 255;
 808              		.loc 1 389 11 is_stmt 1 view .LVU317
 389:Src/maze_solve.c ****             q0 = 255;
 809              		.loc 1 389 14 is_stmt 0 view .LVU318
 810 02d6 FF2C     		cmp	r4, #255
 811 02d8 00D9     		bls	.L28
 390:Src/maze_solve.c ****           }
 812              		.loc 1 390 16 view .LVU319
 813 02da FF24     		movs	r4, #255
 814              	.LVL105:
 815              	.L28:
 393:Src/maze_solve.c **** 
 816              		.loc 1 393 11 is_stmt 1 view .LVU320
 393:Src/maze_solve.c **** 
 817              		.loc 1 393 13 is_stmt 0 view .LVU321
 818 02dc E4B2     		uxtb	r4, r4
 819              	.LVL106:
 393:Src/maze_solve.c **** 
 820              		.loc 1 393 13 view .LVU322
 821 02de 70E7     		b	.L22
 822              	.L107:
 400:Src/maze_solve.c ****           if ((unsigned int)q0 > 255U) {
 823              		.loc 1 400 11 is_stmt 1 view .LVU323
 400:Src/maze_solve.c ****           if ((unsigned int)q0 > 255U) {
 824              		.loc 1 400 24 is_stmt 0 view .LVU324
 825 02e0 0135     		adds	r5, r5, #1
 826              	.LVL107:
 401:Src/maze_solve.c ****             q0 = 255;
 827              		.loc 1 401 11 is_stmt 1 view .LVU325
 401:Src/maze_solve.c ****             q0 = 255;
 828              		.loc 1 401 14 is_stmt 0 view .LVU326
 829 02e2 FF2D     		cmp	r5, #255
 830 02e4 00D9     		bls	.L30
 402:Src/maze_solve.c ****           }
 831              		.loc 1 402 16 view .LVU327
 832 02e6 FF25     		movs	r5, #255
 833              	.LVL108:
 834              	.L30:
 405:Src/maze_solve.c **** 
 835              		.loc 1 405 11 is_stmt 1 view .LVU328
 405:Src/maze_solve.c **** 
 836              		.loc 1 405 13 is_stmt 0 view .LVU329
 837 02e8 EDB2     		uxtb	r5, r5
ARM GAS  C:\Temp\cc4yiJU0.s 			page 30


 838              	.LVL109:
 405:Src/maze_solve.c **** 
 839              		.loc 1 405 13 view .LVU330
 840 02ea 6DE7     		b	.L29
 841              	.L108:
 412:Src/maze_solve.c ****           if (qY > a) {
 842              		.loc 1 412 11 is_stmt 1 view .LVU331
 412:Src/maze_solve.c ****           if (qY > a) {
 843              		.loc 1 412 14 is_stmt 0 view .LVU332
 844 02ec 601E     		subs	r0, r4, #1
 845              	.LVL110:
 413:Src/maze_solve.c ****             qY = 0U;
 846              		.loc 1 413 11 is_stmt 1 view .LVU333
 413:Src/maze_solve.c ****             qY = 0U;
 847              		.loc 1 413 14 is_stmt 0 view .LVU334
 848 02ee 8442     		cmp	r4, r0
 849 02f0 00D2     		bcs	.L32
 414:Src/maze_solve.c ****           }
 850              		.loc 1 414 16 view .LVU335
 851 02f2 0020     		movs	r0, #0
 852              	.LVL111:
 853              	.L32:
 417:Src/maze_solve.c **** 
 854              		.loc 1 417 11 is_stmt 1 view .LVU336
 417:Src/maze_solve.c **** 
 855              		.loc 1 417 13 is_stmt 0 view .LVU337
 856 02f4 C4B2     		uxtb	r4, r0
 857              	.LVL112:
 417:Src/maze_solve.c **** 
 858              		.loc 1 417 13 view .LVU338
 859 02f6 6AE7     		b	.L31
 860              	.LVL113:
 861              	.L109:
 424:Src/maze_solve.c ****           if (qY > k) {
 862              		.loc 1 424 11 is_stmt 1 view .LVU339
 424:Src/maze_solve.c ****           if (qY > k) {
 863              		.loc 1 424 14 is_stmt 0 view .LVU340
 864 02f8 6A1E     		subs	r2, r5, #1
 865              	.LVL114:
 425:Src/maze_solve.c ****             qY = 0U;
 866              		.loc 1 425 11 is_stmt 1 view .LVU341
 425:Src/maze_solve.c ****             qY = 0U;
 867              		.loc 1 425 14 is_stmt 0 view .LVU342
 868 02fa 9542     		cmp	r5, r2
 869 02fc 00D2     		bcs	.L34
 426:Src/maze_solve.c ****           }
 870              		.loc 1 426 16 view .LVU343
 871 02fe 0022     		movs	r2, #0
 872              	.LVL115:
 873              	.L34:
 429:Src/maze_solve.c **** 
 874              		.loc 1 429 11 is_stmt 1 view .LVU344
 429:Src/maze_solve.c **** 
 875              		.loc 1 429 13 is_stmt 0 view .LVU345
 876 0300 D5B2     		uxtb	r5, r2
 877              	.LVL116:
 429:Src/maze_solve.c **** 
ARM GAS  C:\Temp\cc4yiJU0.s 			page 31


 878              		.loc 1 429 13 view .LVU346
 879 0302 68E7     		b	.L33
 880              	.LVL117:
 881              	.L80:
 448:Src/maze_solve.c ****         }
 882              		.loc 1 448 14 view .LVU347
 883 0304 FF22     		movs	r2, #255
 884              	.LVL118:
 448:Src/maze_solve.c ****         }
 885              		.loc 1 448 14 view .LVU348
 886 0306 BFE7     		b	.L27
 887              	.LVL119:
 888              	.L118:
 466:Src/maze_solve.c ****           if ((unsigned int)q0 > 255U) {
 889              		.loc 1 466 11 is_stmt 1 view .LVU349
 466:Src/maze_solve.c ****           if ((unsigned int)q0 > 255U) {
 890              		.loc 1 466 24 is_stmt 0 view .LVU350
 891 0308 0130     		adds	r0, r0, #1
 892              	.LVL120:
 467:Src/maze_solve.c ****             q0 = 255;
 893              		.loc 1 467 11 is_stmt 1 view .LVU351
 467:Src/maze_solve.c ****             q0 = 255;
 894              		.loc 1 467 14 is_stmt 0 view .LVU352
 895 030a FF28     		cmp	r0, #255
 896 030c 00D9     		bls	.L37
 468:Src/maze_solve.c ****           }
 897              		.loc 1 468 16 view .LVU353
 898 030e FF20     		movs	r0, #255
 899              	.LVL121:
 900              	.L37:
 471:Src/maze_solve.c **** 
 901              		.loc 1 471 11 is_stmt 1 view .LVU354
 471:Src/maze_solve.c **** 
 902              		.loc 1 471 13 is_stmt 0 view .LVU355
 903 0310 C0B2     		uxtb	r0, r0
 904              	.LVL122:
 471:Src/maze_solve.c **** 
 905              		.loc 1 471 13 view .LVU356
 906 0312 CEE7     		b	.L36
 907              	.L119:
 478:Src/maze_solve.c ****           if ((unsigned int)q0 > 255U) {
 908              		.loc 1 478 11 is_stmt 1 view .LVU357
 478:Src/maze_solve.c ****           if ((unsigned int)q0 > 255U) {
 909              		.loc 1 478 24 is_stmt 0 view .LVU358
 910 0314 0134     		adds	r4, r4, #1
 911              	.LVL123:
 479:Src/maze_solve.c ****             q0 = 255;
 912              		.loc 1 479 11 is_stmt 1 view .LVU359
 479:Src/maze_solve.c ****             q0 = 255;
 913              		.loc 1 479 14 is_stmt 0 view .LVU360
 914 0316 FF2C     		cmp	r4, #255
 915 0318 00D9     		bls	.L39
 480:Src/maze_solve.c ****           }
 916              		.loc 1 480 16 view .LVU361
 917 031a FF24     		movs	r4, #255
 918              	.LVL124:
 919              	.L39:
ARM GAS  C:\Temp\cc4yiJU0.s 			page 32


 483:Src/maze_solve.c **** 
 920              		.loc 1 483 11 is_stmt 1 view .LVU362
 483:Src/maze_solve.c **** 
 921              		.loc 1 483 13 is_stmt 0 view .LVU363
 922 031c E4B2     		uxtb	r4, r4
 923              	.LVL125:
 483:Src/maze_solve.c **** 
 924              		.loc 1 483 13 view .LVU364
 925 031e CCE7     		b	.L38
 926              	.L120:
 490:Src/maze_solve.c ****           if (qY > a) {
 927              		.loc 1 490 11 is_stmt 1 view .LVU365
 490:Src/maze_solve.c ****           if (qY > a) {
 928              		.loc 1 490 14 is_stmt 0 view .LVU366
 929 0320 451E     		subs	r5, r0, #1
 930              	.LVL126:
 491:Src/maze_solve.c ****             qY = 0U;
 931              		.loc 1 491 11 is_stmt 1 view .LVU367
 491:Src/maze_solve.c ****             qY = 0U;
 932              		.loc 1 491 14 is_stmt 0 view .LVU368
 933 0322 A842     		cmp	r0, r5
 934 0324 00D2     		bcs	.L41
 492:Src/maze_solve.c ****           }
 935              		.loc 1 492 16 view .LVU369
 936 0326 0025     		movs	r5, #0
 937              	.LVL127:
 938              	.L41:
 495:Src/maze_solve.c **** 
 939              		.loc 1 495 11 is_stmt 1 view .LVU370
 495:Src/maze_solve.c **** 
 940              		.loc 1 495 13 is_stmt 0 view .LVU371
 941 0328 E8B2     		uxtb	r0, r5
 942              	.LVL128:
 495:Src/maze_solve.c **** 
 943              		.loc 1 495 13 view .LVU372
 944 032a CAE7     		b	.L40
 945              	.LVL129:
 946              	.L121:
 502:Src/maze_solve.c ****           if (qY > k) {
 947              		.loc 1 502 11 is_stmt 1 view .LVU373
 502:Src/maze_solve.c ****           if (qY > k) {
 948              		.loc 1 502 14 is_stmt 0 view .LVU374
 949 032c 621E     		subs	r2, r4, #1
 950              	.LVL130:
 503:Src/maze_solve.c ****             qY = 0U;
 951              		.loc 1 503 11 is_stmt 1 view .LVU375
 503:Src/maze_solve.c ****             qY = 0U;
 952              		.loc 1 503 14 is_stmt 0 view .LVU376
 953 032e 9442     		cmp	r4, r2
 954 0330 00D2     		bcs	.L43
 504:Src/maze_solve.c ****           }
 955              		.loc 1 504 16 view .LVU377
 956 0332 0022     		movs	r2, #0
 957              	.LVL131:
 958              	.L43:
 507:Src/maze_solve.c **** 
 959              		.loc 1 507 11 is_stmt 1 view .LVU378
ARM GAS  C:\Temp\cc4yiJU0.s 			page 33


 507:Src/maze_solve.c **** 
 960              		.loc 1 507 13 is_stmt 0 view .LVU379
 961 0334 D4B2     		uxtb	r4, r2
 962              	.LVL132:
 507:Src/maze_solve.c **** 
 963              		.loc 1 507 13 view .LVU380
 964 0336 C8E7     		b	.L42
 965              	.LVL133:
 966              	.L79:
 526:Src/maze_solve.c ****         }
 967              		.loc 1 526 14 view .LVU381
 968 0338 FF22     		movs	r2, #255
 969              	.LVL134:
 526:Src/maze_solve.c ****         }
 970              		.loc 1 526 14 view .LVU382
 971 033a 7FE7     		b	.L26
 972              	.LVL135:
 973              	.L114:
 539:Src/maze_solve.c ****           if ((unsigned int)q0 > 255U) {
 974              		.loc 1 539 11 is_stmt 1 view .LVU383
 539:Src/maze_solve.c ****           if ((unsigned int)q0 > 255U) {
 975              		.loc 1 539 24 is_stmt 0 view .LVU384
 976 033c 0130     		adds	r0, r0, #1
 977              	.LVL136:
 540:Src/maze_solve.c ****             q0 = 255;
 978              		.loc 1 540 11 is_stmt 1 view .LVU385
 540:Src/maze_solve.c ****             q0 = 255;
 979              		.loc 1 540 14 is_stmt 0 view .LVU386
 980 033e FF28     		cmp	r0, #255
 981 0340 00D9     		bls	.L45
 541:Src/maze_solve.c ****           }
 982              		.loc 1 541 16 view .LVU387
 983 0342 FF20     		movs	r0, #255
 984              	.LVL137:
 985              	.L45:
 544:Src/maze_solve.c **** 
 986              		.loc 1 544 11 is_stmt 1 view .LVU388
 544:Src/maze_solve.c **** 
 987              		.loc 1 544 13 is_stmt 0 view .LVU389
 988 0344 C0B2     		uxtb	r0, r0
 989              	.LVL138:
 544:Src/maze_solve.c **** 
 990              		.loc 1 544 13 view .LVU390
 991 0346 8BE7     		b	.L44
 992              	.L115:
 551:Src/maze_solve.c ****           if ((unsigned int)q0 > 255U) {
 993              		.loc 1 551 11 is_stmt 1 view .LVU391
 551:Src/maze_solve.c ****           if ((unsigned int)q0 > 255U) {
 994              		.loc 1 551 24 is_stmt 0 view .LVU392
 995 0348 0134     		adds	r4, r4, #1
 996              	.LVL139:
 552:Src/maze_solve.c ****             q0 = 255;
 997              		.loc 1 552 11 is_stmt 1 view .LVU393
 552:Src/maze_solve.c ****             q0 = 255;
 998              		.loc 1 552 14 is_stmt 0 view .LVU394
 999 034a FF2C     		cmp	r4, #255
 1000 034c 00D9     		bls	.L47
ARM GAS  C:\Temp\cc4yiJU0.s 			page 34


 553:Src/maze_solve.c ****           }
 1001              		.loc 1 553 16 view .LVU395
 1002 034e FF24     		movs	r4, #255
 1003              	.LVL140:
 1004              	.L47:
 556:Src/maze_solve.c **** 
 1005              		.loc 1 556 11 is_stmt 1 view .LVU396
 556:Src/maze_solve.c **** 
 1006              		.loc 1 556 13 is_stmt 0 view .LVU397
 1007 0350 E4B2     		uxtb	r4, r4
 1008              	.LVL141:
 556:Src/maze_solve.c **** 
 1009              		.loc 1 556 13 view .LVU398
 1010 0352 89E7     		b	.L46
 1011              	.L116:
 563:Src/maze_solve.c ****           if (qY > a) {
 1012              		.loc 1 563 11 is_stmt 1 view .LVU399
 563:Src/maze_solve.c ****           if (qY > a) {
 1013              		.loc 1 563 14 is_stmt 0 view .LVU400
 1014 0354 451E     		subs	r5, r0, #1
 1015              	.LVL142:
 564:Src/maze_solve.c ****             qY = 0U;
 1016              		.loc 1 564 11 is_stmt 1 view .LVU401
 564:Src/maze_solve.c ****             qY = 0U;
 1017              		.loc 1 564 14 is_stmt 0 view .LVU402
 1018 0356 A842     		cmp	r0, r5
 1019 0358 00D2     		bcs	.L49
 565:Src/maze_solve.c ****           }
 1020              		.loc 1 565 16 view .LVU403
 1021 035a 0025     		movs	r5, #0
 1022              	.LVL143:
 1023              	.L49:
 568:Src/maze_solve.c **** 
 1024              		.loc 1 568 11 is_stmt 1 view .LVU404
 568:Src/maze_solve.c **** 
 1025              		.loc 1 568 13 is_stmt 0 view .LVU405
 1026 035c E8B2     		uxtb	r0, r5
 1027              	.LVL144:
 568:Src/maze_solve.c **** 
 1028              		.loc 1 568 13 view .LVU406
 1029 035e 87E7     		b	.L48
 1030              	.LVL145:
 1031              	.L117:
 575:Src/maze_solve.c ****           if (qY > k) {
 1032              		.loc 1 575 11 is_stmt 1 view .LVU407
 575:Src/maze_solve.c ****           if (qY > k) {
 1033              		.loc 1 575 14 is_stmt 0 view .LVU408
 1034 0360 621E     		subs	r2, r4, #1
 1035              	.LVL146:
 576:Src/maze_solve.c ****             qY = 0U;
 1036              		.loc 1 576 11 is_stmt 1 view .LVU409
 576:Src/maze_solve.c ****             qY = 0U;
 1037              		.loc 1 576 14 is_stmt 0 view .LVU410
 1038 0362 9442     		cmp	r4, r2
 1039 0364 00D2     		bcs	.L51
 577:Src/maze_solve.c ****           }
 1040              		.loc 1 577 16 view .LVU411
ARM GAS  C:\Temp\cc4yiJU0.s 			page 35


 1041 0366 0022     		movs	r2, #0
 1042              	.LVL147:
 1043              	.L51:
 580:Src/maze_solve.c **** 
 1044              		.loc 1 580 11 is_stmt 1 view .LVU412
 580:Src/maze_solve.c **** 
 1045              		.loc 1 580 13 is_stmt 0 view .LVU413
 1046 0368 D4B2     		uxtb	r4, r2
 1047              	.LVL148:
 580:Src/maze_solve.c **** 
 1048              		.loc 1 580 13 view .LVU414
 1049 036a 85E7     		b	.L50
 1050              	.LVL149:
 1051              	.L78:
 599:Src/maze_solve.c ****         }
 1052              		.loc 1 599 14 view .LVU415
 1053 036c FF22     		movs	r2, #255
 1054              	.LVL150:
 599:Src/maze_solve.c ****         }
 1055              		.loc 1 599 14 view .LVU416
 1056 036e 3BE7     		b	.L25
 1057              	.LVL151:
 1058              	.L110:
 612:Src/maze_solve.c ****           if ((unsigned int)q0 > 255U) {
 1059              		.loc 1 612 11 is_stmt 1 view .LVU417
 612:Src/maze_solve.c ****           if ((unsigned int)q0 > 255U) {
 1060              		.loc 1 612 24 is_stmt 0 view .LVU418
 1061 0370 0130     		adds	r0, r0, #1
 1062              	.LVL152:
 613:Src/maze_solve.c ****             q0 = 255;
 1063              		.loc 1 613 11 is_stmt 1 view .LVU419
 613:Src/maze_solve.c ****             q0 = 255;
 1064              		.loc 1 613 14 is_stmt 0 view .LVU420
 1065 0372 FF28     		cmp	r0, #255
 1066 0374 00D9     		bls	.L53
 614:Src/maze_solve.c ****           }
 1067              		.loc 1 614 16 view .LVU421
 1068 0376 FF20     		movs	r0, #255
 1069              	.LVL153:
 1070              	.L53:
 617:Src/maze_solve.c **** 
 1071              		.loc 1 617 11 is_stmt 1 view .LVU422
 617:Src/maze_solve.c **** 
 1072              		.loc 1 617 13 is_stmt 0 view .LVU423
 1073 0378 C0B2     		uxtb	r0, r0
 1074              	.LVL154:
 617:Src/maze_solve.c **** 
 1075              		.loc 1 617 13 view .LVU424
 1076 037a 48E7     		b	.L52
 1077              	.L111:
 624:Src/maze_solve.c ****           if ((unsigned int)q0 > 255U) {
 1078              		.loc 1 624 11 is_stmt 1 view .LVU425
 624:Src/maze_solve.c ****           if ((unsigned int)q0 > 255U) {
 1079              		.loc 1 624 24 is_stmt 0 view .LVU426
 1080 037c 0134     		adds	r4, r4, #1
 1081              	.LVL155:
 625:Src/maze_solve.c ****             q0 = 255;
ARM GAS  C:\Temp\cc4yiJU0.s 			page 36


 1082              		.loc 1 625 11 is_stmt 1 view .LVU427
 625:Src/maze_solve.c ****             q0 = 255;
 1083              		.loc 1 625 14 is_stmt 0 view .LVU428
 1084 037e FF2C     		cmp	r4, #255
 1085 0380 00D9     		bls	.L55
 626:Src/maze_solve.c ****           }
 1086              		.loc 1 626 16 view .LVU429
 1087 0382 FF24     		movs	r4, #255
 1088              	.LVL156:
 1089              	.L55:
 629:Src/maze_solve.c **** 
 1090              		.loc 1 629 11 is_stmt 1 view .LVU430
 629:Src/maze_solve.c **** 
 1091              		.loc 1 629 13 is_stmt 0 view .LVU431
 1092 0384 E4B2     		uxtb	r4, r4
 1093              	.LVL157:
 629:Src/maze_solve.c **** 
 1094              		.loc 1 629 13 view .LVU432
 1095 0386 47E7     		b	.L54
 1096              	.L112:
 636:Src/maze_solve.c ****           if (qY > a) {
 1097              		.loc 1 636 11 is_stmt 1 view .LVU433
 636:Src/maze_solve.c ****           if (qY > a) {
 1098              		.loc 1 636 14 is_stmt 0 view .LVU434
 1099 0388 451E     		subs	r5, r0, #1
 1100              	.LVL158:
 637:Src/maze_solve.c ****             qY = 0U;
 1101              		.loc 1 637 11 is_stmt 1 view .LVU435
 637:Src/maze_solve.c ****             qY = 0U;
 1102              		.loc 1 637 14 is_stmt 0 view .LVU436
 1103 038a A842     		cmp	r0, r5
 1104 038c 00D2     		bcs	.L57
 638:Src/maze_solve.c ****           }
 1105              		.loc 1 638 16 view .LVU437
 1106 038e 0025     		movs	r5, #0
 1107              	.LVL159:
 1108              	.L57:
 641:Src/maze_solve.c **** 
 1109              		.loc 1 641 11 is_stmt 1 view .LVU438
 641:Src/maze_solve.c **** 
 1110              		.loc 1 641 13 is_stmt 0 view .LVU439
 1111 0390 E8B2     		uxtb	r0, r5
 1112              	.LVL160:
 641:Src/maze_solve.c **** 
 1113              		.loc 1 641 13 view .LVU440
 1114 0392 46E7     		b	.L56
 1115              	.LVL161:
 1116              	.L113:
 648:Src/maze_solve.c ****           if (qY > k) {
 1117              		.loc 1 648 11 is_stmt 1 view .LVU441
 648:Src/maze_solve.c ****           if (qY > k) {
 1118              		.loc 1 648 14 is_stmt 0 view .LVU442
 1119 0394 621E     		subs	r2, r4, #1
 1120              	.LVL162:
 649:Src/maze_solve.c ****             qY = 0U;
 1121              		.loc 1 649 11 is_stmt 1 view .LVU443
 649:Src/maze_solve.c ****             qY = 0U;
ARM GAS  C:\Temp\cc4yiJU0.s 			page 37


 1122              		.loc 1 649 14 is_stmt 0 view .LVU444
 1123 0396 9442     		cmp	r4, r2
 1124 0398 00D2     		bcs	.L59
 650:Src/maze_solve.c ****           }
 1125              		.loc 1 650 16 view .LVU445
 1126 039a 0022     		movs	r2, #0
 1127              	.LVL163:
 1128              	.L59:
 653:Src/maze_solve.c **** 
 1129              		.loc 1 653 11 is_stmt 1 view .LVU446
 653:Src/maze_solve.c **** 
 1130              		.loc 1 653 13 is_stmt 0 view .LVU447
 1131 039c D4B2     		uxtb	r4, r2
 1132              	.LVL164:
 653:Src/maze_solve.c **** 
 1133              		.loc 1 653 13 view .LVU448
 1134 039e 45E7     		b	.L58
 1135              	.LVL165:
 1136              	.L62:
 231:Src/maze_solve.c ****     } else {
 1137              		.loc 1 231 14 view .LVU449
 1138 03a0 0122     		movs	r2, #1
 1139              	.LVL166:
 1140              	.L5:
 663:Src/maze_solve.c ****       }
 664:Src/maze_solve.c **** 
 665:Src/maze_solve.c ****       /* for code generation */
 666:Src/maze_solve.c ****     }
 667:Src/maze_solve.c ****   } while (exitg1 == 0);
 1141              		.loc 1 667 11 is_stmt 1 view .LVU450
 1142              		.loc 1 667 3 is_stmt 0 view .LVU451
 1143 03a2 1AB9     		cbnz	r2, .L122
 1144              	.LVL167:
 1145              	.L60:
 217:Src/maze_solve.c ****     exitg1 = 0;
 1146              		.loc 1 217 3 is_stmt 1 view .LVU452
 218:Src/maze_solve.c **** 
 1147              		.loc 1 218 5 view .LVU453
 221:Src/maze_solve.c ****     q0 = k;
 1148              		.loc 1 221 5 view .LVU454
 221:Src/maze_solve.c ****     q0 = k;
 1149              		.loc 1 221 7 is_stmt 0 view .LVU455
 1150 03a4 129A     		ldr	r2, [sp, #72]
 1151 03a6 1578     		ldrb	r5, [r2]	@ zero_extendqisi2
 222:Src/maze_solve.c ****     for (tempi = 0; tempi < q0; tempi++) {
 1152              		.loc 1 222 5 is_stmt 1 view .LVU456
 1153              	.LVL168:
 223:Src/maze_solve.c ****       if ((current_x->contents == maze_goal[tempi]) && (current_y->contents ==
 1154              		.loc 1 223 5 view .LVU457
 223:Src/maze_solve.c ****       if ((current_x->contents == maze_goal[tempi]) && (current_y->contents ==
 1155              		.loc 1 223 16 is_stmt 0 view .LVU458
 1156 03a8 0022     		movs	r2, #0
 223:Src/maze_solve.c ****       if ((current_x->contents == maze_goal[tempi]) && (current_y->contents ==
 1157              		.loc 1 223 5 view .LVU459
 1158 03aa 43E6     		b	.L2
 1159              	.LVL169:
 1160              	.L122:
ARM GAS  C:\Temp\cc4yiJU0.s 			page 38


 668:Src/maze_solve.c **** }
 1161              		.loc 1 668 1 view .LVU460
 1162 03ac 09B0     		add	sp, sp, #36
 1163              	.LCFI2:
 1164              		.cfi_def_cfa_offset 36
 1165              		@ sp needed
 1166 03ae BDE8F08F 		pop	{r4, r5, r6, r7, r8, r9, r10, fp, pc}
 1167              		.loc 1 668 1 view .LVU461
 1168              		.cfi_endproc
 1169              	.LFE133:
 1171              		.section	.text.move_step,"ax",%progbits
 1172              		.align	1
 1173              		.syntax unified
 1174              		.thumb
 1175              		.thumb_func
 1176              		.fpu fpv4-sp-d16
 1178              	move_step:
 1179              	.LVL170:
 1180              	.LFB136:
 669:Src/maze_solve.c **** 
 670:Src/maze_solve.c **** /*
 671:Src/maze_solve.c ****  * 入力 迷路縦サイズ,迷路横サイズ,ゴール座標,迷路情報(16進数)
 672:Src/maze_solve.c ****  * 出力 等高線map,最大経路長
 673:Src/maze_solve.c ****  * Arguments    : const coder_internal_ref_4 *g_direction
 674:Src/maze_solve.c ****  *                const coder_internal_ref_2 *wall
 675:Src/maze_solve.c ****  *                unsigned char maze_row_size
 676:Src/maze_solve.c ****  *                unsigned char maze_col_size
 677:Src/maze_solve.c ****  *                const unsigned char maze_goal[18]
 678:Src/maze_solve.c ****  *                unsigned char l_goal_size
 679:Src/maze_solve.c ****  *                const unsigned char maze_wall[1024]
 680:Src/maze_solve.c ****  *                unsigned char contour_map[1024]
 681:Src/maze_solve.c ****  *                unsigned char *max_length
 682:Src/maze_solve.c ****  * Return Type  : void
 683:Src/maze_solve.c ****  */
 684:Src/maze_solve.c **** static void make_map_find(const coder_internal_ref_4 *g_direction, const
 685:Src/maze_solve.c ****   coder_internal_ref_2 *wall, unsigned char maze_row_size, unsigned char
 686:Src/maze_solve.c ****   maze_col_size, const unsigned char maze_goal[18], unsigned char l_goal_size,
 687:Src/maze_solve.c ****   const unsigned char maze_wall[1024], unsigned char contour_map[1024], unsigned
 688:Src/maze_solve.c ****   char *max_length)
 689:Src/maze_solve.c **** {
 690:Src/maze_solve.c ****   unsigned int qY;
 691:Src/maze_solve.c ****   unsigned int b_qY;
 692:Src/maze_solve.c ****   int q0;
 693:Src/maze_solve.c ****   int i2;
 694:Src/maze_solve.c ****   unsigned char change_flag;
 695:Src/maze_solve.c ****   unsigned char tempi;
 696:Src/maze_solve.c ****   bool exitg1;
 697:Src/maze_solve.c ****   int idx;
 698:Src/maze_solve.c ****   bool exitg2;
 699:Src/maze_solve.c ****   int loop_ub;
 700:Src/maze_solve.c ****   static short ii_data[1024];
 701:Src/maze_solve.c ****   int num_temp_size[1];
 702:Src/maze_solve.c ****   static unsigned short num_temp_data[1024];
 703:Src/maze_solve.c ****   int b_num_temp_size[1];
 704:Src/maze_solve.c ****   static unsigned short b_num_temp_data[1024];
 705:Src/maze_solve.c ****   unsigned short tmp_data[1024];
 706:Src/maze_solve.c ****   int tmp_size[1];
ARM GAS  C:\Temp\cc4yiJU0.s 			page 39


 707:Src/maze_solve.c ****   unsigned short u0;
 708:Src/maze_solve.c ****   unsigned char row_data[1024];
 709:Src/maze_solve.c ****   unsigned char col_data[1024];
 710:Src/maze_solve.c ****   unsigned char k;
 711:Src/maze_solve.c ****   int i3;
 712:Src/maze_solve.c ****   int b_k;
 713:Src/maze_solve.c ****   int i4;
 714:Src/maze_solve.c ****   int i5;
 715:Src/maze_solve.c ****   int c_k;
 716:Src/maze_solve.c ****   int d_k;
 717:Src/maze_solve.c ****   int e_k;
 718:Src/maze_solve.c **** 
 719:Src/maze_solve.c ****   /*   make_map_find 壁情報から等高線MAPを生成 */
 720:Src/maze_solve.c ****   /*  迷路パラメータ設定 */
 721:Src/maze_solve.c ****   qY = maze_col_size - 1U;
 722:Src/maze_solve.c ****   if (qY > maze_col_size) {
 723:Src/maze_solve.c ****     qY = 0U;
 724:Src/maze_solve.c ****   }
 725:Src/maze_solve.c **** 
 726:Src/maze_solve.c ****   b_qY = maze_row_size - 1U;
 727:Src/maze_solve.c ****   if (b_qY > maze_row_size) {
 728:Src/maze_solve.c ****     b_qY = 0U;
 729:Src/maze_solve.c ****   }
 730:Src/maze_solve.c **** 
 731:Src/maze_solve.c ****   q0 = (int)(qY * b_qY);
 732:Src/maze_solve.c ****   if ((unsigned int)q0 > 255U) {
 733:Src/maze_solve.c ****     q0 = 255;
 734:Src/maze_solve.c ****   }
 735:Src/maze_solve.c **** 
 736:Src/maze_solve.c ****   qY = q0 - 1U;
 737:Src/maze_solve.c ****   if (qY > (unsigned int)q0) {
 738:Src/maze_solve.c ****     qY = 0U;
 739:Src/maze_solve.c ****   }
 740:Src/maze_solve.c **** 
 741:Src/maze_solve.c ****   *max_length = (unsigned char)qY;
 742:Src/maze_solve.c **** 
 743:Src/maze_solve.c ****   /* MAPの初期化(すべての要素にmax_lengthを入力) */
 744:Src/maze_solve.c ****   /* 32マス分mapを保持 */
 745:Src/maze_solve.c ****   for (i2 = 0; i2 < 1024; i2++) {
 746:Src/maze_solve.c ****     contour_map[i2] = (unsigned char)qY;
 747:Src/maze_solve.c ****   }
 748:Src/maze_solve.c **** 
 749:Src/maze_solve.c ****   /* ゴール座標に0を入力 */
 750:Src/maze_solve.c ****   i2 = l_goal_size;
 751:Src/maze_solve.c ****   for (q0 = 0; q0 < i2; q0++) {
 752:Src/maze_solve.c ****     contour_map[(maze_goal[q0 + 9] + ((maze_goal[q0] - 1) << 5)) - 1] = 0U;
 753:Src/maze_solve.c ****   }
 754:Src/maze_solve.c **** 
 755:Src/maze_solve.c ****   do {
 756:Src/maze_solve.c ****     change_flag = 0U;
 757:Src/maze_solve.c **** 
 758:Src/maze_solve.c ****     /* map更新確認用フラグ */
 759:Src/maze_solve.c ****     tempi = 0U;
 760:Src/maze_solve.c ****     exitg1 = false;
 761:Src/maze_solve.c ****     while ((!exitg1) && (tempi <= (unsigned char)qY)) {
 762:Src/maze_solve.c ****       /* 歩数カウントは0~max_length */
 763:Src/maze_solve.c ****       /* 歩数が確定している座標を検索 */
ARM GAS  C:\Temp\cc4yiJU0.s 			page 40


 764:Src/maze_solve.c ****       /* 最初は0,更新され、増加したマスを次々検索していく */
 765:Src/maze_solve.c ****       idx = 0;
 766:Src/maze_solve.c ****       q0 = 0;
 767:Src/maze_solve.c ****       exitg2 = false;
 768:Src/maze_solve.c ****       while ((!exitg2) && (q0 < 1024)) {
 769:Src/maze_solve.c ****         if (contour_map[q0] == tempi) {
 770:Src/maze_solve.c ****           idx++;
 771:Src/maze_solve.c ****           ii_data[idx - 1] = (short)(q0 + 1);
 772:Src/maze_solve.c ****           if (idx >= 1024) {
 773:Src/maze_solve.c ****             exitg2 = true;
 774:Src/maze_solve.c ****           } else {
 775:Src/maze_solve.c ****             q0++;
 776:Src/maze_solve.c ****           }
 777:Src/maze_solve.c ****         } else {
 778:Src/maze_solve.c ****           q0++;
 779:Src/maze_solve.c ****         }
 780:Src/maze_solve.c ****       }
 781:Src/maze_solve.c **** 
 782:Src/maze_solve.c ****       if (1 > idx) {
 783:Src/maze_solve.c ****         loop_ub = 0;
 784:Src/maze_solve.c ****         q0 = 0;
 785:Src/maze_solve.c ****       } else {
 786:Src/maze_solve.c ****         loop_ub = idx;
 787:Src/maze_solve.c ****         q0 = idx;
 788:Src/maze_solve.c ****       }
 789:Src/maze_solve.c **** 
 790:Src/maze_solve.c ****       num_temp_size[0] = loop_ub;
 791:Src/maze_solve.c ****       for (i2 = 0; i2 < loop_ub; i2++) {
 792:Src/maze_solve.c ****         num_temp_data[i2] = (unsigned short)ii_data[i2];
 793:Src/maze_solve.c ****       }
 794:Src/maze_solve.c **** 
 795:Src/maze_solve.c ****       /* 32行なので、行番号:32で割ったあまり */
 796:Src/maze_solve.c ****       b_num_temp_size[0] = q0;
 797:Src/maze_solve.c ****       for (i2 = 0; i2 < q0; i2++) {
 798:Src/maze_solve.c ****         b_num_temp_data[i2] = (unsigned short)(num_temp_data[i2] - 1U);
 799:Src/maze_solve.c ****       }
 800:Src/maze_solve.c **** 
 801:Src/maze_solve.c ****       b_rem(b_num_temp_data, b_num_temp_size, tmp_data, tmp_size);
 802:Src/maze_solve.c ****       idx = tmp_size[0];
 803:Src/maze_solve.c ****       loop_ub = tmp_size[0];
 804:Src/maze_solve.c ****       for (i2 = 0; i2 < loop_ub; i2++) {
 805:Src/maze_solve.c ****         b_qY = tmp_data[i2] + 1U;
 806:Src/maze_solve.c ****         if (b_qY > 65535U) {
 807:Src/maze_solve.c ****           b_qY = 65535U;
 808:Src/maze_solve.c ****         }
 809:Src/maze_solve.c **** 
 810:Src/maze_solve.c ****         u0 = (unsigned short)b_qY;
 811:Src/maze_solve.c ****         if ((unsigned short)b_qY > 255) {
 812:Src/maze_solve.c ****           u0 = 255U;
 813:Src/maze_solve.c ****         }
 814:Src/maze_solve.c **** 
 815:Src/maze_solve.c ****         row_data[i2] = (unsigned char)u0;
 816:Src/maze_solve.c ****       }
 817:Src/maze_solve.c **** 
 818:Src/maze_solve.c ****       /* 列番号:32で割ったときの商 */
 819:Src/maze_solve.c ****       for (i2 = 0; i2 < q0; i2++) {
 820:Src/maze_solve.c ****         num_temp_data[i2]--;
ARM GAS  C:\Temp\cc4yiJU0.s 			page 41


 821:Src/maze_solve.c ****       }
 822:Src/maze_solve.c **** 
 823:Src/maze_solve.c ****       idivide(num_temp_data, num_temp_size, tmp_data, tmp_size);
 824:Src/maze_solve.c ****       loop_ub = tmp_size[0];
 825:Src/maze_solve.c ****       for (i2 = 0; i2 < loop_ub; i2++) {
 826:Src/maze_solve.c ****         b_qY = tmp_data[i2] + 1U;
 827:Src/maze_solve.c ****         if (b_qY > 65535U) {
 828:Src/maze_solve.c ****           b_qY = 65535U;
 829:Src/maze_solve.c ****         }
 830:Src/maze_solve.c **** 
 831:Src/maze_solve.c ****         u0 = (unsigned short)b_qY;
 832:Src/maze_solve.c ****         if ((unsigned short)b_qY > 255) {
 833:Src/maze_solve.c ****           u0 = 255U;
 834:Src/maze_solve.c ****         }
 835:Src/maze_solve.c **** 
 836:Src/maze_solve.c ****         col_data[i2] = (unsigned char)u0;
 837:Src/maze_solve.c ****       }
 838:Src/maze_solve.c **** 
 839:Src/maze_solve.c ****       /* 見つかったマスの数 */
 840:Src/maze_solve.c ****       if (idx < 0) {
 841:Src/maze_solve.c ****         idx = 0;
 842:Src/maze_solve.c ****       } else {
 843:Src/maze_solve.c ****         if (idx > 255) {
 844:Src/maze_solve.c ****           idx = 255;
 845:Src/maze_solve.c ****         }
 846:Src/maze_solve.c ****       }
 847:Src/maze_solve.c **** 
 848:Src/maze_solve.c ****       /* 更新マスが見つからなければ終了 */
 849:Src/maze_solve.c ****       if ((unsigned char)idx == 0) {
 850:Src/maze_solve.c ****         exitg1 = true;
 851:Src/maze_solve.c ****       } else {
 852:Src/maze_solve.c ****         /* 検索した座標に対し、歩数mapを更新 */
 853:Src/maze_solve.c ****         i2 = (unsigned char)idx;
 854:Src/maze_solve.c ****         for (q0 = 0; q0 < i2; q0++) {
 855:Src/maze_solve.c ****           /* 北側 */
 856:Src/maze_solve.c ****           k = g_direction->contents.North;
 857:Src/maze_solve.c ****           idx = (col_data[q0] - 1) << 5;
 858:Src/maze_solve.c ****           loop_ub = row_data[q0] + idx;
 859:Src/maze_solve.c ****           i3 = maze_wall[loop_ub - 1];
 860:Src/maze_solve.c ****           if (k <= 7) {
 861:Src/maze_solve.c ****             b_k = (unsigned char)(1 << k);
 862:Src/maze_solve.c ****           } else {
 863:Src/maze_solve.c ****             b_k = 0;
 864:Src/maze_solve.c ****           }
 865:Src/maze_solve.c **** 
 866:Src/maze_solve.c ****           if ((i3 & b_k) == wall->contents.nowall) {
 867:Src/maze_solve.c ****             /* 北側のMAPが更新されているか判断、されていなければ書き込み
 868:Src/maze_solve.c ****             i4 = (int)(row_data[q0] + 1U);
 869:Src/maze_solve.c ****             i5 = i4;
 870:Src/maze_solve.c ****             if ((unsigned int)i4 > 255U) {
 871:Src/maze_solve.c ****               i5 = 255;
 872:Src/maze_solve.c ****             }
 873:Src/maze_solve.c **** 
 874:Src/maze_solve.c ****             if (contour_map[(i5 + idx) - 1] == (unsigned char)qY) {
 875:Src/maze_solve.c ****               if ((unsigned int)i4 > 255U) {
 876:Src/maze_solve.c ****                 i4 = 255;
 877:Src/maze_solve.c ****               }
ARM GAS  C:\Temp\cc4yiJU0.s 			page 42


 878:Src/maze_solve.c **** 
 879:Src/maze_solve.c ****               contour_map[(i4 + idx) - 1] = (unsigned char)(tempi + 1);
 880:Src/maze_solve.c ****               change_flag = 1U;
 881:Src/maze_solve.c ****             }
 882:Src/maze_solve.c ****           }
 883:Src/maze_solve.c **** 
 884:Src/maze_solve.c ****           /* 東側 */
 885:Src/maze_solve.c ****           k = g_direction->contents.East;
 886:Src/maze_solve.c ****           if (k <= 7) {
 887:Src/maze_solve.c ****             c_k = (unsigned char)(1 << k);
 888:Src/maze_solve.c ****           } else {
 889:Src/maze_solve.c ****             c_k = 0;
 890:Src/maze_solve.c ****           }
 891:Src/maze_solve.c **** 
 892:Src/maze_solve.c ****           if ((i3 & c_k) == wall->contents.nowall) {
 893:Src/maze_solve.c ****             /* 東側のMAPが更新されているか判断、されていなければ書き込み
 894:Src/maze_solve.c ****             idx = (int)(col_data[q0] + 1U);
 895:Src/maze_solve.c ****             i4 = idx;
 896:Src/maze_solve.c ****             if ((unsigned int)idx > 255U) {
 897:Src/maze_solve.c ****               i4 = 255;
 898:Src/maze_solve.c ****             }
 899:Src/maze_solve.c **** 
 900:Src/maze_solve.c ****             if (contour_map[(row_data[q0] + ((i4 - 1) << 5)) - 1] == (unsigned
 901:Src/maze_solve.c ****                  char)qY) {
 902:Src/maze_solve.c ****               if ((unsigned int)idx > 255U) {
 903:Src/maze_solve.c ****                 idx = 255;
 904:Src/maze_solve.c ****               }
 905:Src/maze_solve.c **** 
 906:Src/maze_solve.c ****               contour_map[(row_data[q0] + ((idx - 1) << 5)) - 1] = (unsigned
 907:Src/maze_solve.c ****                 char)(tempi + 1);
 908:Src/maze_solve.c ****               change_flag = 1U;
 909:Src/maze_solve.c ****             }
 910:Src/maze_solve.c ****           }
 911:Src/maze_solve.c **** 
 912:Src/maze_solve.c ****           /* 南側 */
 913:Src/maze_solve.c ****           k = g_direction->contents.South;
 914:Src/maze_solve.c ****           if (k <= 7) {
 915:Src/maze_solve.c ****             d_k = (unsigned char)(1 << k);
 916:Src/maze_solve.c ****           } else {
 917:Src/maze_solve.c ****             d_k = 0;
 918:Src/maze_solve.c ****           }
 919:Src/maze_solve.c **** 
 920:Src/maze_solve.c ****           if ((i3 & d_k) == wall->contents.nowall) {
 921:Src/maze_solve.c ****             /* 南側のMAPが更新されているか判断、されていなければ書き込み
 922:Src/maze_solve.c ****             idx = loop_ub - 2;
 923:Src/maze_solve.c ****             if (contour_map[idx] == (unsigned char)qY) {
 924:Src/maze_solve.c ****               contour_map[idx] = (unsigned char)(tempi + 1);
 925:Src/maze_solve.c ****               change_flag = 1U;
 926:Src/maze_solve.c ****             }
 927:Src/maze_solve.c ****           }
 928:Src/maze_solve.c **** 
 929:Src/maze_solve.c ****           /* 西側 */
 930:Src/maze_solve.c ****           k = g_direction->contents.West;
 931:Src/maze_solve.c ****           if (k <= 7) {
 932:Src/maze_solve.c ****             e_k = (unsigned char)(1 << k);
 933:Src/maze_solve.c ****           } else {
 934:Src/maze_solve.c ****             e_k = 0;
ARM GAS  C:\Temp\cc4yiJU0.s 			page 43


 935:Src/maze_solve.c ****           }
 936:Src/maze_solve.c **** 
 937:Src/maze_solve.c ****           if ((i3 & e_k) == wall->contents.nowall) {
 938:Src/maze_solve.c ****             /* 西側のMAPが更新されているか判断、されていなければ書き込み
 939:Src/maze_solve.c ****             idx = (row_data[q0] + ((col_data[q0] - 2) << 5)) - 1;
 940:Src/maze_solve.c ****             if (contour_map[idx] == (unsigned char)qY) {
 941:Src/maze_solve.c ****               contour_map[idx] = (unsigned char)(tempi + 1);
 942:Src/maze_solve.c ****               change_flag = 1U;
 943:Src/maze_solve.c ****             }
 944:Src/maze_solve.c ****           }
 945:Src/maze_solve.c ****         }
 946:Src/maze_solve.c **** 
 947:Src/maze_solve.c ****         tempi++;
 948:Src/maze_solve.c ****       }
 949:Src/maze_solve.c ****     }
 950:Src/maze_solve.c **** 
 951:Src/maze_solve.c ****     /* 更新がなければ終了     */
 952:Src/maze_solve.c ****   } while (!(change_flag == 0));
 953:Src/maze_solve.c **** }
 954:Src/maze_solve.c **** 
 955:Src/maze_solve.c **** /*
 956:Src/maze_solve.c ****  * 未知壁の領域は仮想壁をおいて侵入しない。
 957:Src/maze_solve.c ****  * 入力 迷路縦サイズ,迷路横サイズ,ゴール座標,迷路情報(16進数),迷路探索
 958:Src/maze_solve.c ****  * 出力 等高線map,最大経路長
 959:Src/maze_solve.c ****  * Arguments    : const coder_internal_ref *goal_size
 960:Src/maze_solve.c ****  *                const coder_internal_ref_4 *g_direction
 961:Src/maze_solve.c ****  *                const coder_internal_ref_2 *wall
 962:Src/maze_solve.c ****  *                const coder_internal_ref_1 *search
 963:Src/maze_solve.c ****  *                unsigned char maze_row_size
 964:Src/maze_solve.c ****  *                unsigned char maze_col_size
 965:Src/maze_solve.c ****  *                const unsigned char maze_goal[18]
 966:Src/maze_solve.c ****  *                const unsigned char maze_wall[1024]
 967:Src/maze_solve.c ****  *                const unsigned char maze_wall_search[1024]
 968:Src/maze_solve.c ****  *                unsigned char contour_map[1024]
 969:Src/maze_solve.c ****  *                unsigned char *max_length
 970:Src/maze_solve.c ****  * Return Type  : void
 971:Src/maze_solve.c ****  */
 972:Src/maze_solve.c **** static void make_map_fustrun(const coder_internal_ref *goal_size, const
 973:Src/maze_solve.c ****   coder_internal_ref_4 *g_direction, const coder_internal_ref_2 *wall, const
 974:Src/maze_solve.c ****   coder_internal_ref_1 *search, unsigned char maze_row_size, unsigned char
 975:Src/maze_solve.c ****   maze_col_size, const unsigned char maze_goal[18], const unsigned char
 976:Src/maze_solve.c ****   maze_wall[1024], const unsigned char maze_wall_search[1024], unsigned char
 977:Src/maze_solve.c ****   contour_map[1024], unsigned char *max_length)
 978:Src/maze_solve.c **** {
 979:Src/maze_solve.c ****   unsigned int qY;
 980:Src/maze_solve.c ****   unsigned int b_qY;
 981:Src/maze_solve.c ****   int q0;
 982:Src/maze_solve.c ****   int i6;
 983:Src/maze_solve.c ****   unsigned char change_flag;
 984:Src/maze_solve.c ****   unsigned char tempi;
 985:Src/maze_solve.c ****   int idx;
 986:Src/maze_solve.c ****   bool exitg1;
 987:Src/maze_solve.c ****   int loop_ub;
 988:Src/maze_solve.c ****   static short ii_data[1024];
 989:Src/maze_solve.c ****   int num_temp_size[1];
 990:Src/maze_solve.c ****   static unsigned short num_temp_data[1024];
 991:Src/maze_solve.c ****   int b_num_temp_size[1];
ARM GAS  C:\Temp\cc4yiJU0.s 			page 44


 992:Src/maze_solve.c ****   unsigned short b_num_temp_data[1024];
 993:Src/maze_solve.c ****   unsigned short tmp_data[1024];
 994:Src/maze_solve.c ****   int tmp_size[1];
 995:Src/maze_solve.c ****   unsigned short u1;
 996:Src/maze_solve.c ****   unsigned char row_data[1024];
 997:Src/maze_solve.c ****   unsigned char k;
 998:Src/maze_solve.c ****   unsigned char col_data[1024];
 999:Src/maze_solve.c ****   int i7;
1000:Src/maze_solve.c ****   int b_k;
1001:Src/maze_solve.c ****   int c_k;
1002:Src/maze_solve.c ****   int d_k;
1003:Src/maze_solve.c ****   int i8;
1004:Src/maze_solve.c ****   int e_k;
1005:Src/maze_solve.c ****   int f_k;
1006:Src/maze_solve.c ****   int g_k;
1007:Src/maze_solve.c ****   int h_k;
1008:Src/maze_solve.c ****   int i_k;
1009:Src/maze_solve.c **** 
1010:Src/maze_solve.c ****   /*  make_map_fustrun 最短走行用等高線MAPを生成 */
1011:Src/maze_solve.c ****   /* ローカル変数設定 */
1012:Src/maze_solve.c ****   /*  迷路パラメータ設定 */
1013:Src/maze_solve.c ****   qY = maze_col_size - 1U;
1014:Src/maze_solve.c ****   if (qY > maze_col_size) {
1015:Src/maze_solve.c ****     qY = 0U;
1016:Src/maze_solve.c ****   }
1017:Src/maze_solve.c **** 
1018:Src/maze_solve.c ****   b_qY = maze_row_size - 1U;
1019:Src/maze_solve.c ****   if (b_qY > maze_row_size) {
1020:Src/maze_solve.c ****     b_qY = 0U;
1021:Src/maze_solve.c ****   }
1022:Src/maze_solve.c **** 
1023:Src/maze_solve.c ****   q0 = (int)(qY * b_qY);
1024:Src/maze_solve.c ****   if ((unsigned int)q0 > 255U) {
1025:Src/maze_solve.c ****     q0 = 255;
1026:Src/maze_solve.c ****   }
1027:Src/maze_solve.c **** 
1028:Src/maze_solve.c ****   qY = q0 - 1U;
1029:Src/maze_solve.c ****   if (qY > (unsigned int)q0) {
1030:Src/maze_solve.c ****     qY = 0U;
1031:Src/maze_solve.c ****   }
1032:Src/maze_solve.c **** 
1033:Src/maze_solve.c ****   *max_length = (unsigned char)qY;
1034:Src/maze_solve.c **** 
1035:Src/maze_solve.c ****   /* MAPの初期化(すべての要素にmax_lengthを入力) */
1036:Src/maze_solve.c ****   /* MAPの初期化(すべての要素にmax_lengthを入力) */
1037:Src/maze_solve.c ****   /* 32マス分mapを保持 */
1038:Src/maze_solve.c ****   for (i6 = 0; i6 < 1024; i6++) {
1039:Src/maze_solve.c ****     contour_map[i6] = (unsigned char)qY;
1040:Src/maze_solve.c ****   }
1041:Src/maze_solve.c **** 
1042:Src/maze_solve.c ****   /* ゴール座標に0を入力 */
1043:Src/maze_solve.c ****   change_flag = goal_size->contents;
1044:Src/maze_solve.c ****   i6 = change_flag;
1045:Src/maze_solve.c ****   for (q0 = 0; q0 < i6; q0++) {
1046:Src/maze_solve.c ****     contour_map[(maze_goal[q0 + 9] + ((maze_goal[q0] - 1) << 5)) - 1] = 0U;
1047:Src/maze_solve.c ****   }
1048:Src/maze_solve.c **** 
ARM GAS  C:\Temp\cc4yiJU0.s 			page 45


1049:Src/maze_solve.c ****   do {
1050:Src/maze_solve.c ****     change_flag = 0U;
1051:Src/maze_solve.c **** 
1052:Src/maze_solve.c ****     /* map更新確認用フラグ */
1053:Src/maze_solve.c ****     for (tempi = 0; tempi <= *max_length; tempi++) {
1054:Src/maze_solve.c ****       /* 歩数カウントは0~max_length */
1055:Src/maze_solve.c ****       /* 歩数が確定している座標を検索 */
1056:Src/maze_solve.c ****       /* 最初は0,更新され、増加したマスを次々検索していく */
1057:Src/maze_solve.c ****       idx = 0;
1058:Src/maze_solve.c ****       q0 = 0;
1059:Src/maze_solve.c ****       exitg1 = false;
1060:Src/maze_solve.c ****       while ((!exitg1) && (q0 < 1024)) {
1061:Src/maze_solve.c ****         if (contour_map[q0] == tempi) {
1062:Src/maze_solve.c ****           idx++;
1063:Src/maze_solve.c ****           ii_data[idx - 1] = (short)(q0 + 1);
1064:Src/maze_solve.c ****           if (idx >= 1024) {
1065:Src/maze_solve.c ****             exitg1 = true;
1066:Src/maze_solve.c ****           } else {
1067:Src/maze_solve.c ****             q0++;
1068:Src/maze_solve.c ****           }
1069:Src/maze_solve.c ****         } else {
1070:Src/maze_solve.c ****           q0++;
1071:Src/maze_solve.c ****         }
1072:Src/maze_solve.c ****       }
1073:Src/maze_solve.c **** 
1074:Src/maze_solve.c ****       if (1 > idx) {
1075:Src/maze_solve.c ****         loop_ub = 0;
1076:Src/maze_solve.c ****         q0 = 0;
1077:Src/maze_solve.c ****       } else {
1078:Src/maze_solve.c ****         loop_ub = idx;
1079:Src/maze_solve.c ****         q0 = idx;
1080:Src/maze_solve.c ****       }
1081:Src/maze_solve.c **** 
1082:Src/maze_solve.c ****       num_temp_size[0] = loop_ub;
1083:Src/maze_solve.c ****       for (i6 = 0; i6 < loop_ub; i6++) {
1084:Src/maze_solve.c ****         num_temp_data[i6] = (unsigned short)ii_data[i6];
1085:Src/maze_solve.c ****       }
1086:Src/maze_solve.c **** 
1087:Src/maze_solve.c ****       /* 32行なので、行番号:32で割ったあまり */
1088:Src/maze_solve.c ****       b_num_temp_size[0] = q0;
1089:Src/maze_solve.c ****       for (i6 = 0; i6 < q0; i6++) {
1090:Src/maze_solve.c ****         b_num_temp_data[i6] = (unsigned short)(num_temp_data[i6] - 1U);
1091:Src/maze_solve.c ****       }
1092:Src/maze_solve.c **** 
1093:Src/maze_solve.c ****       b_rem(b_num_temp_data, b_num_temp_size, tmp_data, tmp_size);
1094:Src/maze_solve.c ****       loop_ub = tmp_size[0];
1095:Src/maze_solve.c ****       for (i6 = 0; i6 < loop_ub; i6++) {
1096:Src/maze_solve.c ****         b_qY = tmp_data[i6] + 1U;
1097:Src/maze_solve.c ****         if (b_qY > 65535U) {
1098:Src/maze_solve.c ****           b_qY = 65535U;
1099:Src/maze_solve.c ****         }
1100:Src/maze_solve.c **** 
1101:Src/maze_solve.c ****         u1 = (unsigned short)b_qY;
1102:Src/maze_solve.c ****         if ((unsigned short)b_qY > 255) {
1103:Src/maze_solve.c ****           u1 = 255U;
1104:Src/maze_solve.c ****         }
1105:Src/maze_solve.c **** 
ARM GAS  C:\Temp\cc4yiJU0.s 			page 46


1106:Src/maze_solve.c ****         row_data[i6] = (unsigned char)u1;
1107:Src/maze_solve.c ****       }
1108:Src/maze_solve.c **** 
1109:Src/maze_solve.c ****       /* 列番号:32で割ったときの商 */
1110:Src/maze_solve.c ****       for (i6 = 0; i6 < q0; i6++) {
1111:Src/maze_solve.c ****         num_temp_data[i6]--;
1112:Src/maze_solve.c ****       }
1113:Src/maze_solve.c **** 
1114:Src/maze_solve.c ****       idivide(num_temp_data, num_temp_size, tmp_data, tmp_size);
1115:Src/maze_solve.c ****       q0 = tmp_size[0];
1116:Src/maze_solve.c ****       for (i6 = 0; i6 < q0; i6++) {
1117:Src/maze_solve.c ****         b_qY = tmp_data[i6] + 1U;
1118:Src/maze_solve.c ****         if (b_qY > 65535U) {
1119:Src/maze_solve.c ****           b_qY = 65535U;
1120:Src/maze_solve.c ****         }
1121:Src/maze_solve.c **** 
1122:Src/maze_solve.c ****         u1 = (unsigned short)b_qY;
1123:Src/maze_solve.c ****         if ((unsigned short)b_qY > 255) {
1124:Src/maze_solve.c ****           u1 = 255U;
1125:Src/maze_solve.c ****         }
1126:Src/maze_solve.c **** 
1127:Src/maze_solve.c ****         col_data[i6] = (unsigned char)u1;
1128:Src/maze_solve.c ****       }
1129:Src/maze_solve.c **** 
1130:Src/maze_solve.c ****       /* 見つかったマスの数 */
1131:Src/maze_solve.c ****       /* 検索した座標に対し、歩数mapを更新 */
1132:Src/maze_solve.c ****       for (q0 = 0; q0 < loop_ub; q0++) {
1133:Src/maze_solve.c ****         /* 北側 */
1134:Src/maze_solve.c ****         /* 壁が無い & 探索済みであるとき */
1135:Src/maze_solve.c ****         k = g_direction->contents.North;
1136:Src/maze_solve.c ****         i6 = (unsigned short)(1 + q0) - 1;
1137:Src/maze_solve.c ****         idx = (col_data[i6] - 1) << 5;
1138:Src/maze_solve.c ****         i6 = row_data[i6] + idx;
1139:Src/maze_solve.c ****         i7 = i6 - 1;
1140:Src/maze_solve.c ****         if (k <= 7) {
1141:Src/maze_solve.c ****           b_k = (unsigned char)(1 << k);
1142:Src/maze_solve.c ****         } else {
1143:Src/maze_solve.c ****           b_k = 0;
1144:Src/maze_solve.c ****         }
1145:Src/maze_solve.c **** 
1146:Src/maze_solve.c ****         if (((maze_wall[i7] & b_k) != 0) == wall->contents.nowall) {
1147:Src/maze_solve.c ****           k = g_direction->contents.North;
1148:Src/maze_solve.c ****           if (k <= 7) {
1149:Src/maze_solve.c ****             c_k = (unsigned char)(1 << k);
1150:Src/maze_solve.c ****           } else {
1151:Src/maze_solve.c ****             c_k = 0;
1152:Src/maze_solve.c ****           }
1153:Src/maze_solve.c **** 
1154:Src/maze_solve.c ****           if (((maze_wall_search[i7] & c_k) != 0) == search->contents.known) {
1155:Src/maze_solve.c ****             /* 北側のMAPが更新されているか判断、されていなければ書き込み
1156:Src/maze_solve.c ****             i7 = (int)(row_data[(unsigned short)(1 + q0) - 1] + 1U);
1157:Src/maze_solve.c ****             i8 = i7;
1158:Src/maze_solve.c ****             if ((unsigned int)i7 > 255U) {
1159:Src/maze_solve.c ****               i8 = 255;
1160:Src/maze_solve.c ****             }
1161:Src/maze_solve.c **** 
1162:Src/maze_solve.c ****             if (contour_map[(i8 + idx) - 1] == (unsigned char)qY) {
ARM GAS  C:\Temp\cc4yiJU0.s 			page 47


1163:Src/maze_solve.c ****               if ((unsigned int)i7 > 255U) {
1164:Src/maze_solve.c ****                 i7 = 255;
1165:Src/maze_solve.c ****               }
1166:Src/maze_solve.c **** 
1167:Src/maze_solve.c ****               contour_map[(i7 + idx) - 1] = (unsigned char)(tempi + 1);
1168:Src/maze_solve.c ****               change_flag = 1U;
1169:Src/maze_solve.c ****             }
1170:Src/maze_solve.c ****           }
1171:Src/maze_solve.c ****         }
1172:Src/maze_solve.c **** 
1173:Src/maze_solve.c ****         /* 東側 */
1174:Src/maze_solve.c ****         k = g_direction->contents.East;
1175:Src/maze_solve.c ****         if (k <= 7) {
1176:Src/maze_solve.c ****           d_k = (unsigned char)(1 << k);
1177:Src/maze_solve.c ****         } else {
1178:Src/maze_solve.c ****           d_k = 0;
1179:Src/maze_solve.c ****         }
1180:Src/maze_solve.c **** 
1181:Src/maze_solve.c ****         if (((maze_wall[(row_data[(unsigned short)(1 + q0) - 1] + ((col_data
1182:Src/maze_solve.c ****                  [(unsigned short)(1 + q0) - 1] - 1) << 5)) - 1] & d_k) != 0) ==
1183:Src/maze_solve.c ****             wall->contents.nowall) {
1184:Src/maze_solve.c ****           k = g_direction->contents.East;
1185:Src/maze_solve.c ****           if (k <= 7) {
1186:Src/maze_solve.c ****             e_k = (unsigned char)(1 << k);
1187:Src/maze_solve.c ****           } else {
1188:Src/maze_solve.c ****             e_k = 0;
1189:Src/maze_solve.c ****           }
1190:Src/maze_solve.c **** 
1191:Src/maze_solve.c ****           if (((maze_wall_search[(row_data[(unsigned short)(1 + q0) - 1] +
1192:Src/maze_solve.c ****                                   ((col_data[(unsigned short)(1 + q0) - 1] - 1) <<
1193:Src/maze_solve.c ****                   5)) - 1] & e_k) != 0) == search->contents.known) {
1194:Src/maze_solve.c ****             /* 東側のMAPが更新されているか判断、されていなければ書き込み
1195:Src/maze_solve.c ****             idx = (int)(col_data[(unsigned short)(1 + q0) - 1] + 1U);
1196:Src/maze_solve.c ****             i7 = idx;
1197:Src/maze_solve.c ****             if ((unsigned int)idx > 255U) {
1198:Src/maze_solve.c ****               i7 = 255;
1199:Src/maze_solve.c ****             }
1200:Src/maze_solve.c **** 
1201:Src/maze_solve.c ****             if (contour_map[(row_data[(unsigned short)(1 + q0) - 1] + ((i7 - 1) <<
1202:Src/maze_solve.c ****                   5)) - 1] == (unsigned char)qY) {
1203:Src/maze_solve.c ****               if ((unsigned int)idx > 255U) {
1204:Src/maze_solve.c ****                 idx = 255;
1205:Src/maze_solve.c ****               }
1206:Src/maze_solve.c **** 
1207:Src/maze_solve.c ****               contour_map[(row_data[(unsigned short)(1 + q0) - 1] + ((idx - 1) <<
1208:Src/maze_solve.c ****                 5)) - 1] = (unsigned char)(tempi + 1);
1209:Src/maze_solve.c ****               change_flag = 1U;
1210:Src/maze_solve.c ****             }
1211:Src/maze_solve.c ****           }
1212:Src/maze_solve.c ****         }
1213:Src/maze_solve.c **** 
1214:Src/maze_solve.c ****         /* 南側 */
1215:Src/maze_solve.c ****         k = g_direction->contents.South;
1216:Src/maze_solve.c ****         if (k <= 7) {
1217:Src/maze_solve.c ****           f_k = (unsigned char)(1 << k);
1218:Src/maze_solve.c ****         } else {
1219:Src/maze_solve.c ****           f_k = 0;
ARM GAS  C:\Temp\cc4yiJU0.s 			page 48


1220:Src/maze_solve.c ****         }
1221:Src/maze_solve.c **** 
1222:Src/maze_solve.c ****         if (((maze_wall[(row_data[(unsigned short)(1 + q0) - 1] + ((col_data
1223:Src/maze_solve.c ****                  [(unsigned short)(1 + q0) - 1] - 1) << 5)) - 1] & f_k) != 0) ==
1224:Src/maze_solve.c ****             wall->contents.nowall) {
1225:Src/maze_solve.c ****           k = g_direction->contents.South;
1226:Src/maze_solve.c ****           if (k <= 7) {
1227:Src/maze_solve.c ****             g_k = (unsigned char)(1 << k);
1228:Src/maze_solve.c ****           } else {
1229:Src/maze_solve.c ****             g_k = 0;
1230:Src/maze_solve.c ****           }
1231:Src/maze_solve.c **** 
1232:Src/maze_solve.c ****           if (((maze_wall_search[(row_data[(unsigned short)(1 + q0) - 1] +
1233:Src/maze_solve.c ****                                   ((col_data[(unsigned short)(1 + q0) - 1] - 1) <<
1234:Src/maze_solve.c ****                   5)) - 1] & g_k) != 0) == search->contents.known) {
1235:Src/maze_solve.c ****             /* 南側のMAPが更新されているか判断、されていなければ書き込み
1236:Src/maze_solve.c ****             i6 -= 2;
1237:Src/maze_solve.c ****             if (contour_map[i6] == (unsigned char)qY) {
1238:Src/maze_solve.c ****               contour_map[i6] = (unsigned char)(tempi + 1);
1239:Src/maze_solve.c ****               change_flag = 1U;
1240:Src/maze_solve.c ****             }
1241:Src/maze_solve.c ****           }
1242:Src/maze_solve.c ****         }
1243:Src/maze_solve.c **** 
1244:Src/maze_solve.c ****         /* 西側 */
1245:Src/maze_solve.c ****         k = g_direction->contents.West;
1246:Src/maze_solve.c ****         if (k <= 7) {
1247:Src/maze_solve.c ****           h_k = (unsigned char)(1 << k);
1248:Src/maze_solve.c ****         } else {
1249:Src/maze_solve.c ****           h_k = 0;
1250:Src/maze_solve.c ****         }
1251:Src/maze_solve.c **** 
1252:Src/maze_solve.c ****         if (((maze_wall[(row_data[(unsigned short)(1 + q0) - 1] + ((col_data
1253:Src/maze_solve.c ****                  [(unsigned short)(1 + q0) - 1] - 1) << 5)) - 1] & h_k) != 0) ==
1254:Src/maze_solve.c ****             wall->contents.nowall) {
1255:Src/maze_solve.c ****           k = g_direction->contents.West;
1256:Src/maze_solve.c ****           if (k <= 7) {
1257:Src/maze_solve.c ****             i_k = (unsigned char)(1 << k);
1258:Src/maze_solve.c ****           } else {
1259:Src/maze_solve.c ****             i_k = 0;
1260:Src/maze_solve.c ****           }
1261:Src/maze_solve.c **** 
1262:Src/maze_solve.c ****           if (((maze_wall_search[(row_data[(unsigned short)(1 + q0) - 1] +
1263:Src/maze_solve.c ****                                   ((col_data[(unsigned short)(1 + q0) - 1] - 1) <<
1264:Src/maze_solve.c ****                   5)) - 1] & i_k) != 0) == search->contents.known) {
1265:Src/maze_solve.c ****             /* 西側のMAPが更新されているか判断、されていなければ書き込み
1266:Src/maze_solve.c ****             i6 = (row_data[(unsigned short)(1 + q0) - 1] + ((col_data[(unsigned
1267:Src/maze_solve.c ****                      short)(1 + q0) - 1] - 2) << 5)) - 1;
1268:Src/maze_solve.c ****             if (contour_map[i6] == (unsigned char)qY) {
1269:Src/maze_solve.c ****               contour_map[i6] = (unsigned char)(tempi + 1);
1270:Src/maze_solve.c ****               change_flag = 1U;
1271:Src/maze_solve.c ****             }
1272:Src/maze_solve.c ****           }
1273:Src/maze_solve.c ****         }
1274:Src/maze_solve.c ****       }
1275:Src/maze_solve.c ****     }
1276:Src/maze_solve.c **** 
ARM GAS  C:\Temp\cc4yiJU0.s 			page 49


1277:Src/maze_solve.c ****     /* 更新がなければ終了     */
1278:Src/maze_solve.c ****   } while (!(change_flag == 0));
1279:Src/maze_solve.c **** }
1280:Src/maze_solve.c **** 
1281:Src/maze_solve.c **** /*
1282:Src/maze_solve.c ****  * 入力 現在位置x,y,現在方向
1283:Src/maze_solve.c ****  * 出力 現在位置x,y
1284:Src/maze_solve.c ****  * Arguments    : const coder_internal_ref_4 *g_direction
1285:Src/maze_solve.c ****  *                unsigned char *current_x
1286:Src/maze_solve.c ****  *                unsigned char *current_y
1287:Src/maze_solve.c ****  *                unsigned char current_dir
1288:Src/maze_solve.c ****  * Return Type  : void
1289:Src/maze_solve.c ****  */
1290:Src/maze_solve.c **** static void move_step(const coder_internal_ref_4 *g_direction, unsigned char
1291:Src/maze_solve.c ****                       *current_x, unsigned char *current_y, unsigned char
1292:Src/maze_solve.c ****                       current_dir)
1293:Src/maze_solve.c **** {
 1181              		.loc 1 1293 1 is_stmt 1 view -0
 1182              		.cfi_startproc
 1183              		@ args = 0, pretend = 0, frame = 0
 1184              		@ frame_needed = 0, uses_anonymous_args = 0
 1185              		@ link register save eliminated.
 1186              		.loc 1 1293 1 is_stmt 0 view .LVU463
 1187 0000 30B4     		push	{r4, r5}
 1188              	.LCFI3:
 1189              		.cfi_def_cfa_offset 8
 1190              		.cfi_offset 4, -8
 1191              		.cfi_offset 5, -4
1294:Src/maze_solve.c ****   int q0;
 1192              		.loc 1 1294 3 is_stmt 1 view .LVU464
1295:Src/maze_solve.c ****   unsigned int qY;
 1193              		.loc 1 1295 3 view .LVU465
1296:Src/maze_solve.c **** 
1297:Src/maze_solve.c ****   /*  move_step 一マス前進する関数 */
1298:Src/maze_solve.c ****   /* 北に一マス */
1299:Src/maze_solve.c ****   if (current_dir == g_direction->contents.North) {
 1194              		.loc 1 1299 3 view .LVU466
 1195              		.loc 1 1299 43 is_stmt 0 view .LVU467
 1196 0002 0478     		ldrb	r4, [r0]	@ zero_extendqisi2
 1197              		.loc 1 1299 6 view .LVU468
 1198 0004 9C42     		cmp	r4, r3
 1199 0006 0AD0     		beq	.L137
 1200              	.L124:
1300:Src/maze_solve.c ****     q0 = (int)(*current_y + 1U);
1301:Src/maze_solve.c ****     if ((unsigned int)q0 > 255U) {
1302:Src/maze_solve.c ****       q0 = 255;
1303:Src/maze_solve.c ****     }
1304:Src/maze_solve.c **** 
1305:Src/maze_solve.c ****     *current_y = (unsigned char)q0;
1306:Src/maze_solve.c **** 
1307:Src/maze_solve.c ****     /* disp("north_step") */
1308:Src/maze_solve.c ****   }
1309:Src/maze_solve.c **** 
1310:Src/maze_solve.c ****   /* 東に一マス */
1311:Src/maze_solve.c ****   if (current_dir == g_direction->contents.East) {
 1201              		.loc 1 1311 3 is_stmt 1 view .LVU469
 1202              		.loc 1 1311 43 is_stmt 0 view .LVU470
ARM GAS  C:\Temp\cc4yiJU0.s 			page 50


 1203 0008 4478     		ldrb	r4, [r0, #1]	@ zero_extendqisi2
 1204              		.loc 1 1311 6 view .LVU471
 1205 000a 9C42     		cmp	r4, r3
 1206 000c 0ED0     		beq	.L138
 1207              	.L126:
1312:Src/maze_solve.c ****     q0 = (int)(*current_x + 1U);
1313:Src/maze_solve.c ****     if ((unsigned int)q0 > 255U) {
1314:Src/maze_solve.c ****       q0 = 255;
1315:Src/maze_solve.c ****     }
1316:Src/maze_solve.c **** 
1317:Src/maze_solve.c ****     *current_x = (unsigned char)q0;
1318:Src/maze_solve.c **** 
1319:Src/maze_solve.c ****     /* disp("east_step") */
1320:Src/maze_solve.c ****   }
1321:Src/maze_solve.c **** 
1322:Src/maze_solve.c ****   /* 南に一マス */
1323:Src/maze_solve.c ****   if (current_dir == g_direction->contents.South) {
 1208              		.loc 1 1323 3 is_stmt 1 view .LVU472
 1209              		.loc 1 1323 43 is_stmt 0 view .LVU473
 1210 000e 8478     		ldrb	r4, [r0, #2]	@ zero_extendqisi2
 1211              		.loc 1 1323 6 view .LVU474
 1212 0010 9C42     		cmp	r4, r3
 1213 0012 12D0     		beq	.L139
 1214              	.L128:
1324:Src/maze_solve.c ****     q0 = *current_y;
1325:Src/maze_solve.c ****     qY = q0 - 1U;
1326:Src/maze_solve.c ****     if (qY > (unsigned int)q0) {
1327:Src/maze_solve.c ****       qY = 0U;
1328:Src/maze_solve.c ****     }
1329:Src/maze_solve.c **** 
1330:Src/maze_solve.c ****     *current_y = (unsigned char)qY;
1331:Src/maze_solve.c **** 
1332:Src/maze_solve.c ****     /* disp("south_step") */
1333:Src/maze_solve.c ****   }
1334:Src/maze_solve.c **** 
1335:Src/maze_solve.c ****   /* 西に一マス */
1336:Src/maze_solve.c ****   if (current_dir == g_direction->contents.West) {
 1215              		.loc 1 1336 3 is_stmt 1 view .LVU475
 1216              		.loc 1 1336 43 is_stmt 0 view .LVU476
 1217 0014 C278     		ldrb	r2, [r0, #3]	@ zero_extendqisi2
 1218              	.LVL171:
 1219              		.loc 1 1336 6 view .LVU477
 1220 0016 9A42     		cmp	r2, r3
 1221 0018 16D0     		beq	.L140
 1222              	.LVL172:
 1223              	.L123:
1337:Src/maze_solve.c ****     q0 = *current_x;
1338:Src/maze_solve.c ****     qY = q0 - 1U;
1339:Src/maze_solve.c ****     if (qY > (unsigned int)q0) {
1340:Src/maze_solve.c ****       qY = 0U;
1341:Src/maze_solve.c ****     }
1342:Src/maze_solve.c **** 
1343:Src/maze_solve.c ****     *current_x = (unsigned char)qY;
1344:Src/maze_solve.c **** 
1345:Src/maze_solve.c ****     /* disp("west_step") */
1346:Src/maze_solve.c ****   }
1347:Src/maze_solve.c **** }
ARM GAS  C:\Temp\cc4yiJU0.s 			page 51


 1224              		.loc 1 1347 1 view .LVU478
 1225 001a 30BC     		pop	{r4, r5}
 1226              	.LCFI4:
 1227              		.cfi_remember_state
 1228              		.cfi_restore 5
 1229              		.cfi_restore 4
 1230              		.cfi_def_cfa_offset 0
 1231 001c 7047     		bx	lr
 1232              	.LVL173:
 1233              	.L137:
 1234              	.LCFI5:
 1235              		.cfi_restore_state
1300:Src/maze_solve.c ****     if ((unsigned int)q0 > 255U) {
 1236              		.loc 1 1300 5 is_stmt 1 view .LVU479
1300:Src/maze_solve.c ****     if ((unsigned int)q0 > 255U) {
 1237              		.loc 1 1300 16 is_stmt 0 view .LVU480
 1238 001e 1478     		ldrb	r4, [r2]	@ zero_extendqisi2
1300:Src/maze_solve.c ****     if ((unsigned int)q0 > 255U) {
 1239              		.loc 1 1300 27 view .LVU481
 1240 0020 0134     		adds	r4, r4, #1
 1241              	.LVL174:
1301:Src/maze_solve.c ****       q0 = 255;
 1242              		.loc 1 1301 5 is_stmt 1 view .LVU482
1301:Src/maze_solve.c ****       q0 = 255;
 1243              		.loc 1 1301 8 is_stmt 0 view .LVU483
 1244 0022 FF2C     		cmp	r4, #255
 1245 0024 00D9     		bls	.L125
1302:Src/maze_solve.c ****     }
 1246              		.loc 1 1302 10 view .LVU484
 1247 0026 FF24     		movs	r4, #255
 1248              	.LVL175:
 1249              	.L125:
1305:Src/maze_solve.c **** 
 1250              		.loc 1 1305 5 is_stmt 1 view .LVU485
1305:Src/maze_solve.c **** 
 1251              		.loc 1 1305 16 is_stmt 0 view .LVU486
 1252 0028 1470     		strb	r4, [r2]
 1253 002a EDE7     		b	.L124
 1254              	.LVL176:
 1255              	.L138:
1312:Src/maze_solve.c ****     if ((unsigned int)q0 > 255U) {
 1256              		.loc 1 1312 5 is_stmt 1 view .LVU487
1312:Src/maze_solve.c ****     if ((unsigned int)q0 > 255U) {
 1257              		.loc 1 1312 16 is_stmt 0 view .LVU488
 1258 002c 0C78     		ldrb	r4, [r1]	@ zero_extendqisi2
1312:Src/maze_solve.c ****     if ((unsigned int)q0 > 255U) {
 1259              		.loc 1 1312 27 view .LVU489
 1260 002e 0134     		adds	r4, r4, #1
 1261              	.LVL177:
1313:Src/maze_solve.c ****       q0 = 255;
 1262              		.loc 1 1313 5 is_stmt 1 view .LVU490
1313:Src/maze_solve.c ****       q0 = 255;
 1263              		.loc 1 1313 8 is_stmt 0 view .LVU491
 1264 0030 FF2C     		cmp	r4, #255
 1265 0032 00D9     		bls	.L127
1314:Src/maze_solve.c ****     }
 1266              		.loc 1 1314 10 view .LVU492
ARM GAS  C:\Temp\cc4yiJU0.s 			page 52


 1267 0034 FF24     		movs	r4, #255
 1268              	.LVL178:
 1269              	.L127:
1317:Src/maze_solve.c **** 
 1270              		.loc 1 1317 5 is_stmt 1 view .LVU493
1317:Src/maze_solve.c **** 
 1271              		.loc 1 1317 16 is_stmt 0 view .LVU494
 1272 0036 0C70     		strb	r4, [r1]
 1273 0038 E9E7     		b	.L126
 1274              	.LVL179:
 1275              	.L139:
1324:Src/maze_solve.c ****     qY = q0 - 1U;
 1276              		.loc 1 1324 5 is_stmt 1 view .LVU495
1324:Src/maze_solve.c ****     qY = q0 - 1U;
 1277              		.loc 1 1324 10 is_stmt 0 view .LVU496
 1278 003a 1578     		ldrb	r5, [r2]	@ zero_extendqisi2
 1279              	.LVL180:
1325:Src/maze_solve.c ****     if (qY > (unsigned int)q0) {
 1280              		.loc 1 1325 5 is_stmt 1 view .LVU497
1325:Src/maze_solve.c ****     if (qY > (unsigned int)q0) {
 1281              		.loc 1 1325 8 is_stmt 0 view .LVU498
 1282 003c 6C1E     		subs	r4, r5, #1
 1283              	.LVL181:
1326:Src/maze_solve.c ****       qY = 0U;
 1284              		.loc 1 1326 5 is_stmt 1 view .LVU499
1326:Src/maze_solve.c ****       qY = 0U;
 1285              		.loc 1 1326 8 is_stmt 0 view .LVU500
 1286 003e A542     		cmp	r5, r4
 1287 0040 00D2     		bcs	.L129
1327:Src/maze_solve.c ****     }
 1288              		.loc 1 1327 10 view .LVU501
 1289 0042 0024     		movs	r4, #0
 1290              	.LVL182:
 1291              	.L129:
1330:Src/maze_solve.c **** 
 1292              		.loc 1 1330 5 is_stmt 1 view .LVU502
1330:Src/maze_solve.c **** 
 1293              		.loc 1 1330 16 is_stmt 0 view .LVU503
 1294 0044 1470     		strb	r4, [r2]
 1295 0046 E5E7     		b	.L128
 1296              	.LVL183:
 1297              	.L140:
1337:Src/maze_solve.c ****     qY = q0 - 1U;
 1298              		.loc 1 1337 5 is_stmt 1 view .LVU504
1337:Src/maze_solve.c ****     qY = q0 - 1U;
 1299              		.loc 1 1337 10 is_stmt 0 view .LVU505
 1300 0048 0A78     		ldrb	r2, [r1]	@ zero_extendqisi2
 1301              	.LVL184:
1338:Src/maze_solve.c ****     if (qY > (unsigned int)q0) {
 1302              		.loc 1 1338 5 is_stmt 1 view .LVU506
1338:Src/maze_solve.c ****     if (qY > (unsigned int)q0) {
 1303              		.loc 1 1338 8 is_stmt 0 view .LVU507
 1304 004a 531E     		subs	r3, r2, #1
 1305              	.LVL185:
1339:Src/maze_solve.c ****       qY = 0U;
 1306              		.loc 1 1339 5 is_stmt 1 view .LVU508
1339:Src/maze_solve.c ****       qY = 0U;
ARM GAS  C:\Temp\cc4yiJU0.s 			page 53


 1307              		.loc 1 1339 8 is_stmt 0 view .LVU509
 1308 004c 9A42     		cmp	r2, r3
 1309 004e 00D2     		bcs	.L131
1340:Src/maze_solve.c ****     }
 1310              		.loc 1 1340 10 view .LVU510
 1311 0050 0023     		movs	r3, #0
 1312              	.LVL186:
 1313              	.L131:
1343:Src/maze_solve.c **** 
 1314              		.loc 1 1343 5 is_stmt 1 view .LVU511
1343:Src/maze_solve.c **** 
 1315              		.loc 1 1343 16 is_stmt 0 view .LVU512
 1316 0052 0B70     		strb	r3, [r1]
 1317              		.loc 1 1347 1 view .LVU513
 1318 0054 E1E7     		b	.L123
 1319              		.cfi_endproc
 1320              	.LFE136:
 1322              		.section	.text.make_map_find,"ax",%progbits
 1323              		.align	1
 1324              		.syntax unified
 1325              		.thumb
 1326              		.thumb_func
 1327              		.fpu fpv4-sp-d16
 1329              	make_map_find:
 1330              	.LVL187:
 1331              	.LFB134:
 689:Src/maze_solve.c ****   unsigned int qY;
 1332              		.loc 1 689 1 is_stmt 1 view -0
 1333              		.cfi_startproc
 1334              		@ args = 20, pretend = 0, frame = 4120
 1335              		@ frame_needed = 0, uses_anonymous_args = 0
 689:Src/maze_solve.c ****   unsigned int qY;
 1336              		.loc 1 689 1 is_stmt 0 view .LVU515
 1337 0000 2DE9F04F 		push	{r4, r5, r6, r7, r8, r9, r10, fp, lr}
 1338              	.LCFI6:
 1339              		.cfi_def_cfa_offset 36
 1340              		.cfi_offset 4, -36
 1341              		.cfi_offset 5, -32
 1342              		.cfi_offset 6, -28
 1343              		.cfi_offset 7, -24
 1344              		.cfi_offset 8, -20
 1345              		.cfi_offset 9, -16
 1346              		.cfi_offset 10, -12
 1347              		.cfi_offset 11, -8
 1348              		.cfi_offset 14, -4
 1349 0004 ADF5805D 		sub	sp, sp, #4096
 1350              	.LCFI7:
 1351              		.cfi_def_cfa_offset 4132
 1352 0008 87B0     		sub	sp, sp, #28
 1353              	.LCFI8:
 1354              		.cfi_def_cfa_offset 4160
 1355 000a 0446     		mov	r4, r0
 1356 000c 0D46     		mov	r5, r1
 1357 000e 0DF58251 		add	r1, sp, #4160
 1358              	.LVL188:
 689:Src/maze_solve.c ****   unsigned int qY;
 1359              		.loc 1 689 1 view .LVU516
ARM GAS  C:\Temp\cc4yiJU0.s 			page 54


 1360 0012 0868     		ldr	r0, [r1]
 1361              	.LVL189:
 689:Src/maze_solve.c ****   unsigned int qY;
 1362              		.loc 1 689 1 view .LVU517
 1363 0014 0DF58251 		add	r1, sp, #4160
 689:Src/maze_solve.c ****   unsigned int qY;
 1364              		.loc 1 689 1 view .LVU518
 1365 0018 0C31     		adds	r1, r1, #12
 1366              	.LVL190:
 689:Src/maze_solve.c ****   unsigned int qY;
 1367              		.loc 1 689 1 view .LVU519
 1368 001a 0F68     		ldr	r7, [r1]
 690:Src/maze_solve.c ****   unsigned int b_qY;
 1369              		.loc 1 690 3 is_stmt 1 view .LVU520
 691:Src/maze_solve.c ****   int q0;
 1370              		.loc 1 691 3 view .LVU521
 692:Src/maze_solve.c ****   int i2;
 1371              		.loc 1 692 3 view .LVU522
 693:Src/maze_solve.c ****   unsigned char change_flag;
 1372              		.loc 1 693 3 view .LVU523
 694:Src/maze_solve.c ****   unsigned char tempi;
 1373              		.loc 1 694 3 view .LVU524
 695:Src/maze_solve.c ****   bool exitg1;
 1374              		.loc 1 695 3 view .LVU525
 696:Src/maze_solve.c ****   int idx;
 1375              		.loc 1 696 3 view .LVU526
 697:Src/maze_solve.c ****   bool exitg2;
 1376              		.loc 1 697 3 view .LVU527
 698:Src/maze_solve.c ****   int loop_ub;
 1377              		.loc 1 698 3 view .LVU528
 699:Src/maze_solve.c ****   static short ii_data[1024];
 1378              		.loc 1 699 3 view .LVU529
 700:Src/maze_solve.c ****   int num_temp_size[1];
 1379              		.loc 1 700 3 view .LVU530
 701:Src/maze_solve.c ****   static unsigned short num_temp_data[1024];
 1380              		.loc 1 701 3 view .LVU531
 702:Src/maze_solve.c ****   int b_num_temp_size[1];
 1381              		.loc 1 702 3 view .LVU532
 703:Src/maze_solve.c ****   static unsigned short b_num_temp_data[1024];
 1382              		.loc 1 703 3 view .LVU533
 704:Src/maze_solve.c ****   unsigned short tmp_data[1024];
 1383              		.loc 1 704 3 view .LVU534
 705:Src/maze_solve.c ****   int tmp_size[1];
 1384              		.loc 1 705 3 view .LVU535
 706:Src/maze_solve.c ****   unsigned short u0;
 1385              		.loc 1 706 3 view .LVU536
 707:Src/maze_solve.c ****   unsigned char row_data[1024];
 1386              		.loc 1 707 3 view .LVU537
 708:Src/maze_solve.c ****   unsigned char col_data[1024];
 1387              		.loc 1 708 3 view .LVU538
 709:Src/maze_solve.c ****   unsigned char k;
 1388              		.loc 1 709 3 view .LVU539
 710:Src/maze_solve.c ****   int i3;
 1389              		.loc 1 710 3 view .LVU540
 711:Src/maze_solve.c ****   int b_k;
 1390              		.loc 1 711 3 view .LVU541
 712:Src/maze_solve.c ****   int i4;
ARM GAS  C:\Temp\cc4yiJU0.s 			page 55


 1391              		.loc 1 712 3 view .LVU542
 713:Src/maze_solve.c ****   int i5;
 1392              		.loc 1 713 3 view .LVU543
 714:Src/maze_solve.c ****   int c_k;
 1393              		.loc 1 714 3 view .LVU544
 715:Src/maze_solve.c ****   int d_k;
 1394              		.loc 1 715 3 view .LVU545
 716:Src/maze_solve.c ****   int e_k;
 1395              		.loc 1 716 3 view .LVU546
 717:Src/maze_solve.c **** 
 1396              		.loc 1 717 3 view .LVU547
 721:Src/maze_solve.c ****   if (qY > maze_col_size) {
 1397              		.loc 1 721 3 view .LVU548
 721:Src/maze_solve.c ****   if (qY > maze_col_size) {
 1398              		.loc 1 721 6 is_stmt 0 view .LVU549
 1399 001c 591E     		subs	r1, r3, #1
 1400              	.LVL191:
 722:Src/maze_solve.c ****     qY = 0U;
 1401              		.loc 1 722 3 is_stmt 1 view .LVU550
 722:Src/maze_solve.c ****     qY = 0U;
 1402              		.loc 1 722 6 is_stmt 0 view .LVU551
 1403 001e 8B42     		cmp	r3, r1
 1404 0020 00D2     		bcs	.L142
 723:Src/maze_solve.c ****   }
 1405              		.loc 1 723 8 view .LVU552
 1406 0022 0021     		movs	r1, #0
 1407              	.LVL192:
 1408              	.L142:
 726:Src/maze_solve.c ****   if (b_qY > maze_row_size) {
 1409              		.loc 1 726 3 is_stmt 1 view .LVU553
 726:Src/maze_solve.c ****   if (b_qY > maze_row_size) {
 1410              		.loc 1 726 8 is_stmt 0 view .LVU554
 1411 0024 531E     		subs	r3, r2, #1
 1412              	.LVL193:
 727:Src/maze_solve.c ****     b_qY = 0U;
 1413              		.loc 1 727 3 is_stmt 1 view .LVU555
 727:Src/maze_solve.c ****     b_qY = 0U;
 1414              		.loc 1 727 6 is_stmt 0 view .LVU556
 1415 0026 9A42     		cmp	r2, r3
 1416 0028 00D2     		bcs	.L143
 728:Src/maze_solve.c ****   }
 1417              		.loc 1 728 10 view .LVU557
 1418 002a 0023     		movs	r3, #0
 1419              	.LVL194:
 1420              	.L143:
 731:Src/maze_solve.c ****   if ((unsigned int)q0 > 255U) {
 1421              		.loc 1 731 3 is_stmt 1 view .LVU558
 731:Src/maze_solve.c ****   if ((unsigned int)q0 > 255U) {
 1422              		.loc 1 731 17 is_stmt 0 view .LVU559
 1423 002c 03FB01F3 		mul	r3, r3, r1
 1424              	.LVL195:
 732:Src/maze_solve.c ****     q0 = 255;
 1425              		.loc 1 732 3 is_stmt 1 view .LVU560
 732:Src/maze_solve.c ****     q0 = 255;
 1426              		.loc 1 732 6 is_stmt 0 view .LVU561
 1427 0030 FF2B     		cmp	r3, #255
 1428 0032 00D9     		bls	.L144
ARM GAS  C:\Temp\cc4yiJU0.s 			page 56


 733:Src/maze_solve.c ****   }
 1429              		.loc 1 733 8 view .LVU562
 1430 0034 FF23     		movs	r3, #255
 1431              	.LVL196:
 1432              	.L144:
 736:Src/maze_solve.c ****   if (qY > (unsigned int)q0) {
 1433              		.loc 1 736 3 is_stmt 1 view .LVU563
 736:Src/maze_solve.c ****   if (qY > (unsigned int)q0) {
 1434              		.loc 1 736 6 is_stmt 0 view .LVU564
 1435 0036 5A1E     		subs	r2, r3, #1
 1436              	.LVL197:
 737:Src/maze_solve.c ****     qY = 0U;
 1437              		.loc 1 737 3 is_stmt 1 view .LVU565
 737:Src/maze_solve.c ****     qY = 0U;
 1438              		.loc 1 737 6 is_stmt 0 view .LVU566
 1439 0038 9342     		cmp	r3, r2
 1440 003a 00D2     		bcs	.L145
 738:Src/maze_solve.c ****   }
 1441              		.loc 1 738 8 view .LVU567
 1442 003c 0022     		movs	r2, #0
 1443              	.LVL198:
 1444              	.L145:
 741:Src/maze_solve.c **** 
 1445              		.loc 1 741 3 is_stmt 1 view .LVU568
 741:Src/maze_solve.c **** 
 1446              		.loc 1 741 17 is_stmt 0 view .LVU569
 1447 003e 5FFA82F8 		uxtb	r8, r2
 741:Src/maze_solve.c **** 
 1448              		.loc 1 741 15 view .LVU570
 1449 0042 0DF58253 		add	r3, sp, #4160
 1450              	.LVL199:
 741:Src/maze_solve.c **** 
 1451              		.loc 1 741 15 view .LVU571
 1452 0046 1033     		adds	r3, r3, #16
 1453              	.LVL200:
 741:Src/maze_solve.c **** 
 1454              		.loc 1 741 15 view .LVU572
 1455 0048 1B68     		ldr	r3, [r3]
 1456              	.LVL201:
 741:Src/maze_solve.c **** 
 1457              		.loc 1 741 15 view .LVU573
 1458 004a 83F80080 		strb	r8, [r3]
 745:Src/maze_solve.c ****     contour_map[i2] = (unsigned char)qY;
 1459              		.loc 1 745 3 is_stmt 1 view .LVU574
 1460              	.LVL202:
 745:Src/maze_solve.c ****     contour_map[i2] = (unsigned char)qY;
 1461              		.loc 1 745 11 is_stmt 0 view .LVU575
 1462 004e 0023     		movs	r3, #0
 1463              	.LVL203:
 1464              	.L146:
 745:Src/maze_solve.c ****     contour_map[i2] = (unsigned char)qY;
 1465              		.loc 1 745 16 is_stmt 1 discriminator 1 view .LVU576
 745:Src/maze_solve.c ****     contour_map[i2] = (unsigned char)qY;
 1466              		.loc 1 745 3 is_stmt 0 discriminator 1 view .LVU577
 1467 0050 B3F5806F 		cmp	r3, #1024
 1468 0054 03DA     		bge	.L207
 746:Src/maze_solve.c ****   }
ARM GAS  C:\Temp\cc4yiJU0.s 			page 57


 1469              		.loc 1 746 5 is_stmt 1 discriminator 3 view .LVU578
 746:Src/maze_solve.c ****   }
 1470              		.loc 1 746 21 is_stmt 0 discriminator 3 view .LVU579
 1471 0056 07F80380 		strb	r8, [r7, r3]
 745:Src/maze_solve.c ****     contour_map[i2] = (unsigned char)qY;
 1472              		.loc 1 745 27 is_stmt 1 discriminator 3 view .LVU580
 745:Src/maze_solve.c ****     contour_map[i2] = (unsigned char)qY;
 1473              		.loc 1 745 29 is_stmt 0 discriminator 3 view .LVU581
 1474 005a 0133     		adds	r3, r3, #1
 1475              	.LVL204:
 745:Src/maze_solve.c ****     contour_map[i2] = (unsigned char)qY;
 1476              		.loc 1 745 29 discriminator 3 view .LVU582
 1477 005c F8E7     		b	.L146
 1478              	.L207:
 750:Src/maze_solve.c ****   for (q0 = 0; q0 < i2; q0++) {
 1479              		.loc 1 750 3 is_stmt 1 view .LVU583
 750:Src/maze_solve.c ****   for (q0 = 0; q0 < i2; q0++) {
 1480              		.loc 1 750 6 is_stmt 0 view .LVU584
 1481 005e 0DF58253 		add	r3, sp, #4160
 1482              	.LVL205:
 750:Src/maze_solve.c ****   for (q0 = 0; q0 < i2; q0++) {
 1483              		.loc 1 750 6 view .LVU585
 1484 0062 0433     		adds	r3, r3, #4
 1485              	.LVL206:
 750:Src/maze_solve.c ****   for (q0 = 0; q0 < i2; q0++) {
 1486              		.loc 1 750 6 view .LVU586
 1487 0064 1E78     		ldrb	r6, [r3]	@ zero_extendqisi2
 1488              	.LVL207:
 751:Src/maze_solve.c ****     contour_map[(maze_goal[q0 + 9] + ((maze_goal[q0] - 1) << 5)) - 1] = 0U;
 1489              		.loc 1 751 3 is_stmt 1 view .LVU587
 751:Src/maze_solve.c ****     contour_map[(maze_goal[q0 + 9] + ((maze_goal[q0] - 1) << 5)) - 1] = 0U;
 1490              		.loc 1 751 11 is_stmt 0 view .LVU588
 1491 0066 0022     		movs	r2, #0
 1492              	.LVL208:
 751:Src/maze_solve.c ****     contour_map[(maze_goal[q0 + 9] + ((maze_goal[q0] - 1) << 5)) - 1] = 0U;
 1493              		.loc 1 751 3 view .LVU589
 1494 0068 09E0     		b	.L148
 1495              	.LVL209:
 1496              	.L149:
 752:Src/maze_solve.c ****   }
 1497              		.loc 1 752 5 is_stmt 1 discriminator 3 view .LVU590
 752:Src/maze_solve.c ****   }
 1498              		.loc 1 752 27 is_stmt 0 discriminator 3 view .LVU591
 1499 006a 8318     		adds	r3, r0, r2
 1500 006c 5B7A     		ldrb	r3, [r3, #9]	@ zero_extendqisi2
 752:Src/maze_solve.c ****   }
 1501              		.loc 1 752 49 discriminator 3 view .LVU592
 1502 006e 815C     		ldrb	r1, [r0, r2]	@ zero_extendqisi2
 752:Src/maze_solve.c ****   }
 1503              		.loc 1 752 54 discriminator 3 view .LVU593
 1504 0070 0139     		subs	r1, r1, #1
 752:Src/maze_solve.c ****   }
 1505              		.loc 1 752 36 discriminator 3 view .LVU594
 1506 0072 03EB4113 		add	r3, r3, r1, lsl #5
 752:Src/maze_solve.c ****   }
 1507              		.loc 1 752 16 discriminator 3 view .LVU595
 1508 0076 013B     		subs	r3, r3, #1
ARM GAS  C:\Temp\cc4yiJU0.s 			page 58


 752:Src/maze_solve.c ****   }
 1509              		.loc 1 752 71 discriminator 3 view .LVU596
 1510 0078 0021     		movs	r1, #0
 1511 007a F954     		strb	r1, [r7, r3]
 751:Src/maze_solve.c ****     contour_map[(maze_goal[q0 + 9] + ((maze_goal[q0] - 1) << 5)) - 1] = 0U;
 1512              		.loc 1 751 25 is_stmt 1 discriminator 3 view .LVU597
 751:Src/maze_solve.c ****     contour_map[(maze_goal[q0 + 9] + ((maze_goal[q0] - 1) << 5)) - 1] = 0U;
 1513              		.loc 1 751 27 is_stmt 0 discriminator 3 view .LVU598
 1514 007c 0132     		adds	r2, r2, #1
 1515              	.LVL210:
 1516              	.L148:
 751:Src/maze_solve.c ****     contour_map[(maze_goal[q0 + 9] + ((maze_goal[q0] - 1) << 5)) - 1] = 0U;
 1517              		.loc 1 751 16 is_stmt 1 discriminator 1 view .LVU599
 751:Src/maze_solve.c ****     contour_map[(maze_goal[q0 + 9] + ((maze_goal[q0] - 1) << 5)) - 1] = 0U;
 1518              		.loc 1 751 3 is_stmt 0 discriminator 1 view .LVU600
 1519 007e B242     		cmp	r2, r6
 1520 0080 F3DB     		blt	.L149
 1521 0082 43E1     		b	.L186
 1522              	.LVL211:
 1523              	.L151:
 778:Src/maze_solve.c ****         }
 1524              		.loc 1 778 11 is_stmt 1 view .LVU601
 778:Src/maze_solve.c ****         }
 1525              		.loc 1 778 13 is_stmt 0 view .LVU602
 1526 0084 0133     		adds	r3, r3, #1
 1527              	.LVL212:
 1528              	.L185:
 768:Src/maze_solve.c ****         if (contour_map[q0] == tempi) {
 1529              		.loc 1 768 13 is_stmt 1 view .LVU603
 1530 0086 A9B9     		cbnz	r1, .L153
 768:Src/maze_solve.c ****         if (contour_map[q0] == tempi) {
 1531              		.loc 1 768 24 is_stmt 0 discriminator 1 view .LVU604
 1532 0088 B3F5806F 		cmp	r3, #1024
 1533 008c 12DA     		bge	.L153
 769:Src/maze_solve.c ****           idx++;
 1534              		.loc 1 769 9 is_stmt 1 view .LVU605
 769:Src/maze_solve.c ****           idx++;
 1535              		.loc 1 769 24 is_stmt 0 view .LVU606
 1536 008e FA5C     		ldrb	r2, [r7, r3]	@ zero_extendqisi2
 769:Src/maze_solve.c ****           idx++;
 1537              		.loc 1 769 12 view .LVU607
 1538 0090 B242     		cmp	r2, r6
 1539 0092 F7D1     		bne	.L151
 770:Src/maze_solve.c ****           ii_data[idx - 1] = (short)(q0 + 1);
 1540              		.loc 1 770 11 is_stmt 1 view .LVU608
 770:Src/maze_solve.c ****           ii_data[idx - 1] = (short)(q0 + 1);
 1541              		.loc 1 770 14 is_stmt 0 view .LVU609
 1542 0094 09F10100 		add	r0, r9, #1
 1543              	.LVL213:
 771:Src/maze_solve.c ****           if (idx >= 1024) {
 1544              		.loc 1 771 11 is_stmt 1 view .LVU610
 771:Src/maze_solve.c ****           if (idx >= 1024) {
 1545              		.loc 1 771 41 is_stmt 0 view .LVU611
 1546 0098 5A1C     		adds	r2, r3, #1
 771:Src/maze_solve.c ****           if (idx >= 1024) {
 1547              		.loc 1 771 28 view .LVU612
 1548 009a DFF884C2 		ldr	ip, .L220
ARM GAS  C:\Temp\cc4yiJU0.s 			page 59


 1549 009e 2CF81920 		strh	r2, [ip, r9, lsl #1]	@ movhi
 772:Src/maze_solve.c ****             exitg2 = true;
 1550              		.loc 1 772 11 is_stmt 1 view .LVU613
 772:Src/maze_solve.c ****             exitg2 = true;
 1551              		.loc 1 772 14 is_stmt 0 view .LVU614
 1552 00a2 B0F5806F 		cmp	r0, #1024
 1553 00a6 02DA     		bge	.L191
 775:Src/maze_solve.c ****           }
 1554              		.loc 1 775 13 is_stmt 1 view .LVU615
 775:Src/maze_solve.c ****           }
 1555              		.loc 1 775 15 is_stmt 0 view .LVU616
 1556 00a8 1346     		mov	r3, r2
 1557              	.LVL214:
 770:Src/maze_solve.c ****           ii_data[idx - 1] = (short)(q0 + 1);
 1558              		.loc 1 770 14 view .LVU617
 1559 00aa 8146     		mov	r9, r0
 1560 00ac EBE7     		b	.L185
 1561              	.LVL215:
 1562              	.L191:
 770:Src/maze_solve.c ****           ii_data[idx - 1] = (short)(q0 + 1);
 1563              		.loc 1 770 14 view .LVU618
 1564 00ae 8146     		mov	r9, r0
 773:Src/maze_solve.c ****           } else {
 1565              		.loc 1 773 20 view .LVU619
 1566 00b0 0121     		movs	r1, #1
 1567              	.LVL216:
 773:Src/maze_solve.c ****           } else {
 1568              		.loc 1 773 20 view .LVU620
 1569 00b2 E8E7     		b	.L185
 1570              	.LVL217:
 1571              	.L153:
 782:Src/maze_solve.c ****         loop_ub = 0;
 1572              		.loc 1 782 7 is_stmt 1 view .LVU621
 782:Src/maze_solve.c ****         loop_ub = 0;
 1573              		.loc 1 782 10 is_stmt 0 view .LVU622
 1574 00b4 B9F1000F 		cmp	r9, #0
 1575 00b8 0FDD     		ble	.L208
 1576              	.LVL218:
 1577              	.L155:
 790:Src/maze_solve.c ****       for (i2 = 0; i2 < loop_ub; i2++) {
 1578              		.loc 1 790 7 is_stmt 1 view .LVU623
 790:Src/maze_solve.c ****       for (i2 = 0; i2 < loop_ub; i2++) {
 1579              		.loc 1 790 24 is_stmt 0 view .LVU624
 1580 00ba 0DF58053 		add	r3, sp, #4096
 1581 00be 1433     		adds	r3, r3, #20
 1582 00c0 C3F80090 		str	r9, [r3]
 791:Src/maze_solve.c ****         num_temp_data[i2] = (unsigned short)ii_data[i2];
 1583              		.loc 1 791 7 is_stmt 1 view .LVU625
 1584              	.LVL219:
 791:Src/maze_solve.c ****         num_temp_data[i2] = (unsigned short)ii_data[i2];
 1585              		.loc 1 791 15 is_stmt 0 view .LVU626
 1586 00c4 0023     		movs	r3, #0
 1587              	.LVL220:
 1588              	.L156:
 791:Src/maze_solve.c ****         num_temp_data[i2] = (unsigned short)ii_data[i2];
 1589              		.loc 1 791 20 is_stmt 1 discriminator 1 view .LVU627
 791:Src/maze_solve.c ****         num_temp_data[i2] = (unsigned short)ii_data[i2];
ARM GAS  C:\Temp\cc4yiJU0.s 			page 60


 1590              		.loc 1 791 7 is_stmt 0 discriminator 1 view .LVU628
 1591 00c6 9945     		cmp	r9, r3
 1592 00c8 0ADD     		ble	.L209
 792:Src/maze_solve.c ****       }
 1593              		.loc 1 792 9 is_stmt 1 discriminator 3 view .LVU629
 792:Src/maze_solve.c ****       }
 1594              		.loc 1 792 52 is_stmt 0 discriminator 3 view .LVU630
 1595 00ca 954A     		ldr	r2, .L220
 1596 00cc 32F91310 		ldrsh	r1, [r2, r3, lsl #1]
 792:Src/maze_solve.c ****       }
 1597              		.loc 1 792 27 discriminator 3 view .LVU631
 1598 00d0 944A     		ldr	r2, .L220+4
 1599 00d2 22F81310 		strh	r1, [r2, r3, lsl #1]	@ movhi
 791:Src/maze_solve.c ****         num_temp_data[i2] = (unsigned short)ii_data[i2];
 1600              		.loc 1 791 34 is_stmt 1 discriminator 3 view .LVU632
 791:Src/maze_solve.c ****         num_temp_data[i2] = (unsigned short)ii_data[i2];
 1601              		.loc 1 791 36 is_stmt 0 discriminator 3 view .LVU633
 1602 00d6 0133     		adds	r3, r3, #1
 1603              	.LVL221:
 791:Src/maze_solve.c ****         num_temp_data[i2] = (unsigned short)ii_data[i2];
 1604              		.loc 1 791 36 discriminator 3 view .LVU634
 1605 00d8 F5E7     		b	.L156
 1606              	.LVL222:
 1607              	.L208:
 784:Src/maze_solve.c ****       } else {
 1608              		.loc 1 784 12 view .LVU635
 1609 00da 4FF00009 		mov	r9, #0
 1610              	.LVL223:
 784:Src/maze_solve.c ****       } else {
 1611              		.loc 1 784 12 view .LVU636
 1612 00de ECE7     		b	.L155
 1613              	.LVL224:
 1614              	.L209:
 796:Src/maze_solve.c ****       for (i2 = 0; i2 < q0; i2++) {
 1615              		.loc 1 796 7 is_stmt 1 view .LVU637
 796:Src/maze_solve.c ****       for (i2 = 0; i2 < q0; i2++) {
 1616              		.loc 1 796 26 is_stmt 0 view .LVU638
 1617 00e0 0DF58053 		add	r3, sp, #4096
 1618              	.LVL225:
 796:Src/maze_solve.c ****       for (i2 = 0; i2 < q0; i2++) {
 1619              		.loc 1 796 26 view .LVU639
 1620 00e4 1033     		adds	r3, r3, #16
 1621 00e6 C3F80090 		str	r9, [r3]
 797:Src/maze_solve.c ****         b_num_temp_data[i2] = (unsigned short)(num_temp_data[i2] - 1U);
 1622              		.loc 1 797 7 is_stmt 1 view .LVU640
 1623              	.LVL226:
 797:Src/maze_solve.c ****         b_num_temp_data[i2] = (unsigned short)(num_temp_data[i2] - 1U);
 1624              		.loc 1 797 15 is_stmt 0 view .LVU641
 1625 00ea 0023     		movs	r3, #0
 1626              	.LVL227:
 1627              	.L158:
 797:Src/maze_solve.c ****         b_num_temp_data[i2] = (unsigned short)(num_temp_data[i2] - 1U);
 1628              		.loc 1 797 20 is_stmt 1 discriminator 1 view .LVU642
 797:Src/maze_solve.c ****         b_num_temp_data[i2] = (unsigned short)(num_temp_data[i2] - 1U);
 1629              		.loc 1 797 7 is_stmt 0 discriminator 1 view .LVU643
 1630 00ec 9945     		cmp	r9, r3
 1631 00ee 08DD     		ble	.L210
ARM GAS  C:\Temp\cc4yiJU0.s 			page 61


 798:Src/maze_solve.c ****       }
 1632              		.loc 1 798 9 is_stmt 1 discriminator 3 view .LVU644
 798:Src/maze_solve.c ****       }
 1633              		.loc 1 798 61 is_stmt 0 discriminator 3 view .LVU645
 1634 00f0 8C4A     		ldr	r2, .L220+4
 1635 00f2 32F81320 		ldrh	r2, [r2, r3, lsl #1]
 798:Src/maze_solve.c ****       }
 1636              		.loc 1 798 31 discriminator 3 view .LVU646
 1637 00f6 013A     		subs	r2, r2, #1
 798:Src/maze_solve.c ****       }
 1638              		.loc 1 798 29 discriminator 3 view .LVU647
 1639 00f8 8B49     		ldr	r1, .L220+8
 1640 00fa 21F81320 		strh	r2, [r1, r3, lsl #1]	@ movhi
 797:Src/maze_solve.c ****         b_num_temp_data[i2] = (unsigned short)(num_temp_data[i2] - 1U);
 1641              		.loc 1 797 29 is_stmt 1 discriminator 3 view .LVU648
 797:Src/maze_solve.c ****         b_num_temp_data[i2] = (unsigned short)(num_temp_data[i2] - 1U);
 1642              		.loc 1 797 31 is_stmt 0 discriminator 3 view .LVU649
 1643 00fe 0133     		adds	r3, r3, #1
 1644              	.LVL228:
 797:Src/maze_solve.c ****         b_num_temp_data[i2] = (unsigned short)(num_temp_data[i2] - 1U);
 1645              		.loc 1 797 31 discriminator 3 view .LVU650
 1646 0100 F4E7     		b	.L158
 1647              	.L210:
 801:Src/maze_solve.c ****       idx = tmp_size[0];
 1648              		.loc 1 801 7 is_stmt 1 view .LVU651
 1649 0102 0DF60C03 		addw	r3, sp, #2060
 1650              	.LVL229:
 801:Src/maze_solve.c ****       idx = tmp_size[0];
 1651              		.loc 1 801 7 is_stmt 0 view .LVU652
 1652 0106 0DF50162 		add	r2, sp, #2064
 1653 010a 0DF58051 		add	r1, sp, #4096
 1654 010e 1031     		adds	r1, r1, #16
 1655 0110 8548     		ldr	r0, .L220+8
 1656 0112 FFF7FEFF 		bl	b_rem
 1657              	.LVL230:
 802:Src/maze_solve.c ****       loop_ub = tmp_size[0];
 1658              		.loc 1 802 7 is_stmt 1 view .LVU653
 802:Src/maze_solve.c ****       loop_ub = tmp_size[0];
 1659              		.loc 1 802 11 is_stmt 0 view .LVU654
 1660 0116 DDF80CA8 		ldr	r10, [sp, #2060]
 1661              	.LVL231:
 803:Src/maze_solve.c ****       for (i2 = 0; i2 < loop_ub; i2++) {
 1662              		.loc 1 803 7 is_stmt 1 view .LVU655
 804:Src/maze_solve.c ****         b_qY = tmp_data[i2] + 1U;
 1663              		.loc 1 804 7 view .LVU656
 804:Src/maze_solve.c ****         b_qY = tmp_data[i2] + 1U;
 1664              		.loc 1 804 15 is_stmt 0 view .LVU657
 1665 011a 0022     		movs	r2, #0
 804:Src/maze_solve.c ****         b_qY = tmp_data[i2] + 1U;
 1666              		.loc 1 804 7 view .LVU658
 1667 011c 03E0     		b	.L160
 1668              	.LVL232:
 1669              	.L162:
 815:Src/maze_solve.c ****       }
 1670              		.loc 1 815 9 is_stmt 1 discriminator 2 view .LVU659
 815:Src/maze_solve.c ****       }
 1671              		.loc 1 815 22 is_stmt 0 discriminator 2 view .LVU660
ARM GAS  C:\Temp\cc4yiJU0.s 			page 62


 1672 011e 0DF20C41 		addw	r1, sp, #1036
 1673 0122 8B54     		strb	r3, [r1, r2]
 804:Src/maze_solve.c ****         b_qY = tmp_data[i2] + 1U;
 1674              		.loc 1 804 34 is_stmt 1 discriminator 2 view .LVU661
 804:Src/maze_solve.c ****         b_qY = tmp_data[i2] + 1U;
 1675              		.loc 1 804 36 is_stmt 0 discriminator 2 view .LVU662
 1676 0124 0132     		adds	r2, r2, #1
 1677              	.LVL233:
 1678              	.L160:
 804:Src/maze_solve.c ****         b_qY = tmp_data[i2] + 1U;
 1679              		.loc 1 804 20 is_stmt 1 discriminator 1 view .LVU663
 804:Src/maze_solve.c ****         b_qY = tmp_data[i2] + 1U;
 1680              		.loc 1 804 7 is_stmt 0 discriminator 1 view .LVU664
 1681 0126 5245     		cmp	r2, r10
 1682 0128 0EDA     		bge	.L211
 805:Src/maze_solve.c ****         if (b_qY > 65535U) {
 1683              		.loc 1 805 9 is_stmt 1 view .LVU665
 805:Src/maze_solve.c ****         if (b_qY > 65535U) {
 1684              		.loc 1 805 24 is_stmt 0 view .LVU666
 1685 012a 0DF50163 		add	r3, sp, #2064
 1686 012e 33F81230 		ldrh	r3, [r3, r2, lsl #1]
 805:Src/maze_solve.c ****         if (b_qY > 65535U) {
 1687              		.loc 1 805 14 view .LVU667
 1688 0132 0133     		adds	r3, r3, #1
 1689              	.LVL234:
 806:Src/maze_solve.c ****           b_qY = 65535U;
 1690              		.loc 1 806 9 is_stmt 1 view .LVU668
 806:Src/maze_solve.c ****           b_qY = 65535U;
 1691              		.loc 1 806 12 is_stmt 0 view .LVU669
 1692 0134 B3F5803F 		cmp	r3, #65536
 1693 0138 01D3     		bcc	.L161
 807:Src/maze_solve.c ****         }
 1694              		.loc 1 807 16 view .LVU670
 1695 013a 4FF6FF73 		movw	r3, #65535
 1696              	.LVL235:
 1697              	.L161:
 810:Src/maze_solve.c ****         if ((unsigned short)b_qY > 255) {
 1698              		.loc 1 810 9 is_stmt 1 view .LVU671
 810:Src/maze_solve.c ****         if ((unsigned short)b_qY > 255) {
 1699              		.loc 1 810 12 is_stmt 0 view .LVU672
 1700 013e 9BB2     		uxth	r3, r3
 1701              	.LVL236:
 811:Src/maze_solve.c ****           u0 = 255U;
 1702              		.loc 1 811 9 is_stmt 1 view .LVU673
 811:Src/maze_solve.c ****           u0 = 255U;
 1703              		.loc 1 811 12 is_stmt 0 view .LVU674
 1704 0140 FF2B     		cmp	r3, #255
 1705 0142 ECD9     		bls	.L162
 812:Src/maze_solve.c ****         }
 1706              		.loc 1 812 14 view .LVU675
 1707 0144 FF23     		movs	r3, #255
 1708              	.LVL237:
 812:Src/maze_solve.c ****         }
 1709              		.loc 1 812 14 view .LVU676
 1710 0146 EAE7     		b	.L162
 1711              	.L211:
 819:Src/maze_solve.c ****         num_temp_data[i2]--;
ARM GAS  C:\Temp\cc4yiJU0.s 			page 63


 1712              		.loc 1 819 15 view .LVU677
 1713 0148 0023     		movs	r3, #0
 1714              	.LVL238:
 1715              	.L164:
 819:Src/maze_solve.c ****         num_temp_data[i2]--;
 1716              		.loc 1 819 20 is_stmt 1 discriminator 1 view .LVU678
 819:Src/maze_solve.c ****         num_temp_data[i2]--;
 1717              		.loc 1 819 7 is_stmt 0 discriminator 1 view .LVU679
 1718 014a 9945     		cmp	r9, r3
 1719 014c 07DD     		ble	.L212
 820:Src/maze_solve.c ****       }
 1720              		.loc 1 820 9 is_stmt 1 discriminator 3 view .LVU680
 820:Src/maze_solve.c ****       }
 1721              		.loc 1 820 22 is_stmt 0 discriminator 3 view .LVU681
 1722 014e 7549     		ldr	r1, .L220+4
 1723 0150 31F81320 		ldrh	r2, [r1, r3, lsl #1]
 820:Src/maze_solve.c ****       }
 1724              		.loc 1 820 26 discriminator 3 view .LVU682
 1725 0154 013A     		subs	r2, r2, #1
 1726 0156 21F81320 		strh	r2, [r1, r3, lsl #1]	@ movhi
 819:Src/maze_solve.c ****         num_temp_data[i2]--;
 1727              		.loc 1 819 29 is_stmt 1 discriminator 3 view .LVU683
 819:Src/maze_solve.c ****         num_temp_data[i2]--;
 1728              		.loc 1 819 31 is_stmt 0 discriminator 3 view .LVU684
 1729 015a 0133     		adds	r3, r3, #1
 1730              	.LVL239:
 819:Src/maze_solve.c ****         num_temp_data[i2]--;
 1731              		.loc 1 819 31 discriminator 3 view .LVU685
 1732 015c F5E7     		b	.L164
 1733              	.L212:
 823:Src/maze_solve.c ****       loop_ub = tmp_size[0];
 1734              		.loc 1 823 7 is_stmt 1 view .LVU686
 1735 015e 0DF60C03 		addw	r3, sp, #2060
 1736              	.LVL240:
 823:Src/maze_solve.c ****       loop_ub = tmp_size[0];
 1737              		.loc 1 823 7 is_stmt 0 view .LVU687
 1738 0162 0DF50162 		add	r2, sp, #2064
 1739 0166 0DF58051 		add	r1, sp, #4096
 1740 016a 1431     		adds	r1, r1, #20
 1741 016c 6D48     		ldr	r0, .L220+4
 1742 016e FFF7FEFF 		bl	idivide
 1743              	.LVL241:
 824:Src/maze_solve.c ****       for (i2 = 0; i2 < loop_ub; i2++) {
 1744              		.loc 1 824 7 is_stmt 1 view .LVU688
 824:Src/maze_solve.c ****       for (i2 = 0; i2 < loop_ub; i2++) {
 1745              		.loc 1 824 15 is_stmt 0 view .LVU689
 1746 0172 DDF80C08 		ldr	r0, [sp, #2060]
 1747              	.LVL242:
 825:Src/maze_solve.c ****         b_qY = tmp_data[i2] + 1U;
 1748              		.loc 1 825 7 is_stmt 1 view .LVU690
 825:Src/maze_solve.c ****         b_qY = tmp_data[i2] + 1U;
 1749              		.loc 1 825 15 is_stmt 0 view .LVU691
 1750 0176 0022     		movs	r2, #0
 825:Src/maze_solve.c ****         b_qY = tmp_data[i2] + 1U;
 1751              		.loc 1 825 7 view .LVU692
 1752 0178 02E0     		b	.L166
 1753              	.LVL243:
ARM GAS  C:\Temp\cc4yiJU0.s 			page 64


 1754              	.L168:
 836:Src/maze_solve.c ****       }
 1755              		.loc 1 836 9 is_stmt 1 discriminator 2 view .LVU693
 836:Src/maze_solve.c ****       }
 1756              		.loc 1 836 22 is_stmt 0 discriminator 2 view .LVU694
 1757 017a 03A9     		add	r1, sp, #12
 1758 017c 8B54     		strb	r3, [r1, r2]
 825:Src/maze_solve.c ****         b_qY = tmp_data[i2] + 1U;
 1759              		.loc 1 825 34 is_stmt 1 discriminator 2 view .LVU695
 825:Src/maze_solve.c ****         b_qY = tmp_data[i2] + 1U;
 1760              		.loc 1 825 36 is_stmt 0 discriminator 2 view .LVU696
 1761 017e 0132     		adds	r2, r2, #1
 1762              	.LVL244:
 1763              	.L166:
 825:Src/maze_solve.c ****         b_qY = tmp_data[i2] + 1U;
 1764              		.loc 1 825 20 is_stmt 1 discriminator 1 view .LVU697
 825:Src/maze_solve.c ****         b_qY = tmp_data[i2] + 1U;
 1765              		.loc 1 825 7 is_stmt 0 discriminator 1 view .LVU698
 1766 0180 8242     		cmp	r2, r0
 1767 0182 0EDA     		bge	.L213
 826:Src/maze_solve.c ****         if (b_qY > 65535U) {
 1768              		.loc 1 826 9 is_stmt 1 view .LVU699
 826:Src/maze_solve.c ****         if (b_qY > 65535U) {
 1769              		.loc 1 826 24 is_stmt 0 view .LVU700
 1770 0184 0DF50163 		add	r3, sp, #2064
 1771 0188 33F81230 		ldrh	r3, [r3, r2, lsl #1]
 826:Src/maze_solve.c ****         if (b_qY > 65535U) {
 1772              		.loc 1 826 14 view .LVU701
 1773 018c 0133     		adds	r3, r3, #1
 1774              	.LVL245:
 827:Src/maze_solve.c ****           b_qY = 65535U;
 1775              		.loc 1 827 9 is_stmt 1 view .LVU702
 827:Src/maze_solve.c ****           b_qY = 65535U;
 1776              		.loc 1 827 12 is_stmt 0 view .LVU703
 1777 018e B3F5803F 		cmp	r3, #65536
 1778 0192 01D3     		bcc	.L167
 828:Src/maze_solve.c ****         }
 1779              		.loc 1 828 16 view .LVU704
 1780 0194 4FF6FF73 		movw	r3, #65535
 1781              	.LVL246:
 1782              	.L167:
 831:Src/maze_solve.c ****         if ((unsigned short)b_qY > 255) {
 1783              		.loc 1 831 9 is_stmt 1 view .LVU705
 831:Src/maze_solve.c ****         if ((unsigned short)b_qY > 255) {
 1784              		.loc 1 831 12 is_stmt 0 view .LVU706
 1785 0198 9BB2     		uxth	r3, r3
 1786              	.LVL247:
 832:Src/maze_solve.c ****           u0 = 255U;
 1787              		.loc 1 832 9 is_stmt 1 view .LVU707
 832:Src/maze_solve.c ****           u0 = 255U;
 1788              		.loc 1 832 12 is_stmt 0 view .LVU708
 1789 019a FF2B     		cmp	r3, #255
 1790 019c EDD9     		bls	.L168
 833:Src/maze_solve.c ****         }
 1791              		.loc 1 833 14 view .LVU709
 1792 019e FF23     		movs	r3, #255
 1793              	.LVL248:
ARM GAS  C:\Temp\cc4yiJU0.s 			page 65


 833:Src/maze_solve.c ****         }
 1794              		.loc 1 833 14 view .LVU710
 1795 01a0 EBE7     		b	.L168
 1796              	.L213:
 840:Src/maze_solve.c ****         idx = 0;
 1797              		.loc 1 840 7 is_stmt 1 view .LVU711
 840:Src/maze_solve.c ****         idx = 0;
 1798              		.loc 1 840 10 is_stmt 0 view .LVU712
 1799 01a2 BAF1000F 		cmp	r10, #0
 1800 01a6 05DB     		blt	.L196
 843:Src/maze_solve.c ****           idx = 255;
 1801              		.loc 1 843 9 is_stmt 1 view .LVU713
 843:Src/maze_solve.c ****           idx = 255;
 1802              		.loc 1 843 12 is_stmt 0 view .LVU714
 1803 01a8 BAF1FF0F 		cmp	r10, #255
 1804 01ac 04DD     		ble	.L170
 844:Src/maze_solve.c ****         }
 1805              		.loc 1 844 15 view .LVU715
 1806 01ae 4FF0FF0A 		mov	r10, #255
 1807              	.LVL249:
 844:Src/maze_solve.c ****         }
 1808              		.loc 1 844 15 view .LVU716
 1809 01b2 01E0     		b	.L170
 1810              	.LVL250:
 1811              	.L196:
 841:Src/maze_solve.c ****       } else {
 1812              		.loc 1 841 13 view .LVU717
 1813 01b4 4FF0000A 		mov	r10, #0
 1814              	.LVL251:
 1815              	.L170:
 849:Src/maze_solve.c ****         exitg1 = true;
 1816              		.loc 1 849 7 is_stmt 1 view .LVU718
 849:Src/maze_solve.c ****         exitg1 = true;
 1817              		.loc 1 849 10 is_stmt 0 view .LVU719
 1818 01b8 1AF0FF0F 		tst	r10, #255
 1819 01bc 00F0A180 		beq	.L198
 853:Src/maze_solve.c ****         for (q0 = 0; q0 < i2; q0++) {
 1820              		.loc 1 853 9 is_stmt 1 view .LVU720
 1821 01c0 5FFA8AFE 		uxtb	lr, r10
 1822              	.LVL252:
 854:Src/maze_solve.c ****           /* 北側 */
 1823              		.loc 1 854 9 view .LVU721
 854:Src/maze_solve.c ****           /* 北側 */
 1824              		.loc 1 854 17 is_stmt 0 view .LVU722
 1825 01c4 0021     		movs	r1, #0
 854:Src/maze_solve.c ****           /* 北側 */
 1826              		.loc 1 854 9 view .LVU723
 1827 01c6 3AE0     		b	.L172
 1828              	.LVL253:
 1829              	.L199:
 863:Src/maze_solve.c ****           }
 1830              		.loc 1 863 17 view .LVU724
 1831 01c8 0022     		movs	r2, #0
 1832 01ca 57E0     		b	.L173
 1833              	.LVL254:
 1834              	.L216:
 868:Src/maze_solve.c ****             i5 = i4;
ARM GAS  C:\Temp\cc4yiJU0.s 			page 66


 1835              		.loc 1 868 13 is_stmt 1 view .LVU725
 868:Src/maze_solve.c ****             i5 = i4;
 1836              		.loc 1 868 37 is_stmt 0 view .LVU726
 1837 01cc 0CF10102 		add	r2, ip, #1
 1838              	.LVL255:
 869:Src/maze_solve.c ****             if ((unsigned int)i4 > 255U) {
 1839              		.loc 1 869 13 is_stmt 1 view .LVU727
 870:Src/maze_solve.c ****               i5 = 255;
 1840              		.loc 1 870 13 view .LVU728
 870:Src/maze_solve.c ****               i5 = 255;
 1841              		.loc 1 870 16 is_stmt 0 view .LVU729
 1842 01d0 FF2A     		cmp	r2, #255
 1843 01d2 00D9     		bls	.L175
 1844              	.LVL256:
 871:Src/maze_solve.c ****             }
 1845              		.loc 1 871 18 view .LVU730
 1846 01d4 FF22     		movs	r2, #255
 1847              	.LVL257:
 1848              	.L175:
 874:Src/maze_solve.c ****               if ((unsigned int)i4 > 255U) {
 1849              		.loc 1 874 13 is_stmt 1 view .LVU731
 874:Src/maze_solve.c ****               if ((unsigned int)i4 > 255U) {
 1850              		.loc 1 874 33 is_stmt 0 view .LVU732
 1851 01d6 9244     		add	r10, r10, r2
 1852              	.LVL258:
 874:Src/maze_solve.c ****               if ((unsigned int)i4 > 255U) {
 1853              		.loc 1 874 28 view .LVU733
 1854 01d8 0AF1FF3A 		add	r10, r10, #-1
 1855 01dc 17F80A20 		ldrb	r2, [r7, r10]	@ zero_extendqisi2
 874:Src/maze_solve.c ****               if ((unsigned int)i4 > 255U) {
 1856              		.loc 1 874 16 view .LVU734
 1857 01e0 9045     		cmp	r8, r2
 1858 01e2 50D1     		bne	.L174
 875:Src/maze_solve.c ****                 i4 = 255;
 1859              		.loc 1 875 15 is_stmt 1 view .LVU735
 879:Src/maze_solve.c ****               change_flag = 1U;
 1860              		.loc 1 879 15 view .LVU736
 879:Src/maze_solve.c ****               change_flag = 1U;
 1861              		.loc 1 879 45 is_stmt 0 view .LVU737
 1862 01e4 721C     		adds	r2, r6, #1
 879:Src/maze_solve.c ****               change_flag = 1U;
 1863              		.loc 1 879 43 view .LVU738
 1864 01e6 07F80A20 		strb	r2, [r7, r10]
 1865              	.LVL259:
 880:Src/maze_solve.c ****             }
 1866              		.loc 1 880 15 is_stmt 1 view .LVU739
 880:Src/maze_solve.c ****             }
 1867              		.loc 1 880 27 is_stmt 0 view .LVU740
 1868 01ea 0122     		movs	r2, #1
 1869 01ec 0092     		str	r2, [sp]
 1870 01ee 4AE0     		b	.L174
 1871              	.LVL260:
 1872              	.L201:
 889:Src/maze_solve.c ****           }
 1873              		.loc 1 889 17 view .LVU741
 1874 01f0 0022     		movs	r2, #0
 1875 01f2 51E0     		b	.L176
ARM GAS  C:\Temp\cc4yiJU0.s 			page 67


 1876              	.LVL261:
 1877              	.L217:
 894:Src/maze_solve.c ****             i4 = idx;
 1878              		.loc 1 894 13 is_stmt 1 view .LVU742
 894:Src/maze_solve.c ****             i4 = idx;
 1879              		.loc 1 894 38 is_stmt 0 view .LVU743
 1880 01f4 09F10102 		add	r2, r9, #1
 1881              	.LVL262:
 895:Src/maze_solve.c ****             if ((unsigned int)idx > 255U) {
 1882              		.loc 1 895 13 is_stmt 1 view .LVU744
 896:Src/maze_solve.c ****               i4 = 255;
 1883              		.loc 1 896 13 view .LVU745
 896:Src/maze_solve.c ****               i4 = 255;
 1884              		.loc 1 896 16 is_stmt 0 view .LVU746
 1885 01f8 FF2A     		cmp	r2, #255
 1886 01fa 00D9     		bls	.L178
 1887              	.LVL263:
 897:Src/maze_solve.c ****             }
 1888              		.loc 1 897 18 view .LVU747
 1889 01fc FF22     		movs	r2, #255
 1890              	.LVL264:
 1891              	.L178:
 900:Src/maze_solve.c ****                  char)qY) {
 1892              		.loc 1 900 13 is_stmt 1 view .LVU748
 900:Src/maze_solve.c ****                  char)qY) {
 1893              		.loc 1 900 50 is_stmt 0 view .LVU749
 1894 01fe 013A     		subs	r2, r2, #1
 900:Src/maze_solve.c ****                  char)qY) {
 1895              		.loc 1 900 43 view .LVU750
 1896 0200 0CEB4212 		add	r2, ip, r2, lsl #5
 900:Src/maze_solve.c ****                  char)qY) {
 1897              		.loc 1 900 28 view .LVU751
 1898 0204 013A     		subs	r2, r2, #1
 1899 0206 17F802A0 		ldrb	r10, [r7, r2]	@ zero_extendqisi2
 900:Src/maze_solve.c ****                  char)qY) {
 1900              		.loc 1 900 16 view .LVU752
 1901 020a D045     		cmp	r8, r10
 1902 020c 49D1     		bne	.L177
 902:Src/maze_solve.c ****                 idx = 255;
 1903              		.loc 1 902 15 is_stmt 1 view .LVU753
 906:Src/maze_solve.c ****                 char)(tempi + 1);
 1904              		.loc 1 906 15 view .LVU754
 906:Src/maze_solve.c ****                 char)(tempi + 1);
 1905              		.loc 1 906 68 is_stmt 0 view .LVU755
 1906 020e 06F1010A 		add	r10, r6, #1
 906:Src/maze_solve.c ****                 char)(tempi + 1);
 1907              		.loc 1 906 66 view .LVU756
 1908 0212 07F802A0 		strb	r10, [r7, r2]
 1909              	.LVL265:
 908:Src/maze_solve.c ****             }
 1910              		.loc 1 908 15 is_stmt 1 view .LVU757
 908:Src/maze_solve.c ****             }
 1911              		.loc 1 908 27 is_stmt 0 view .LVU758
 1912 0216 0122     		movs	r2, #1
 1913 0218 0092     		str	r2, [sp]
 1914 021a 42E0     		b	.L177
 1915              	.LVL266:
ARM GAS  C:\Temp\cc4yiJU0.s 			page 68


 1916              	.L203:
 917:Src/maze_solve.c ****           }
 1917              		.loc 1 917 17 view .LVU759
 1918 021c 0022     		movs	r2, #0
 1919 021e 49E0     		b	.L179
 1920              	.LVL267:
 1921              	.L218:
 922:Src/maze_solve.c ****             if (contour_map[idx] == (unsigned char)qY) {
 1922              		.loc 1 922 13 is_stmt 1 view .LVU760
 922:Src/maze_solve.c ****             if (contour_map[idx] == (unsigned char)qY) {
 1923              		.loc 1 922 17 is_stmt 0 view .LVU761
 1924 0220 023B     		subs	r3, r3, #2
 1925              	.LVL268:
 923:Src/maze_solve.c ****               contour_map[idx] = (unsigned char)(tempi + 1);
 1926              		.loc 1 923 13 is_stmt 1 view .LVU762
 923:Src/maze_solve.c ****               contour_map[idx] = (unsigned char)(tempi + 1);
 1927              		.loc 1 923 28 is_stmt 0 view .LVU763
 1928 0222 FA5C     		ldrb	r2, [r7, r3]	@ zero_extendqisi2
 923:Src/maze_solve.c ****               contour_map[idx] = (unsigned char)(tempi + 1);
 1929              		.loc 1 923 16 view .LVU764
 1930 0224 9045     		cmp	r8, r2
 1931 0226 4AD1     		bne	.L180
 924:Src/maze_solve.c ****               change_flag = 1U;
 1932              		.loc 1 924 15 is_stmt 1 view .LVU765
 924:Src/maze_solve.c ****               change_flag = 1U;
 1933              		.loc 1 924 34 is_stmt 0 view .LVU766
 1934 0228 721C     		adds	r2, r6, #1
 924:Src/maze_solve.c ****               change_flag = 1U;
 1935              		.loc 1 924 32 view .LVU767
 1936 022a FA54     		strb	r2, [r7, r3]
 1937              	.LVL269:
 925:Src/maze_solve.c ****             }
 1938              		.loc 1 925 15 is_stmt 1 view .LVU768
 925:Src/maze_solve.c ****             }
 1939              		.loc 1 925 27 is_stmt 0 view .LVU769
 1940 022c 0123     		movs	r3, #1
 1941              	.LVL270:
 925:Src/maze_solve.c ****             }
 1942              		.loc 1 925 27 view .LVU770
 1943 022e 0093     		str	r3, [sp]
 1944 0230 45E0     		b	.L180
 1945              	.LVL271:
 1946              	.L204:
 934:Src/maze_solve.c ****           }
 1947              		.loc 1 934 17 view .LVU771
 1948 0232 0023     		movs	r3, #0
 1949              	.L181:
 1950              	.LVL272:
 937:Src/maze_solve.c ****             /* 西側のMAPが更新されているか判断、されていなければ書き込み
 1951              		.loc 1 937 11 is_stmt 1 view .LVU772
 937:Src/maze_solve.c ****             /* 西側のMAPが更新されているか判断、されていなければ書き込み
 1952              		.loc 1 937 19 is_stmt 0 view .LVU773
 1953 0234 1840     		ands	r0, r0, r3
 1954              	.LVL273:
 937:Src/maze_solve.c ****             /* 西側のMAPが更新されているか判断、されていなければ書き込み
 1955              		.loc 1 937 43 view .LVU774
 1956 0236 2B78     		ldrb	r3, [r5]	@ zero_extendqisi2
ARM GAS  C:\Temp\cc4yiJU0.s 			page 69


 1957              	.LVL274:
 937:Src/maze_solve.c ****             /* 西側のMAPが更新されているか判断、されていなければ書き込み
 1958              		.loc 1 937 14 view .LVU775
 1959 0238 9842     		cmp	r0, r3
 1960 023a 47D0     		beq	.L214
 1961              	.LVL275:
 1962              	.L182:
 854:Src/maze_solve.c ****           /* 北側 */
 1963              		.loc 1 854 31 is_stmt 1 discriminator 2 view .LVU776
 854:Src/maze_solve.c ****           /* 北側 */
 1964              		.loc 1 854 33 is_stmt 0 discriminator 2 view .LVU777
 1965 023c 0131     		adds	r1, r1, #1
 1966              	.LVL276:
 1967              	.L172:
 854:Src/maze_solve.c ****           /* 北側 */
 1968              		.loc 1 854 22 is_stmt 1 discriminator 1 view .LVU778
 854:Src/maze_solve.c ****           /* 北側 */
 1969              		.loc 1 854 9 is_stmt 0 discriminator 1 view .LVU779
 1970 023e 7145     		cmp	r1, lr
 1971 0240 54DA     		bge	.L215
 856:Src/maze_solve.c ****           idx = (col_data[q0] - 1) << 5;
 1972              		.loc 1 856 11 is_stmt 1 view .LVU780
 856:Src/maze_solve.c ****           idx = (col_data[q0] - 1) << 5;
 1973              		.loc 1 856 13 is_stmt 0 view .LVU781
 1974 0242 94F800B0 		ldrb	fp, [r4]	@ zero_extendqisi2
 1975              	.LVL277:
 857:Src/maze_solve.c ****           loop_ub = row_data[q0] + idx;
 1976              		.loc 1 857 11 is_stmt 1 view .LVU782
 857:Src/maze_solve.c ****           loop_ub = row_data[q0] + idx;
 1977              		.loc 1 857 26 is_stmt 0 view .LVU783
 1978 0246 03AB     		add	r3, sp, #12
 1979 0248 13F80190 		ldrb	r9, [r3, r1]	@ zero_extendqisi2
 857:Src/maze_solve.c ****           loop_ub = row_data[q0] + idx;
 1980              		.loc 1 857 31 view .LVU784
 1981 024c 09F1FF33 		add	r3, r9, #-1
 857:Src/maze_solve.c ****           loop_ub = row_data[q0] + idx;
 1982              		.loc 1 857 15 view .LVU785
 1983 0250 4FEA431A 		lsl	r10, r3, #5
 1984              	.LVL278:
 858:Src/maze_solve.c ****           i3 = maze_wall[loop_ub - 1];
 1985              		.loc 1 858 11 is_stmt 1 view .LVU786
 858:Src/maze_solve.c ****           i3 = maze_wall[loop_ub - 1];
 1986              		.loc 1 858 29 is_stmt 0 view .LVU787
 1987 0254 0DF20C42 		addw	r2, sp, #1036
 1988 0258 12F801C0 		ldrb	ip, [r2, r1]	@ zero_extendqisi2
 858:Src/maze_solve.c ****           i3 = maze_wall[loop_ub - 1];
 1989              		.loc 1 858 19 view .LVU788
 1990 025c 0CEB4313 		add	r3, ip, r3, lsl #5
 1991              	.LVL279:
 859:Src/maze_solve.c ****           if (k <= 7) {
 1992              		.loc 1 859 11 is_stmt 1 view .LVU789
 859:Src/maze_solve.c ****           if (k <= 7) {
 1993              		.loc 1 859 25 is_stmt 0 view .LVU790
 1994 0260 0DF58252 		add	r2, sp, #4160
 1995              	.LVL280:
 859:Src/maze_solve.c ****           if (k <= 7) {
 1996              		.loc 1 859 25 view .LVU791
ARM GAS  C:\Temp\cc4yiJU0.s 			page 70


 1997 0264 0832     		adds	r2, r2, #8
 1998              	.LVL281:
 859:Src/maze_solve.c ****           if (k <= 7) {
 1999              		.loc 1 859 25 view .LVU792
 2000 0266 1268     		ldr	r2, [r2]
 2001              	.LVL282:
 859:Src/maze_solve.c ****           if (k <= 7) {
 2002              		.loc 1 859 25 view .LVU793
 2003 0268 1A44     		add	r2, r2, r3
 2004 026a 12F8010C 		ldrb	r0, [r2, #-1]	@ zero_extendqisi2
 2005              	.LVL283:
 860:Src/maze_solve.c ****             b_k = (unsigned char)(1 << k);
 2006              		.loc 1 860 11 is_stmt 1 view .LVU794
 860:Src/maze_solve.c ****             b_k = (unsigned char)(1 << k);
 2007              		.loc 1 860 14 is_stmt 0 view .LVU795
 2008 026e BBF1070F 		cmp	fp, #7
 2009 0272 A9D8     		bhi	.L199
 861:Src/maze_solve.c ****           } else {
 2010              		.loc 1 861 13 is_stmt 1 view .LVU796
 861:Src/maze_solve.c ****           } else {
 2011              		.loc 1 861 37 is_stmt 0 view .LVU797
 2012 0274 0122     		movs	r2, #1
 2013 0276 02FA0BF2 		lsl	r2, r2, fp
 2014 027a D2B2     		uxtb	r2, r2
 2015              	.LVL284:
 2016              	.L173:
 866:Src/maze_solve.c ****             /* 北側のMAPが更新されているか判断、されていなければ書き込み
 2017              		.loc 1 866 11 is_stmt 1 view .LVU798
 866:Src/maze_solve.c ****             /* 北側のMAPが更新されているか判断、されていなければ書き込み
 2018              		.loc 1 866 19 is_stmt 0 view .LVU799
 2019 027c 0240     		ands	r2, r2, r0
 2020              	.LVL285:
 866:Src/maze_solve.c ****             /* 北側のMAPが更新されているか判断、されていなければ書き込み
 2021              		.loc 1 866 43 view .LVU800
 2022 027e 95F800B0 		ldrb	fp, [r5]	@ zero_extendqisi2
 2023              	.LVL286:
 866:Src/maze_solve.c ****             /* 北側のMAPが更新されているか判断、されていなければ書き込み
 2024              		.loc 1 866 14 view .LVU801
 2025 0282 5A45     		cmp	r2, fp
 2026 0284 A2D0     		beq	.L216
 2027              	.LVL287:
 2028              	.L174:
 885:Src/maze_solve.c ****           if (k <= 7) {
 2029              		.loc 1 885 11 is_stmt 1 view .LVU802
 885:Src/maze_solve.c ****           if (k <= 7) {
 2030              		.loc 1 885 13 is_stmt 0 view .LVU803
 2031 0286 94F801A0 		ldrb	r10, [r4, #1]	@ zero_extendqisi2
 2032              	.LVL288:
 886:Src/maze_solve.c ****             c_k = (unsigned char)(1 << k);
 2033              		.loc 1 886 11 is_stmt 1 view .LVU804
 886:Src/maze_solve.c ****             c_k = (unsigned char)(1 << k);
 2034              		.loc 1 886 14 is_stmt 0 view .LVU805
 2035 028a BAF1070F 		cmp	r10, #7
 2036 028e AFD8     		bhi	.L201
 887:Src/maze_solve.c ****           } else {
 2037              		.loc 1 887 13 is_stmt 1 view .LVU806
 887:Src/maze_solve.c ****           } else {
ARM GAS  C:\Temp\cc4yiJU0.s 			page 71


 2038              		.loc 1 887 37 is_stmt 0 view .LVU807
 2039 0290 0122     		movs	r2, #1
 2040 0292 02FA0AF2 		lsl	r2, r2, r10
 2041 0296 D2B2     		uxtb	r2, r2
 2042              	.LVL289:
 2043              	.L176:
 892:Src/maze_solve.c ****             /* 東側のMAPが更新されているか判断、されていなければ書き込み
 2044              		.loc 1 892 11 is_stmt 1 view .LVU808
 892:Src/maze_solve.c ****             /* 東側のMAPが更新されているか判断、されていなければ書き込み
 2045              		.loc 1 892 19 is_stmt 0 view .LVU809
 2046 0298 0240     		ands	r2, r2, r0
 2047              	.LVL290:
 892:Src/maze_solve.c ****             /* 東側のMAPが更新されているか判断、されていなければ書き込み
 2048              		.loc 1 892 43 view .LVU810
 2049 029a 95F800A0 		ldrb	r10, [r5]	@ zero_extendqisi2
 2050              	.LVL291:
 892:Src/maze_solve.c ****             /* 東側のMAPが更新されているか判断、されていなければ書き込み
 2051              		.loc 1 892 14 view .LVU811
 2052 029e 5245     		cmp	r2, r10
 2053 02a0 A8D0     		beq	.L217
 2054              	.LVL292:
 2055              	.L177:
 913:Src/maze_solve.c ****           if (k <= 7) {
 2056              		.loc 1 913 11 is_stmt 1 view .LVU812
 913:Src/maze_solve.c ****           if (k <= 7) {
 2057              		.loc 1 913 13 is_stmt 0 view .LVU813
 2058 02a2 94F802A0 		ldrb	r10, [r4, #2]	@ zero_extendqisi2
 2059              	.LVL293:
 914:Src/maze_solve.c ****             d_k = (unsigned char)(1 << k);
 2060              		.loc 1 914 11 is_stmt 1 view .LVU814
 914:Src/maze_solve.c ****             d_k = (unsigned char)(1 << k);
 2061              		.loc 1 914 14 is_stmt 0 view .LVU815
 2062 02a6 BAF1070F 		cmp	r10, #7
 2063 02aa B7D8     		bhi	.L203
 915:Src/maze_solve.c ****           } else {
 2064              		.loc 1 915 13 is_stmt 1 view .LVU816
 915:Src/maze_solve.c ****           } else {
 2065              		.loc 1 915 37 is_stmt 0 view .LVU817
 2066 02ac 0122     		movs	r2, #1
 2067 02ae 02FA0AF2 		lsl	r2, r2, r10
 2068 02b2 D2B2     		uxtb	r2, r2
 2069              	.LVL294:
 2070              	.L179:
 920:Src/maze_solve.c ****             /* 南側のMAPが更新されているか判断、されていなければ書き込み
 2071              		.loc 1 920 11 is_stmt 1 view .LVU818
 920:Src/maze_solve.c ****             /* 南側のMAPが更新されているか判断、されていなければ書き込み
 2072              		.loc 1 920 19 is_stmt 0 view .LVU819
 2073 02b4 0240     		ands	r2, r2, r0
 2074              	.LVL295:
 920:Src/maze_solve.c ****             /* 南側のMAPが更新されているか判断、されていなければ書き込み
 2075              		.loc 1 920 43 view .LVU820
 2076 02b6 95F800A0 		ldrb	r10, [r5]	@ zero_extendqisi2
 2077              	.LVL296:
 920:Src/maze_solve.c ****             /* 南側のMAPが更新されているか判断、されていなければ書き込み
 2078              		.loc 1 920 14 view .LVU821
 2079 02ba 5245     		cmp	r2, r10
 2080 02bc B0D0     		beq	.L218
ARM GAS  C:\Temp\cc4yiJU0.s 			page 72


 2081              	.LVL297:
 2082              	.L180:
 930:Src/maze_solve.c ****           if (k <= 7) {
 2083              		.loc 1 930 11 is_stmt 1 view .LVU822
 930:Src/maze_solve.c ****           if (k <= 7) {
 2084              		.loc 1 930 13 is_stmt 0 view .LVU823
 2085 02be E278     		ldrb	r2, [r4, #3]	@ zero_extendqisi2
 2086              	.LVL298:
 931:Src/maze_solve.c ****             e_k = (unsigned char)(1 << k);
 2087              		.loc 1 931 11 is_stmt 1 view .LVU824
 931:Src/maze_solve.c ****             e_k = (unsigned char)(1 << k);
 2088              		.loc 1 931 14 is_stmt 0 view .LVU825
 2089 02c0 072A     		cmp	r2, #7
 2090 02c2 B6D8     		bhi	.L204
 932:Src/maze_solve.c ****           } else {
 2091              		.loc 1 932 13 is_stmt 1 view .LVU826
 932:Src/maze_solve.c ****           } else {
 2092              		.loc 1 932 37 is_stmt 0 view .LVU827
 2093 02c4 0123     		movs	r3, #1
 2094 02c6 9340     		lsls	r3, r3, r2
 2095 02c8 DBB2     		uxtb	r3, r3
 2096              	.LVL299:
 932:Src/maze_solve.c ****           } else {
 2097              		.loc 1 932 37 view .LVU828
 2098 02ca B3E7     		b	.L181
 2099              	.LVL300:
 2100              	.L214:
 939:Src/maze_solve.c ****             if (contour_map[idx] == (unsigned char)qY) {
 2101              		.loc 1 939 13 is_stmt 1 view .LVU829
 939:Src/maze_solve.c ****             if (contour_map[idx] == (unsigned char)qY) {
 2102              		.loc 1 939 50 is_stmt 0 view .LVU830
 2103 02cc A9F10209 		sub	r9, r9, #2
 2104              	.LVL301:
 939:Src/maze_solve.c ****             if (contour_map[idx] == (unsigned char)qY) {
 2105              		.loc 1 939 33 view .LVU831
 2106 02d0 0CEB491C 		add	ip, ip, r9, lsl #5
 2107              	.LVL302:
 939:Src/maze_solve.c ****             if (contour_map[idx] == (unsigned char)qY) {
 2108              		.loc 1 939 17 view .LVU832
 2109 02d4 0CF1FF3C 		add	ip, ip, #-1
 2110              	.LVL303:
 940:Src/maze_solve.c ****               contour_map[idx] = (unsigned char)(tempi + 1);
 2111              		.loc 1 940 13 is_stmt 1 view .LVU833
 940:Src/maze_solve.c ****               contour_map[idx] = (unsigned char)(tempi + 1);
 2112              		.loc 1 940 28 is_stmt 0 view .LVU834
 2113 02d8 17F80C30 		ldrb	r3, [r7, ip]	@ zero_extendqisi2
 940:Src/maze_solve.c ****               contour_map[idx] = (unsigned char)(tempi + 1);
 2114              		.loc 1 940 16 view .LVU835
 2115 02dc 9845     		cmp	r8, r3
 2116 02de ADD1     		bne	.L182
 941:Src/maze_solve.c ****               change_flag = 1U;
 2117              		.loc 1 941 15 is_stmt 1 view .LVU836
 941:Src/maze_solve.c ****               change_flag = 1U;
 2118              		.loc 1 941 34 is_stmt 0 view .LVU837
 2119 02e0 731C     		adds	r3, r6, #1
 941:Src/maze_solve.c ****               change_flag = 1U;
 2120              		.loc 1 941 32 view .LVU838
ARM GAS  C:\Temp\cc4yiJU0.s 			page 73


 2121 02e2 07F80C30 		strb	r3, [r7, ip]
 942:Src/maze_solve.c ****             }
 2122              		.loc 1 942 15 is_stmt 1 view .LVU839
 2123              	.LVL304:
 942:Src/maze_solve.c ****             }
 2124              		.loc 1 942 27 is_stmt 0 view .LVU840
 2125 02e6 0123     		movs	r3, #1
 2126 02e8 0093     		str	r3, [sp]
 2127 02ea A7E7     		b	.L182
 2128              	.LVL305:
 2129              	.L215:
 947:Src/maze_solve.c ****       }
 2130              		.loc 1 947 9 is_stmt 1 view .LVU841
 947:Src/maze_solve.c ****       }
 2131              		.loc 1 947 14 is_stmt 0 view .LVU842
 2132 02ec 0136     		adds	r6, r6, #1
 2133              	.LVL306:
 947:Src/maze_solve.c ****       }
 2134              		.loc 1 947 14 view .LVU843
 2135 02ee F6B2     		uxtb	r6, r6
 2136              	.LVL307:
 2137              	.L171:
 761:Src/maze_solve.c ****       /* 歩数カウントは0~max_length */
 2138              		.loc 1 761 11 is_stmt 1 view .LVU844
 2139 02f0 019B     		ldr	r3, [sp, #4]
 2140 02f2 4BB9     		cbnz	r3, .L184
 761:Src/maze_solve.c ****       /* 歩数カウントは0~max_length */
 2141              		.loc 1 761 22 is_stmt 0 discriminator 1 view .LVU845
 2142 02f4 B045     		cmp	r8, r6
 2143 02f6 07D3     		bcc	.L184
 767:Src/maze_solve.c ****       while ((!exitg2) && (q0 < 1024)) {
 2144              		.loc 1 767 14 view .LVU846
 2145 02f8 0199     		ldr	r1, [sp, #4]
 765:Src/maze_solve.c ****       q0 = 0;
 2146              		.loc 1 765 11 view .LVU847
 2147 02fa 4FF00009 		mov	r9, #0
 766:Src/maze_solve.c ****       exitg2 = false;
 2148              		.loc 1 766 10 view .LVU848
 2149 02fe 4B46     		mov	r3, r9
 2150 0300 C1E6     		b	.L185
 2151              	.LVL308:
 2152              	.L198:
 850:Src/maze_solve.c ****       } else {
 2153              		.loc 1 850 16 view .LVU849
 2154 0302 0123     		movs	r3, #1
 2155 0304 0193     		str	r3, [sp, #4]
 2156              	.LVL309:
 850:Src/maze_solve.c ****       } else {
 2157              		.loc 1 850 16 view .LVU850
 2158 0306 F3E7     		b	.L171
 2159              	.LVL310:
 2160              	.L184:
 952:Src/maze_solve.c **** }
 2161              		.loc 1 952 11 is_stmt 1 view .LVU851
 952:Src/maze_solve.c **** }
 2162              		.loc 1 952 3 is_stmt 0 view .LVU852
 2163 0308 009B     		ldr	r3, [sp]
ARM GAS  C:\Temp\cc4yiJU0.s 			page 74


 2164 030a 23B1     		cbz	r3, .L219
 2165              	.LVL311:
 2166              	.L186:
 755:Src/maze_solve.c ****     change_flag = 0U;
 2167              		.loc 1 755 3 is_stmt 1 view .LVU853
 756:Src/maze_solve.c **** 
 2168              		.loc 1 756 5 view .LVU854
 759:Src/maze_solve.c ****     exitg1 = false;
 2169              		.loc 1 759 5 view .LVU855
 760:Src/maze_solve.c ****     while ((!exitg1) && (tempi <= (unsigned char)qY)) {
 2170              		.loc 1 760 5 view .LVU856
 761:Src/maze_solve.c ****       /* 歩数カウントは0~max_length */
 2171              		.loc 1 761 5 view .LVU857
 760:Src/maze_solve.c ****     while ((!exitg1) && (tempi <= (unsigned char)qY)) {
 2172              		.loc 1 760 12 is_stmt 0 view .LVU858
 2173 030c 0023     		movs	r3, #0
 2174 030e 0193     		str	r3, [sp, #4]
 759:Src/maze_solve.c ****     exitg1 = false;
 2175              		.loc 1 759 11 view .LVU859
 2176 0310 1E46     		mov	r6, r3
 756:Src/maze_solve.c **** 
 2177              		.loc 1 756 17 view .LVU860
 2178 0312 0093     		str	r3, [sp]
 761:Src/maze_solve.c ****       /* 歩数カウントは0~max_length */
 2179              		.loc 1 761 11 view .LVU861
 2180 0314 ECE7     		b	.L171
 2181              	.LVL312:
 2182              	.L219:
 953:Src/maze_solve.c **** 
 2183              		.loc 1 953 1 view .LVU862
 2184 0316 0DF5805D 		add	sp, sp, #4096
 2185              	.LVL313:
 953:Src/maze_solve.c **** 
 2186              		.loc 1 953 1 view .LVU863
 2187 031a 07B0     		add	sp, sp, #28
 2188              	.LCFI9:
 2189              		.cfi_def_cfa_offset 36
 2190              		@ sp needed
 2191 031c BDE8F08F 		pop	{r4, r5, r6, r7, r8, r9, r10, fp, pc}
 2192              	.LVL314:
 2193              	.L221:
 953:Src/maze_solve.c **** 
 2194              		.loc 1 953 1 view .LVU864
 2195              		.align	2
 2196              	.L220:
 2197 0320 00000000 		.word	.LANCHOR0
 2198 0324 00000000 		.word	.LANCHOR1
 2199 0328 00000000 		.word	.LANCHOR2
 2200              		.cfi_endproc
 2201              	.LFE134:
 2203              		.section	.text.search_adachi,"ax",%progbits
 2204              		.align	1
 2205              		.syntax unified
 2206              		.thumb
 2207              		.thumb_func
 2208              		.fpu fpv4-sp-d16
 2210              	search_adachi:
ARM GAS  C:\Temp\cc4yiJU0.s 			page 75


 2211              	.LVL315:
 2212              	.LFB137:
1348:Src/maze_solve.c **** 
1349:Src/maze_solve.c **** /*
1350:Src/maze_solve.c ****  * 入力　現在位置x,y,現在方向,迷路行方向サイズ,迷路列方向サイズ,迷路
1351:Src/maze_solve.c ****  * 出力  現在位置x,y,現在方向,壁情報,探索情報
1352:Src/maze_solve.c ****  * Arguments    : const coder_internal_ref_2 *wall
1353:Src/maze_solve.c ****  *                const coder_internal_ref_1 *search
1354:Src/maze_solve.c ****  *                const coder_internal_ref_4 *g_direction
1355:Src/maze_solve.c ****  *                const coder_internal_ref_3 *l_direction
1356:Src/maze_solve.c ****  *                unsigned char *current_x
1357:Src/maze_solve.c ****  *                unsigned char *current_y
1358:Src/maze_solve.c ****  *                unsigned char *current_dir
1359:Src/maze_solve.c ****  *                unsigned char maze_row_size
1360:Src/maze_solve.c ****  *                unsigned char maze_col_size
1361:Src/maze_solve.c ****  *                unsigned char maze_wall[1024]
1362:Src/maze_solve.c ****  *                unsigned char maze_wall_search[1024]
1363:Src/maze_solve.c ****  *                const unsigned char maze_goal[18]
1364:Src/maze_solve.c ****  *                unsigned char l_goal_size
1365:Src/maze_solve.c ****  * Return Type  : void
1366:Src/maze_solve.c ****  */
1367:Src/maze_solve.c **** static void search_adachi(const coder_internal_ref_2 *wall, const
1368:Src/maze_solve.c ****   coder_internal_ref_1 *search, const coder_internal_ref_4 *g_direction, const
1369:Src/maze_solve.c ****   coder_internal_ref_3 *l_direction, unsigned char *current_x, unsigned char
1370:Src/maze_solve.c ****   *current_y, unsigned char *current_dir, unsigned char maze_row_size, unsigned
1371:Src/maze_solve.c ****   char maze_col_size, unsigned char maze_wall[1024], unsigned char
1372:Src/maze_solve.c ****   maze_wall_search[1024], const unsigned char maze_goal[18], unsigned char
1373:Src/maze_solve.c ****   l_goal_size)
1374:Src/maze_solve.c **** {
 2213              		.loc 1 1374 1 is_stmt 1 view -0
 2214              		.cfi_startproc
 2215              		@ args = 36, pretend = 0, frame = 1072
 2216              		@ frame_needed = 0, uses_anonymous_args = 0
 2217              		.loc 1 1374 1 is_stmt 0 view .LVU866
 2218 0000 2DE9F04F 		push	{r4, r5, r6, r7, r8, r9, r10, fp, lr}
 2219              	.LCFI10:
 2220              		.cfi_def_cfa_offset 36
 2221              		.cfi_offset 4, -36
 2222              		.cfi_offset 5, -32
 2223              		.cfi_offset 6, -28
 2224              		.cfi_offset 7, -24
 2225              		.cfi_offset 8, -20
 2226              		.cfi_offset 9, -16
 2227              		.cfi_offset 10, -12
 2228              		.cfi_offset 11, -8
 2229              		.cfi_offset 14, -4
 2230 0004 ADF24C4D 		subw	sp, sp, #1100
 2231              	.LCFI11:
 2232              		.cfi_def_cfa_offset 1136
 2233 0008 0890     		str	r0, [sp, #32]
 2234 000a 0B91     		str	r1, [sp, #44]
 2235 000c 1546     		mov	r5, r2
 2236 000e 0C93     		str	r3, [sp, #48]
 2237 0010 DDF87044 		ldr	r4, [sp, #1136]
 2238 0014 DDF87494 		ldr	r9, [sp, #1140]
 2239 0018 DDF878A4 		ldr	r10, [sp, #1144]
 2240 001c 9DF87C34 		ldrb	r3, [sp, #1148]	@ zero_extendqisi2
ARM GAS  C:\Temp\cc4yiJU0.s 			page 76


 2241              	.LVL316:
 2242              		.loc 1 1374 1 view .LVU867
 2243 0020 0993     		str	r3, [sp, #36]
 2244 0022 9DF88034 		ldrb	r3, [sp, #1152]	@ zero_extendqisi2
 2245 0026 0A93     		str	r3, [sp, #40]
 2246 0028 DDF88484 		ldr	r8, [sp, #1156]
 2247 002c DDF888B4 		ldr	fp, [sp, #1160]
 2248 0030 DDF88C64 		ldr	r6, [sp, #1164]
 2249 0034 9DF89034 		ldrb	r3, [sp, #1168]	@ zero_extendqisi2
 2250 0038 0D93     		str	r3, [sp, #52]
1375:Src/maze_solve.c ****   unsigned char goal_flag;
 2251              		.loc 1 1375 3 is_stmt 1 view .LVU868
1376:Src/maze_solve.c ****   int i9;
 2252              		.loc 1 1376 3 view .LVU869
1377:Src/maze_solve.c ****   int exitg1;
 2253              		.loc 1 1377 3 view .LVU870
1378:Src/maze_solve.c ****   unsigned char wall_write[4];
 2254              		.loc 1 1378 3 view .LVU871
1379:Src/maze_solve.c ****   unsigned char serch_write[4];
 2255              		.loc 1 1379 3 view .LVU872
1380:Src/maze_solve.c ****   int i10;
 2256              		.loc 1 1380 3 view .LVU873
1381:Src/maze_solve.c ****   unsigned char k;
 2257              		.loc 1 1381 3 view .LVU874
1382:Src/maze_solve.c ****   int b_k;
 2258              		.loc 1 1382 3 view .LVU875
1383:Src/maze_solve.c **** static  int i11;
 2259              		.loc 1 1383 1 view .LVU876
1384:Src/maze_solve.c **** static  int i12;
 2260              		.loc 1 1384 1 view .LVU877
1385:Src/maze_solve.c ****   int c_k;
 2261              		.loc 1 1385 3 view .LVU878
1386:Src/maze_solve.c ****   int d_k;
 2262              		.loc 1 1386 3 view .LVU879
1387:Src/maze_solve.c ****   int e_k;
 2263              		.loc 1 1387 3 view .LVU880
1388:Src/maze_solve.c ****   int f_k;
 2264              		.loc 1 1388 3 view .LVU881
1389:Src/maze_solve.c ****   int g_k;
 2265              		.loc 1 1389 3 view .LVU882
1390:Src/maze_solve.c ****   int h_k;
 2266              		.loc 1 1390 3 view .LVU883
1391:Src/maze_solve.c ****   int i_k;
 2267              		.loc 1 1391 3 view .LVU884
1392:Src/maze_solve.c ****   unsigned int qY;
 2268              		.loc 1 1392 3 view .LVU885
1393:Src/maze_solve.c ****   int j_k;
 2269              		.loc 1 1393 3 view .LVU886
1394:Src/maze_solve.c ****   int q0;
 2270              		.loc 1 1394 3 view .LVU887
1395:Src/maze_solve.c ****   int k_k;
 2271              		.loc 1 1395 3 view .LVU888
1396:Src/maze_solve.c ****   int i13;
 2272              		.loc 1 1396 3 view .LVU889
1397:Src/maze_solve.c ****   int l_k;
 2273              		.loc 1 1397 3 view .LVU890
1398:Src/maze_solve.c ****   int i14;
ARM GAS  C:\Temp\cc4yiJU0.s 			page 77


 2274              		.loc 1 1398 3 view .LVU891
1399:Src/maze_solve.c ****   int m_k;
 2275              		.loc 1 1399 3 view .LVU892
1400:Src/maze_solve.c ****   unsigned char cmap[1024];
 2276              		.loc 1 1400 3 view .LVU893
1401:Src/maze_solve.c ****   unsigned char little;
 2277              		.loc 1 1401 3 view .LVU894
1402:Src/maze_solve.c ****   int n_k;
 2278              		.loc 1 1402 3 view .LVU895
1403:Src/maze_solve.c ****   unsigned int b_qY;
 2279              		.loc 1 1403 3 view .LVU896
1404:Src/maze_solve.c ****   unsigned char next_dir;
 2280              		.loc 1 1404 3 view .LVU897
1405:Src/maze_solve.c ****   int o_k;
 2281              		.loc 1 1405 3 view .LVU898
1406:Src/maze_solve.c ****   int p_k;
 2282              		.loc 1 1406 3 view .LVU899
1407:Src/maze_solve.c ****   int q_k;
 2283              		.loc 1 1407 3 view .LVU900
1408:Src/maze_solve.c ****   int r_k;
 2284              		.loc 1 1408 3 view .LVU901
1409:Src/maze_solve.c ****   int s_k;
 2285              		.loc 1 1409 3 view .LVU902
1410:Src/maze_solve.c ****   int t_k;
 2286              		.loc 1 1410 3 view .LVU903
1411:Src/maze_solve.c ****   int u_k;
 2287              		.loc 1 1411 3 view .LVU904
1412:Src/maze_solve.c ****   unsigned char varargin_3;
 2288              		.loc 1 1412 3 view .LVU905
1413:Src/maze_solve.c ****   unsigned char varargin_4;
 2289              		.loc 1 1413 3 view .LVU906
1414:Src/maze_solve.c **** 
1415:Src/maze_solve.c ****   /*  search_adachi 足立法での探索 */
1416:Src/maze_solve.c ****   /* local変数宣言 */
1417:Src/maze_solve.c ****   goal_flag = 0U;
 2290              		.loc 1 1417 3 view .LVU907
 2291              	.LVL317:
1418:Src/maze_solve.c **** 
1419:Src/maze_solve.c ****   /* 探索開始時x */
1420:Src/maze_solve.c ****   /* 探索開始時y */
1421:Src/maze_solve.c ****   /* for C gen */
1422:Src/maze_solve.c ****   i9 = l_goal_size;
 2292              		.loc 1 1422 3 view .LVU908
 2293              		.loc 1 1422 6 is_stmt 0 view .LVU909
 2294 003a 1F46     		mov	r7, r3
 2295              	.LVL318:
1417:Src/maze_solve.c **** 
 2296              		.loc 1 1417 13 view .LVU910
 2297 003c 0023     		movs	r3, #0
 2298              	.LVL319:
1417:Src/maze_solve.c **** 
 2299              		.loc 1 1417 13 view .LVU911
 2300 003e 0693     		str	r3, [sp, #24]
 2301 0040 0797     		str	r7, [sp, #28]
 2302 0042 00F018BC 		b	.L223
 2303              	.LVL320:
 2304              	.L447:
ARM GAS  C:\Temp\cc4yiJU0.s 			page 78


1423:Src/maze_solve.c ****   do {
1424:Src/maze_solve.c ****     exitg1 = 0;
1425:Src/maze_solve.c **** 
1426:Src/maze_solve.c ****     /* 壁情報取得 */
1427:Src/maze_solve.c ****       if (goal_after_flg == other)//ゴール直後は壁情報を更新しない。
1428:Src/maze_solve.c ****       {
1429:Src/maze_solve.c ****       /* matlab上では画像から取得した壁情報を参照する。 */
1430:Src/maze_solve.c ****       /* 入力:画像から得た迷路情報,迷路行方向壁枚数,迷路列方向壁枚数,  
1431:Src/maze_solve.c ****       /*      現在地座標x,y,現在進行方向,迷路壁情報,迷路壁探索情報          
1432:Src/maze_solve.c ****       /* 出力:迷路壁情報,迷路壁探索情報  */
1433:Src/maze_solve.c ****       /*   wall_set 壁情報取得 */
1434:Src/maze_solve.c ****       /* グローバル変数(matlabでは迷路データを、Cでは壁センサ値を参照) */
1435:Src/maze_solve.c ****       /* for matlab */
1436:Src/maze_solve.c ****       /* for C gen */
1437:Src/maze_solve.c ****       /* 壁センサAD値格納変数 */
1438:Src/maze_solve.c ****       /* 壁センサ閾値 */
1439:Src/maze_solve.c ****       /* ローカル変数宣言 */
1440:Src/maze_solve.c ****       /* 壁情報書き込み用バッファ(N,E,S,W) */
1441:Src/maze_solve.c ****       wall_write[0] = 0U;
 2305              		.loc 1 1441 7 is_stmt 1 view .LVU912
 2306              		.loc 1 1441 21 is_stmt 0 view .LVU913
 2307 0046 0020     		movs	r0, #0
 2308 0048 8DF84404 		strb	r0, [sp, #1092]
1442:Src/maze_solve.c ****       serch_write[0] = 0U;
 2309              		.loc 1 1442 7 is_stmt 1 view .LVU914
 2310              		.loc 1 1442 22 is_stmt 0 view .LVU915
 2311 004c 8DF84004 		strb	r0, [sp, #1088]
1443:Src/maze_solve.c ****       wall_write[1] = 0U;
 2312              		.loc 1 1443 7 is_stmt 1 view .LVU916
 2313              		.loc 1 1443 21 is_stmt 0 view .LVU917
 2314 0050 8DF84504 		strb	r0, [sp, #1093]
1444:Src/maze_solve.c ****       serch_write[1] = 0U;
 2315              		.loc 1 1444 7 is_stmt 1 view .LVU918
 2316              		.loc 1 1444 22 is_stmt 0 view .LVU919
 2317 0054 8DF84104 		strb	r0, [sp, #1089]
1445:Src/maze_solve.c ****       wall_write[2] = 0U;
 2318              		.loc 1 1445 7 is_stmt 1 view .LVU920
 2319              		.loc 1 1445 21 is_stmt 0 view .LVU921
 2320 0058 8DF84604 		strb	r0, [sp, #1094]
1446:Src/maze_solve.c ****       serch_write[2] = 0U;
 2321              		.loc 1 1446 7 is_stmt 1 view .LVU922
 2322              		.loc 1 1446 22 is_stmt 0 view .LVU923
 2323 005c 8DF84204 		strb	r0, [sp, #1090]
1447:Src/maze_solve.c ****       wall_write[3] = 0U;
 2324              		.loc 1 1447 7 is_stmt 1 view .LVU924
 2325              		.loc 1 1447 21 is_stmt 0 view .LVU925
 2326 0060 8DF84704 		strb	r0, [sp, #1095]
1448:Src/maze_solve.c ****       serch_write[3] = 0U;
 2327              		.loc 1 1448 7 is_stmt 1 view .LVU926
 2328              		.loc 1 1448 22 is_stmt 0 view .LVU927
 2329 0064 8DF84304 		strb	r0, [sp, #1091]
1449:Src/maze_solve.c **** 
1450:Src/maze_solve.c ****       /* 探索情報書き込み用バッファ(N,E,S,W) */
1451:Src/maze_solve.c ****       /* マウスの方向に基づく壁情報取得 */
1452:Src/maze_solve.c ****       /* マウスの方向と絶対方向の差=マウスの方向となることを利用し、 *
1453:Src/maze_solve.c ****       /* 絶対角度と整合をとる。 */
1454:Src/maze_solve.c ****       /*  実機はここをセンサ値に対応させる  */
ARM GAS  C:\Temp\cc4yiJU0.s 			page 79


1455:Src/maze_solve.c ****       wall_sensor_front = (Sensor_GetValue(0) + Sensor_GetValue(3))/2;
 2330              		.loc 1 1455 7 is_stmt 1 view .LVU928
 2331              		.loc 1 1455 28 is_stmt 0 view .LVU929
 2332 0068 FFF7FEFF 		bl	Sensor_GetValue
 2333              	.LVL321:
 2334 006c 0746     		mov	r7, r0
 2335              		.loc 1 1455 49 view .LVU930
 2336 006e 0320     		movs	r0, #3
 2337 0070 FFF7FEFF 		bl	Sensor_GetValue
 2338              	.LVL322:
 2339              		.loc 1 1455 47 view .LVU931
 2340 0074 3B46     		mov	r3, r7
 2341 0076 0344     		add	r3, r3, r0
 2342              		.loc 1 1455 68 view .LVU932
 2343 0078 03EBD373 		add	r3, r3, r3, lsr #31
 2344 007c 5B10     		asrs	r3, r3, #1
 2345              		.loc 1 1455 25 view .LVU933
 2346 007e CF4F     		ldr	r7, .L460
 2347 0080 3B80     		strh	r3, [r7]	@ movhi
1456:Src/maze_solve.c ****       wall_sensor_right =  Sensor_GetValue(2);
 2348              		.loc 1 1456 7 is_stmt 1 view .LVU934
 2349              		.loc 1 1456 28 is_stmt 0 view .LVU935
 2350 0082 0220     		movs	r0, #2
 2351 0084 FFF7FEFF 		bl	Sensor_GetValue
 2352              	.LVL323:
 2353              		.loc 1 1456 25 view .LVU936
 2354 0088 CD4B     		ldr	r3, .L460+4
 2355 008a 1880     		strh	r0, [r3]	@ movhi
1457:Src/maze_solve.c ****       wall_sensor_left =  Sensor_GetValue(1);
 2356              		.loc 1 1457 7 is_stmt 1 view .LVU937
 2357              		.loc 1 1457 27 is_stmt 0 view .LVU938
 2358 008c 0120     		movs	r0, #1
 2359 008e FFF7FEFF 		bl	Sensor_GetValue
 2360              	.LVL324:
 2361              		.loc 1 1457 24 view .LVU939
 2362 0092 CC4B     		ldr	r3, .L460+8
 2363 0094 1880     		strh	r0, [r3]	@ movhi
1458:Src/maze_solve.c ****       /* センサ値取得(要手直し) */
1459:Src/maze_solve.c ****       /* ここまで */
1460:Src/maze_solve.c ****       /* 前方の壁判定 */
1461:Src/maze_solve.c ****       /* for Cgen */
1462:Src/maze_solve.c ****       /* センサ値をもとに、壁の有無を判定 */
1463:Src/maze_solve.c **** 
1464:Src/maze_solve.c **** 
1465:Src/maze_solve.c ****       if (wall_sensor_front > wall_sensor_front_th) {
 2364              		.loc 1 1465 7 is_stmt 1 view .LVU940
 2365              		.loc 1 1465 29 is_stmt 0 view .LVU941
 2366 0096 B7F90020 		ldrsh	r2, [r7]
 2367 009a CB4B     		ldr	r3, .L460+12
 2368 009c B3F90030 		ldrsh	r3, [r3]
 2369              		.loc 1 1465 10 view .LVU942
 2370 00a0 9A42     		cmp	r2, r3
 2371 00a2 00F32882 		bgt	.L442
 2372              	.L225:
1466:Src/maze_solve.c ****         /* 壁情報取得 */
1467:Src/maze_solve.c ****         wall_write[*current_dir % 4] = wall->contents.wall;
1468:Src/maze_solve.c ****         set_front_wall_flg();//前壁補正フラグを立てる
ARM GAS  C:\Temp\cc4yiJU0.s 			page 80


1469:Src/maze_solve.c ****       }
1470:Src/maze_solve.c **** 
1471:Src/maze_solve.c ****       /* 探索情報取更新 */
1472:Src/maze_solve.c ****       serch_write[*current_dir % 4] = search->contents.known;
 2373              		.loc 1 1472 7 is_stmt 1 view .LVU943
 2374              		.loc 1 1472 19 is_stmt 0 view .LVU944
 2375 00a6 9AF80030 		ldrb	r3, [r10]	@ zero_extendqisi2
 2376              		.loc 1 1472 32 view .LVU945
 2377 00aa 03F00302 		and	r2, r3, #3
 2378              		.loc 1 1472 55 view .LVU946
 2379 00ae 0B99     		ldr	r1, [sp, #44]
 2380 00b0 4978     		ldrb	r1, [r1, #1]	@ zero_extendqisi2
 2381              		.loc 1 1472 37 view .LVU947
 2382 00b2 0DF58960 		add	r0, sp, #1096
 2383 00b6 0244     		add	r2, r2, r0
 2384 00b8 02F8081C 		strb	r1, [r2, #-8]
1473:Src/maze_solve.c **** 
1474:Src/maze_solve.c ****       /* 右壁判定 */
1475:Src/maze_solve.c ****       /* for Cgen */
1476:Src/maze_solve.c ****       /* センサ値をもとに、壁の有無を判定 */
1477:Src/maze_solve.c ****       if (wall_sensor_right > wall_sensor_right_th) {
 2385              		.loc 1 1477 7 is_stmt 1 view .LVU948
 2386              		.loc 1 1477 29 is_stmt 0 view .LVU949
 2387 00bc C04A     		ldr	r2, .L460+4
 2388 00be B2F90010 		ldrsh	r1, [r2]
 2389 00c2 C24A     		ldr	r2, .L460+16
 2390 00c4 B2F90020 		ldrsh	r2, [r2]
 2391              		.loc 1 1477 10 view .LVU950
 2392 00c8 9142     		cmp	r1, r2
 2393 00ca 13DD     		ble	.L226
1478:Src/maze_solve.c ****         /* 壁情報取得 */
1479:Src/maze_solve.c ****         i10 = (int)(*current_dir + 1U);
 2394              		.loc 1 1479 9 is_stmt 1 view .LVU951
 2395              		.loc 1 1479 34 is_stmt 0 view .LVU952
 2396 00cc 0133     		adds	r3, r3, #1
 2397              	.LVL325:
1480:Src/maze_solve.c ****         if ((unsigned int)i10 > 255U) {
 2398              		.loc 1 1480 9 is_stmt 1 view .LVU953
 2399              		.loc 1 1480 12 is_stmt 0 view .LVU954
 2400 00ce FF2B     		cmp	r3, #255
 2401 00d0 00D9     		bls	.L227
1481:Src/maze_solve.c ****           i10 = 255;
 2402              		.loc 1 1481 15 view .LVU955
 2403 00d2 FF23     		movs	r3, #255
 2404              	.LVL326:
 2405              	.L227:
1482:Src/maze_solve.c ****         }
1483:Src/maze_solve.c **** 
1484:Src/maze_solve.c ****         wall_write[i10 % 4] = wall->contents.wall;
 2406              		.loc 1 1484 9 is_stmt 1 view .LVU956
 2407              		.loc 1 1484 24 is_stmt 0 view .LVU957
 2408 00d4 5A42     		rsbs	r2, r3, #0
 2409 00d6 03F00303 		and	r3, r3, #3
 2410              	.LVL327:
 2411              		.loc 1 1484 24 view .LVU958
 2412 00da 02F00302 		and	r2, r2, #3
 2413 00de 58BF     		it	pl
ARM GAS  C:\Temp\cc4yiJU0.s 			page 81


 2414 00e0 5342     		rsbpl	r3, r2, #0
 2415              		.loc 1 1484 45 view .LVU959
 2416 00e2 089A     		ldr	r2, [sp, #32]
 2417 00e4 5278     		ldrb	r2, [r2, #1]	@ zero_extendqisi2
 2418              		.loc 1 1484 29 view .LVU960
 2419 00e6 0DF58961 		add	r1, sp, #1096
 2420 00ea 0B44     		add	r3, r3, r1
 2421 00ec 03F8042C 		strb	r2, [r3, #-4]
1485:Src/maze_solve.c ****         set_rigth_wall_flg(); //前壁補正フラグを立てる
 2422              		.loc 1 1485 9 is_stmt 1 view .LVU961
 2423 00f0 FFF7FEFF 		bl	set_rigth_wall_flg
 2424              	.LVL328:
 2425              	.L226:
1486:Src/maze_solve.c ****       }
1487:Src/maze_solve.c **** 
1488:Src/maze_solve.c ****       /* 探索情報取更新 */
1489:Src/maze_solve.c ****       i10 = (int)(*current_dir + 1U);
 2426              		.loc 1 1489 7 view .LVU962
 2427              		.loc 1 1489 19 is_stmt 0 view .LVU963
 2428 00f4 9AF80020 		ldrb	r2, [r10]	@ zero_extendqisi2
 2429              		.loc 1 1489 32 view .LVU964
 2430 00f8 531C     		adds	r3, r2, #1
 2431              	.LVL329:
1490:Src/maze_solve.c ****       if ((unsigned int)i10 > 255U) {
 2432              		.loc 1 1490 7 is_stmt 1 view .LVU965
 2433              		.loc 1 1490 10 is_stmt 0 view .LVU966
 2434 00fa FF2B     		cmp	r3, #255
 2435 00fc 00D9     		bls	.L228
1491:Src/maze_solve.c ****         i10 = 255;
 2436              		.loc 1 1491 13 view .LVU967
 2437 00fe FF23     		movs	r3, #255
 2438              	.LVL330:
 2439              	.L228:
1492:Src/maze_solve.c ****       }
1493:Src/maze_solve.c **** 
1494:Src/maze_solve.c ****       serch_write[i10 % 4] = search->contents.known;
 2440              		.loc 1 1494 7 is_stmt 1 view .LVU968
 2441              		.loc 1 1494 23 is_stmt 0 view .LVU969
 2442 0100 5942     		rsbs	r1, r3, #0
 2443 0102 03F00303 		and	r3, r3, #3
 2444              	.LVL331:
 2445              		.loc 1 1494 23 view .LVU970
 2446 0106 01F00301 		and	r1, r1, #3
 2447 010a 58BF     		it	pl
 2448 010c 4B42     		rsbpl	r3, r1, #0
 2449              		.loc 1 1494 46 view .LVU971
 2450 010e 0B99     		ldr	r1, [sp, #44]
 2451 0110 4978     		ldrb	r1, [r1, #1]	@ zero_extendqisi2
 2452              		.loc 1 1494 28 view .LVU972
 2453 0112 0DF58960 		add	r0, sp, #1096
 2454 0116 0344     		add	r3, r3, r0
 2455 0118 03F8081C 		strb	r1, [r3, #-8]
1495:Src/maze_solve.c **** 
1496:Src/maze_solve.c ****       /* 後方は情報を得ることができないので処理しない。 */
1497:Src/maze_solve.c ****       /* 左壁判定 */
1498:Src/maze_solve.c ****       /* for Cgen */
1499:Src/maze_solve.c ****       /* センサ値をもとに、壁の有無を判定 */
ARM GAS  C:\Temp\cc4yiJU0.s 			page 82


1500:Src/maze_solve.c ****       if (wall_sensor_left > wall_sensor_left_th) {
 2456              		.loc 1 1500 7 is_stmt 1 view .LVU973
 2457              		.loc 1 1500 28 is_stmt 0 view .LVU974
 2458 011c A94B     		ldr	r3, .L460+8
 2459 011e B3F90010 		ldrsh	r1, [r3]
 2460 0122 AB4B     		ldr	r3, .L460+20
 2461 0124 B3F90030 		ldrsh	r3, [r3]
 2462              		.loc 1 1500 10 view .LVU975
 2463 0128 9942     		cmp	r1, r3
 2464 012a 13DD     		ble	.L229
1501:Src/maze_solve.c ****         /* 壁情報取得 */
1502:Src/maze_solve.c ****         i10 = (int)(*current_dir + 3U);
 2465              		.loc 1 1502 9 is_stmt 1 view .LVU976
 2466              		.loc 1 1502 34 is_stmt 0 view .LVU977
 2467 012c D31C     		adds	r3, r2, #3
 2468              	.LVL332:
1503:Src/maze_solve.c ****         if ((unsigned int)i10 > 255U) {
 2469              		.loc 1 1503 9 is_stmt 1 view .LVU978
 2470              		.loc 1 1503 12 is_stmt 0 view .LVU979
 2471 012e FF2B     		cmp	r3, #255
 2472 0130 00D9     		bls	.L230
1504:Src/maze_solve.c ****           i10 = 255;
 2473              		.loc 1 1504 15 view .LVU980
 2474 0132 FF23     		movs	r3, #255
 2475              	.LVL333:
 2476              	.L230:
1505:Src/maze_solve.c ****         }
1506:Src/maze_solve.c **** 
1507:Src/maze_solve.c ****         wall_write[i10 % 4] = wall->contents.wall;
 2477              		.loc 1 1507 9 is_stmt 1 view .LVU981
 2478              		.loc 1 1507 24 is_stmt 0 view .LVU982
 2479 0134 5A42     		rsbs	r2, r3, #0
 2480 0136 03F00303 		and	r3, r3, #3
 2481              	.LVL334:
 2482              		.loc 1 1507 24 view .LVU983
 2483 013a 02F00302 		and	r2, r2, #3
 2484 013e 58BF     		it	pl
 2485 0140 5342     		rsbpl	r3, r2, #0
 2486              		.loc 1 1507 45 view .LVU984
 2487 0142 089A     		ldr	r2, [sp, #32]
 2488 0144 5278     		ldrb	r2, [r2, #1]	@ zero_extendqisi2
 2489              		.loc 1 1507 29 view .LVU985
 2490 0146 0DF58961 		add	r1, sp, #1096
 2491 014a 0B44     		add	r3, r3, r1
 2492 014c 03F8042C 		strb	r2, [r3, #-4]
1508:Src/maze_solve.c ****         set_left_wall_flg(); //前壁補正フラグを立てる
 2493              		.loc 1 1508 9 is_stmt 1 view .LVU986
 2494 0150 FFF7FEFF 		bl	set_left_wall_flg
 2495              	.LVL335:
 2496              	.L229:
1509:Src/maze_solve.c **** 
1510:Src/maze_solve.c ****       }
1511:Src/maze_solve.c **** 
1512:Src/maze_solve.c ****       /* 探索情報取更新 */
1513:Src/maze_solve.c ****       i10 = (int)(*current_dir + 3U);
 2497              		.loc 1 1513 7 view .LVU987
 2498              		.loc 1 1513 19 is_stmt 0 view .LVU988
ARM GAS  C:\Temp\cc4yiJU0.s 			page 83


 2499 0154 9AF80030 		ldrb	r3, [r10]	@ zero_extendqisi2
 2500              		.loc 1 1513 32 view .LVU989
 2501 0158 0333     		adds	r3, r3, #3
 2502              	.LVL336:
1514:Src/maze_solve.c ****       if ((unsigned int)i10 > 255U) {
 2503              		.loc 1 1514 7 is_stmt 1 view .LVU990
 2504              		.loc 1 1514 10 is_stmt 0 view .LVU991
 2505 015a FF2B     		cmp	r3, #255
 2506 015c 00D9     		bls	.L231
1515:Src/maze_solve.c ****         i10 = 255;
 2507              		.loc 1 1515 13 view .LVU992
 2508 015e FF23     		movs	r3, #255
 2509              	.LVL337:
 2510              	.L231:
1516:Src/maze_solve.c ****       }
1517:Src/maze_solve.c ****       
1518:Src/maze_solve.c ****       serch_write[i10 % 4] = search->contents.known;
 2511              		.loc 1 1518 7 is_stmt 1 view .LVU993
 2512              		.loc 1 1518 23 is_stmt 0 view .LVU994
 2513 0160 5A42     		rsbs	r2, r3, #0
 2514 0162 03F00303 		and	r3, r3, #3
 2515              	.LVL338:
 2516              		.loc 1 1518 23 view .LVU995
 2517 0166 02F00302 		and	r2, r2, #3
 2518 016a 58BF     		it	pl
 2519 016c 5342     		rsbpl	r3, r2, #0
 2520              		.loc 1 1518 46 view .LVU996
 2521 016e 0B9A     		ldr	r2, [sp, #44]
 2522 0170 5278     		ldrb	r2, [r2, #1]	@ zero_extendqisi2
 2523              		.loc 1 1518 28 view .LVU997
 2524 0172 0DF58961 		add	r1, sp, #1096
 2525 0176 0B44     		add	r3, r3, r1
 2526 0178 03F8082C 		strb	r2, [r3, #-8]
1519:Src/maze_solve.c **** 
1520:Src/maze_solve.c ****       /* ここまで */
1521:Src/maze_solve.c ****       /* 壁情報,探索情報を入力 */
1522:Src/maze_solve.c ****       /* 北側 */
1523:Src/maze_solve.c ****       k = g_direction->contents.North;
 2527              		.loc 1 1523 7 is_stmt 1 view .LVU998
 2528              		.loc 1 1523 9 is_stmt 0 view .LVU999
 2529 017c 2A78     		ldrb	r2, [r5]	@ zero_extendqisi2
 2530              	.LVL339:
1524:Src/maze_solve.c ****       i10 = (int)(g_direction->contents.North + 1U);
 2531              		.loc 1 1524 7 is_stmt 1 view .LVU1000
 2532              		.loc 1 1524 47 is_stmt 0 view .LVU1001
 2533 017e 531C     		adds	r3, r2, #1
 2534              	.LVL340:
1525:Src/maze_solve.c ****       if ((unsigned int)i10 > 255U) {
 2535              		.loc 1 1525 7 is_stmt 1 view .LVU1002
 2536              		.loc 1 1525 10 is_stmt 0 view .LVU1003
 2537 0180 FF2B     		cmp	r3, #255
 2538 0182 00D9     		bls	.L232
1526:Src/maze_solve.c ****         i10 = 255;
 2539              		.loc 1 1526 13 view .LVU1004
 2540 0184 FF23     		movs	r3, #255
 2541              	.LVL341:
 2542              	.L232:
ARM GAS  C:\Temp\cc4yiJU0.s 			page 84


1527:Src/maze_solve.c ****       }
1528:Src/maze_solve.c **** 
1529:Src/maze_solve.c ****       if (k <= 7) {
 2543              		.loc 1 1529 7 is_stmt 1 view .LVU1005
 2544              		.loc 1 1529 10 is_stmt 0 view .LVU1006
 2545 0186 072A     		cmp	r2, #7
 2546 0188 00F2C381 		bhi	.L351
1530:Src/maze_solve.c ****         b_k = (unsigned char)(1 << k);
 2547              		.loc 1 1530 9 is_stmt 1 view .LVU1007
 2548              		.loc 1 1530 33 is_stmt 0 view .LVU1008
 2549 018c 0121     		movs	r1, #1
 2550 018e 9140     		lsls	r1, r1, r2
 2551 0190 C9B2     		uxtb	r1, r1
 2552              	.LVL342:
 2553              	.L233:
1531:Src/maze_solve.c ****       } else {
1532:Src/maze_solve.c ****         b_k = 0;
1533:Src/maze_solve.c ****       }
1534:Src/maze_solve.c **** 
1535:Src/maze_solve.c ****       i10 = (int)((unsigned int)b_k * wall_write[i10 - 1]);
 2554              		.loc 1 1535 7 is_stmt 1 view .LVU1009
 2555              		.loc 1 1535 54 is_stmt 0 view .LVU1010
 2556 0192 013B     		subs	r3, r3, #1
 2557              	.LVL343:
 2558              		.loc 1 1535 49 view .LVU1011
 2559 0194 0DF58962 		add	r2, sp, #1096
 2560              	.LVL344:
 2561              		.loc 1 1535 49 view .LVU1012
 2562 0198 1344     		add	r3, r3, r2
 2563              	.LVL345:
 2564              		.loc 1 1535 49 view .LVU1013
 2565 019a 13F8043C 		ldrb	r3, [r3, #-4]	@ zero_extendqisi2
 2566              		.loc 1 1535 37 view .LVU1014
 2567 019e 01FB03F1 		mul	r1, r1, r3
 2568              	.LVL346:
1536:Src/maze_solve.c ****       if ((unsigned int)i10 > 255U) {
 2569              		.loc 1 1536 7 is_stmt 1 view .LVU1015
 2570              		.loc 1 1536 10 is_stmt 0 view .LVU1016
 2571 01a2 FF29     		cmp	r1, #255
 2572 01a4 00D9     		bls	.L234
1537:Src/maze_solve.c ****         i10 = 255;
 2573              		.loc 1 1537 13 view .LVU1017
 2574 01a6 FF21     		movs	r1, #255
 2575              	.LVL347:
 2576              	.L234:
1538:Src/maze_solve.c ****       }
1539:Src/maze_solve.c **** 
1540:Src/maze_solve.c ****       i11 = (*current_x - 1) << 5;
 2577              		.loc 1 1540 7 is_stmt 1 view .LVU1018
 2578              		.loc 1 1540 14 is_stmt 0 view .LVU1019
 2579 01a8 2278     		ldrb	r2, [r4]	@ zero_extendqisi2
 2580              		.loc 1 1540 25 view .LVU1020
 2581 01aa 013A     		subs	r2, r2, #1
 2582              		.loc 1 1540 30 view .LVU1021
 2583 01ac 5201     		lsls	r2, r2, #5
 2584              		.loc 1 1540 11 view .LVU1022
 2585 01ae 894B     		ldr	r3, .L460+24
ARM GAS  C:\Temp\cc4yiJU0.s 			page 85


 2586 01b0 1A60     		str	r2, [r3]
1541:Src/maze_solve.c ****       i12 = (*current_y + i11) - 1;
 2587              		.loc 1 1541 7 is_stmt 1 view .LVU1023
 2588              		.loc 1 1541 14 is_stmt 0 view .LVU1024
 2589 01b2 99F80030 		ldrb	r3, [r9]	@ zero_extendqisi2
 2590              		.loc 1 1541 25 view .LVU1025
 2591 01b6 1344     		add	r3, r3, r2
 2592              		.loc 1 1541 32 view .LVU1026
 2593 01b8 013B     		subs	r3, r3, #1
 2594              		.loc 1 1541 11 view .LVU1027
 2595 01ba 8748     		ldr	r0, .L460+28
 2596 01bc 0360     		str	r3, [r0]
1542:Src/maze_solve.c ****       maze_wall[i12] |= (unsigned char)i10;
 2597              		.loc 1 1542 7 is_stmt 1 view .LVU1028
 2598              		.loc 1 1542 25 is_stmt 0 view .LVU1029
 2599 01be C9B2     		uxtb	r1, r1
 2600              	.LVL348:
 2601              		.loc 1 1542 22 view .LVU1030
 2602 01c0 18F80300 		ldrb	r0, [r8, r3]	@ zero_extendqisi2
 2603 01c4 0143     		orrs	r1, r1, r0
 2604 01c6 08F80310 		strb	r1, [r8, r3]
 2605              	.LVL349:
1543:Src/maze_solve.c ****       k = g_direction->contents.North;
 2606              		.loc 1 1543 7 is_stmt 1 view .LVU1031
 2607              		.loc 1 1543 9 is_stmt 0 view .LVU1032
 2608 01ca 2978     		ldrb	r1, [r5]	@ zero_extendqisi2
 2609              	.LVL350:
1544:Src/maze_solve.c ****       i10 = (int)(g_direction->contents.North + 1U);
 2610              		.loc 1 1544 7 is_stmt 1 view .LVU1033
 2611              		.loc 1 1544 47 is_stmt 0 view .LVU1034
 2612 01cc 481C     		adds	r0, r1, #1
 2613              	.LVL351:
1545:Src/maze_solve.c ****       if ((unsigned int)i10 > 255U) {
 2614              		.loc 1 1545 7 is_stmt 1 view .LVU1035
 2615              		.loc 1 1545 10 is_stmt 0 view .LVU1036
 2616 01ce FF28     		cmp	r0, #255
 2617 01d0 00D9     		bls	.L235
1546:Src/maze_solve.c ****         i10 = 255;
 2618              		.loc 1 1546 13 view .LVU1037
 2619 01d2 FF20     		movs	r0, #255
 2620              	.LVL352:
 2621              	.L235:
1547:Src/maze_solve.c ****       }
1548:Src/maze_solve.c **** 
1549:Src/maze_solve.c ****       if (k <= 7) {
 2622              		.loc 1 1549 7 is_stmt 1 view .LVU1038
 2623              		.loc 1 1549 10 is_stmt 0 view .LVU1039
 2624 01d4 0729     		cmp	r1, #7
 2625 01d6 00F29E81 		bhi	.L354
1550:Src/maze_solve.c ****         c_k = (unsigned char)(1 << k);
 2626              		.loc 1 1550 9 is_stmt 1 view .LVU1040
 2627              		.loc 1 1550 33 is_stmt 0 view .LVU1041
 2628 01da 4FF0010C 		mov	ip, #1
 2629 01de 0CFA01F1 		lsl	r1, ip, r1
 2630              	.LVL353:
 2631              		.loc 1 1550 33 view .LVU1042
 2632 01e2 C9B2     		uxtb	r1, r1
ARM GAS  C:\Temp\cc4yiJU0.s 			page 86


 2633              	.LVL354:
 2634              	.L236:
1551:Src/maze_solve.c ****       } else {
1552:Src/maze_solve.c ****         c_k = 0;
1553:Src/maze_solve.c ****       }
1554:Src/maze_solve.c **** 
1555:Src/maze_solve.c ****       i10 = (int)((unsigned int)c_k * serch_write[i10 - 1]);
 2635              		.loc 1 1555 7 is_stmt 1 view .LVU1043
 2636              		.loc 1 1555 55 is_stmt 0 view .LVU1044
 2637 01e4 0138     		subs	r0, r0, #1
 2638              	.LVL355:
 2639              		.loc 1 1555 50 view .LVU1045
 2640 01e6 0DF58967 		add	r7, sp, #1096
 2641 01ea 3844     		add	r0, r0, r7
 2642              	.LVL356:
 2643              		.loc 1 1555 50 view .LVU1046
 2644 01ec 10F8080C 		ldrb	r0, [r0, #-8]	@ zero_extendqisi2
 2645              		.loc 1 1555 37 view .LVU1047
 2646 01f0 01FB00F1 		mul	r1, r1, r0
 2647              	.LVL357:
1556:Src/maze_solve.c ****       if ((unsigned int)i10 > 255U) {
 2648              		.loc 1 1556 7 is_stmt 1 view .LVU1048
 2649              		.loc 1 1556 10 is_stmt 0 view .LVU1049
 2650 01f4 FF29     		cmp	r1, #255
 2651 01f6 00D9     		bls	.L237
1557:Src/maze_solve.c ****         i10 = 255;
 2652              		.loc 1 1557 13 view .LVU1050
 2653 01f8 FF21     		movs	r1, #255
 2654              	.LVL358:
 2655              	.L237:
1558:Src/maze_solve.c ****       }
1559:Src/maze_solve.c **** 
1560:Src/maze_solve.c ****       maze_wall_search[i12] |= (unsigned char)i10;
 2656              		.loc 1 1560 7 is_stmt 1 view .LVU1051
 2657              		.loc 1 1560 32 is_stmt 0 view .LVU1052
 2658 01fa C9B2     		uxtb	r1, r1
 2659              	.LVL359:
 2660              		.loc 1 1560 29 view .LVU1053
 2661 01fc 1BF80300 		ldrb	r0, [fp, r3]	@ zero_extendqisi2
 2662 0200 0143     		orrs	r1, r1, r0
 2663 0202 0BF80310 		strb	r1, [fp, r3]
 2664              	.LVL360:
1561:Src/maze_solve.c **** 
1562:Src/maze_solve.c ****       /* 東側 */
1563:Src/maze_solve.c ****       k = g_direction->contents.East;
 2665              		.loc 1 1563 7 is_stmt 1 view .LVU1054
 2666              		.loc 1 1563 9 is_stmt 0 view .LVU1055
 2667 0206 6978     		ldrb	r1, [r5, #1]	@ zero_extendqisi2
 2668              	.LVL361:
1564:Src/maze_solve.c ****       i10 = (int)(g_direction->contents.East + 1U);
 2669              		.loc 1 1564 7 is_stmt 1 view .LVU1056
 2670              		.loc 1 1564 46 is_stmt 0 view .LVU1057
 2671 0208 481C     		adds	r0, r1, #1
 2672              	.LVL362:
1565:Src/maze_solve.c ****       if ((unsigned int)i10 > 255U) {
 2673              		.loc 1 1565 7 is_stmt 1 view .LVU1058
 2674              		.loc 1 1565 10 is_stmt 0 view .LVU1059
ARM GAS  C:\Temp\cc4yiJU0.s 			page 87


 2675 020a FF28     		cmp	r0, #255
 2676 020c 00D9     		bls	.L238
1566:Src/maze_solve.c ****         i10 = 255;
 2677              		.loc 1 1566 13 view .LVU1060
 2678 020e FF20     		movs	r0, #255
 2679              	.LVL363:
 2680              	.L238:
1567:Src/maze_solve.c ****       }
1568:Src/maze_solve.c **** 
1569:Src/maze_solve.c ****       if (k <= 7) {
 2681              		.loc 1 1569 7 is_stmt 1 view .LVU1061
 2682              		.loc 1 1569 10 is_stmt 0 view .LVU1062
 2683 0210 0729     		cmp	r1, #7
 2684 0212 00F28281 		bhi	.L357
1570:Src/maze_solve.c ****         d_k = (unsigned char)(1 << k);
 2685              		.loc 1 1570 9 is_stmt 1 view .LVU1063
 2686              		.loc 1 1570 33 is_stmt 0 view .LVU1064
 2687 0216 4FF0010C 		mov	ip, #1
 2688 021a 0CFA01F1 		lsl	r1, ip, r1
 2689              	.LVL364:
 2690              		.loc 1 1570 33 view .LVU1065
 2691 021e C9B2     		uxtb	r1, r1
 2692              	.LVL365:
 2693              	.L239:
1571:Src/maze_solve.c ****       } else {
1572:Src/maze_solve.c ****         d_k = 0;
1573:Src/maze_solve.c ****       }
1574:Src/maze_solve.c **** 
1575:Src/maze_solve.c ****       i10 = (int)((unsigned int)d_k * wall_write[i10 - 1]);
 2694              		.loc 1 1575 7 is_stmt 1 view .LVU1066
 2695              		.loc 1 1575 54 is_stmt 0 view .LVU1067
 2696 0220 0138     		subs	r0, r0, #1
 2697              	.LVL366:
 2698              		.loc 1 1575 49 view .LVU1068
 2699 0222 0DF58967 		add	r7, sp, #1096
 2700 0226 3844     		add	r0, r0, r7
 2701              	.LVL367:
 2702              		.loc 1 1575 49 view .LVU1069
 2703 0228 10F8040C 		ldrb	r0, [r0, #-4]	@ zero_extendqisi2
 2704              		.loc 1 1575 37 view .LVU1070
 2705 022c 01FB00F1 		mul	r1, r1, r0
 2706              	.LVL368:
1576:Src/maze_solve.c ****       if ((unsigned int)i10 > 255U) {
 2707              		.loc 1 1576 7 is_stmt 1 view .LVU1071
 2708              		.loc 1 1576 10 is_stmt 0 view .LVU1072
 2709 0230 FF29     		cmp	r1, #255
 2710 0232 00D9     		bls	.L240
1577:Src/maze_solve.c ****         i10 = 255;
 2711              		.loc 1 1577 13 view .LVU1073
 2712 0234 FF21     		movs	r1, #255
 2713              	.LVL369:
 2714              	.L240:
1578:Src/maze_solve.c ****       }
1579:Src/maze_solve.c **** 
1580:Src/maze_solve.c ****       maze_wall[i12] |= (unsigned char)i10;
 2715              		.loc 1 1580 7 is_stmt 1 view .LVU1074
 2716              		.loc 1 1580 25 is_stmt 0 view .LVU1075
ARM GAS  C:\Temp\cc4yiJU0.s 			page 88


 2717 0236 C9B2     		uxtb	r1, r1
 2718              	.LVL370:
 2719              		.loc 1 1580 22 view .LVU1076
 2720 0238 18F80300 		ldrb	r0, [r8, r3]	@ zero_extendqisi2
 2721 023c 0143     		orrs	r1, r1, r0
 2722 023e 08F80310 		strb	r1, [r8, r3]
 2723              	.LVL371:
1581:Src/maze_solve.c ****       k = g_direction->contents.East;
 2724              		.loc 1 1581 7 is_stmt 1 view .LVU1077
 2725              		.loc 1 1581 9 is_stmt 0 view .LVU1078
 2726 0242 6978     		ldrb	r1, [r5, #1]	@ zero_extendqisi2
 2727              	.LVL372:
1582:Src/maze_solve.c ****       i10 = (int)(g_direction->contents.East + 1U);
 2728              		.loc 1 1582 7 is_stmt 1 view .LVU1079
 2729              		.loc 1 1582 46 is_stmt 0 view .LVU1080
 2730 0244 481C     		adds	r0, r1, #1
 2731              	.LVL373:
1583:Src/maze_solve.c ****       if ((unsigned int)i10 > 255U) {
 2732              		.loc 1 1583 7 is_stmt 1 view .LVU1081
 2733              		.loc 1 1583 10 is_stmt 0 view .LVU1082
 2734 0246 FF28     		cmp	r0, #255
 2735 0248 00D9     		bls	.L241
1584:Src/maze_solve.c ****         i10 = 255;
 2736              		.loc 1 1584 13 view .LVU1083
 2737 024a FF20     		movs	r0, #255
 2738              	.LVL374:
 2739              	.L241:
1585:Src/maze_solve.c ****       }
1586:Src/maze_solve.c **** 
1587:Src/maze_solve.c ****       if (k <= 7) {
 2740              		.loc 1 1587 7 is_stmt 1 view .LVU1084
 2741              		.loc 1 1587 10 is_stmt 0 view .LVU1085
 2742 024c 0729     		cmp	r1, #7
 2743 024e 00F26681 		bhi	.L360
1588:Src/maze_solve.c ****         e_k = (unsigned char)(1 << k);
 2744              		.loc 1 1588 9 is_stmt 1 view .LVU1086
 2745              		.loc 1 1588 33 is_stmt 0 view .LVU1087
 2746 0252 4FF0010C 		mov	ip, #1
 2747 0256 0CFA01F1 		lsl	r1, ip, r1
 2748              	.LVL375:
 2749              		.loc 1 1588 33 view .LVU1088
 2750 025a C9B2     		uxtb	r1, r1
 2751              	.LVL376:
 2752              	.L242:
1589:Src/maze_solve.c ****       } else {
1590:Src/maze_solve.c ****         e_k = 0;
1591:Src/maze_solve.c ****       }
1592:Src/maze_solve.c **** 
1593:Src/maze_solve.c ****       i10 = (int)((unsigned int)e_k * serch_write[i10 - 1]);
 2753              		.loc 1 1593 7 is_stmt 1 view .LVU1089
 2754              		.loc 1 1593 55 is_stmt 0 view .LVU1090
 2755 025c 0138     		subs	r0, r0, #1
 2756              	.LVL377:
 2757              		.loc 1 1593 50 view .LVU1091
 2758 025e 0DF58967 		add	r7, sp, #1096
 2759 0262 3844     		add	r0, r0, r7
 2760              	.LVL378:
ARM GAS  C:\Temp\cc4yiJU0.s 			page 89


 2761              		.loc 1 1593 50 view .LVU1092
 2762 0264 10F8080C 		ldrb	r0, [r0, #-8]	@ zero_extendqisi2
 2763              		.loc 1 1593 37 view .LVU1093
 2764 0268 01FB00F1 		mul	r1, r1, r0
 2765              	.LVL379:
1594:Src/maze_solve.c ****       if ((unsigned int)i10 > 255U) {
 2766              		.loc 1 1594 7 is_stmt 1 view .LVU1094
 2767              		.loc 1 1594 10 is_stmt 0 view .LVU1095
 2768 026c FF29     		cmp	r1, #255
 2769 026e 00D9     		bls	.L243
1595:Src/maze_solve.c ****         i10 = 255;
 2770              		.loc 1 1595 13 view .LVU1096
 2771 0270 FF21     		movs	r1, #255
 2772              	.LVL380:
 2773              	.L243:
1596:Src/maze_solve.c ****       }
1597:Src/maze_solve.c **** 
1598:Src/maze_solve.c ****       maze_wall_search[i12] |= (unsigned char)i10;
 2774              		.loc 1 1598 7 is_stmt 1 view .LVU1097
 2775              		.loc 1 1598 32 is_stmt 0 view .LVU1098
 2776 0272 C9B2     		uxtb	r1, r1
 2777              	.LVL381:
 2778              		.loc 1 1598 29 view .LVU1099
 2779 0274 1BF80300 		ldrb	r0, [fp, r3]	@ zero_extendqisi2
 2780 0278 0143     		orrs	r1, r1, r0
 2781 027a 0BF80310 		strb	r1, [fp, r3]
 2782              	.LVL382:
1599:Src/maze_solve.c **** 
1600:Src/maze_solve.c ****       /* 南側 */
1601:Src/maze_solve.c ****       k = g_direction->contents.South;
 2783              		.loc 1 1601 7 is_stmt 1 view .LVU1100
 2784              		.loc 1 1601 9 is_stmt 0 view .LVU1101
 2785 027e A978     		ldrb	r1, [r5, #2]	@ zero_extendqisi2
 2786              	.LVL383:
1602:Src/maze_solve.c ****       i10 = (int)(g_direction->contents.South + 1U);
 2787              		.loc 1 1602 7 is_stmt 1 view .LVU1102
 2788              		.loc 1 1602 47 is_stmt 0 view .LVU1103
 2789 0280 481C     		adds	r0, r1, #1
 2790              	.LVL384:
1603:Src/maze_solve.c ****       if ((unsigned int)i10 > 255U) {
 2791              		.loc 1 1603 7 is_stmt 1 view .LVU1104
 2792              		.loc 1 1603 10 is_stmt 0 view .LVU1105
 2793 0282 FF28     		cmp	r0, #255
 2794 0284 00D9     		bls	.L244
1604:Src/maze_solve.c ****         i10 = 255;
 2795              		.loc 1 1604 13 view .LVU1106
 2796 0286 FF20     		movs	r0, #255
 2797              	.LVL385:
 2798              	.L244:
1605:Src/maze_solve.c ****       }
1606:Src/maze_solve.c **** 
1607:Src/maze_solve.c ****       if (k <= 7) {
 2799              		.loc 1 1607 7 is_stmt 1 view .LVU1107
 2800              		.loc 1 1607 10 is_stmt 0 view .LVU1108
 2801 0288 0729     		cmp	r1, #7
 2802 028a 00F24A81 		bhi	.L363
1608:Src/maze_solve.c ****         f_k = (unsigned char)(1 << k);
ARM GAS  C:\Temp\cc4yiJU0.s 			page 90


 2803              		.loc 1 1608 9 is_stmt 1 view .LVU1109
 2804              		.loc 1 1608 33 is_stmt 0 view .LVU1110
 2805 028e 4FF0010C 		mov	ip, #1
 2806 0292 0CFA01F1 		lsl	r1, ip, r1
 2807              	.LVL386:
 2808              		.loc 1 1608 33 view .LVU1111
 2809 0296 C9B2     		uxtb	r1, r1
 2810              	.LVL387:
 2811              	.L245:
1609:Src/maze_solve.c ****       } else {
1610:Src/maze_solve.c ****         f_k = 0;
1611:Src/maze_solve.c ****       }
1612:Src/maze_solve.c **** 
1613:Src/maze_solve.c ****       i10 = (int)((unsigned int)f_k * wall_write[i10 - 1]);
 2812              		.loc 1 1613 7 is_stmt 1 view .LVU1112
 2813              		.loc 1 1613 54 is_stmt 0 view .LVU1113
 2814 0298 0138     		subs	r0, r0, #1
 2815              	.LVL388:
 2816              		.loc 1 1613 49 view .LVU1114
 2817 029a 0DF58967 		add	r7, sp, #1096
 2818 029e 3844     		add	r0, r0, r7
 2819              	.LVL389:
 2820              		.loc 1 1613 49 view .LVU1115
 2821 02a0 10F8040C 		ldrb	r0, [r0, #-4]	@ zero_extendqisi2
 2822              		.loc 1 1613 37 view .LVU1116
 2823 02a4 01FB00F1 		mul	r1, r1, r0
 2824              	.LVL390:
1614:Src/maze_solve.c ****       if ((unsigned int)i10 > 255U) {
 2825              		.loc 1 1614 7 is_stmt 1 view .LVU1117
 2826              		.loc 1 1614 10 is_stmt 0 view .LVU1118
 2827 02a8 FF29     		cmp	r1, #255
 2828 02aa 00D9     		bls	.L246
1615:Src/maze_solve.c ****         i10 = 255;
 2829              		.loc 1 1615 13 view .LVU1119
 2830 02ac FF21     		movs	r1, #255
 2831              	.LVL391:
 2832              	.L246:
1616:Src/maze_solve.c ****       }
1617:Src/maze_solve.c **** 
1618:Src/maze_solve.c ****       maze_wall[i12] |= (unsigned char)i10;
 2833              		.loc 1 1618 7 is_stmt 1 view .LVU1120
 2834              		.loc 1 1618 25 is_stmt 0 view .LVU1121
 2835 02ae C9B2     		uxtb	r1, r1
 2836              	.LVL392:
 2837              		.loc 1 1618 22 view .LVU1122
 2838 02b0 18F80300 		ldrb	r0, [r8, r3]	@ zero_extendqisi2
 2839 02b4 0143     		orrs	r1, r1, r0
 2840 02b6 08F80310 		strb	r1, [r8, r3]
 2841              	.LVL393:
1619:Src/maze_solve.c ****       k = g_direction->contents.South;
 2842              		.loc 1 1619 7 is_stmt 1 view .LVU1123
 2843              		.loc 1 1619 9 is_stmt 0 view .LVU1124
 2844 02ba A978     		ldrb	r1, [r5, #2]	@ zero_extendqisi2
 2845              	.LVL394:
1620:Src/maze_solve.c ****       i10 = (int)(g_direction->contents.South + 1U);
 2846              		.loc 1 1620 7 is_stmt 1 view .LVU1125
 2847              		.loc 1 1620 47 is_stmt 0 view .LVU1126
ARM GAS  C:\Temp\cc4yiJU0.s 			page 91


 2848 02bc 481C     		adds	r0, r1, #1
 2849              	.LVL395:
1621:Src/maze_solve.c ****       if ((unsigned int)i10 > 255U) {
 2850              		.loc 1 1621 7 is_stmt 1 view .LVU1127
 2851              		.loc 1 1621 10 is_stmt 0 view .LVU1128
 2852 02be FF28     		cmp	r0, #255
 2853 02c0 00D9     		bls	.L247
1622:Src/maze_solve.c ****         i10 = 255;
 2854              		.loc 1 1622 13 view .LVU1129
 2855 02c2 FF20     		movs	r0, #255
 2856              	.LVL396:
 2857              	.L247:
1623:Src/maze_solve.c ****       }
1624:Src/maze_solve.c **** 
1625:Src/maze_solve.c ****       if (k <= 7) {
 2858              		.loc 1 1625 7 is_stmt 1 view .LVU1130
 2859              		.loc 1 1625 10 is_stmt 0 view .LVU1131
 2860 02c4 0729     		cmp	r1, #7
 2861 02c6 00F22E81 		bhi	.L366
1626:Src/maze_solve.c ****         g_k = (unsigned char)(1 << k);
 2862              		.loc 1 1626 9 is_stmt 1 view .LVU1132
 2863              		.loc 1 1626 33 is_stmt 0 view .LVU1133
 2864 02ca 4FF0010C 		mov	ip, #1
 2865 02ce 0CFA01F1 		lsl	r1, ip, r1
 2866              	.LVL397:
 2867              		.loc 1 1626 33 view .LVU1134
 2868 02d2 C9B2     		uxtb	r1, r1
 2869              	.LVL398:
 2870              	.L248:
1627:Src/maze_solve.c ****       } else {
1628:Src/maze_solve.c ****         g_k = 0;
1629:Src/maze_solve.c ****       }
1630:Src/maze_solve.c **** 
1631:Src/maze_solve.c ****       i10 = (int)((unsigned int)g_k * serch_write[i10 - 1]);
 2871              		.loc 1 1631 7 is_stmt 1 view .LVU1135
 2872              		.loc 1 1631 55 is_stmt 0 view .LVU1136
 2873 02d4 0138     		subs	r0, r0, #1
 2874              	.LVL399:
 2875              		.loc 1 1631 50 view .LVU1137
 2876 02d6 0DF58967 		add	r7, sp, #1096
 2877 02da 3844     		add	r0, r0, r7
 2878              	.LVL400:
 2879              		.loc 1 1631 50 view .LVU1138
 2880 02dc 10F8080C 		ldrb	r0, [r0, #-8]	@ zero_extendqisi2
 2881              		.loc 1 1631 37 view .LVU1139
 2882 02e0 01FB00F1 		mul	r1, r1, r0
 2883              	.LVL401:
1632:Src/maze_solve.c ****       if ((unsigned int)i10 > 255U) {
 2884              		.loc 1 1632 7 is_stmt 1 view .LVU1140
 2885              		.loc 1 1632 10 is_stmt 0 view .LVU1141
 2886 02e4 FF29     		cmp	r1, #255
 2887 02e6 00D9     		bls	.L249
1633:Src/maze_solve.c ****         i10 = 255;
 2888              		.loc 1 1633 13 view .LVU1142
 2889 02e8 FF21     		movs	r1, #255
 2890              	.LVL402:
 2891              	.L249:
ARM GAS  C:\Temp\cc4yiJU0.s 			page 92


1634:Src/maze_solve.c ****       }
1635:Src/maze_solve.c **** 
1636:Src/maze_solve.c ****       maze_wall_search[i12] |= (unsigned char)i10;
 2892              		.loc 1 1636 7 is_stmt 1 view .LVU1143
 2893              		.loc 1 1636 32 is_stmt 0 view .LVU1144
 2894 02ea C9B2     		uxtb	r1, r1
 2895              	.LVL403:
 2896              		.loc 1 1636 29 view .LVU1145
 2897 02ec 1BF80300 		ldrb	r0, [fp, r3]	@ zero_extendqisi2
 2898 02f0 0143     		orrs	r1, r1, r0
 2899 02f2 0BF80310 		strb	r1, [fp, r3]
 2900              	.LVL404:
1637:Src/maze_solve.c **** 
1638:Src/maze_solve.c ****       /* 西側 */
1639:Src/maze_solve.c ****       k = g_direction->contents.West;
 2901              		.loc 1 1639 7 is_stmt 1 view .LVU1146
 2902              		.loc 1 1639 9 is_stmt 0 view .LVU1147
 2903 02f6 E978     		ldrb	r1, [r5, #3]	@ zero_extendqisi2
 2904              	.LVL405:
1640:Src/maze_solve.c ****       i10 = (int)(g_direction->contents.West + 1U);
 2905              		.loc 1 1640 7 is_stmt 1 view .LVU1148
 2906              		.loc 1 1640 46 is_stmt 0 view .LVU1149
 2907 02f8 481C     		adds	r0, r1, #1
 2908              	.LVL406:
1641:Src/maze_solve.c ****       if ((unsigned int)i10 > 255U) {
 2909              		.loc 1 1641 7 is_stmt 1 view .LVU1150
 2910              		.loc 1 1641 10 is_stmt 0 view .LVU1151
 2911 02fa FF28     		cmp	r0, #255
 2912 02fc 00D9     		bls	.L250
1642:Src/maze_solve.c ****         i10 = 255;
 2913              		.loc 1 1642 13 view .LVU1152
 2914 02fe FF20     		movs	r0, #255
 2915              	.LVL407:
 2916              	.L250:
1643:Src/maze_solve.c ****       }
1644:Src/maze_solve.c **** 
1645:Src/maze_solve.c ****       if (k <= 7) {
 2917              		.loc 1 1645 7 is_stmt 1 view .LVU1153
 2918              		.loc 1 1645 10 is_stmt 0 view .LVU1154
 2919 0300 0729     		cmp	r1, #7
 2920 0302 00F21281 		bhi	.L369
1646:Src/maze_solve.c ****         h_k = (unsigned char)(1 << k);
 2921              		.loc 1 1646 9 is_stmt 1 view .LVU1155
 2922              		.loc 1 1646 33 is_stmt 0 view .LVU1156
 2923 0306 4FF0010C 		mov	ip, #1
 2924 030a 0CFA01F1 		lsl	r1, ip, r1
 2925              	.LVL408:
 2926              		.loc 1 1646 33 view .LVU1157
 2927 030e C9B2     		uxtb	r1, r1
 2928              	.LVL409:
 2929              	.L251:
1647:Src/maze_solve.c ****       } else {
1648:Src/maze_solve.c ****         h_k = 0;
1649:Src/maze_solve.c ****       }
1650:Src/maze_solve.c **** 
1651:Src/maze_solve.c ****       i10 = (int)((unsigned int)h_k * wall_write[i10 - 1]);
 2930              		.loc 1 1651 7 is_stmt 1 view .LVU1158
ARM GAS  C:\Temp\cc4yiJU0.s 			page 93


 2931              		.loc 1 1651 54 is_stmt 0 view .LVU1159
 2932 0310 0138     		subs	r0, r0, #1
 2933              	.LVL410:
 2934              		.loc 1 1651 49 view .LVU1160
 2935 0312 0DF58967 		add	r7, sp, #1096
 2936 0316 3844     		add	r0, r0, r7
 2937              	.LVL411:
 2938              		.loc 1 1651 49 view .LVU1161
 2939 0318 10F8040C 		ldrb	r0, [r0, #-4]	@ zero_extendqisi2
 2940              		.loc 1 1651 37 view .LVU1162
 2941 031c 01FB00F1 		mul	r1, r1, r0
 2942              	.LVL412:
1652:Src/maze_solve.c ****       if ((unsigned int)i10 > 255U) {
 2943              		.loc 1 1652 7 is_stmt 1 view .LVU1163
 2944              		.loc 1 1652 10 is_stmt 0 view .LVU1164
 2945 0320 FF29     		cmp	r1, #255
 2946 0322 00D9     		bls	.L252
1653:Src/maze_solve.c ****         i10 = 255;
 2947              		.loc 1 1653 13 view .LVU1165
 2948 0324 FF21     		movs	r1, #255
 2949              	.LVL413:
 2950              	.L252:
1654:Src/maze_solve.c ****       }
1655:Src/maze_solve.c **** 
1656:Src/maze_solve.c ****       maze_wall[i12] |= (unsigned char)i10;
 2951              		.loc 1 1656 7 is_stmt 1 view .LVU1166
 2952              		.loc 1 1656 25 is_stmt 0 view .LVU1167
 2953 0326 C9B2     		uxtb	r1, r1
 2954              	.LVL414:
 2955              		.loc 1 1656 22 view .LVU1168
 2956 0328 18F80300 		ldrb	r0, [r8, r3]	@ zero_extendqisi2
 2957 032c 0143     		orrs	r1, r1, r0
 2958 032e 08F80310 		strb	r1, [r8, r3]
 2959              	.LVL415:
1657:Src/maze_solve.c ****       k = g_direction->contents.West;
 2960              		.loc 1 1657 7 is_stmt 1 view .LVU1169
 2961              		.loc 1 1657 9 is_stmt 0 view .LVU1170
 2962 0332 E978     		ldrb	r1, [r5, #3]	@ zero_extendqisi2
 2963              	.LVL416:
1658:Src/maze_solve.c ****       i10 = (int)(g_direction->contents.West + 1U);
 2964              		.loc 1 1658 7 is_stmt 1 view .LVU1171
 2965              		.loc 1 1658 46 is_stmt 0 view .LVU1172
 2966 0334 481C     		adds	r0, r1, #1
 2967              	.LVL417:
1659:Src/maze_solve.c ****       if ((unsigned int)i10 > 255U) {
 2968              		.loc 1 1659 7 is_stmt 1 view .LVU1173
 2969              		.loc 1 1659 10 is_stmt 0 view .LVU1174
 2970 0336 FF28     		cmp	r0, #255
 2971 0338 00D9     		bls	.L253
1660:Src/maze_solve.c ****         i10 = 255;
 2972              		.loc 1 1660 13 view .LVU1175
 2973 033a FF20     		movs	r0, #255
 2974              	.LVL418:
 2975              	.L253:
1661:Src/maze_solve.c ****       }
1662:Src/maze_solve.c **** 
1663:Src/maze_solve.c ****       if (k <= 7) {
ARM GAS  C:\Temp\cc4yiJU0.s 			page 94


 2976              		.loc 1 1663 7 is_stmt 1 view .LVU1176
 2977              		.loc 1 1663 10 is_stmt 0 view .LVU1177
 2978 033c 0729     		cmp	r1, #7
 2979 033e 00F2F680 		bhi	.L372
1664:Src/maze_solve.c ****         i_k = (unsigned char)(1 << k);
 2980              		.loc 1 1664 9 is_stmt 1 view .LVU1178
 2981              		.loc 1 1664 33 is_stmt 0 view .LVU1179
 2982 0342 4FF0010C 		mov	ip, #1
 2983 0346 0CFA01F1 		lsl	r1, ip, r1
 2984              	.LVL419:
 2985              		.loc 1 1664 33 view .LVU1180
 2986 034a C9B2     		uxtb	r1, r1
 2987              	.LVL420:
 2988              	.L254:
1665:Src/maze_solve.c ****       } else {
1666:Src/maze_solve.c ****         i_k = 0;
1667:Src/maze_solve.c ****       }
1668:Src/maze_solve.c **** 
1669:Src/maze_solve.c ****       i10 = (int)((unsigned int)i_k * serch_write[i10 - 1]);
 2989              		.loc 1 1669 7 is_stmt 1 view .LVU1181
 2990              		.loc 1 1669 55 is_stmt 0 view .LVU1182
 2991 034c 0138     		subs	r0, r0, #1
 2992              	.LVL421:
 2993              		.loc 1 1669 50 view .LVU1183
 2994 034e 0DF58967 		add	r7, sp, #1096
 2995 0352 3844     		add	r0, r0, r7
 2996              	.LVL422:
 2997              		.loc 1 1669 50 view .LVU1184
 2998 0354 10F8080C 		ldrb	r0, [r0, #-8]	@ zero_extendqisi2
 2999              		.loc 1 1669 37 view .LVU1185
 3000 0358 01FB00F1 		mul	r1, r1, r0
 3001              	.LVL423:
1670:Src/maze_solve.c ****       if ((unsigned int)i10 > 255U) {
 3002              		.loc 1 1670 7 is_stmt 1 view .LVU1186
 3003              		.loc 1 1670 10 is_stmt 0 view .LVU1187
 3004 035c FF29     		cmp	r1, #255
 3005 035e 00D9     		bls	.L255
1671:Src/maze_solve.c ****         i10 = 255;
 3006              		.loc 1 1671 13 view .LVU1188
 3007 0360 FF21     		movs	r1, #255
 3008              	.LVL424:
 3009              	.L255:
1672:Src/maze_solve.c ****       }
1673:Src/maze_solve.c **** 
1674:Src/maze_solve.c ****       maze_wall_search[i12] |= (unsigned char)i10;
 3010              		.loc 1 1674 7 is_stmt 1 view .LVU1189
 3011              		.loc 1 1674 32 is_stmt 0 view .LVU1190
 3012 0362 C9B2     		uxtb	r1, r1
 3013              	.LVL425:
 3014              		.loc 1 1674 29 view .LVU1191
 3015 0364 1BF80300 		ldrb	r0, [fp, r3]	@ zero_extendqisi2
 3016 0368 0143     		orrs	r1, r1, r0
 3017 036a 0BF80310 		strb	r1, [fp, r3]
 3018              	.LVL426:
1675:Src/maze_solve.c **** 
1676:Src/maze_solve.c ****       /* 隣り合うマスの情報にも入力 */
1677:Src/maze_solve.c ****       /* 北側のマスの南側の壁情報 */
ARM GAS  C:\Temp\cc4yiJU0.s 			page 95


1678:Src/maze_solve.c ****       qY = maze_row_size - 1U;
 3019              		.loc 1 1678 7 is_stmt 1 view .LVU1192
 3020              		.loc 1 1678 10 is_stmt 0 view .LVU1193
 3021 036e 099B     		ldr	r3, [sp, #36]
 3022 0370 591E     		subs	r1, r3, #1
 3023              	.LVL427:
1679:Src/maze_solve.c ****       if (qY > maze_row_size) {
 3024              		.loc 1 1679 7 is_stmt 1 view .LVU1194
 3025              		.loc 1 1679 10 is_stmt 0 view .LVU1195
 3026 0372 8B42     		cmp	r3, r1
 3027 0374 00D2     		bcs	.L256
1680:Src/maze_solve.c ****         qY = 0U;
 3028              		.loc 1 1680 12 view .LVU1196
 3029 0376 0021     		movs	r1, #0
 3030              	.LVL428:
 3031              	.L256:
1681:Src/maze_solve.c ****       }
1682:Src/maze_solve.c **** 
1683:Src/maze_solve.c ****       if (*current_y < (int)qY) {
 3032              		.loc 1 1683 7 is_stmt 1 view .LVU1197
 3033              		.loc 1 1683 11 is_stmt 0 view .LVU1198
 3034 0378 99F80030 		ldrb	r3, [r9]	@ zero_extendqisi2
 3035              		.loc 1 1683 10 view .LVU1199
 3036 037c 8B42     		cmp	r3, r1
 3037 037e 54DA     		bge	.L257
1684:Src/maze_solve.c ****         k = g_direction->contents.South;
 3038              		.loc 1 1684 9 is_stmt 1 view .LVU1200
 3039              		.loc 1 1684 11 is_stmt 0 view .LVU1201
 3040 0380 A878     		ldrb	r0, [r5, #2]	@ zero_extendqisi2
 3041              	.LVL429:
1685:Src/maze_solve.c ****         i10 = (int)(g_direction->contents.North + 1U);
 3042              		.loc 1 1685 9 is_stmt 1 view .LVU1202
 3043              		.loc 1 1685 42 is_stmt 0 view .LVU1203
 3044 0382 2978     		ldrb	r1, [r5]	@ zero_extendqisi2
 3045              	.LVL430:
 3046              		.loc 1 1685 49 view .LVU1204
 3047 0384 0131     		adds	r1, r1, #1
 3048              	.LVL431:
1686:Src/maze_solve.c ****         if ((unsigned int)i10 > 255U) {
 3049              		.loc 1 1686 9 is_stmt 1 view .LVU1205
 3050              		.loc 1 1686 12 is_stmt 0 view .LVU1206
 3051 0386 FF29     		cmp	r1, #255
 3052 0388 00D9     		bls	.L258
1687:Src/maze_solve.c ****           i10 = 255;
 3053              		.loc 1 1687 15 view .LVU1207
 3054 038a FF21     		movs	r1, #255
 3055              	.LVL432:
 3056              	.L258:
1688:Src/maze_solve.c ****         }
1689:Src/maze_solve.c **** 
1690:Src/maze_solve.c ****         if (k <= 7) {
 3057              		.loc 1 1690 9 is_stmt 1 view .LVU1208
 3058              		.loc 1 1690 12 is_stmt 0 view .LVU1209
 3059 038c 0728     		cmp	r0, #7
 3060 038e 00F2D080 		bhi	.L376
1691:Src/maze_solve.c ****           j_k = (unsigned char)(1 << k);
 3061              		.loc 1 1691 11 is_stmt 1 view .LVU1210
ARM GAS  C:\Temp\cc4yiJU0.s 			page 96


 3062              		.loc 1 1691 35 is_stmt 0 view .LVU1211
 3063 0392 4FF0010C 		mov	ip, #1
 3064 0396 0CFA00F0 		lsl	r0, ip, r0
 3065              	.LVL433:
 3066              		.loc 1 1691 35 view .LVU1212
 3067 039a C0B2     		uxtb	r0, r0
 3068              	.LVL434:
 3069              	.L259:
1692:Src/maze_solve.c ****         } else {
1693:Src/maze_solve.c ****           j_k = 0;
1694:Src/maze_solve.c ****         }
1695:Src/maze_solve.c **** 
1696:Src/maze_solve.c ****         i10 = (int)((unsigned int)j_k * wall_write[i10 - 1]);
 3070              		.loc 1 1696 9 is_stmt 1 view .LVU1213
 3071              		.loc 1 1696 56 is_stmt 0 view .LVU1214
 3072 039c 0139     		subs	r1, r1, #1
 3073              	.LVL435:
 3074              		.loc 1 1696 51 view .LVU1215
 3075 039e 0DF58967 		add	r7, sp, #1096
 3076 03a2 3944     		add	r1, r1, r7
 3077              	.LVL436:
 3078              		.loc 1 1696 51 view .LVU1216
 3079 03a4 11F8041C 		ldrb	r1, [r1, #-4]	@ zero_extendqisi2
 3080              		.loc 1 1696 39 view .LVU1217
 3081 03a8 00FB01F1 		mul	r1, r0, r1
 3082              	.LVL437:
1697:Src/maze_solve.c ****         if ((unsigned int)i10 > 255U) {
 3083              		.loc 1 1697 9 is_stmt 1 view .LVU1218
 3084              		.loc 1 1697 12 is_stmt 0 view .LVU1219
 3085 03ac FF29     		cmp	r1, #255
 3086 03ae 00D9     		bls	.L260
1698:Src/maze_solve.c ****           i10 = 255;
 3087              		.loc 1 1698 15 view .LVU1220
 3088 03b0 FF21     		movs	r1, #255
 3089              	.LVL438:
 3090              	.L260:
1699:Src/maze_solve.c ****         }
1700:Src/maze_solve.c **** 
1701:Src/maze_solve.c ****         q0 = (int)(*current_y + 1U);
 3091              		.loc 1 1701 9 is_stmt 1 view .LVU1221
 3092              		.loc 1 1701 31 is_stmt 0 view .LVU1222
 3093 03b2 0133     		adds	r3, r3, #1
 3094              	.LVL439:
1702:Src/maze_solve.c ****         i13 = q0;
 3095              		.loc 1 1702 9 is_stmt 1 view .LVU1223
1703:Src/maze_solve.c ****         if ((unsigned int)q0 > 255U) {
 3096              		.loc 1 1703 9 view .LVU1224
 3097              		.loc 1 1703 12 is_stmt 0 view .LVU1225
 3098 03b4 FF2B     		cmp	r3, #255
 3099 03b6 11D9     		bls	.L261
 3100              	.LVL440:
1704:Src/maze_solve.c ****           i13 = 255;
 3101              		.loc 1 1704 15 view .LVU1226
 3102 03b8 FF23     		movs	r3, #255
 3103 03ba 0FE0     		b	.L461
 3104              	.L462:
 3105              		.align	2
ARM GAS  C:\Temp\cc4yiJU0.s 			page 97


 3106              	.L460:
 3107 03bc 00000000 		.word	wall_sensor_front
 3108 03c0 00000000 		.word	wall_sensor_right
 3109 03c4 00000000 		.word	wall_sensor_left
 3110 03c8 00000000 		.word	wall_sensor_front_th
 3111 03cc 00000000 		.word	wall_sensor_right_th
 3112 03d0 00000000 		.word	wall_sensor_left_th
 3113 03d4 00000000 		.word	.LANCHOR4
 3114 03d8 00000000 		.word	.LANCHOR5
 3115              	.L461:
 3116              	.LVL441:
 3117              	.L261:
1705:Src/maze_solve.c ****         }
1706:Src/maze_solve.c **** 
1707:Src/maze_solve.c ****         i14 = q0;
 3118              		.loc 1 1707 9 is_stmt 1 view .LVU1227
1708:Src/maze_solve.c ****         if ((unsigned int)q0 > 255U) {
 3119              		.loc 1 1708 9 view .LVU1228
1709:Src/maze_solve.c ****           i14 = 255;
1710:Src/maze_solve.c ****         }
1711:Src/maze_solve.c **** 
1712:Src/maze_solve.c ****         maze_wall[(i13 + i11) - 1] = (unsigned char)(maze_wall[(i14 + i11) - 1] |
 3120              		.loc 1 1712 9 view .LVU1229
 3121              		.loc 1 1712 69 is_stmt 0 view .LVU1230
 3122 03dc 1344     		add	r3, r3, r2
 3123              		.loc 1 1712 63 view .LVU1231
 3124 03de 013B     		subs	r3, r3, #1
 3125 03e0 18F80300 		ldrb	r0, [r8, r3]	@ zero_extendqisi2
 3126              	.LVL442:
1713:Src/maze_solve.c ****           (unsigned char)i10);
 3127              		.loc 1 1713 11 view .LVU1232
 3128 03e4 C9B2     		uxtb	r1, r1
 3129              	.LVL443:
1712:Src/maze_solve.c ****           (unsigned char)i10);
 3130              		.loc 1 1712 38 view .LVU1233
 3131 03e6 0143     		orrs	r1, r1, r0
1712:Src/maze_solve.c ****           (unsigned char)i10);
 3132              		.loc 1 1712 36 view .LVU1234
 3133 03e8 08F80310 		strb	r1, [r8, r3]
 3134              	.LVL444:
1714:Src/maze_solve.c ****         k = g_direction->contents.South;
 3135              		.loc 1 1714 9 is_stmt 1 view .LVU1235
 3136              		.loc 1 1714 11 is_stmt 0 view .LVU1236
 3137 03ec A878     		ldrb	r0, [r5, #2]	@ zero_extendqisi2
 3138              	.LVL445:
1715:Src/maze_solve.c ****         i10 = (int)(g_direction->contents.North + 1U);
 3139              		.loc 1 1715 9 is_stmt 1 view .LVU1237
 3140              		.loc 1 1715 42 is_stmt 0 view .LVU1238
 3141 03ee 2978     		ldrb	r1, [r5]	@ zero_extendqisi2
 3142              		.loc 1 1715 49 view .LVU1239
 3143 03f0 0131     		adds	r1, r1, #1
 3144              	.LVL446:
1716:Src/maze_solve.c ****         if ((unsigned int)i10 > 255U) {
 3145              		.loc 1 1716 9 is_stmt 1 view .LVU1240
 3146              		.loc 1 1716 12 is_stmt 0 view .LVU1241
 3147 03f2 FF29     		cmp	r1, #255
 3148 03f4 00D9     		bls	.L262
ARM GAS  C:\Temp\cc4yiJU0.s 			page 98


1717:Src/maze_solve.c ****           i10 = 255;
 3149              		.loc 1 1717 15 view .LVU1242
 3150 03f6 FF21     		movs	r1, #255
 3151              	.LVL447:
 3152              	.L262:
1718:Src/maze_solve.c ****         }
1719:Src/maze_solve.c **** 
1720:Src/maze_solve.c ****         if (k <= 7) {
 3153              		.loc 1 1720 9 is_stmt 1 view .LVU1243
 3154              		.loc 1 1720 12 is_stmt 0 view .LVU1244
 3155 03f8 0728     		cmp	r0, #7
 3156 03fa 00F29C80 		bhi	.L380
1721:Src/maze_solve.c ****           n_k = (unsigned char)(1 << k);
 3157              		.loc 1 1721 11 is_stmt 1 view .LVU1245
 3158              		.loc 1 1721 35 is_stmt 0 view .LVU1246
 3159 03fe 4FF0010C 		mov	ip, #1
 3160 0402 0CFA00F0 		lsl	r0, ip, r0
 3161              	.LVL448:
 3162              		.loc 1 1721 35 view .LVU1247
 3163 0406 C0B2     		uxtb	r0, r0
 3164              	.LVL449:
 3165              	.L263:
1722:Src/maze_solve.c ****         } else {
1723:Src/maze_solve.c ****           n_k = 0;
1724:Src/maze_solve.c ****         }
1725:Src/maze_solve.c **** 
1726:Src/maze_solve.c ****         i10 = (int)((unsigned int)n_k * serch_write[i10 - 1]);
 3166              		.loc 1 1726 9 is_stmt 1 view .LVU1248
 3167              		.loc 1 1726 57 is_stmt 0 view .LVU1249
 3168 0408 0139     		subs	r1, r1, #1
 3169              	.LVL450:
 3170              		.loc 1 1726 52 view .LVU1250
 3171 040a 0DF58967 		add	r7, sp, #1096
 3172 040e 3944     		add	r1, r1, r7
 3173              	.LVL451:
 3174              		.loc 1 1726 52 view .LVU1251
 3175 0410 11F8081C 		ldrb	r1, [r1, #-8]	@ zero_extendqisi2
 3176              		.loc 1 1726 39 view .LVU1252
 3177 0414 00FB01F1 		mul	r1, r0, r1
 3178              	.LVL452:
1727:Src/maze_solve.c ****         if ((unsigned int)i10 > 255U) {
 3179              		.loc 1 1727 9 is_stmt 1 view .LVU1253
 3180              		.loc 1 1727 12 is_stmt 0 view .LVU1254
 3181 0418 FF29     		cmp	r1, #255
 3182 041a 00D9     		bls	.L264
1728:Src/maze_solve.c ****           i10 = 255;
 3183              		.loc 1 1728 15 view .LVU1255
 3184 041c FF21     		movs	r1, #255
 3185              	.LVL453:
 3186              	.L264:
1729:Src/maze_solve.c ****         }
1730:Src/maze_solve.c **** 
1731:Src/maze_solve.c ****         i13 = q0;
 3187              		.loc 1 1731 9 is_stmt 1 view .LVU1256
1732:Src/maze_solve.c ****         if ((unsigned int)q0 > 255U) {
 3188              		.loc 1 1732 9 view .LVU1257
1733:Src/maze_solve.c ****           i13 = 255;
ARM GAS  C:\Temp\cc4yiJU0.s 			page 99


1734:Src/maze_solve.c ****           q0 = 255;
1735:Src/maze_solve.c ****         }
1736:Src/maze_solve.c **** 
1737:Src/maze_solve.c ****         maze_wall_search[(i13 + i11) - 1] = (unsigned char)(maze_wall_search[(q0 +
 3189              		.loc 1 1737 9 view .LVU1258
 3190              		.loc 1 1737 77 is_stmt 0 view .LVU1259
 3191 041e 1BF80300 		ldrb	r0, [fp, r3]	@ zero_extendqisi2
 3192              	.LVL454:
1738:Src/maze_solve.c ****           i11) - 1] | (unsigned char)i10);
 3193              		.loc 1 1738 23 view .LVU1260
 3194 0422 C9B2     		uxtb	r1, r1
 3195              	.LVL455:
1737:Src/maze_solve.c ****           i11) - 1] | (unsigned char)i10);
 3196              		.loc 1 1737 45 view .LVU1261
 3197 0424 0143     		orrs	r1, r1, r0
1737:Src/maze_solve.c ****           i11) - 1] | (unsigned char)i10);
 3198              		.loc 1 1737 43 view .LVU1262
 3199 0426 0BF80310 		strb	r1, [fp, r3]
 3200              	.LVL456:
 3201              	.L257:
1739:Src/maze_solve.c ****       }
1740:Src/maze_solve.c **** 
1741:Src/maze_solve.c ****       /* 東側のマスの西側の壁情報 */
1742:Src/maze_solve.c ****       qY = maze_col_size - 1U;
 3202              		.loc 1 1742 7 is_stmt 1 view .LVU1263
 3203              		.loc 1 1742 10 is_stmt 0 view .LVU1264
 3204 042a 0A9B     		ldr	r3, [sp, #40]
 3205 042c 591E     		subs	r1, r3, #1
 3206              	.LVL457:
1743:Src/maze_solve.c ****       if (qY > maze_col_size) {
 3207              		.loc 1 1743 7 is_stmt 1 view .LVU1265
 3208              		.loc 1 1743 10 is_stmt 0 view .LVU1266
 3209 042e 8B42     		cmp	r3, r1
 3210 0430 00D2     		bcs	.L265
1744:Src/maze_solve.c ****         qY = 0U;
 3211              		.loc 1 1744 12 view .LVU1267
 3212 0432 0021     		movs	r1, #0
 3213              	.LVL458:
 3214              	.L265:
1745:Src/maze_solve.c ****       }
1746:Src/maze_solve.c **** 
1747:Src/maze_solve.c ****       if (*current_x < (int)qY) {
 3215              		.loc 1 1747 7 is_stmt 1 view .LVU1268
 3216              		.loc 1 1747 11 is_stmt 0 view .LVU1269
 3217 0434 2378     		ldrb	r3, [r4]	@ zero_extendqisi2
 3218              		.loc 1 1747 10 view .LVU1270
 3219 0436 8B42     		cmp	r3, r1
 3220 0438 4BDA     		bge	.L266
1748:Src/maze_solve.c ****         k = g_direction->contents.West;
 3221              		.loc 1 1748 9 is_stmt 1 view .LVU1271
 3222              		.loc 1 1748 11 is_stmt 0 view .LVU1272
 3223 043a E878     		ldrb	r0, [r5, #3]	@ zero_extendqisi2
 3224              	.LVL459:
1749:Src/maze_solve.c ****         i10 = (int)(g_direction->contents.East + 1U);
 3225              		.loc 1 1749 9 is_stmt 1 view .LVU1273
 3226              		.loc 1 1749 42 is_stmt 0 view .LVU1274
 3227 043c 6978     		ldrb	r1, [r5, #1]	@ zero_extendqisi2
ARM GAS  C:\Temp\cc4yiJU0.s 			page 100


 3228              	.LVL460:
 3229              		.loc 1 1749 48 view .LVU1275
 3230 043e 0131     		adds	r1, r1, #1
 3231              	.LVL461:
1750:Src/maze_solve.c ****         if ((unsigned int)i10 > 255U) {
 3232              		.loc 1 1750 9 is_stmt 1 view .LVU1276
 3233              		.loc 1 1750 12 is_stmt 0 view .LVU1277
 3234 0440 FF29     		cmp	r1, #255
 3235 0442 00D9     		bls	.L267
1751:Src/maze_solve.c ****           i10 = 255;
 3236              		.loc 1 1751 15 view .LVU1278
 3237 0444 FF21     		movs	r1, #255
 3238              	.LVL462:
 3239              	.L267:
1752:Src/maze_solve.c ****         }
1753:Src/maze_solve.c **** 
1754:Src/maze_solve.c ****         if (k <= 7) {
 3240              		.loc 1 1754 9 is_stmt 1 view .LVU1279
 3241              		.loc 1 1754 12 is_stmt 0 view .LVU1280
 3242 0446 0728     		cmp	r0, #7
 3243 0448 77D8     		bhi	.L384
1755:Src/maze_solve.c ****           k_k = (unsigned char)(1 << k);
 3244              		.loc 1 1755 11 is_stmt 1 view .LVU1281
 3245              		.loc 1 1755 35 is_stmt 0 view .LVU1282
 3246 044a 4FF0010C 		mov	ip, #1
 3247 044e 0CFA00F0 		lsl	r0, ip, r0
 3248              	.LVL463:
 3249              		.loc 1 1755 35 view .LVU1283
 3250 0452 C0B2     		uxtb	r0, r0
 3251              	.LVL464:
 3252              	.L268:
1756:Src/maze_solve.c ****         } else {
1757:Src/maze_solve.c ****           k_k = 0;
1758:Src/maze_solve.c ****         }
1759:Src/maze_solve.c **** 
1760:Src/maze_solve.c ****         i10 = (int)((unsigned int)k_k * wall_write[i10 - 1]);
 3253              		.loc 1 1760 9 is_stmt 1 view .LVU1284
 3254              		.loc 1 1760 56 is_stmt 0 view .LVU1285
 3255 0454 0139     		subs	r1, r1, #1
 3256              	.LVL465:
 3257              		.loc 1 1760 51 view .LVU1286
 3258 0456 0DF58967 		add	r7, sp, #1096
 3259 045a 3944     		add	r1, r1, r7
 3260              	.LVL466:
 3261              		.loc 1 1760 51 view .LVU1287
 3262 045c 11F8041C 		ldrb	r1, [r1, #-4]	@ zero_extendqisi2
 3263              		.loc 1 1760 39 view .LVU1288
 3264 0460 00FB01F1 		mul	r1, r0, r1
 3265              	.LVL467:
1761:Src/maze_solve.c ****         if ((unsigned int)i10 > 255U) {
 3266              		.loc 1 1761 9 is_stmt 1 view .LVU1289
 3267              		.loc 1 1761 12 is_stmt 0 view .LVU1290
 3268 0464 FF29     		cmp	r1, #255
 3269 0466 00D9     		bls	.L269
1762:Src/maze_solve.c ****           i10 = 255;
 3270              		.loc 1 1762 15 view .LVU1291
 3271 0468 FF21     		movs	r1, #255
ARM GAS  C:\Temp\cc4yiJU0.s 			page 101


 3272              	.LVL468:
 3273              	.L269:
1763:Src/maze_solve.c ****         }
1764:Src/maze_solve.c **** 
1765:Src/maze_solve.c ****         q0 = (int)(*current_x + 1U);
 3274              		.loc 1 1765 9 is_stmt 1 view .LVU1292
 3275              		.loc 1 1765 31 is_stmt 0 view .LVU1293
 3276 046a 0133     		adds	r3, r3, #1
1766:Src/maze_solve.c ****         i13 = q0;
 3277              		.loc 1 1766 9 is_stmt 1 view .LVU1294
1767:Src/maze_solve.c ****         if ((unsigned int)q0 > 255U) {
 3278              		.loc 1 1767 9 view .LVU1295
 3279              		.loc 1 1767 12 is_stmt 0 view .LVU1296
 3280 046c FF2B     		cmp	r3, #255
 3281 046e 00D9     		bls	.L270
 3282              	.LVL469:
1768:Src/maze_solve.c ****           i13 = 255;
 3283              		.loc 1 1768 15 view .LVU1297
 3284 0470 FF23     		movs	r3, #255
 3285              	.LVL470:
 3286              	.L270:
1769:Src/maze_solve.c ****         }
1770:Src/maze_solve.c **** 
1771:Src/maze_solve.c ****         i14 = q0;
 3287              		.loc 1 1771 9 is_stmt 1 view .LVU1298
1772:Src/maze_solve.c ****         if ((unsigned int)q0 > 255U) {
 3288              		.loc 1 1772 9 view .LVU1299
1773:Src/maze_solve.c ****           i14 = 255;
1774:Src/maze_solve.c ****         }
1775:Src/maze_solve.c **** 
1776:Src/maze_solve.c ****         maze_wall[(*current_y + ((i13 - 1) << 5)) - 1] = (unsigned char)
 3289              		.loc 1 1776 9 view .LVU1300
1777:Src/maze_solve.c ****           (maze_wall[(*current_y + ((i14 - 1) << 5)) - 1] | (unsigned char)i10);
 3290              		.loc 1 1777 23 is_stmt 0 view .LVU1301
 3291 0472 99F800C0 		ldrb	ip, [r9]	@ zero_extendqisi2
 3292              		.loc 1 1777 42 view .LVU1302
 3293 0476 013B     		subs	r3, r3, #1
 3294              		.loc 1 1777 47 view .LVU1303
 3295 0478 5801     		lsls	r0, r3, #5
 3296              	.LVL471:
 3297              		.loc 1 1777 34 view .LVU1304
 3298 047a 0CEB4313 		add	r3, ip, r3, lsl #5
 3299              		.loc 1 1777 21 view .LVU1305
 3300 047e 013B     		subs	r3, r3, #1
 3301 0480 18F803C0 		ldrb	ip, [r8, r3]	@ zero_extendqisi2
 3302              		.loc 1 1777 61 view .LVU1306
 3303 0484 C9B2     		uxtb	r1, r1
 3304              	.LVL472:
1776:Src/maze_solve.c ****           (maze_wall[(*current_y + ((i14 - 1) << 5)) - 1] | (unsigned char)i10);
 3305              		.loc 1 1776 58 view .LVU1307
 3306 0486 4CEA0101 		orr	r1, ip, r1
1776:Src/maze_solve.c ****           (maze_wall[(*current_y + ((i14 - 1) << 5)) - 1] | (unsigned char)i10);
 3307              		.loc 1 1776 56 view .LVU1308
 3308 048a 08F80310 		strb	r1, [r8, r3]
 3309              	.LVL473:
1778:Src/maze_solve.c ****         k = g_direction->contents.West;
 3310              		.loc 1 1778 9 is_stmt 1 view .LVU1309
ARM GAS  C:\Temp\cc4yiJU0.s 			page 102


 3311              		.loc 1 1778 11 is_stmt 0 view .LVU1310
 3312 048e EB78     		ldrb	r3, [r5, #3]	@ zero_extendqisi2
 3313              	.LVL474:
1779:Src/maze_solve.c ****         i10 = (int)(g_direction->contents.East + 1U);
 3314              		.loc 1 1779 9 is_stmt 1 view .LVU1311
 3315              		.loc 1 1779 42 is_stmt 0 view .LVU1312
 3316 0490 6978     		ldrb	r1, [r5, #1]	@ zero_extendqisi2
 3317              		.loc 1 1779 48 view .LVU1313
 3318 0492 0131     		adds	r1, r1, #1
 3319              	.LVL475:
1780:Src/maze_solve.c ****         if ((unsigned int)i10 > 255U) {
 3320              		.loc 1 1780 9 is_stmt 1 view .LVU1314
 3321              		.loc 1 1780 12 is_stmt 0 view .LVU1315
 3322 0494 FF29     		cmp	r1, #255
 3323 0496 00D9     		bls	.L271
1781:Src/maze_solve.c ****           i10 = 255;
 3324              		.loc 1 1781 15 view .LVU1316
 3325 0498 FF21     		movs	r1, #255
 3326              	.LVL476:
 3327              	.L271:
1782:Src/maze_solve.c ****         }
1783:Src/maze_solve.c **** 
1784:Src/maze_solve.c ****         if (k <= 7) {
 3328              		.loc 1 1784 9 is_stmt 1 view .LVU1317
 3329              		.loc 1 1784 12 is_stmt 0 view .LVU1318
 3330 049a 072B     		cmp	r3, #7
 3331 049c 4FD8     		bhi	.L388
1785:Src/maze_solve.c ****           o_k = (unsigned char)(1 << k);
 3332              		.loc 1 1785 11 is_stmt 1 view .LVU1319
 3333              		.loc 1 1785 35 is_stmt 0 view .LVU1320
 3334 049e 4FF0010C 		mov	ip, #1
 3335 04a2 0CFA03F3 		lsl	r3, ip, r3
 3336              	.LVL477:
 3337              		.loc 1 1785 35 view .LVU1321
 3338 04a6 DBB2     		uxtb	r3, r3
 3339              	.LVL478:
 3340              	.L272:
1786:Src/maze_solve.c ****         } else {
1787:Src/maze_solve.c ****           o_k = 0;
1788:Src/maze_solve.c ****         }
1789:Src/maze_solve.c **** 
1790:Src/maze_solve.c ****         i10 = (int)((unsigned int)o_k * serch_write[i10 - 1]);
 3341              		.loc 1 1790 9 is_stmt 1 view .LVU1322
 3342              		.loc 1 1790 57 is_stmt 0 view .LVU1323
 3343 04a8 0139     		subs	r1, r1, #1
 3344              	.LVL479:
 3345              		.loc 1 1790 52 view .LVU1324
 3346 04aa 0DF58967 		add	r7, sp, #1096
 3347 04ae 3944     		add	r1, r1, r7
 3348              	.LVL480:
 3349              		.loc 1 1790 52 view .LVU1325
 3350 04b0 11F8081C 		ldrb	r1, [r1, #-8]	@ zero_extendqisi2
 3351              		.loc 1 1790 39 view .LVU1326
 3352 04b4 03FB01F3 		mul	r3, r3, r1
 3353              	.LVL481:
1791:Src/maze_solve.c ****         if ((unsigned int)i10 > 255U) {
 3354              		.loc 1 1791 9 is_stmt 1 view .LVU1327
ARM GAS  C:\Temp\cc4yiJU0.s 			page 103


 3355              		.loc 1 1791 12 is_stmt 0 view .LVU1328
 3356 04b8 FF2B     		cmp	r3, #255
 3357 04ba 00D9     		bls	.L273
1792:Src/maze_solve.c ****           i10 = 255;
 3358              		.loc 1 1792 15 view .LVU1329
 3359 04bc FF23     		movs	r3, #255
 3360              	.LVL482:
 3361              	.L273:
1793:Src/maze_solve.c ****         }
1794:Src/maze_solve.c **** 
1795:Src/maze_solve.c ****         i13 = q0;
 3362              		.loc 1 1795 9 is_stmt 1 view .LVU1330
1796:Src/maze_solve.c ****         if ((unsigned int)q0 > 255U) {
 3363              		.loc 1 1796 9 view .LVU1331
1797:Src/maze_solve.c ****           i13 = 255;
1798:Src/maze_solve.c ****           q0 = 255;
1799:Src/maze_solve.c ****         }
1800:Src/maze_solve.c **** 
1801:Src/maze_solve.c ****         maze_wall_search[(*current_y + ((i13 - 1) << 5)) - 1] = (unsigned char)
 3364              		.loc 1 1801 9 view .LVU1332
1802:Src/maze_solve.c ****           (maze_wall_search[(*current_y + ((q0 - 1) << 5)) - 1] | (unsigned char)
 3365              		.loc 1 1802 30 is_stmt 0 view .LVU1333
 3366 04be 99F80010 		ldrb	r1, [r9]	@ zero_extendqisi2
 3367              		.loc 1 1802 41 view .LVU1334
 3368 04c2 0844     		add	r0, r0, r1
 3369              		.loc 1 1802 28 view .LVU1335
 3370 04c4 0138     		subs	r0, r0, #1
 3371 04c6 1BF80010 		ldrb	r1, [fp, r0]	@ zero_extendqisi2
 3372              		.loc 1 1802 67 view .LVU1336
 3373 04ca DBB2     		uxtb	r3, r3
 3374              	.LVL483:
1801:Src/maze_solve.c ****           (maze_wall_search[(*current_y + ((q0 - 1) << 5)) - 1] | (unsigned char)
 3375              		.loc 1 1801 65 view .LVU1337
 3376 04cc 0B43     		orrs	r3, r3, r1
1801:Src/maze_solve.c ****           (maze_wall_search[(*current_y + ((q0 - 1) << 5)) - 1] | (unsigned char)
 3377              		.loc 1 1801 63 view .LVU1338
 3378 04ce 0BF80030 		strb	r3, [fp, r0]
 3379              	.LVL484:
 3380              	.L266:
1803:Src/maze_solve.c ****           i10);
1804:Src/maze_solve.c ****       }
1805:Src/maze_solve.c **** 
1806:Src/maze_solve.c ****       /* 南側のマスの北側の壁情報 */
1807:Src/maze_solve.c ****       if (*current_y > 1) {
 3381              		.loc 1 1807 7 is_stmt 1 view .LVU1339
 3382              		.loc 1 1807 11 is_stmt 0 view .LVU1340
 3383 04d2 99F80010 		ldrb	r1, [r9]	@ zero_extendqisi2
 3384              		.loc 1 1807 10 view .LVU1341
 3385 04d6 0129     		cmp	r1, #1
 3386 04d8 71D9     		bls	.L274
1808:Src/maze_solve.c ****         k = g_direction->contents.North;
 3387              		.loc 1 1808 9 is_stmt 1 view .LVU1342
 3388              		.loc 1 1808 11 is_stmt 0 view .LVU1343
 3389 04da 2878     		ldrb	r0, [r5]	@ zero_extendqisi2
 3390              	.LVL485:
1809:Src/maze_solve.c ****         i10 = (int)(g_direction->contents.South + 1U);
 3391              		.loc 1 1809 9 is_stmt 1 view .LVU1344
ARM GAS  C:\Temp\cc4yiJU0.s 			page 104


 3392              		.loc 1 1809 42 is_stmt 0 view .LVU1345
 3393 04dc AB78     		ldrb	r3, [r5, #2]	@ zero_extendqisi2
 3394              		.loc 1 1809 49 view .LVU1346
 3395 04de 0133     		adds	r3, r3, #1
 3396              	.LVL486:
1810:Src/maze_solve.c ****         if ((unsigned int)i10 > 255U) {
 3397              		.loc 1 1810 9 is_stmt 1 view .LVU1347
 3398              		.loc 1 1810 12 is_stmt 0 view .LVU1348
 3399 04e0 FF2B     		cmp	r3, #255
 3400 04e2 00D9     		bls	.L275
1811:Src/maze_solve.c ****           i10 = 255;
 3401              		.loc 1 1811 15 view .LVU1349
 3402 04e4 FF23     		movs	r3, #255
 3403              	.LVL487:
 3404              	.L275:
1812:Src/maze_solve.c ****         }
1813:Src/maze_solve.c **** 
1814:Src/maze_solve.c ****         if (k <= 7) {
 3405              		.loc 1 1814 9 is_stmt 1 view .LVU1350
 3406              		.loc 1 1814 12 is_stmt 0 view .LVU1351
 3407 04e6 0728     		cmp	r0, #7
 3408 04e8 2BD8     		bhi	.L391
1815:Src/maze_solve.c ****           l_k = (unsigned char)(1 << k);
 3409              		.loc 1 1815 11 is_stmt 1 view .LVU1352
 3410              		.loc 1 1815 35 is_stmt 0 view .LVU1353
 3411 04ea 4FF0010C 		mov	ip, #1
 3412 04ee 0CFA00F0 		lsl	r0, ip, r0
 3413              	.LVL488:
 3414              		.loc 1 1815 35 view .LVU1354
 3415 04f2 C0B2     		uxtb	r0, r0
 3416              	.LVL489:
 3417              		.loc 1 1815 35 view .LVU1355
 3418 04f4 26E0     		b	.L276
 3419              	.LVL490:
 3420              	.L442:
1467:Src/maze_solve.c ****         set_front_wall_flg();//前壁補正フラグを立てる
 3421              		.loc 1 1467 9 is_stmt 1 view .LVU1356
1467:Src/maze_solve.c ****         set_front_wall_flg();//前壁補正フラグを立てる
 3422              		.loc 1 1467 20 is_stmt 0 view .LVU1357
 3423 04f6 9AF80030 		ldrb	r3, [r10]	@ zero_extendqisi2
1467:Src/maze_solve.c ****         set_front_wall_flg();//前壁補正フラグを立てる
 3424              		.loc 1 1467 33 view .LVU1358
 3425 04fa 03F00303 		and	r3, r3, #3
1467:Src/maze_solve.c ****         set_front_wall_flg();//前壁補正フラグを立てる
 3426              		.loc 1 1467 54 view .LVU1359
 3427 04fe 089A     		ldr	r2, [sp, #32]
 3428 0500 5278     		ldrb	r2, [r2, #1]	@ zero_extendqisi2
1467:Src/maze_solve.c ****         set_front_wall_flg();//前壁補正フラグを立てる
 3429              		.loc 1 1467 38 view .LVU1360
 3430 0502 0DF58961 		add	r1, sp, #1096
 3431 0506 0B44     		add	r3, r3, r1
 3432 0508 03F8042C 		strb	r2, [r3, #-4]
1468:Src/maze_solve.c ****       }
 3433              		.loc 1 1468 9 is_stmt 1 view .LVU1361
 3434 050c FFF7FEFF 		bl	set_front_wall_flg
 3435              	.LVL491:
 3436 0510 C9E5     		b	.L225
ARM GAS  C:\Temp\cc4yiJU0.s 			page 105


 3437              	.LVL492:
 3438              	.L351:
1532:Src/maze_solve.c ****       }
 3439              		.loc 1 1532 13 is_stmt 0 view .LVU1362
 3440 0512 0021     		movs	r1, #0
 3441 0514 3DE6     		b	.L233
 3442              	.LVL493:
 3443              	.L354:
1552:Src/maze_solve.c ****       }
 3444              		.loc 1 1552 13 view .LVU1363
 3445 0516 0021     		movs	r1, #0
 3446              	.LVL494:
1552:Src/maze_solve.c ****       }
 3447              		.loc 1 1552 13 view .LVU1364
 3448 0518 64E6     		b	.L236
 3449              	.LVL495:
 3450              	.L357:
1572:Src/maze_solve.c ****       }
 3451              		.loc 1 1572 13 view .LVU1365
 3452 051a 0021     		movs	r1, #0
 3453              	.LVL496:
1572:Src/maze_solve.c ****       }
 3454              		.loc 1 1572 13 view .LVU1366
 3455 051c 80E6     		b	.L239
 3456              	.LVL497:
 3457              	.L360:
1590:Src/maze_solve.c ****       }
 3458              		.loc 1 1590 13 view .LVU1367
 3459 051e 0021     		movs	r1, #0
 3460              	.LVL498:
1590:Src/maze_solve.c ****       }
 3461              		.loc 1 1590 13 view .LVU1368
 3462 0520 9CE6     		b	.L242
 3463              	.LVL499:
 3464              	.L363:
1610:Src/maze_solve.c ****       }
 3465              		.loc 1 1610 13 view .LVU1369
 3466 0522 0021     		movs	r1, #0
 3467              	.LVL500:
1610:Src/maze_solve.c ****       }
 3468              		.loc 1 1610 13 view .LVU1370
 3469 0524 B8E6     		b	.L245
 3470              	.LVL501:
 3471              	.L366:
1628:Src/maze_solve.c ****       }
 3472              		.loc 1 1628 13 view .LVU1371
 3473 0526 0021     		movs	r1, #0
 3474              	.LVL502:
1628:Src/maze_solve.c ****       }
 3475              		.loc 1 1628 13 view .LVU1372
 3476 0528 D4E6     		b	.L248
 3477              	.LVL503:
 3478              	.L369:
1648:Src/maze_solve.c ****       }
 3479              		.loc 1 1648 13 view .LVU1373
 3480 052a 0021     		movs	r1, #0
 3481              	.LVL504:
ARM GAS  C:\Temp\cc4yiJU0.s 			page 106


1648:Src/maze_solve.c ****       }
 3482              		.loc 1 1648 13 view .LVU1374
 3483 052c F0E6     		b	.L251
 3484              	.LVL505:
 3485              	.L372:
1666:Src/maze_solve.c ****       }
 3486              		.loc 1 1666 13 view .LVU1375
 3487 052e 0021     		movs	r1, #0
 3488              	.LVL506:
1666:Src/maze_solve.c ****       }
 3489              		.loc 1 1666 13 view .LVU1376
 3490 0530 0CE7     		b	.L254
 3491              	.LVL507:
 3492              	.L376:
1693:Src/maze_solve.c ****         }
 3493              		.loc 1 1693 15 view .LVU1377
 3494 0532 0020     		movs	r0, #0
 3495              	.LVL508:
1693:Src/maze_solve.c ****         }
 3496              		.loc 1 1693 15 view .LVU1378
 3497 0534 32E7     		b	.L259
 3498              	.LVL509:
 3499              	.L380:
1723:Src/maze_solve.c ****         }
 3500              		.loc 1 1723 15 view .LVU1379
 3501 0536 0020     		movs	r0, #0
 3502              	.LVL510:
1723:Src/maze_solve.c ****         }
 3503              		.loc 1 1723 15 view .LVU1380
 3504 0538 66E7     		b	.L263
 3505              	.LVL511:
 3506              	.L384:
1757:Src/maze_solve.c ****         }
 3507              		.loc 1 1757 15 view .LVU1381
 3508 053a 0020     		movs	r0, #0
 3509              	.LVL512:
1757:Src/maze_solve.c ****         }
 3510              		.loc 1 1757 15 view .LVU1382
 3511 053c 8AE7     		b	.L268
 3512              	.LVL513:
 3513              	.L388:
1787:Src/maze_solve.c ****         }
 3514              		.loc 1 1787 15 view .LVU1383
 3515 053e 0023     		movs	r3, #0
 3516              	.LVL514:
1787:Src/maze_solve.c ****         }
 3517              		.loc 1 1787 15 view .LVU1384
 3518 0540 B2E7     		b	.L272
 3519              	.LVL515:
 3520              	.L391:
1816:Src/maze_solve.c ****         } else {
1817:Src/maze_solve.c ****           l_k = 0;
 3521              		.loc 1 1817 15 view .LVU1385
 3522 0542 0020     		movs	r0, #0
 3523              	.LVL516:
 3524              	.L276:
1818:Src/maze_solve.c ****         }
ARM GAS  C:\Temp\cc4yiJU0.s 			page 107


1819:Src/maze_solve.c **** 
1820:Src/maze_solve.c ****         i10 = (int)((unsigned int)l_k * wall_write[i10 - 1]);
 3525              		.loc 1 1820 9 is_stmt 1 view .LVU1386
 3526              		.loc 1 1820 56 is_stmt 0 view .LVU1387
 3527 0544 013B     		subs	r3, r3, #1
 3528              	.LVL517:
 3529              		.loc 1 1820 51 view .LVU1388
 3530 0546 0DF58967 		add	r7, sp, #1096
 3531 054a 3B44     		add	r3, r3, r7
 3532              	.LVL518:
 3533              		.loc 1 1820 51 view .LVU1389
 3534 054c 13F8043C 		ldrb	r3, [r3, #-4]	@ zero_extendqisi2
 3535              		.loc 1 1820 39 view .LVU1390
 3536 0550 00FB03F0 		mul	r0, r0, r3
 3537              	.LVL519:
1821:Src/maze_solve.c ****         if ((unsigned int)i10 > 255U) {
 3538              		.loc 1 1821 9 is_stmt 1 view .LVU1391
 3539              		.loc 1 1821 12 is_stmt 0 view .LVU1392
 3540 0554 FF28     		cmp	r0, #255
 3541 0556 00D9     		bls	.L277
1822:Src/maze_solve.c ****           i10 = 255;
 3542              		.loc 1 1822 15 view .LVU1393
 3543 0558 FF20     		movs	r0, #255
 3544              	.LVL520:
 3545              	.L277:
1823:Src/maze_solve.c ****         }
1824:Src/maze_solve.c **** 
1825:Src/maze_solve.c ****         q0 = *current_y;
 3546              		.loc 1 1825 9 is_stmt 1 view .LVU1394
1826:Src/maze_solve.c ****         qY = q0 - 1U;
 3547              		.loc 1 1826 9 view .LVU1395
 3548              		.loc 1 1826 12 is_stmt 0 view .LVU1396
 3549 055a 4B1E     		subs	r3, r1, #1
 3550              	.LVL521:
1827:Src/maze_solve.c ****         if (qY > (unsigned int)q0) {
 3551              		.loc 1 1827 9 is_stmt 1 view .LVU1397
 3552              		.loc 1 1827 12 is_stmt 0 view .LVU1398
 3553 055c 9942     		cmp	r1, r3
 3554 055e 00D2     		bcs	.L278
1828:Src/maze_solve.c ****           qY = 0U;
 3555              		.loc 1 1828 14 view .LVU1399
 3556 0560 0023     		movs	r3, #0
 3557              	.LVL522:
 3558              	.L278:
1829:Src/maze_solve.c ****         }
1830:Src/maze_solve.c **** 
1831:Src/maze_solve.c ****         q0 = *current_y;
 3559              		.loc 1 1831 9 is_stmt 1 view .LVU1400
1832:Src/maze_solve.c ****         b_qY = q0 - 1U;
 3560              		.loc 1 1832 9 view .LVU1401
1833:Src/maze_solve.c ****         if (b_qY > (unsigned int)q0) {
 3561              		.loc 1 1833 9 view .LVU1402
1834:Src/maze_solve.c ****           b_qY = 0U;
1835:Src/maze_solve.c ****         }
1836:Src/maze_solve.c **** 
1837:Src/maze_solve.c ****         maze_wall[((int)qY + i11) - 1] = (unsigned char)(maze_wall[((int)b_qY +
 3562              		.loc 1 1837 9 view .LVU1403
ARM GAS  C:\Temp\cc4yiJU0.s 			page 108


 3563              		.loc 1 1837 79 is_stmt 0 view .LVU1404
 3564 0562 1344     		add	r3, r3, r2
 3565              	.LVL523:
 3566              		.loc 1 1837 67 view .LVU1405
 3567 0564 013B     		subs	r3, r3, #1
 3568 0566 18F80310 		ldrb	r1, [r8, r3]	@ zero_extendqisi2
 3569              	.LVL524:
1838:Src/maze_solve.c ****           i11) - 1] | (unsigned char)i10);
 3570              		.loc 1 1838 23 view .LVU1406
 3571 056a C0B2     		uxtb	r0, r0
 3572              	.LVL525:
1837:Src/maze_solve.c ****           i11) - 1] | (unsigned char)i10);
 3573              		.loc 1 1837 42 view .LVU1407
 3574 056c 0843     		orrs	r0, r0, r1
1837:Src/maze_solve.c ****           i11) - 1] | (unsigned char)i10);
 3575              		.loc 1 1837 40 view .LVU1408
 3576 056e 08F80300 		strb	r0, [r8, r3]
 3577              	.LVL526:
1839:Src/maze_solve.c ****         k = g_direction->contents.North;
 3578              		.loc 1 1839 9 is_stmt 1 view .LVU1409
 3579              		.loc 1 1839 11 is_stmt 0 view .LVU1410
 3580 0572 2878     		ldrb	r0, [r5]	@ zero_extendqisi2
 3581              	.LVL527:
1840:Src/maze_solve.c ****         i10 = (int)(g_direction->contents.South + 1U);
 3582              		.loc 1 1840 9 is_stmt 1 view .LVU1411
 3583              		.loc 1 1840 42 is_stmt 0 view .LVU1412
 3584 0574 AB78     		ldrb	r3, [r5, #2]	@ zero_extendqisi2
 3585              		.loc 1 1840 49 view .LVU1413
 3586 0576 0133     		adds	r3, r3, #1
 3587              	.LVL528:
1841:Src/maze_solve.c ****         if ((unsigned int)i10 > 255U) {
 3588              		.loc 1 1841 9 is_stmt 1 view .LVU1414
 3589              		.loc 1 1841 12 is_stmt 0 view .LVU1415
 3590 0578 FF2B     		cmp	r3, #255
 3591 057a 00D9     		bls	.L279
1842:Src/maze_solve.c ****           i10 = 255;
 3592              		.loc 1 1842 15 view .LVU1416
 3593 057c FF23     		movs	r3, #255
 3594              	.LVL529:
 3595              	.L279:
1843:Src/maze_solve.c ****         }
1844:Src/maze_solve.c **** 
1845:Src/maze_solve.c ****         if (k <= 7) {
 3596              		.loc 1 1845 9 is_stmt 1 view .LVU1417
 3597              		.loc 1 1845 12 is_stmt 0 view .LVU1418
 3598 057e 0728     		cmp	r0, #7
 3599 0580 03D8     		bhi	.L395
1846:Src/maze_solve.c ****           q_k = (unsigned char)(1 << k);
 3600              		.loc 1 1846 11 is_stmt 1 view .LVU1419
 3601              		.loc 1 1846 35 is_stmt 0 view .LVU1420
 3602 0582 0121     		movs	r1, #1
 3603 0584 8140     		lsls	r1, r1, r0
 3604 0586 C9B2     		uxtb	r1, r1
 3605              	.LVL530:
 3606              		.loc 1 1846 35 view .LVU1421
 3607 0588 00E0     		b	.L280
 3608              	.LVL531:
ARM GAS  C:\Temp\cc4yiJU0.s 			page 109


 3609              	.L395:
1847:Src/maze_solve.c ****         } else {
1848:Src/maze_solve.c ****           q_k = 0;
 3610              		.loc 1 1848 15 view .LVU1422
 3611 058a 0021     		movs	r1, #0
 3612              	.L280:
 3613              	.LVL532:
1849:Src/maze_solve.c ****         }
1850:Src/maze_solve.c **** 
1851:Src/maze_solve.c ****         i10 = (int)((unsigned int)q_k * serch_write[i10 - 1]);
 3614              		.loc 1 1851 9 is_stmt 1 view .LVU1423
 3615              		.loc 1 1851 57 is_stmt 0 view .LVU1424
 3616 058c 013B     		subs	r3, r3, #1
 3617              	.LVL533:
 3618              		.loc 1 1851 52 view .LVU1425
 3619 058e 0DF58960 		add	r0, sp, #1096
 3620              	.LVL534:
 3621              		.loc 1 1851 52 view .LVU1426
 3622 0592 0344     		add	r3, r3, r0
 3623              	.LVL535:
 3624              		.loc 1 1851 52 view .LVU1427
 3625 0594 13F8083C 		ldrb	r3, [r3, #-8]	@ zero_extendqisi2
 3626              		.loc 1 1851 39 view .LVU1428
 3627 0598 01FB03F3 		mul	r3, r1, r3
 3628              	.LVL536:
1852:Src/maze_solve.c ****         if ((unsigned int)i10 > 255U) {
 3629              		.loc 1 1852 9 is_stmt 1 view .LVU1429
 3630              		.loc 1 1852 12 is_stmt 0 view .LVU1430
 3631 059c FF2B     		cmp	r3, #255
 3632 059e 00D9     		bls	.L281
1853:Src/maze_solve.c ****           i10 = 255;
 3633              		.loc 1 1853 15 view .LVU1431
 3634 05a0 FF23     		movs	r3, #255
 3635              	.LVL537:
 3636              	.L281:
1854:Src/maze_solve.c ****         }
1855:Src/maze_solve.c **** 
1856:Src/maze_solve.c ****         q0 = *current_y;
 3637              		.loc 1 1856 9 is_stmt 1 view .LVU1432
 3638              		.loc 1 1856 14 is_stmt 0 view .LVU1433
 3639 05a2 99F80000 		ldrb	r0, [r9]	@ zero_extendqisi2
 3640              	.LVL538:
1857:Src/maze_solve.c ****         qY = q0 - 1U;
 3641              		.loc 1 1857 9 is_stmt 1 view .LVU1434
 3642              		.loc 1 1857 12 is_stmt 0 view .LVU1435
 3643 05a6 411E     		subs	r1, r0, #1
 3644              	.LVL539:
1858:Src/maze_solve.c ****         if (qY > (unsigned int)q0) {
 3645              		.loc 1 1858 9 is_stmt 1 view .LVU1436
 3646              		.loc 1 1858 12 is_stmt 0 view .LVU1437
 3647 05a8 8842     		cmp	r0, r1
 3648 05aa 00D2     		bcs	.L282
1859:Src/maze_solve.c ****           qY = 0U;
 3649              		.loc 1 1859 14 view .LVU1438
 3650 05ac 0021     		movs	r1, #0
 3651              	.LVL540:
 3652              	.L282:
ARM GAS  C:\Temp\cc4yiJU0.s 			page 110


1860:Src/maze_solve.c ****         }
1861:Src/maze_solve.c **** 
1862:Src/maze_solve.c ****         q0 = *current_y;
 3653              		.loc 1 1862 9 is_stmt 1 view .LVU1439
1863:Src/maze_solve.c ****         b_qY = q0 - 1U;
 3654              		.loc 1 1863 9 view .LVU1440
1864:Src/maze_solve.c ****         if (b_qY > (unsigned int)q0) {
 3655              		.loc 1 1864 9 view .LVU1441
1865:Src/maze_solve.c ****           b_qY = 0U;
1866:Src/maze_solve.c ****         }
1867:Src/maze_solve.c **** 
1868:Src/maze_solve.c ****         maze_wall_search[((int)qY + i11) - 1] = (unsigned char)(maze_wall_search
 3656              		.loc 1 1868 9 view .LVU1442
1869:Src/maze_solve.c ****           [((int)b_qY + i11) - 1] | (unsigned char)i10);
 3657              		.loc 1 1869 23 is_stmt 0 view .LVU1443
 3658 05ae 0A44     		add	r2, r2, r1
 3659              		.loc 1 1869 11 view .LVU1444
 3660 05b0 013A     		subs	r2, r2, #1
 3661 05b2 1BF80210 		ldrb	r1, [fp, r2]	@ zero_extendqisi2
 3662              	.LVL541:
 3663              		.loc 1 1869 37 view .LVU1445
 3664 05b6 DBB2     		uxtb	r3, r3
 3665              	.LVL542:
1868:Src/maze_solve.c ****           [((int)b_qY + i11) - 1] | (unsigned char)i10);
 3666              		.loc 1 1868 49 view .LVU1446
 3667 05b8 0B43     		orrs	r3, r3, r1
1868:Src/maze_solve.c ****           [((int)b_qY + i11) - 1] | (unsigned char)i10);
 3668              		.loc 1 1868 47 view .LVU1447
 3669 05ba 0BF80230 		strb	r3, [fp, r2]
 3670              	.LVL543:
 3671              	.L274:
1870:Src/maze_solve.c ****       }
1871:Src/maze_solve.c **** 
1872:Src/maze_solve.c ****       /* 西側のマスの東側の壁情報 */
1873:Src/maze_solve.c ****       if (*current_x > 1) {
 3672              		.loc 1 1873 7 is_stmt 1 view .LVU1448
 3673              		.loc 1 1873 11 is_stmt 0 view .LVU1449
 3674 05be 2178     		ldrb	r1, [r4]	@ zero_extendqisi2
 3675              		.loc 1 1873 10 view .LVU1450
 3676 05c0 0129     		cmp	r1, #1
 3677 05c2 40F25D81 		bls	.L224
1874:Src/maze_solve.c ****         k = g_direction->contents.East;
 3678              		.loc 1 1874 9 is_stmt 1 view .LVU1451
 3679              		.loc 1 1874 11 is_stmt 0 view .LVU1452
 3680 05c6 6878     		ldrb	r0, [r5, #1]	@ zero_extendqisi2
 3681              	.LVL544:
1875:Src/maze_solve.c ****         i10 = (int)(g_direction->contents.West + 1U);
 3682              		.loc 1 1875 9 is_stmt 1 view .LVU1453
 3683              		.loc 1 1875 42 is_stmt 0 view .LVU1454
 3684 05c8 EB78     		ldrb	r3, [r5, #3]	@ zero_extendqisi2
 3685              		.loc 1 1875 48 view .LVU1455
 3686 05ca 0133     		adds	r3, r3, #1
 3687              	.LVL545:
1876:Src/maze_solve.c ****         if ((unsigned int)i10 > 255U) {
 3688              		.loc 1 1876 9 is_stmt 1 view .LVU1456
 3689              		.loc 1 1876 12 is_stmt 0 view .LVU1457
 3690 05cc FF2B     		cmp	r3, #255
ARM GAS  C:\Temp\cc4yiJU0.s 			page 111


 3691 05ce 00D9     		bls	.L283
1877:Src/maze_solve.c ****           i10 = 255;
 3692              		.loc 1 1877 15 view .LVU1458
 3693 05d0 FF23     		movs	r3, #255
 3694              	.LVL546:
 3695              	.L283:
1878:Src/maze_solve.c ****         }
1879:Src/maze_solve.c **** 
1880:Src/maze_solve.c ****         if (k <= 7) {
 3696              		.loc 1 1880 9 is_stmt 1 view .LVU1459
 3697              		.loc 1 1880 12 is_stmt 0 view .LVU1460
 3698 05d2 0728     		cmp	r0, #7
 3699 05d4 03D8     		bhi	.L399
1881:Src/maze_solve.c ****           m_k = (unsigned char)(1 << k);
 3700              		.loc 1 1881 11 is_stmt 1 view .LVU1461
 3701              		.loc 1 1881 35 is_stmt 0 view .LVU1462
 3702 05d6 0122     		movs	r2, #1
 3703 05d8 8240     		lsls	r2, r2, r0
 3704 05da D2B2     		uxtb	r2, r2
 3705              	.LVL547:
 3706              		.loc 1 1881 35 view .LVU1463
 3707 05dc 00E0     		b	.L284
 3708              	.LVL548:
 3709              	.L399:
1882:Src/maze_solve.c ****         } else {
1883:Src/maze_solve.c ****           m_k = 0;
 3710              		.loc 1 1883 15 view .LVU1464
 3711 05de 0022     		movs	r2, #0
 3712              	.L284:
 3713              	.LVL549:
1884:Src/maze_solve.c ****         }
1885:Src/maze_solve.c **** 
1886:Src/maze_solve.c ****         i10 = (int)((unsigned int)m_k * wall_write[i10 - 1]);
 3714              		.loc 1 1886 9 is_stmt 1 view .LVU1465
 3715              		.loc 1 1886 56 is_stmt 0 view .LVU1466
 3716 05e0 013B     		subs	r3, r3, #1
 3717              	.LVL550:
 3718              		.loc 1 1886 51 view .LVU1467
 3719 05e2 0DF58960 		add	r0, sp, #1096
 3720              	.LVL551:
 3721              		.loc 1 1886 51 view .LVU1468
 3722 05e6 0344     		add	r3, r3, r0
 3723              	.LVL552:
 3724              		.loc 1 1886 51 view .LVU1469
 3725 05e8 13F8043C 		ldrb	r3, [r3, #-4]	@ zero_extendqisi2
 3726              		.loc 1 1886 39 view .LVU1470
 3727 05ec 02FB03F2 		mul	r2, r2, r3
 3728              	.LVL553:
1887:Src/maze_solve.c ****         if ((unsigned int)i10 > 255U) {
 3729              		.loc 1 1887 9 is_stmt 1 view .LVU1471
 3730              		.loc 1 1887 12 is_stmt 0 view .LVU1472
 3731 05f0 FF2A     		cmp	r2, #255
 3732 05f2 00D9     		bls	.L285
1888:Src/maze_solve.c ****           i10 = 255;
 3733              		.loc 1 1888 15 view .LVU1473
 3734 05f4 FF22     		movs	r2, #255
 3735              	.LVL554:
ARM GAS  C:\Temp\cc4yiJU0.s 			page 112


 3736              	.L285:
1889:Src/maze_solve.c ****         }
1890:Src/maze_solve.c **** 
1891:Src/maze_solve.c ****         q0 = *current_x;
 3737              		.loc 1 1891 9 is_stmt 1 view .LVU1474
1892:Src/maze_solve.c ****         qY = q0 - 1U;
 3738              		.loc 1 1892 9 view .LVU1475
 3739              		.loc 1 1892 12 is_stmt 0 view .LVU1476
 3740 05f6 481E     		subs	r0, r1, #1
 3741              	.LVL555:
1893:Src/maze_solve.c ****         if (qY > (unsigned int)q0) {
 3742              		.loc 1 1893 9 is_stmt 1 view .LVU1477
 3743              		.loc 1 1893 12 is_stmt 0 view .LVU1478
 3744 05f8 8142     		cmp	r1, r0
 3745 05fa 00D2     		bcs	.L286
1894:Src/maze_solve.c ****           qY = 0U;
 3746              		.loc 1 1894 14 view .LVU1479
 3747 05fc 0020     		movs	r0, #0
 3748              	.LVL556:
 3749              	.L286:
1895:Src/maze_solve.c ****         }
1896:Src/maze_solve.c **** 
1897:Src/maze_solve.c ****         q0 = *current_x;
 3750              		.loc 1 1897 9 is_stmt 1 view .LVU1480
1898:Src/maze_solve.c ****         b_qY = q0 - 1U;
 3751              		.loc 1 1898 9 view .LVU1481
1899:Src/maze_solve.c ****         if (b_qY > (unsigned int)q0) {
 3752              		.loc 1 1899 9 view .LVU1482
1900:Src/maze_solve.c ****           b_qY = 0U;
1901:Src/maze_solve.c ****         }
1902:Src/maze_solve.c **** 
1903:Src/maze_solve.c ****         maze_wall[(*current_y + (((int)qY - 1) << 5)) - 1] = (unsigned char)
 3753              		.loc 1 1903 9 view .LVU1483
1904:Src/maze_solve.c ****           (maze_wall[(*current_y + (((int)b_qY - 1) << 5)) - 1] | (unsigned char)
 3754              		.loc 1 1904 23 is_stmt 0 view .LVU1484
 3755 05fe 99F80030 		ldrb	r3, [r9]	@ zero_extendqisi2
 3756              		.loc 1 1904 48 view .LVU1485
 3757 0602 0138     		subs	r0, r0, #1
 3758              	.LVL557:
 3759              		.loc 1 1904 34 view .LVU1486
 3760 0604 03EB4013 		add	r3, r3, r0, lsl #5
 3761              		.loc 1 1904 21 view .LVU1487
 3762 0608 013B     		subs	r3, r3, #1
 3763 060a 18F80310 		ldrb	r1, [r8, r3]	@ zero_extendqisi2
 3764              	.LVL558:
 3765              		.loc 1 1904 67 view .LVU1488
 3766 060e D2B2     		uxtb	r2, r2
 3767              	.LVL559:
1903:Src/maze_solve.c ****           (maze_wall[(*current_y + (((int)b_qY - 1) << 5)) - 1] | (unsigned char)
 3768              		.loc 1 1903 62 view .LVU1489
 3769 0610 0A43     		orrs	r2, r2, r1
1903:Src/maze_solve.c ****           (maze_wall[(*current_y + (((int)b_qY - 1) << 5)) - 1] | (unsigned char)
 3770              		.loc 1 1903 60 view .LVU1490
 3771 0612 08F80320 		strb	r2, [r8, r3]
 3772              	.LVL560:
1905:Src/maze_solve.c ****           i10);
1906:Src/maze_solve.c ****         k = g_direction->contents.East;
ARM GAS  C:\Temp\cc4yiJU0.s 			page 113


 3773              		.loc 1 1906 9 is_stmt 1 view .LVU1491
 3774              		.loc 1 1906 11 is_stmt 0 view .LVU1492
 3775 0616 6978     		ldrb	r1, [r5, #1]	@ zero_extendqisi2
 3776              	.LVL561:
1907:Src/maze_solve.c ****         i10 = (int)(g_direction->contents.West + 1U);
 3777              		.loc 1 1907 9 is_stmt 1 view .LVU1493
 3778              		.loc 1 1907 42 is_stmt 0 view .LVU1494
 3779 0618 EB78     		ldrb	r3, [r5, #3]	@ zero_extendqisi2
 3780              		.loc 1 1907 48 view .LVU1495
 3781 061a 0133     		adds	r3, r3, #1
 3782              	.LVL562:
1908:Src/maze_solve.c ****         if ((unsigned int)i10 > 255U) {
 3783              		.loc 1 1908 9 is_stmt 1 view .LVU1496
 3784              		.loc 1 1908 12 is_stmt 0 view .LVU1497
 3785 061c FF2B     		cmp	r3, #255
 3786 061e 00D9     		bls	.L287
1909:Src/maze_solve.c ****           i10 = 255;
 3787              		.loc 1 1909 15 view .LVU1498
 3788 0620 FF23     		movs	r3, #255
 3789              	.LVL563:
 3790              	.L287:
1910:Src/maze_solve.c ****         }
1911:Src/maze_solve.c **** 
1912:Src/maze_solve.c ****         if (k <= 7) {
 3791              		.loc 1 1912 9 is_stmt 1 view .LVU1499
 3792              		.loc 1 1912 12 is_stmt 0 view .LVU1500
 3793 0622 0729     		cmp	r1, #7
 3794 0624 03D8     		bhi	.L403
1913:Src/maze_solve.c ****           r_k = (unsigned char)(1 << k);
 3795              		.loc 1 1913 11 is_stmt 1 view .LVU1501
 3796              		.loc 1 1913 35 is_stmt 0 view .LVU1502
 3797 0626 0122     		movs	r2, #1
 3798 0628 8A40     		lsls	r2, r2, r1
 3799 062a D2B2     		uxtb	r2, r2
 3800              	.LVL564:
 3801              		.loc 1 1913 35 view .LVU1503
 3802 062c 00E0     		b	.L288
 3803              	.LVL565:
 3804              	.L403:
1914:Src/maze_solve.c ****         } else {
1915:Src/maze_solve.c ****           r_k = 0;
 3805              		.loc 1 1915 15 view .LVU1504
 3806 062e 0022     		movs	r2, #0
 3807              	.L288:
 3808              	.LVL566:
1916:Src/maze_solve.c ****         }
1917:Src/maze_solve.c **** 
1918:Src/maze_solve.c ****         i10 = (int)((unsigned int)r_k * serch_write[i10 - 1]);
 3809              		.loc 1 1918 9 is_stmt 1 view .LVU1505
 3810              		.loc 1 1918 57 is_stmt 0 view .LVU1506
 3811 0630 013B     		subs	r3, r3, #1
 3812              	.LVL567:
 3813              		.loc 1 1918 52 view .LVU1507
 3814 0632 0DF58961 		add	r1, sp, #1096
 3815              	.LVL568:
 3816              		.loc 1 1918 52 view .LVU1508
 3817 0636 0B44     		add	r3, r3, r1
ARM GAS  C:\Temp\cc4yiJU0.s 			page 114


 3818              	.LVL569:
 3819              		.loc 1 1918 52 view .LVU1509
 3820 0638 13F8083C 		ldrb	r3, [r3, #-8]	@ zero_extendqisi2
 3821              		.loc 1 1918 39 view .LVU1510
 3822 063c 02FB03F3 		mul	r3, r2, r3
 3823              	.LVL570:
1919:Src/maze_solve.c ****         if ((unsigned int)i10 > 255U) {
 3824              		.loc 1 1919 9 is_stmt 1 view .LVU1511
 3825              		.loc 1 1919 12 is_stmt 0 view .LVU1512
 3826 0640 FF2B     		cmp	r3, #255
 3827 0642 00D9     		bls	.L289
1920:Src/maze_solve.c ****           i10 = 255;
 3828              		.loc 1 1920 15 view .LVU1513
 3829 0644 FF23     		movs	r3, #255
 3830              	.LVL571:
 3831              	.L289:
1921:Src/maze_solve.c ****         }
1922:Src/maze_solve.c **** 
1923:Src/maze_solve.c ****         q0 = *current_x;
 3832              		.loc 1 1923 9 is_stmt 1 view .LVU1514
 3833              		.loc 1 1923 14 is_stmt 0 view .LVU1515
 3834 0646 2278     		ldrb	r2, [r4]	@ zero_extendqisi2
 3835              	.LVL572:
1924:Src/maze_solve.c ****         qY = q0 - 1U;
 3836              		.loc 1 1924 9 is_stmt 1 view .LVU1516
 3837              		.loc 1 1924 12 is_stmt 0 view .LVU1517
 3838 0648 511E     		subs	r1, r2, #1
 3839              	.LVL573:
1925:Src/maze_solve.c ****         if (qY > (unsigned int)q0) {
 3840              		.loc 1 1925 9 is_stmt 1 view .LVU1518
 3841              		.loc 1 1925 12 is_stmt 0 view .LVU1519
 3842 064a 8A42     		cmp	r2, r1
 3843 064c 00D2     		bcs	.L290
1926:Src/maze_solve.c ****           qY = 0U;
 3844              		.loc 1 1926 14 view .LVU1520
 3845 064e 0021     		movs	r1, #0
 3846              	.LVL574:
 3847              	.L290:
1927:Src/maze_solve.c ****         }
1928:Src/maze_solve.c **** 
1929:Src/maze_solve.c ****         q0 = *current_x;
 3848              		.loc 1 1929 9 is_stmt 1 view .LVU1521
1930:Src/maze_solve.c ****         b_qY = q0 - 1U;
 3849              		.loc 1 1930 9 view .LVU1522
1931:Src/maze_solve.c ****         if (b_qY > (unsigned int)q0) {
 3850              		.loc 1 1931 9 view .LVU1523
1932:Src/maze_solve.c ****           b_qY = 0U;
1933:Src/maze_solve.c ****         }
1934:Src/maze_solve.c **** 
1935:Src/maze_solve.c ****         maze_wall_search[(*current_y + (((int)qY - 1) << 5)) - 1] = (unsigned char)
 3851              		.loc 1 1935 9 view .LVU1524
1936:Src/maze_solve.c ****           (maze_wall_search[(*current_y + (((int)b_qY - 1) << 5)) - 1] | (unsigned
 3852              		.loc 1 1936 30 is_stmt 0 view .LVU1525
 3853 0650 99F80020 		ldrb	r2, [r9]	@ zero_extendqisi2
 3854              	.LVL575:
 3855              		.loc 1 1936 55 view .LVU1526
 3856 0654 0139     		subs	r1, r1, #1
ARM GAS  C:\Temp\cc4yiJU0.s 			page 115


 3857              	.LVL576:
 3858              		.loc 1 1936 41 view .LVU1527
 3859 0656 02EB4112 		add	r2, r2, r1, lsl #5
 3860              		.loc 1 1936 28 view .LVU1528
 3861 065a 013A     		subs	r2, r2, #1
 3862 065c 1BF80210 		ldrb	r1, [fp, r2]	@ zero_extendqisi2
 3863              	.LVL577:
 3864              		.loc 1 1936 74 view .LVU1529
 3865 0660 DBB2     		uxtb	r3, r3
 3866              	.LVL578:
1935:Src/maze_solve.c ****           (maze_wall_search[(*current_y + (((int)b_qY - 1) << 5)) - 1] | (unsigned
 3867              		.loc 1 1935 69 view .LVU1530
 3868 0662 0B43     		orrs	r3, r3, r1
1935:Src/maze_solve.c ****           (maze_wall_search[(*current_y + (((int)b_qY - 1) << 5)) - 1] | (unsigned
 3869              		.loc 1 1935 67 view .LVU1531
 3870 0664 0BF80230 		strb	r3, [fp, r2]
 3871              	.LVL579:
1935:Src/maze_solve.c ****           (maze_wall_search[(*current_y + (((int)b_qY - 1) << 5)) - 1] | (unsigned
 3872              		.loc 1 1935 67 view .LVU1532
 3873 0668 0AE1     		b	.L224
 3874              	.LVL580:
 3875              	.L292:
1937:Src/maze_solve.c ****             char)i10);
1938:Src/maze_solve.c ****       }
1939:Src/maze_solve.c ****   }
1940:Src/maze_solve.c ****   goal_after_flg = other; //ゴール直後フラグを直後以外に
1941:Src/maze_solve.c **** 
1942:Src/maze_solve.c ****     /* 現在位置がゴールか判定 */
1943:Src/maze_solve.c ****     for (q0 = 0; q0 < i9; q0++) {
 3876              		.loc 1 1943 27 is_stmt 1 discriminator 2 view .LVU1533
 3877              		.loc 1 1943 29 is_stmt 0 discriminator 2 view .LVU1534
 3878 066a 0133     		adds	r3, r3, #1
 3879              	.LVL581:
 3880              	.L291:
 3881              		.loc 1 1943 18 is_stmt 1 discriminator 1 view .LVU1535
 3882              		.loc 1 1943 5 is_stmt 0 discriminator 1 view .LVU1536
 3883 066c BB42     		cmp	r3, r7
 3884 066e 0CDA     		bge	.L443
1944:Src/maze_solve.c ****       if ((*current_x == maze_goal[q0]) && (*current_y == maze_goal[q0 + 9])) {
 3885              		.loc 1 1944 7 is_stmt 1 view .LVU1537
 3886              		.loc 1 1944 12 is_stmt 0 view .LVU1538
 3887 0670 2178     		ldrb	r1, [r4]	@ zero_extendqisi2
 3888              		.loc 1 1944 35 view .LVU1539
 3889 0672 F25C     		ldrb	r2, [r6, r3]	@ zero_extendqisi2
 3890              		.loc 1 1944 10 view .LVU1540
 3891 0674 9142     		cmp	r1, r2
 3892 0676 F8D1     		bne	.L292
 3893              		.loc 1 1944 45 discriminator 1 view .LVU1541
 3894 0678 99F80010 		ldrb	r1, [r9]	@ zero_extendqisi2
 3895              		.loc 1 1944 68 discriminator 1 view .LVU1542
 3896 067c F218     		adds	r2, r6, r3
 3897 067e 527A     		ldrb	r2, [r2, #9]	@ zero_extendqisi2
 3898              		.loc 1 1944 41 discriminator 1 view .LVU1543
 3899 0680 9142     		cmp	r1, r2
 3900 0682 F2D1     		bne	.L292
1945:Src/maze_solve.c ****         goal_flag = 1U;
 3901              		.loc 1 1945 19 view .LVU1544
ARM GAS  C:\Temp\cc4yiJU0.s 			page 116


 3902 0684 0122     		movs	r2, #1
 3903 0686 0692     		str	r2, [sp, #24]
 3904              	.LVL582:
 3905              		.loc 1 1945 19 view .LVU1545
 3906 0688 EFE7     		b	.L292
 3907              	.LVL583:
 3908              	.L443:
 3909              		.loc 1 1945 19 view .LVU1546
 3910 068a 0797     		str	r7, [sp, #28]
1946:Src/maze_solve.c ****       }
1947:Src/maze_solve.c ****     }
1948:Src/maze_solve.c **** 
1949:Src/maze_solve.c ****     if (goal_flag == 1) {
 3911              		.loc 1 1949 5 is_stmt 1 view .LVU1547
 3912              		.loc 1 1949 8 is_stmt 0 view .LVU1548
 3913 068c 069B     		ldr	r3, [sp, #24]
 3914              	.LVL584:
 3915              		.loc 1 1949 8 view .LVU1549
 3916 068e 002B     		cmp	r3, #0
 3917 0690 2FD1     		bne	.L444
1950:Src/maze_solve.c ****       exitg1 = 1;
1951:Src/maze_solve.c ****       half_deceleration();
1952:Src/maze_solve.c **** 
1953:Src/maze_solve.c ****       //ゴール時LEDを一回点滅
1954:Src/maze_solve.c ****       Sensor_StopADC();
1955:Src/maze_solve.c ****       HAL_GPIO_WritePin(GPIOA,LED2_Pin|LED3_Pin|LED4_Pin|LED5_Pin, GPIO_PIN_SET);
1956:Src/maze_solve.c ****       HAL_Delay(700);
1957:Src/maze_solve.c ****       HAL_GPIO_WritePin(GPIOA,LED2_Pin|LED3_Pin|LED4_Pin|LED5_Pin, GPIO_PIN_RESET);
1958:Src/maze_solve.c ****       HAL_Delay(300);
1959:Src/maze_solve.c ****       Sensor_Initialize();
1960:Src/maze_solve.c **** 
1961:Src/maze_solve.c **** 
1962:Src/maze_solve.c ****     } else {
1963:Src/maze_solve.c ****       /*  等高線MAP生成 */
1964:Src/maze_solve.c ****       /*  [contour_map,max_length] = make_map2(maze_row_size,maze_col_size,maze_goal,maze_wall); */
1965:Src/maze_solve.c ****       make_map_find(g_direction, wall, maze_row_size, maze_col_size, maze_goal,
 3918              		.loc 1 1965 7 is_stmt 1 view .LVU1550
 3919 0692 0DF13F03 		add	r3, sp, #63
 3920 0696 0493     		str	r3, [sp, #16]
 3921 0698 10AB     		add	r3, sp, #64
 3922 069a 0393     		str	r3, [sp, #12]
 3923 069c CDF80880 		str	r8, [sp, #8]
 3924 06a0 0D9B     		ldr	r3, [sp, #52]
 3925 06a2 0193     		str	r3, [sp, #4]
 3926 06a4 0096     		str	r6, [sp]
 3927 06a6 0A9B     		ldr	r3, [sp, #40]
 3928 06a8 099A     		ldr	r2, [sp, #36]
 3929 06aa 0899     		ldr	r1, [sp, #32]
 3930 06ac 2846     		mov	r0, r5
 3931 06ae FFF7FEFF 		bl	make_map_find
 3932              	.LVL585:
1966:Src/maze_solve.c ****                     l_goal_size, maze_wall, cmap, &little);
1967:Src/maze_solve.c **** 
1968:Src/maze_solve.c ****       /*  進行方向選定 */
1969:Src/maze_solve.c ****       /* 優先順位　北⇒東⇒南⇒西 */
1970:Src/maze_solve.c ****       /*  入力 現在地x,y,壁情報,等高線map,最大経路長 */
1971:Src/maze_solve.c ****       /*  出力 次の進行方角 */
ARM GAS  C:\Temp\cc4yiJU0.s 			page 117


1972:Src/maze_solve.c ****       /*  get_nextdir2 等高線mapから次に向かう方向を選択 */
1973:Src/maze_solve.c ****       /* 出力の初期化 */
1974:Src/maze_solve.c ****       next_dir = 0U;
 3933              		.loc 1 1974 7 view .LVU1551
1975:Src/maze_solve.c **** 
1976:Src/maze_solve.c ****       /*             %%進行方向選定 */
1977:Src/maze_solve.c ****       /* 優先順位　北⇒東⇒南⇒西 */
1978:Src/maze_solve.c ****       /* 北側の壁のありなし判定 */
1979:Src/maze_solve.c ****       k = g_direction->contents.North;
 3934              		.loc 1 1979 7 view .LVU1552
 3935              		.loc 1 1979 9 is_stmt 0 view .LVU1553
 3936 06b2 2A78     		ldrb	r2, [r5]	@ zero_extendqisi2
 3937              	.LVL586:
1980:Src/maze_solve.c ****       if (k <= 7) {
 3938              		.loc 1 1980 7 is_stmt 1 view .LVU1554
 3939              		.loc 1 1980 10 is_stmt 0 view .LVU1555
 3940 06b4 072A     		cmp	r2, #7
 3941 06b6 3BD8     		bhi	.L407
1981:Src/maze_solve.c ****         p_k = (unsigned char)(1 << k);
 3942              		.loc 1 1981 9 is_stmt 1 view .LVU1556
 3943              		.loc 1 1981 33 is_stmt 0 view .LVU1557
 3944 06b8 0123     		movs	r3, #1
 3945 06ba 9340     		lsls	r3, r3, r2
 3946 06bc DBB2     		uxtb	r3, r3
 3947              	.LVL587:
 3948              	.L295:
1982:Src/maze_solve.c ****       } else {
1983:Src/maze_solve.c ****         p_k = 0;
1984:Src/maze_solve.c ****       }
1985:Src/maze_solve.c **** 
1986:Src/maze_solve.c ****       if ((maze_wall[i12] & p_k) == 0) {
 3949              		.loc 1 1986 7 is_stmt 1 view .LVU1558
 3950              		.loc 1 1986 21 is_stmt 0 view .LVU1559
 3951 06be B24A     		ldr	r2, .L463
 3952              	.LVL588:
 3953              		.loc 1 1986 21 view .LVU1560
 3954 06c0 1268     		ldr	r2, [r2]
 3955 06c2 18F80220 		ldrb	r2, [r8, r2]	@ zero_extendqisi2
 3956              		.loc 1 1986 10 view .LVU1561
 3957 06c6 1A42     		tst	r2, r3
 3958 06c8 34D1     		bne	.L408
1987:Src/maze_solve.c ****         /* 北側の等高線mapが閾値より低ければ、 */
1988:Src/maze_solve.c ****         i10 = (int)(*current_y + 1U);
 3959              		.loc 1 1988 9 is_stmt 1 view .LVU1562
 3960              		.loc 1 1988 21 is_stmt 0 view .LVU1563
 3961 06ca 99F80030 		ldrb	r3, [r9]	@ zero_extendqisi2
 3962              	.LVL589:
 3963              		.loc 1 1988 32 view .LVU1564
 3964 06ce 0133     		adds	r3, r3, #1
1989:Src/maze_solve.c ****         if ((unsigned int)i10 > 255U) {
 3965              		.loc 1 1989 9 is_stmt 1 view .LVU1565
 3966              		.loc 1 1989 12 is_stmt 0 view .LVU1566
 3967 06d0 FF2B     		cmp	r3, #255
 3968 06d2 00D9     		bls	.L297
 3969              	.LVL590:
1990:Src/maze_solve.c ****           i10 = 255;
 3970              		.loc 1 1990 15 view .LVU1567
ARM GAS  C:\Temp\cc4yiJU0.s 			page 118


 3971 06d4 FF23     		movs	r3, #255
 3972              	.LVL591:
 3973              	.L297:
1991:Src/maze_solve.c ****         }
1992:Src/maze_solve.c **** 
1993:Src/maze_solve.c ****         if (cmap[(i10 + i11) - 1] < little) {
 3974              		.loc 1 1993 9 is_stmt 1 view .LVU1568
 3975              		.loc 1 1993 23 is_stmt 0 view .LVU1569
 3976 06d6 AD4A     		ldr	r2, .L463+4
 3977 06d8 1268     		ldr	r2, [r2]
 3978 06da 1344     		add	r3, r3, r2
 3979              		.loc 1 1993 30 view .LVU1570
 3980 06dc 013B     		subs	r3, r3, #1
 3981              		.loc 1 1993 17 view .LVU1571
 3982 06de 10AA     		add	r2, sp, #64
 3983 06e0 D35C     		ldrb	r3, [r2, r3]	@ zero_extendqisi2
 3984              		.loc 1 1993 35 view .LVU1572
 3985 06e2 9DF83F20 		ldrb	r2, [sp, #63]	@ zero_extendqisi2
 3986              		.loc 1 1993 12 view .LVU1573
 3987 06e6 9342     		cmp	r3, r2
 3988 06e8 31D2     		bcs	.L410
1994:Src/maze_solve.c ****           /* 閾値を北側の等高map値に変更 */
1995:Src/maze_solve.c ****           i10 = (int)(*current_y + 1U);
 3989              		.loc 1 1995 11 is_stmt 1 view .LVU1574
1996:Src/maze_solve.c ****           if ((unsigned int)i10 > 255U) {
 3990              		.loc 1 1996 11 view .LVU1575
1997:Src/maze_solve.c ****             i10 = 255;
1998:Src/maze_solve.c ****           }
1999:Src/maze_solve.c **** 
2000:Src/maze_solve.c ****           little = cmap[(i10 + i11) - 1];
 3991              		.loc 1 2000 11 view .LVU1576
 3992              		.loc 1 2000 18 is_stmt 0 view .LVU1577
 3993 06ea 8DF83F30 		strb	r3, [sp, #63]
 3994              	.LVL592:
2001:Src/maze_solve.c **** 
2002:Src/maze_solve.c ****           /* 北側を進行方向に変更y */
2003:Src/maze_solve.c ****           next_dir = g_direction->contents.North;
 3995              		.loc 1 2003 11 is_stmt 1 view .LVU1578
 3996              		.loc 1 2003 20 is_stmt 0 view .LVU1579
 3997 06ee 2A78     		ldrb	r2, [r5]	@ zero_extendqisi2
 3998              	.LVL593:
 3999              		.loc 1 2003 20 view .LVU1580
 4000 06f0 21E0     		b	.L296
 4001              	.LVL594:
 4002              	.L444:
1950:Src/maze_solve.c ****       half_deceleration();
 4003              		.loc 1 1950 7 is_stmt 1 view .LVU1581
1951:Src/maze_solve.c **** 
 4004              		.loc 1 1951 7 view .LVU1582
 4005 06f2 FFF7FEFF 		bl	half_deceleration
 4006              	.LVL595:
1954:Src/maze_solve.c ****       HAL_GPIO_WritePin(GPIOA,LED2_Pin|LED3_Pin|LED4_Pin|LED5_Pin, GPIO_PIN_SET);
 4007              		.loc 1 1954 7 view .LVU1583
 4008 06f6 FFF7FEFF 		bl	Sensor_StopADC
 4009              	.LVL596:
1955:Src/maze_solve.c ****       HAL_Delay(700);
 4010              		.loc 1 1955 7 view .LVU1584
ARM GAS  C:\Temp\cc4yiJU0.s 			page 119


 4011 06fa A54C     		ldr	r4, .L463+8
 4012 06fc 0122     		movs	r2, #1
 4013 06fe 4FF46451 		mov	r1, #14592
 4014 0702 2046     		mov	r0, r4
 4015 0704 FFF7FEFF 		bl	HAL_GPIO_WritePin
 4016              	.LVL597:
1956:Src/maze_solve.c ****       HAL_GPIO_WritePin(GPIOA,LED2_Pin|LED3_Pin|LED4_Pin|LED5_Pin, GPIO_PIN_RESET);
 4017              		.loc 1 1956 7 view .LVU1585
 4018 0708 4FF42F70 		mov	r0, #700
 4019 070c FFF7FEFF 		bl	HAL_Delay
 4020              	.LVL598:
1957:Src/maze_solve.c ****       HAL_Delay(300);
 4021              		.loc 1 1957 7 view .LVU1586
 4022 0710 0022     		movs	r2, #0
 4023 0712 4FF46451 		mov	r1, #14592
 4024 0716 2046     		mov	r0, r4
 4025 0718 FFF7FEFF 		bl	HAL_GPIO_WritePin
 4026              	.LVL599:
1958:Src/maze_solve.c ****       Sensor_Initialize();
 4027              		.loc 1 1958 7 view .LVU1587
 4028 071c 4FF49670 		mov	r0, #300
 4029 0720 FFF7FEFF 		bl	HAL_Delay
 4030              	.LVL600:
1959:Src/maze_solve.c **** 
 4031              		.loc 1 1959 7 view .LVU1588
 4032 0724 FFF7FEFF 		bl	Sensor_Initialize
 4033              	.LVL601:
2004:Src/maze_solve.c ****         }
2005:Src/maze_solve.c ****       }
2006:Src/maze_solve.c **** 
2007:Src/maze_solve.c ****       /* 東側 */
2008:Src/maze_solve.c ****       k = g_direction->contents.East;
2009:Src/maze_solve.c ****       if (k <= 7) {
2010:Src/maze_solve.c ****         s_k = (unsigned char)(1 << k);
2011:Src/maze_solve.c ****       } else {
2012:Src/maze_solve.c ****         s_k = 0;
2013:Src/maze_solve.c ****       }
2014:Src/maze_solve.c **** 
2015:Src/maze_solve.c ****       if ((maze_wall[(*current_y + ((*current_x - 1) << 5)) - 1] & s_k) == 0) {
2016:Src/maze_solve.c ****         i10 = (int)(*current_x + 1U);
2017:Src/maze_solve.c ****         if ((unsigned int)i10 > 255U) {
2018:Src/maze_solve.c ****           i10 = 255;
2019:Src/maze_solve.c ****         }
2020:Src/maze_solve.c **** 
2021:Src/maze_solve.c ****         if (cmap[(*current_y + ((i10 - 1) << 5)) - 1] < little) {
2022:Src/maze_solve.c ****           i10 = (int)(*current_x + 1U);
2023:Src/maze_solve.c ****           if ((unsigned int)i10 > 255U) {
2024:Src/maze_solve.c ****             i10 = 255;
2025:Src/maze_solve.c ****           }
2026:Src/maze_solve.c **** 
2027:Src/maze_solve.c ****           little = cmap[(*current_y + ((i10 - 1) << 5)) - 1];
2028:Src/maze_solve.c ****           next_dir = g_direction->contents.East;
2029:Src/maze_solve.c ****         }
2030:Src/maze_solve.c ****       }
2031:Src/maze_solve.c **** 
2032:Src/maze_solve.c ****       /* 南側 */
2033:Src/maze_solve.c ****       k = g_direction->contents.South;
ARM GAS  C:\Temp\cc4yiJU0.s 			page 120


2034:Src/maze_solve.c ****       if (k <= 7) {
2035:Src/maze_solve.c ****         t_k = (unsigned char)(1 << k);
2036:Src/maze_solve.c ****       } else {
2037:Src/maze_solve.c ****         t_k = 0;
2038:Src/maze_solve.c ****       }
2039:Src/maze_solve.c **** 
2040:Src/maze_solve.c ****       if ((maze_wall[(*current_y + ((*current_x - 1) << 5)) - 1] & t_k) == 0) {
2041:Src/maze_solve.c ****         q0 = *current_y;
2042:Src/maze_solve.c ****         qY = q0 - 1U;
2043:Src/maze_solve.c ****         if (qY > (unsigned int)q0) {
2044:Src/maze_solve.c ****           qY = 0U;
2045:Src/maze_solve.c ****         }
2046:Src/maze_solve.c **** 
2047:Src/maze_solve.c ****         if (cmap[((int)qY + i11) - 1] < little) {
2048:Src/maze_solve.c ****           q0 = *current_y;
2049:Src/maze_solve.c ****           qY = q0 - 1U;
2050:Src/maze_solve.c ****           if (qY > (unsigned int)q0) {
2051:Src/maze_solve.c ****             qY = 0U;
2052:Src/maze_solve.c ****           }
2053:Src/maze_solve.c **** 
2054:Src/maze_solve.c ****           little = cmap[((int)qY + i11) - 1];
2055:Src/maze_solve.c ****           next_dir = g_direction->contents.South;
2056:Src/maze_solve.c ****         }
2057:Src/maze_solve.c ****       }
2058:Src/maze_solve.c **** 
2059:Src/maze_solve.c ****       /* 西側 */
2060:Src/maze_solve.c ****       k = g_direction->contents.West;
2061:Src/maze_solve.c ****       if (k <= 7) {
2062:Src/maze_solve.c ****         u_k = (unsigned char)(1 << k);
2063:Src/maze_solve.c ****       } else {
2064:Src/maze_solve.c ****         u_k = 0;
2065:Src/maze_solve.c ****       }
2066:Src/maze_solve.c **** 
2067:Src/maze_solve.c ****       if ((maze_wall[(*current_y + ((*current_x - 1) << 5)) - 1] & u_k) == 0) {
2068:Src/maze_solve.c ****         q0 = *current_x;
2069:Src/maze_solve.c ****         qY = q0 - 1U;
2070:Src/maze_solve.c ****         if (qY > (unsigned int)q0) {
2071:Src/maze_solve.c ****           qY = 0U;
2072:Src/maze_solve.c ****         }
2073:Src/maze_solve.c **** 
2074:Src/maze_solve.c ****         if (cmap[(*current_y + (((int)qY - 1) << 5)) - 1] < little) {
2075:Src/maze_solve.c ****           /*  little = contour_map(current_y,current_x-1); */
2076:Src/maze_solve.c ****           next_dir = g_direction->contents.West;
2077:Src/maze_solve.c ****         }
2078:Src/maze_solve.c ****       }
2079:Src/maze_solve.c **** 
2080:Src/maze_solve.c ****       /*  現在方向と進行方向に応じた処理 */
2081:Src/maze_solve.c ****       q0 = (int)(4U + next_dir);
2082:Src/maze_solve.c ****       if ((unsigned int)q0 > 255U) {
2083:Src/maze_solve.c ****         q0 = 255;
2084:Src/maze_solve.c ****       }
2085:Src/maze_solve.c **** 
2086:Src/maze_solve.c ****       qY = (unsigned int)q0 - *current_dir;
2087:Src/maze_solve.c ****       if (qY > (unsigned int)q0) {
2088:Src/maze_solve.c ****         qY = 0U;
2089:Src/maze_solve.c ****       }
2090:Src/maze_solve.c **** 
ARM GAS  C:\Temp\cc4yiJU0.s 			page 121


2091:Src/maze_solve.c ****       k = (unsigned char)((int)qY % 4);
2092:Src/maze_solve.c ****       next_dir = l_direction->contents.front;
2093:Src/maze_solve.c ****       little = l_direction->contents.right;
2094:Src/maze_solve.c ****       varargin_3 = l_direction->contents.back;
2095:Src/maze_solve.c ****       varargin_4 = l_direction->contents.left;
2096:Src/maze_solve.c ****       if (next_dir == k) {
2097:Src/maze_solve.c ****         q0 = 0;
2098:Src/maze_solve.c ****       } else if (little == k) {
2099:Src/maze_solve.c ****         q0 = 1;
2100:Src/maze_solve.c ****       } else if (varargin_3 == k) {
2101:Src/maze_solve.c ****         q0 = 2;
2102:Src/maze_solve.c ****       } else if (varargin_4 == k) {
2103:Src/maze_solve.c ****         q0 = 3;
2104:Src/maze_solve.c ****       } else {
2105:Src/maze_solve.c ****         q0 = -1;
2106:Src/maze_solve.c ****       }
2107:Src/maze_solve.c **** 
2108:Src/maze_solve.c ****       switch (q0) {
2109:Src/maze_solve.c ****        case 0:	//前進時
2110:Src/maze_solve.c ****     	move_front();
2111:Src/maze_solve.c ****         /* 入力 現在位置x,y,現在方向 */
2112:Src/maze_solve.c ****         /* 出力 現在位置x,y */
2113:Src/maze_solve.c ****         /*  move_step 一マス前進する関数 */
2114:Src/maze_solve.c ****         /* 北に一マス */
2115:Src/maze_solve.c ****         if (*current_dir == g_direction->contents.North) {
2116:Src/maze_solve.c ****           i10 = (int)(*current_y + 1U);
2117:Src/maze_solve.c ****           if ((unsigned int)i10 > 255U) {
2118:Src/maze_solve.c ****             i10 = 255;
2119:Src/maze_solve.c ****           }
2120:Src/maze_solve.c **** 
2121:Src/maze_solve.c ****           *current_y = (unsigned char)i10;
2122:Src/maze_solve.c **** 
2123:Src/maze_solve.c ****           /* disp("north_step") */
2124:Src/maze_solve.c ****         }
2125:Src/maze_solve.c **** 
2126:Src/maze_solve.c ****         /* 東に一マス */
2127:Src/maze_solve.c ****         if (*current_dir == g_direction->contents.East) {
2128:Src/maze_solve.c ****           i10 = (int)(*current_x + 1U);
2129:Src/maze_solve.c ****           if ((unsigned int)i10 > 255U) {
2130:Src/maze_solve.c ****             i10 = 255;
2131:Src/maze_solve.c ****           }
2132:Src/maze_solve.c **** 
2133:Src/maze_solve.c ****           *current_x = (unsigned char)i10;
2134:Src/maze_solve.c **** 
2135:Src/maze_solve.c ****           /* disp("east_step") */
2136:Src/maze_solve.c ****         }
2137:Src/maze_solve.c **** 
2138:Src/maze_solve.c ****         /* 南に一マス */
2139:Src/maze_solve.c ****         if (*current_dir == g_direction->contents.South) {
2140:Src/maze_solve.c ****           qY = *current_y - 1U;
2141:Src/maze_solve.c ****           if (qY > *current_y) {
2142:Src/maze_solve.c ****             qY = 0U;
2143:Src/maze_solve.c ****           }
2144:Src/maze_solve.c **** 
2145:Src/maze_solve.c ****           *current_y = (unsigned char)qY;
2146:Src/maze_solve.c **** 
2147:Src/maze_solve.c ****           /* disp("south_step") */
ARM GAS  C:\Temp\cc4yiJU0.s 			page 122


2148:Src/maze_solve.c ****         }
2149:Src/maze_solve.c **** 
2150:Src/maze_solve.c ****         /* 西に一マス */
2151:Src/maze_solve.c ****         if (*current_dir == g_direction->contents.West) {
2152:Src/maze_solve.c ****           qY = *current_x - 1U;
2153:Src/maze_solve.c ****           if (qY > *current_x) {
2154:Src/maze_solve.c ****             qY = 0U;
2155:Src/maze_solve.c ****           }
2156:Src/maze_solve.c **** 
2157:Src/maze_solve.c ****           *current_x = (unsigned char)qY;
2158:Src/maze_solve.c **** 
2159:Src/maze_solve.c ****           /* disp("west_step") */
2160:Src/maze_solve.c ****         }
2161:Src/maze_solve.c **** 
2162:Src/maze_solve.c ****         /* disp("front") */
2163:Src/maze_solve.c ****         break;
2164:Src/maze_solve.c **** 
2165:Src/maze_solve.c ****        case 1: //右折時
2166:Src/maze_solve.c ****     	move_right();
2167:Src/maze_solve.c ****         /* 入力 現在方向 */
2168:Src/maze_solve.c ****         /* 出力 現在方向 */
2169:Src/maze_solve.c ****         /*  turn_clk_90deg 時計周りに90度ターンする関数  */
2170:Src/maze_solve.c ****         i10 = (int)(4U + *current_dir);
2171:Src/maze_solve.c ****         if ((unsigned int)i10 > 255U) {
2172:Src/maze_solve.c ****           i10 = 255;
2173:Src/maze_solve.c ****         }
2174:Src/maze_solve.c **** 
2175:Src/maze_solve.c ****         i10++;
2176:Src/maze_solve.c ****         if ((unsigned int)i10 > 255U) {
2177:Src/maze_solve.c ****           i10 = 255;
2178:Src/maze_solve.c ****         }
2179:Src/maze_solve.c **** 
2180:Src/maze_solve.c ****         *current_dir = (unsigned char)(i10 % 4);
2181:Src/maze_solve.c **** 
2182:Src/maze_solve.c ****         /* 入力 現在位置x,y,現在方向 */
2183:Src/maze_solve.c ****         /* 出力 現在位置x,y */
2184:Src/maze_solve.c ****         /*  move_step 一マス前進する関数 */
2185:Src/maze_solve.c ****         /* 北に一マス */
2186:Src/maze_solve.c ****         if (*current_dir == g_direction->contents.North) {
2187:Src/maze_solve.c ****           i10 = (int)(*current_y + 1U);
2188:Src/maze_solve.c ****           if ((unsigned int)i10 > 255U) {
2189:Src/maze_solve.c ****             i10 = 255;
2190:Src/maze_solve.c ****           }
2191:Src/maze_solve.c **** 
2192:Src/maze_solve.c ****           *current_y = (unsigned char)i10;
2193:Src/maze_solve.c **** 
2194:Src/maze_solve.c ****           /* disp("north_step") */
2195:Src/maze_solve.c ****         }
2196:Src/maze_solve.c **** 
2197:Src/maze_solve.c ****         /* 東に一マス */
2198:Src/maze_solve.c ****         if (*current_dir == g_direction->contents.East) {
2199:Src/maze_solve.c ****           i10 = (int)(*current_x + 1U);
2200:Src/maze_solve.c ****           if ((unsigned int)i10 > 255U) {
2201:Src/maze_solve.c ****             i10 = 255;
2202:Src/maze_solve.c ****           }
2203:Src/maze_solve.c **** 
2204:Src/maze_solve.c ****           *current_x = (unsigned char)i10;
ARM GAS  C:\Temp\cc4yiJU0.s 			page 123


2205:Src/maze_solve.c **** 
2206:Src/maze_solve.c ****           /* disp("east_step") */
2207:Src/maze_solve.c ****         }
2208:Src/maze_solve.c **** 
2209:Src/maze_solve.c ****         /* 南に一マス */
2210:Src/maze_solve.c ****         if (*current_dir == g_direction->contents.South) {
2211:Src/maze_solve.c ****           qY = *current_y - 1U;
2212:Src/maze_solve.c ****           if (qY > *current_y) {
2213:Src/maze_solve.c ****             qY = 0U;
2214:Src/maze_solve.c ****           }
2215:Src/maze_solve.c **** 
2216:Src/maze_solve.c ****           *current_y = (unsigned char)qY;
2217:Src/maze_solve.c **** 
2218:Src/maze_solve.c ****           /* disp("south_step") */
2219:Src/maze_solve.c ****         }
2220:Src/maze_solve.c **** 
2221:Src/maze_solve.c ****         /* 西に一マス */
2222:Src/maze_solve.c ****         if (*current_dir == g_direction->contents.West) {
2223:Src/maze_solve.c ****           qY = *current_x - 1U;
2224:Src/maze_solve.c ****           if (qY > *current_x) {
2225:Src/maze_solve.c ****             qY = 0U;
2226:Src/maze_solve.c ****           }
2227:Src/maze_solve.c **** 
2228:Src/maze_solve.c ****           *current_x = (unsigned char)qY;
2229:Src/maze_solve.c **** 
2230:Src/maze_solve.c ****           /* disp("west_step") */
2231:Src/maze_solve.c ****         }
2232:Src/maze_solve.c **** 
2233:Src/maze_solve.c ****         /* disp("right") */
2234:Src/maze_solve.c ****         break;
2235:Src/maze_solve.c **** 
2236:Src/maze_solve.c ****        case 2:	//バック
2237:Src/maze_solve.c ****     	move_back();
2238:Src/maze_solve.c ****         /* 入力 現在方向 */
2239:Src/maze_solve.c ****         /* 出力 現在方向 */
2240:Src/maze_solve.c ****         /*  turn_180deg 180度ターンする関数 */
2241:Src/maze_solve.c ****         i10 = (int)(4U + *current_dir);
2242:Src/maze_solve.c ****         if ((unsigned int)i10 > 255U) {
2243:Src/maze_solve.c ****           i10 = 255;
2244:Src/maze_solve.c ****         }
2245:Src/maze_solve.c **** 
2246:Src/maze_solve.c ****         *current_dir = (unsigned char)((i10 - 2) % 4);
2247:Src/maze_solve.c **** 
2248:Src/maze_solve.c ****         /* 入力 現在位置x,y,現在方向 */
2249:Src/maze_solve.c ****         /* 出力 現在位置x,y */
2250:Src/maze_solve.c ****         /*  move_step 一マス前進する関数 */
2251:Src/maze_solve.c ****         /* 北に一マス */
2252:Src/maze_solve.c ****         if (*current_dir == g_direction->contents.North) {
2253:Src/maze_solve.c ****           i10 = (int)(*current_y + 1U);
2254:Src/maze_solve.c ****           if ((unsigned int)i10 > 255U) {
2255:Src/maze_solve.c ****             i10 = 255;
2256:Src/maze_solve.c ****           }
2257:Src/maze_solve.c **** 
2258:Src/maze_solve.c ****           *current_y = (unsigned char)i10;
2259:Src/maze_solve.c **** 
2260:Src/maze_solve.c ****           /* disp("north_step") */
2261:Src/maze_solve.c ****         }
ARM GAS  C:\Temp\cc4yiJU0.s 			page 124


2262:Src/maze_solve.c **** 
2263:Src/maze_solve.c ****         /* 東に一マス */
2264:Src/maze_solve.c ****         if (*current_dir == g_direction->contents.East) {
2265:Src/maze_solve.c ****           i10 = (int)(*current_x + 1U);
2266:Src/maze_solve.c ****           if ((unsigned int)i10 > 255U) {
2267:Src/maze_solve.c ****             i10 = 255;
2268:Src/maze_solve.c ****           }
2269:Src/maze_solve.c **** 
2270:Src/maze_solve.c ****           *current_x = (unsigned char)i10;
2271:Src/maze_solve.c **** 
2272:Src/maze_solve.c ****           /* disp("east_step") */
2273:Src/maze_solve.c ****         }
2274:Src/maze_solve.c **** 
2275:Src/maze_solve.c ****         /* 南に一マス */
2276:Src/maze_solve.c ****         if (*current_dir == g_direction->contents.South) {
2277:Src/maze_solve.c ****           qY = *current_y - 1U;
2278:Src/maze_solve.c ****           if (qY > *current_y) {
2279:Src/maze_solve.c ****             qY = 0U;
2280:Src/maze_solve.c ****           }
2281:Src/maze_solve.c **** 
2282:Src/maze_solve.c ****           *current_y = (unsigned char)qY;
2283:Src/maze_solve.c **** 
2284:Src/maze_solve.c ****           /* disp("south_step") */
2285:Src/maze_solve.c ****         }
2286:Src/maze_solve.c **** 
2287:Src/maze_solve.c ****         /* 西に一マス */
2288:Src/maze_solve.c ****         if (*current_dir == g_direction->contents.West) {
2289:Src/maze_solve.c ****           qY = *current_x - 1U;
2290:Src/maze_solve.c ****           if (qY > *current_x) {
2291:Src/maze_solve.c ****             qY = 0U;
2292:Src/maze_solve.c ****           }
2293:Src/maze_solve.c **** 
2294:Src/maze_solve.c ****           *current_x = (unsigned char)qY;
2295:Src/maze_solve.c **** 
2296:Src/maze_solve.c ****           /* disp("west_step") */
2297:Src/maze_solve.c ****         }
2298:Src/maze_solve.c **** 
2299:Src/maze_solve.c ****         /* disp("back") */
2300:Src/maze_solve.c ****         break;
2301:Src/maze_solve.c **** 
2302:Src/maze_solve.c ****        case 3://左折時
2303:Src/maze_solve.c ****     	move_left();
2304:Src/maze_solve.c ****         /* 入力　現在方向 */
2305:Src/maze_solve.c ****         /* 出力　現在方向 */
2306:Src/maze_solve.c ****         /*  turn_conclk_90deg 反時計周りに90度回る関数  */
2307:Src/maze_solve.c ****         i10 = (int)(4U + *current_dir);
2308:Src/maze_solve.c ****         if ((unsigned int)i10 > 255U) {
2309:Src/maze_solve.c ****           i10 = 255;
2310:Src/maze_solve.c ****         }
2311:Src/maze_solve.c **** 
2312:Src/maze_solve.c ****         *current_dir = (unsigned char)((i10 - 1) % 4);
2313:Src/maze_solve.c **** 
2314:Src/maze_solve.c ****         /* 入力 現在位置x,y,現在方向 */
2315:Src/maze_solve.c ****         /* 出力 現在位置x,y */
2316:Src/maze_solve.c ****         /*  move_step 一マス前進する関数 */
2317:Src/maze_solve.c ****         /* 北に一マス */
2318:Src/maze_solve.c ****         if (*current_dir == g_direction->contents.North) {
ARM GAS  C:\Temp\cc4yiJU0.s 			page 125


2319:Src/maze_solve.c ****           i10 = (int)(*current_y + 1U);
2320:Src/maze_solve.c ****           if ((unsigned int)i10 > 255U) {
2321:Src/maze_solve.c ****             i10 = 255;
2322:Src/maze_solve.c ****           }
2323:Src/maze_solve.c **** 
2324:Src/maze_solve.c ****           *current_y = (unsigned char)i10;
2325:Src/maze_solve.c **** 
2326:Src/maze_solve.c ****           /* disp("north_step") */
2327:Src/maze_solve.c ****         }
2328:Src/maze_solve.c **** 
2329:Src/maze_solve.c ****         /* 東に一マス */
2330:Src/maze_solve.c ****         if (*current_dir == g_direction->contents.East) {
2331:Src/maze_solve.c ****           i10 = (int)(*current_x + 1U);
2332:Src/maze_solve.c ****           if ((unsigned int)i10 > 255U) {
2333:Src/maze_solve.c ****             i10 = 255;
2334:Src/maze_solve.c ****           }
2335:Src/maze_solve.c **** 
2336:Src/maze_solve.c ****           *current_x = (unsigned char)i10;
2337:Src/maze_solve.c **** 
2338:Src/maze_solve.c ****           /* disp("east_step") */
2339:Src/maze_solve.c ****         }
2340:Src/maze_solve.c **** 
2341:Src/maze_solve.c ****         /* 南に一マス */
2342:Src/maze_solve.c ****         if (*current_dir == g_direction->contents.South) {
2343:Src/maze_solve.c ****           qY = *current_y - 1U;
2344:Src/maze_solve.c ****           if (qY > *current_y) {
2345:Src/maze_solve.c ****             qY = 0U;
2346:Src/maze_solve.c ****           }
2347:Src/maze_solve.c **** 
2348:Src/maze_solve.c ****           *current_y = (unsigned char)qY;
2349:Src/maze_solve.c **** 
2350:Src/maze_solve.c ****           /* disp("south_step") */
2351:Src/maze_solve.c ****         }
2352:Src/maze_solve.c **** 
2353:Src/maze_solve.c ****         /* 西に一マス */
2354:Src/maze_solve.c ****         if (*current_dir == g_direction->contents.West) {
2355:Src/maze_solve.c ****           qY = *current_x - 1U;
2356:Src/maze_solve.c ****           if (qY > *current_x) {
2357:Src/maze_solve.c ****             qY = 0U;
2358:Src/maze_solve.c ****           }
2359:Src/maze_solve.c **** 
2360:Src/maze_solve.c ****           *current_x = (unsigned char)qY;
2361:Src/maze_solve.c **** 
2362:Src/maze_solve.c ****           /* disp("west_step") */
2363:Src/maze_solve.c ****         }
2364:Src/maze_solve.c **** 
2365:Src/maze_solve.c ****         /* disp("left") */
2366:Src/maze_solve.c ****         break;
2367:Src/maze_solve.c ****         
2368:Src/maze_solve.c **** 
2369:Src/maze_solve.c ****       }
2370:Src/maze_solve.c **** 
2371:Src/maze_solve.c ****       /* for code generation */
2372:Src/maze_solve.c ****     }
2373:Src/maze_solve.c ****   } while (exitg1 == 0);
 4034              		.loc 1 2373 11 view .LVU1589
2374:Src/maze_solve.c **** 
ARM GAS  C:\Temp\cc4yiJU0.s 			page 126


2375:Src/maze_solve.c ****   /* for code generation */
2376:Src/maze_solve.c **** }
 4035              		.loc 1 2376 1 is_stmt 0 view .LVU1590
 4036 0728 0DF24C4D 		addw	sp, sp, #1100
 4037              	.LCFI12:
 4038              		.cfi_remember_state
 4039              		.cfi_def_cfa_offset 36
 4040              		@ sp needed
 4041 072c BDE8F08F 		pop	{r4, r5, r6, r7, r8, r9, r10, fp, pc}
 4042              	.LVL602:
 4043              	.L407:
 4044              	.LCFI13:
 4045              		.cfi_restore_state
1983:Src/maze_solve.c ****       }
 4046              		.loc 1 1983 13 view .LVU1591
 4047 0730 0023     		movs	r3, #0
 4048 0732 C4E7     		b	.L295
 4049              	.LVL603:
 4050              	.L408:
1974:Src/maze_solve.c **** 
 4051              		.loc 1 1974 16 view .LVU1592
 4052 0734 069A     		ldr	r2, [sp, #24]
 4053              	.LVL604:
 4054              	.L296:
2008:Src/maze_solve.c ****       if (k <= 7) {
 4055              		.loc 1 2008 7 is_stmt 1 view .LVU1593
2008:Src/maze_solve.c ****       if (k <= 7) {
 4056              		.loc 1 2008 9 is_stmt 0 view .LVU1594
 4057 0736 95F801E0 		ldrb	lr, [r5, #1]	@ zero_extendqisi2
 4058              	.LVL605:
2009:Src/maze_solve.c ****         s_k = (unsigned char)(1 << k);
 4059              		.loc 1 2009 7 is_stmt 1 view .LVU1595
2009:Src/maze_solve.c ****         s_k = (unsigned char)(1 << k);
 4060              		.loc 1 2009 10 is_stmt 0 view .LVU1596
 4061 073a BEF1070F 		cmp	lr, #7
 4062 073e 08D8     		bhi	.L411
2010:Src/maze_solve.c ****       } else {
 4063              		.loc 1 2010 9 is_stmt 1 view .LVU1597
2010:Src/maze_solve.c ****       } else {
 4064              		.loc 1 2010 33 is_stmt 0 view .LVU1598
 4065 0740 4FF0010C 		mov	ip, #1
 4066 0744 0CFA0EFC 		lsl	ip, ip, lr
 4067 0748 5FFA8CFC 		uxtb	ip, ip
 4068              	.LVL606:
2010:Src/maze_solve.c ****       } else {
 4069              		.loc 1 2010 33 view .LVU1599
 4070 074c 03E0     		b	.L298
 4071              	.LVL607:
 4072              	.L410:
1974:Src/maze_solve.c **** 
 4073              		.loc 1 1974 16 view .LVU1600
 4074 074e 069A     		ldr	r2, [sp, #24]
 4075 0750 F1E7     		b	.L296
 4076              	.LVL608:
 4077              	.L411:
2012:Src/maze_solve.c ****       }
 4078              		.loc 1 2012 13 view .LVU1601
ARM GAS  C:\Temp\cc4yiJU0.s 			page 127


 4079 0752 4FF0000C 		mov	ip, #0
 4080              	.L298:
 4081              	.LVL609:
2015:Src/maze_solve.c ****         i10 = (int)(*current_x + 1U);
 4082              		.loc 1 2015 7 is_stmt 1 view .LVU1602
2015:Src/maze_solve.c ****         i10 = (int)(*current_x + 1U);
 4083              		.loc 1 2015 23 is_stmt 0 view .LVU1603
 4084 0756 99F80000 		ldrb	r0, [r9]	@ zero_extendqisi2
2015:Src/maze_solve.c ****         i10 = (int)(*current_x + 1U);
 4085              		.loc 1 2015 38 view .LVU1604
 4086 075a 2178     		ldrb	r1, [r4]	@ zero_extendqisi2
2015:Src/maze_solve.c ****         i10 = (int)(*current_x + 1U);
 4087              		.loc 1 2015 49 view .LVU1605
 4088 075c 4B1E     		subs	r3, r1, #1
2015:Src/maze_solve.c ****         i10 = (int)(*current_x + 1U);
 4089              		.loc 1 2015 34 view .LVU1606
 4090 075e 00EB4313 		add	r3, r0, r3, lsl #5
2015:Src/maze_solve.c ****         i10 = (int)(*current_x + 1U);
 4091              		.loc 1 2015 21 view .LVU1607
 4092 0762 4344     		add	r3, r3, r8
 4093 0764 13F8013C 		ldrb	r3, [r3, #-1]	@ zero_extendqisi2
2015:Src/maze_solve.c ****         i10 = (int)(*current_x + 1U);
 4094              		.loc 1 2015 10 view .LVU1608
 4095 0768 13EA0C0F 		tst	r3, ip
 4096 076c 10D1     		bne	.L299
2016:Src/maze_solve.c ****         if ((unsigned int)i10 > 255U) {
 4097              		.loc 1 2016 9 is_stmt 1 view .LVU1609
2016:Src/maze_solve.c ****         if ((unsigned int)i10 > 255U) {
 4098              		.loc 1 2016 32 is_stmt 0 view .LVU1610
 4099 076e 0131     		adds	r1, r1, #1
2017:Src/maze_solve.c ****           i10 = 255;
 4100              		.loc 1 2017 9 is_stmt 1 view .LVU1611
2017:Src/maze_solve.c ****           i10 = 255;
 4101              		.loc 1 2017 12 is_stmt 0 view .LVU1612
 4102 0770 FF29     		cmp	r1, #255
 4103 0772 00D9     		bls	.L300
 4104              	.LVL610:
2018:Src/maze_solve.c ****         }
 4105              		.loc 1 2018 15 view .LVU1613
 4106 0774 FF21     		movs	r1, #255
 4107              	.LVL611:
 4108              	.L300:
2021:Src/maze_solve.c ****           i10 = (int)(*current_x + 1U);
 4109              		.loc 1 2021 9 is_stmt 1 view .LVU1614
2021:Src/maze_solve.c ****           i10 = (int)(*current_x + 1U);
 4110              		.loc 1 2021 38 is_stmt 0 view .LVU1615
 4111 0776 0139     		subs	r1, r1, #1
2021:Src/maze_solve.c ****           i10 = (int)(*current_x + 1U);
 4112              		.loc 1 2021 30 view .LVU1616
 4113 0778 00EB4111 		add	r1, r0, r1, lsl #5
2021:Src/maze_solve.c ****           i10 = (int)(*current_x + 1U);
 4114              		.loc 1 2021 50 view .LVU1617
 4115 077c 0139     		subs	r1, r1, #1
2021:Src/maze_solve.c ****           i10 = (int)(*current_x + 1U);
 4116              		.loc 1 2021 17 view .LVU1618
 4117 077e 10AB     		add	r3, sp, #64
 4118 0780 5B5C     		ldrb	r3, [r3, r1]	@ zero_extendqisi2
ARM GAS  C:\Temp\cc4yiJU0.s 			page 128


2021:Src/maze_solve.c ****           i10 = (int)(*current_x + 1U);
 4119              		.loc 1 2021 55 view .LVU1619
 4120 0782 9DF83F10 		ldrb	r1, [sp, #63]	@ zero_extendqisi2
2021:Src/maze_solve.c ****           i10 = (int)(*current_x + 1U);
 4121              		.loc 1 2021 12 view .LVU1620
 4122 0786 8B42     		cmp	r3, r1
 4123 0788 02D2     		bcs	.L299
2022:Src/maze_solve.c ****           if ((unsigned int)i10 > 255U) {
 4124              		.loc 1 2022 11 is_stmt 1 view .LVU1621
2023:Src/maze_solve.c ****             i10 = 255;
 4125              		.loc 1 2023 11 view .LVU1622
2027:Src/maze_solve.c ****           next_dir = g_direction->contents.East;
 4126              		.loc 1 2027 11 view .LVU1623
2027:Src/maze_solve.c ****           next_dir = g_direction->contents.East;
 4127              		.loc 1 2027 18 is_stmt 0 view .LVU1624
 4128 078a 8DF83F30 		strb	r3, [sp, #63]
2028:Src/maze_solve.c ****         }
 4129              		.loc 1 2028 11 is_stmt 1 view .LVU1625
 4130              	.LVL612:
2028:Src/maze_solve.c ****         }
 4131              		.loc 1 2028 20 is_stmt 0 view .LVU1626
 4132 078e 7246     		mov	r2, lr
 4133              	.LVL613:
 4134              	.L299:
2033:Src/maze_solve.c ****       if (k <= 7) {
 4135              		.loc 1 2033 7 is_stmt 1 view .LVU1627
2033:Src/maze_solve.c ****       if (k <= 7) {
 4136              		.loc 1 2033 9 is_stmt 0 view .LVU1628
 4137 0790 95F802C0 		ldrb	ip, [r5, #2]	@ zero_extendqisi2
 4138              	.LVL614:
2034:Src/maze_solve.c ****         t_k = (unsigned char)(1 << k);
 4139              		.loc 1 2034 7 is_stmt 1 view .LVU1629
2034:Src/maze_solve.c ****         t_k = (unsigned char)(1 << k);
 4140              		.loc 1 2034 10 is_stmt 0 view .LVU1630
 4141 0794 BCF1070F 		cmp	ip, #7
 4142 0798 04D8     		bhi	.L413
2035:Src/maze_solve.c ****       } else {
 4143              		.loc 1 2035 9 is_stmt 1 view .LVU1631
2035:Src/maze_solve.c ****       } else {
 4144              		.loc 1 2035 33 is_stmt 0 view .LVU1632
 4145 079a 0121     		movs	r1, #1
 4146 079c 01FA0CF1 		lsl	r1, r1, ip
 4147 07a0 C9B2     		uxtb	r1, r1
 4148              	.LVL615:
2035:Src/maze_solve.c ****       } else {
 4149              		.loc 1 2035 33 view .LVU1633
 4150 07a2 00E0     		b	.L301
 4151              	.LVL616:
 4152              	.L413:
2037:Src/maze_solve.c ****       }
 4153              		.loc 1 2037 13 view .LVU1634
 4154 07a4 0021     		movs	r1, #0
 4155              	.L301:
 4156              	.LVL617:
2040:Src/maze_solve.c ****         q0 = *current_y;
 4157              		.loc 1 2040 7 is_stmt 1 view .LVU1635
2040:Src/maze_solve.c ****         q0 = *current_y;
ARM GAS  C:\Temp\cc4yiJU0.s 			page 129


 4158              		.loc 1 2040 23 is_stmt 0 view .LVU1636
 4159 07a6 99F80000 		ldrb	r0, [r9]	@ zero_extendqisi2
2040:Src/maze_solve.c ****         q0 = *current_y;
 4160              		.loc 1 2040 38 view .LVU1637
 4161 07aa 2378     		ldrb	r3, [r4]	@ zero_extendqisi2
2040:Src/maze_solve.c ****         q0 = *current_y;
 4162              		.loc 1 2040 49 view .LVU1638
 4163 07ac 013B     		subs	r3, r3, #1
2040:Src/maze_solve.c ****         q0 = *current_y;
 4164              		.loc 1 2040 34 view .LVU1639
 4165 07ae 00EB4313 		add	r3, r0, r3, lsl #5
2040:Src/maze_solve.c ****         q0 = *current_y;
 4166              		.loc 1 2040 21 view .LVU1640
 4167 07b2 4344     		add	r3, r3, r8
 4168 07b4 13F8013C 		ldrb	r3, [r3, #-1]	@ zero_extendqisi2
2040:Src/maze_solve.c ****         q0 = *current_y;
 4169              		.loc 1 2040 10 view .LVU1641
 4170 07b8 0B42     		tst	r3, r1
 4171 07ba 10D1     		bne	.L302
2041:Src/maze_solve.c ****         qY = q0 - 1U;
 4172              		.loc 1 2041 9 is_stmt 1 view .LVU1642
 4173              	.LVL618:
2042:Src/maze_solve.c ****         if (qY > (unsigned int)q0) {
 4174              		.loc 1 2042 9 view .LVU1643
2042:Src/maze_solve.c ****         if (qY > (unsigned int)q0) {
 4175              		.loc 1 2042 12 is_stmt 0 view .LVU1644
 4176 07bc 431E     		subs	r3, r0, #1
 4177              	.LVL619:
2043:Src/maze_solve.c ****           qY = 0U;
 4178              		.loc 1 2043 9 is_stmt 1 view .LVU1645
2043:Src/maze_solve.c ****           qY = 0U;
 4179              		.loc 1 2043 12 is_stmt 0 view .LVU1646
 4180 07be 9842     		cmp	r0, r3
 4181 07c0 00D2     		bcs	.L303
 4182              	.LVL620:
2044:Src/maze_solve.c ****         }
 4183              		.loc 1 2044 14 view .LVU1647
 4184 07c2 0023     		movs	r3, #0
 4185              	.LVL621:
 4186              	.L303:
2047:Src/maze_solve.c ****           q0 = *current_y;
 4187              		.loc 1 2047 9 is_stmt 1 view .LVU1648
2047:Src/maze_solve.c ****           q0 = *current_y;
 4188              		.loc 1 2047 27 is_stmt 0 view .LVU1649
 4189 07c4 7149     		ldr	r1, .L463+4
 4190              	.LVL622:
2047:Src/maze_solve.c ****           q0 = *current_y;
 4191              		.loc 1 2047 27 view .LVU1650
 4192 07c6 0968     		ldr	r1, [r1]
 4193 07c8 0B44     		add	r3, r3, r1
2047:Src/maze_solve.c ****           q0 = *current_y;
 4194              		.loc 1 2047 34 view .LVU1651
 4195 07ca 013B     		subs	r3, r3, #1
2047:Src/maze_solve.c ****           q0 = *current_y;
 4196              		.loc 1 2047 17 view .LVU1652
 4197 07cc 10A9     		add	r1, sp, #64
 4198 07ce CB5C     		ldrb	r3, [r1, r3]	@ zero_extendqisi2
ARM GAS  C:\Temp\cc4yiJU0.s 			page 130


2047:Src/maze_solve.c ****           q0 = *current_y;
 4199              		.loc 1 2047 39 view .LVU1653
 4200 07d0 9DF83F10 		ldrb	r1, [sp, #63]	@ zero_extendqisi2
2047:Src/maze_solve.c ****           q0 = *current_y;
 4201              		.loc 1 2047 12 view .LVU1654
 4202 07d4 8B42     		cmp	r3, r1
 4203 07d6 02D2     		bcs	.L302
2048:Src/maze_solve.c ****           qY = q0 - 1U;
 4204              		.loc 1 2048 11 is_stmt 1 view .LVU1655
2049:Src/maze_solve.c ****           if (qY > (unsigned int)q0) {
 4205              		.loc 1 2049 11 view .LVU1656
2050:Src/maze_solve.c ****             qY = 0U;
 4206              		.loc 1 2050 11 view .LVU1657
2054:Src/maze_solve.c ****           next_dir = g_direction->contents.South;
 4207              		.loc 1 2054 11 view .LVU1658
2054:Src/maze_solve.c ****           next_dir = g_direction->contents.South;
 4208              		.loc 1 2054 18 is_stmt 0 view .LVU1659
 4209 07d8 8DF83F30 		strb	r3, [sp, #63]
2055:Src/maze_solve.c ****         }
 4210              		.loc 1 2055 11 is_stmt 1 view .LVU1660
 4211              	.LVL623:
2055:Src/maze_solve.c ****         }
 4212              		.loc 1 2055 20 is_stmt 0 view .LVU1661
 4213 07dc 6246     		mov	r2, ip
 4214              	.LVL624:
 4215              	.L302:
2060:Src/maze_solve.c ****       if (k <= 7) {
 4216              		.loc 1 2060 7 is_stmt 1 view .LVU1662
2060:Src/maze_solve.c ****       if (k <= 7) {
 4217              		.loc 1 2060 9 is_stmt 0 view .LVU1663
 4218 07de 95F803E0 		ldrb	lr, [r5, #3]	@ zero_extendqisi2
 4219              	.LVL625:
2061:Src/maze_solve.c ****         u_k = (unsigned char)(1 << k);
 4220              		.loc 1 2061 7 is_stmt 1 view .LVU1664
2061:Src/maze_solve.c ****         u_k = (unsigned char)(1 << k);
 4221              		.loc 1 2061 10 is_stmt 0 view .LVU1665
 4222 07e2 BEF1070F 		cmp	lr, #7
 4223 07e6 04D8     		bhi	.L415
2062:Src/maze_solve.c ****       } else {
 4224              		.loc 1 2062 9 is_stmt 1 view .LVU1666
2062:Src/maze_solve.c ****       } else {
 4225              		.loc 1 2062 33 is_stmt 0 view .LVU1667
 4226 07e8 0120     		movs	r0, #1
 4227 07ea 00FA0EF0 		lsl	r0, r0, lr
 4228 07ee C0B2     		uxtb	r0, r0
 4229              	.LVL626:
2062:Src/maze_solve.c ****       } else {
 4230              		.loc 1 2062 33 view .LVU1668
 4231 07f0 00E0     		b	.L304
 4232              	.LVL627:
 4233              	.L415:
2064:Src/maze_solve.c ****       }
 4234              		.loc 1 2064 13 view .LVU1669
 4235 07f2 0020     		movs	r0, #0
 4236              	.L304:
 4237              	.LVL628:
2067:Src/maze_solve.c ****         q0 = *current_x;
ARM GAS  C:\Temp\cc4yiJU0.s 			page 131


 4238              		.loc 1 2067 7 is_stmt 1 view .LVU1670
2067:Src/maze_solve.c ****         q0 = *current_x;
 4239              		.loc 1 2067 23 is_stmt 0 view .LVU1671
 4240 07f4 99F80010 		ldrb	r1, [r9]	@ zero_extendqisi2
2067:Src/maze_solve.c ****         q0 = *current_x;
 4241              		.loc 1 2067 38 view .LVU1672
 4242 07f8 94F800C0 		ldrb	ip, [r4]	@ zero_extendqisi2
2067:Src/maze_solve.c ****         q0 = *current_x;
 4243              		.loc 1 2067 49 view .LVU1673
 4244 07fc 0CF1FF33 		add	r3, ip, #-1
2067:Src/maze_solve.c ****         q0 = *current_x;
 4245              		.loc 1 2067 34 view .LVU1674
 4246 0800 01EB4313 		add	r3, r1, r3, lsl #5
2067:Src/maze_solve.c ****         q0 = *current_x;
 4247              		.loc 1 2067 21 view .LVU1675
 4248 0804 4344     		add	r3, r3, r8
 4249 0806 13F8013C 		ldrb	r3, [r3, #-1]	@ zero_extendqisi2
2067:Src/maze_solve.c ****         q0 = *current_x;
 4250              		.loc 1 2067 10 view .LVU1676
 4251 080a 0342     		tst	r3, r0
 4252 080c 0FD1     		bne	.L305
2068:Src/maze_solve.c ****         qY = q0 - 1U;
 4253              		.loc 1 2068 9 is_stmt 1 view .LVU1677
 4254              	.LVL629:
2069:Src/maze_solve.c ****         if (qY > (unsigned int)q0) {
 4255              		.loc 1 2069 9 view .LVU1678
2069:Src/maze_solve.c ****         if (qY > (unsigned int)q0) {
 4256              		.loc 1 2069 12 is_stmt 0 view .LVU1679
 4257 080e 0CF1FF33 		add	r3, ip, #-1
 4258              	.LVL630:
2070:Src/maze_solve.c ****           qY = 0U;
 4259              		.loc 1 2070 9 is_stmt 1 view .LVU1680
2070:Src/maze_solve.c ****           qY = 0U;
 4260              		.loc 1 2070 12 is_stmt 0 view .LVU1681
 4261 0812 9C45     		cmp	ip, r3
 4262 0814 00D2     		bcs	.L306
2071:Src/maze_solve.c ****         }
 4263              		.loc 1 2071 14 view .LVU1682
 4264 0816 0023     		movs	r3, #0
 4265              	.LVL631:
 4266              	.L306:
2074:Src/maze_solve.c ****           /*  little = contour_map(current_y,current_x-1); */
 4267              		.loc 1 2074 9 is_stmt 1 view .LVU1683
2074:Src/maze_solve.c ****           /*  little = contour_map(current_y,current_x-1); */
 4268              		.loc 1 2074 42 is_stmt 0 view .LVU1684
 4269 0818 013B     		subs	r3, r3, #1
 4270              	.LVL632:
2074:Src/maze_solve.c ****           /*  little = contour_map(current_y,current_x-1); */
 4271              		.loc 1 2074 30 view .LVU1685
 4272 081a 01EB4311 		add	r1, r1, r3, lsl #5
2074:Src/maze_solve.c ****           /*  little = contour_map(current_y,current_x-1); */
 4273              		.loc 1 2074 54 view .LVU1686
 4274 081e 0139     		subs	r1, r1, #1
2074:Src/maze_solve.c ****           /*  little = contour_map(current_y,current_x-1); */
 4275              		.loc 1 2074 17 view .LVU1687
 4276 0820 10AB     		add	r3, sp, #64
 4277              	.LVL633:
ARM GAS  C:\Temp\cc4yiJU0.s 			page 132


2074:Src/maze_solve.c ****           /*  little = contour_map(current_y,current_x-1); */
 4278              		.loc 1 2074 17 view .LVU1688
 4279 0822 595C     		ldrb	r1, [r3, r1]	@ zero_extendqisi2
2074:Src/maze_solve.c ****           /*  little = contour_map(current_y,current_x-1); */
 4280              		.loc 1 2074 59 view .LVU1689
 4281 0824 9DF83F30 		ldrb	r3, [sp, #63]	@ zero_extendqisi2
2074:Src/maze_solve.c ****           /*  little = contour_map(current_y,current_x-1); */
 4282              		.loc 1 2074 12 view .LVU1690
 4283 0828 9942     		cmp	r1, r3
 4284 082a 00D2     		bcs	.L305
2076:Src/maze_solve.c ****         }
 4285              		.loc 1 2076 20 view .LVU1691
 4286 082c 7246     		mov	r2, lr
 4287              	.LVL634:
 4288              	.L305:
2081:Src/maze_solve.c ****       if ((unsigned int)q0 > 255U) {
 4289              		.loc 1 2081 7 is_stmt 1 view .LVU1692
2081:Src/maze_solve.c ****       if ((unsigned int)q0 > 255U) {
 4290              		.loc 1 2081 21 is_stmt 0 view .LVU1693
 4291 082e 0432     		adds	r2, r2, #4
 4292              	.LVL635:
2082:Src/maze_solve.c ****         q0 = 255;
 4293              		.loc 1 2082 7 is_stmt 1 view .LVU1694
2082:Src/maze_solve.c ****         q0 = 255;
 4294              		.loc 1 2082 10 is_stmt 0 view .LVU1695
 4295 0830 FF2A     		cmp	r2, #255
 4296 0832 00D9     		bls	.L307
2083:Src/maze_solve.c ****       }
 4297              		.loc 1 2083 12 view .LVU1696
 4298 0834 FF22     		movs	r2, #255
 4299              	.LVL636:
 4300              	.L307:
2086:Src/maze_solve.c ****       if (qY > (unsigned int)q0) {
 4301              		.loc 1 2086 7 is_stmt 1 view .LVU1697
2086:Src/maze_solve.c ****       if (qY > (unsigned int)q0) {
 4302              		.loc 1 2086 31 is_stmt 0 view .LVU1698
 4303 0836 9AF80030 		ldrb	r3, [r10]	@ zero_extendqisi2
2086:Src/maze_solve.c ****       if (qY > (unsigned int)q0) {
 4304              		.loc 1 2086 10 view .LVU1699
 4305 083a D31A     		subs	r3, r2, r3
 4306              	.LVL637:
2087:Src/maze_solve.c ****         qY = 0U;
 4307              		.loc 1 2087 7 is_stmt 1 view .LVU1700
2087:Src/maze_solve.c ****         qY = 0U;
 4308              		.loc 1 2087 10 is_stmt 0 view .LVU1701
 4309 083c 9A42     		cmp	r2, r3
 4310 083e 00D2     		bcs	.L308
2088:Src/maze_solve.c ****       }
 4311              		.loc 1 2088 12 view .LVU1702
 4312 0840 0023     		movs	r3, #0
 4313              	.LVL638:
 4314              	.L308:
2091:Src/maze_solve.c ****       next_dir = l_direction->contents.front;
 4315              		.loc 1 2091 7 is_stmt 1 view .LVU1703
2091:Src/maze_solve.c ****       next_dir = l_direction->contents.front;
 4316              		.loc 1 2091 35 is_stmt 0 view .LVU1704
 4317 0842 5A42     		rsbs	r2, r3, #0
ARM GAS  C:\Temp\cc4yiJU0.s 			page 133


 4318              	.LVL639:
2091:Src/maze_solve.c ****       next_dir = l_direction->contents.front;
 4319              		.loc 1 2091 35 view .LVU1705
 4320 0844 03F00303 		and	r3, r3, #3
 4321              	.LVL640:
2091:Src/maze_solve.c ****       next_dir = l_direction->contents.front;
 4322              		.loc 1 2091 35 view .LVU1706
 4323 0848 02F00302 		and	r2, r2, #3
 4324 084c 58BF     		it	pl
 4325 084e 5342     		rsbpl	r3, r2, #0
2091:Src/maze_solve.c ****       next_dir = l_direction->contents.front;
 4326              		.loc 1 2091 9 view .LVU1707
 4327 0850 DBB2     		uxtb	r3, r3
 4328              	.LVL641:
2092:Src/maze_solve.c ****       little = l_direction->contents.right;
 4329              		.loc 1 2092 7 is_stmt 1 view .LVU1708
2092:Src/maze_solve.c ****       little = l_direction->contents.right;
 4330              		.loc 1 2092 16 is_stmt 0 view .LVU1709
 4331 0852 0C98     		ldr	r0, [sp, #48]
 4332              	.LVL642:
2092:Src/maze_solve.c ****       little = l_direction->contents.right;
 4333              		.loc 1 2092 16 view .LVU1710
 4334 0854 0178     		ldrb	r1, [r0]	@ zero_extendqisi2
 4335              	.LVL643:
2093:Src/maze_solve.c ****       varargin_3 = l_direction->contents.back;
 4336              		.loc 1 2093 7 is_stmt 1 view .LVU1711
2093:Src/maze_solve.c ****       varargin_3 = l_direction->contents.back;
 4337              		.loc 1 2093 37 is_stmt 0 view .LVU1712
 4338 0856 4278     		ldrb	r2, [r0, #1]	@ zero_extendqisi2
2093:Src/maze_solve.c ****       varargin_3 = l_direction->contents.back;
 4339              		.loc 1 2093 14 view .LVU1713
 4340 0858 8DF83F20 		strb	r2, [sp, #63]
2094:Src/maze_solve.c ****       varargin_4 = l_direction->contents.left;
 4341              		.loc 1 2094 7 is_stmt 1 view .LVU1714
2094:Src/maze_solve.c ****       varargin_4 = l_direction->contents.left;
 4342              		.loc 1 2094 18 is_stmt 0 view .LVU1715
 4343 085c 0746     		mov	r7, r0
 4344 085e 8078     		ldrb	r0, [r0, #2]	@ zero_extendqisi2
 4345              	.LVL644:
2095:Src/maze_solve.c ****       if (next_dir == k) {
 4346              		.loc 1 2095 7 is_stmt 1 view .LVU1716
2095:Src/maze_solve.c ****       if (next_dir == k) {
 4347              		.loc 1 2095 18 is_stmt 0 view .LVU1717
 4348 0860 97F803C0 		ldrb	ip, [r7, #3]	@ zero_extendqisi2
 4349              	.LVL645:
2096:Src/maze_solve.c ****         q0 = 0;
 4350              		.loc 1 2096 7 is_stmt 1 view .LVU1718
2096:Src/maze_solve.c ****         q0 = 0;
 4351              		.loc 1 2096 10 is_stmt 0 view .LVU1719
 4352 0864 8B42     		cmp	r3, r1
 4353 0866 10D0     		beq	.L445
2098:Src/maze_solve.c ****         q0 = 1;
 4354              		.loc 1 2098 14 is_stmt 1 view .LVU1720
2098:Src/maze_solve.c ****         q0 = 1;
 4355              		.loc 1 2098 17 is_stmt 0 view .LVU1721
 4356 0868 9A42     		cmp	r2, r3
 4357 086a 00F09580 		beq	.L312
ARM GAS  C:\Temp\cc4yiJU0.s 			page 134


2100:Src/maze_solve.c ****         q0 = 2;
 4358              		.loc 1 2100 14 is_stmt 1 view .LVU1722
2100:Src/maze_solve.c ****         q0 = 2;
 4359              		.loc 1 2100 17 is_stmt 0 view .LVU1723
 4360 086e 8342     		cmp	r3, r0
 4361 0870 5AD0     		beq	.L313
2102:Src/maze_solve.c ****         q0 = 3;
 4362              		.loc 1 2102 14 is_stmt 1 view .LVU1724
2102:Src/maze_solve.c ****         q0 = 3;
 4363              		.loc 1 2102 17 is_stmt 0 view .LVU1725
 4364 0872 6345     		cmp	r3, ip
 4365 0874 29D0     		beq	.L446
 4366              	.LVL646:
 4367              	.L223:
1423:Src/maze_solve.c ****     exitg1 = 0;
 4368              		.loc 1 1423 3 is_stmt 1 view .LVU1726
1424:Src/maze_solve.c **** 
 4369              		.loc 1 1424 5 view .LVU1727
1427:Src/maze_solve.c ****       {
 4370              		.loc 1 1427 7 view .LVU1728
1427:Src/maze_solve.c ****       {
 4371              		.loc 1 1427 26 is_stmt 0 view .LVU1729
 4372 0876 474B     		ldr	r3, .L463+12
 4373 0878 1B78     		ldrb	r3, [r3]	@ zero_extendqisi2
1427:Src/maze_solve.c ****       {
 4374              		.loc 1 1427 10 view .LVU1730
 4375 087a 002B     		cmp	r3, #0
 4376 087c 3FF4E3AB 		beq	.L447
 4377              	.L224:
1940:Src/maze_solve.c **** 
 4378              		.loc 1 1940 3 is_stmt 1 view .LVU1731
1940:Src/maze_solve.c **** 
 4379              		.loc 1 1940 18 is_stmt 0 view .LVU1732
 4380 0880 0023     		movs	r3, #0
 4381 0882 444A     		ldr	r2, .L463+12
 4382 0884 1370     		strb	r3, [r2]
1943:Src/maze_solve.c ****       if ((*current_x == maze_goal[q0]) && (*current_y == maze_goal[q0 + 9])) {
 4383              		.loc 1 1943 5 is_stmt 1 view .LVU1733
 4384              	.LVL647:
1943:Src/maze_solve.c ****       if ((*current_x == maze_goal[q0]) && (*current_y == maze_goal[q0 + 9])) {
 4385              		.loc 1 1943 5 is_stmt 0 view .LVU1734
 4386 0886 079F     		ldr	r7, [sp, #28]
 4387 0888 F0E6     		b	.L291
 4388              	.LVL648:
 4389              	.L445:
2108:Src/maze_solve.c ****        case 0:	//前進時
 4390              		.loc 1 2108 7 is_stmt 1 view .LVU1735
2110:Src/maze_solve.c ****         /* 入力 現在位置x,y,現在方向 */
 4391              		.loc 1 2110 6 view .LVU1736
 4392 088a FFF7FEFF 		bl	move_front
 4393              	.LVL649:
2115:Src/maze_solve.c ****           i10 = (int)(*current_y + 1U);
 4394              		.loc 1 2115 9 view .LVU1737
2115:Src/maze_solve.c ****           i10 = (int)(*current_y + 1U);
 4395              		.loc 1 2115 13 is_stmt 0 view .LVU1738
 4396 088e 9AF80020 		ldrb	r2, [r10]	@ zero_extendqisi2
2115:Src/maze_solve.c ****           i10 = (int)(*current_y + 1U);
ARM GAS  C:\Temp\cc4yiJU0.s 			page 135


 4397              		.loc 1 2115 50 view .LVU1739
 4398 0892 2B78     		ldrb	r3, [r5]	@ zero_extendqisi2
2115:Src/maze_solve.c ****           i10 = (int)(*current_y + 1U);
 4399              		.loc 1 2115 12 view .LVU1740
 4400 0894 9A42     		cmp	r2, r3
 4401 0896 00F0AE80 		beq	.L448
 4402              	.L311:
2127:Src/maze_solve.c ****           i10 = (int)(*current_x + 1U);
 4403              		.loc 1 2127 9 is_stmt 1 view .LVU1741
2127:Src/maze_solve.c ****           i10 = (int)(*current_x + 1U);
 4404              		.loc 1 2127 13 is_stmt 0 view .LVU1742
 4405 089a 9AF80020 		ldrb	r2, [r10]	@ zero_extendqisi2
2127:Src/maze_solve.c ****           i10 = (int)(*current_x + 1U);
 4406              		.loc 1 2127 50 view .LVU1743
 4407 089e 6B78     		ldrb	r3, [r5, #1]	@ zero_extendqisi2
2127:Src/maze_solve.c ****           i10 = (int)(*current_x + 1U);
 4408              		.loc 1 2127 12 view .LVU1744
 4409 08a0 9A42     		cmp	r2, r3
 4410 08a2 00F0B180 		beq	.L449
 4411              	.L319:
2139:Src/maze_solve.c ****           qY = *current_y - 1U;
 4412              		.loc 1 2139 9 is_stmt 1 view .LVU1745
2139:Src/maze_solve.c ****           qY = *current_y - 1U;
 4413              		.loc 1 2139 13 is_stmt 0 view .LVU1746
 4414 08a6 9AF80020 		ldrb	r2, [r10]	@ zero_extendqisi2
2139:Src/maze_solve.c ****           qY = *current_y - 1U;
 4415              		.loc 1 2139 50 view .LVU1747
 4416 08aa AB78     		ldrb	r3, [r5, #2]	@ zero_extendqisi2
2139:Src/maze_solve.c ****           qY = *current_y - 1U;
 4417              		.loc 1 2139 12 view .LVU1748
 4418 08ac 9A42     		cmp	r2, r3
 4419 08ae 00F0B280 		beq	.L450
 4420              	.L321:
2151:Src/maze_solve.c ****           qY = *current_x - 1U;
 4421              		.loc 1 2151 9 is_stmt 1 view .LVU1749
2151:Src/maze_solve.c ****           qY = *current_x - 1U;
 4422              		.loc 1 2151 13 is_stmt 0 view .LVU1750
 4423 08b2 9AF80020 		ldrb	r2, [r10]	@ zero_extendqisi2
2151:Src/maze_solve.c ****           qY = *current_x - 1U;
 4424              		.loc 1 2151 50 view .LVU1751
 4425 08b6 EB78     		ldrb	r3, [r5, #3]	@ zero_extendqisi2
2151:Src/maze_solve.c ****           qY = *current_x - 1U;
 4426              		.loc 1 2151 12 view .LVU1752
 4427 08b8 9A42     		cmp	r2, r3
 4428 08ba DCD1     		bne	.L223
2152:Src/maze_solve.c ****           if (qY > *current_x) {
 4429              		.loc 1 2152 11 is_stmt 1 view .LVU1753
2152:Src/maze_solve.c ****           if (qY > *current_x) {
 4430              		.loc 1 2152 16 is_stmt 0 view .LVU1754
 4431 08bc 2278     		ldrb	r2, [r4]	@ zero_extendqisi2
2152:Src/maze_solve.c ****           if (qY > *current_x) {
 4432              		.loc 1 2152 14 view .LVU1755
 4433 08be 531E     		subs	r3, r2, #1
 4434              	.LVL650:
2153:Src/maze_solve.c ****             qY = 0U;
 4435              		.loc 1 2153 11 is_stmt 1 view .LVU1756
2153:Src/maze_solve.c ****             qY = 0U;
ARM GAS  C:\Temp\cc4yiJU0.s 			page 136


 4436              		.loc 1 2153 14 is_stmt 0 view .LVU1757
 4437 08c0 9A42     		cmp	r2, r3
 4438 08c2 00D2     		bcs	.L323
2154:Src/maze_solve.c ****           }
 4439              		.loc 1 2154 16 view .LVU1758
 4440 08c4 0023     		movs	r3, #0
 4441              	.LVL651:
 4442              	.L323:
2157:Src/maze_solve.c **** 
 4443              		.loc 1 2157 11 is_stmt 1 view .LVU1759
2157:Src/maze_solve.c **** 
 4444              		.loc 1 2157 22 is_stmt 0 view .LVU1760
 4445 08c6 2370     		strb	r3, [r4]
2373:Src/maze_solve.c **** 
 4446              		.loc 1 2373 11 is_stmt 1 view .LVU1761
 4447 08c8 D5E7     		b	.L223
 4448              	.LVL652:
 4449              	.L446:
2108:Src/maze_solve.c ****        case 0:	//前進時
 4450              		.loc 1 2108 7 view .LVU1762
2303:Src/maze_solve.c ****         /* 入力　現在方向 */
 4451              		.loc 1 2303 6 view .LVU1763
 4452 08ca FFF7FEFF 		bl	move_left
 4453              	.LVL653:
2307:Src/maze_solve.c ****         if ((unsigned int)i10 > 255U) {
 4454              		.loc 1 2307 9 view .LVU1764
2307:Src/maze_solve.c ****         if ((unsigned int)i10 > 255U) {
 4455              		.loc 1 2307 26 is_stmt 0 view .LVU1765
 4456 08ce 9AF80030 		ldrb	r3, [r10]	@ zero_extendqisi2
2307:Src/maze_solve.c ****         if ((unsigned int)i10 > 255U) {
 4457              		.loc 1 2307 24 view .LVU1766
 4458 08d2 0433     		adds	r3, r3, #4
 4459              	.LVL654:
2308:Src/maze_solve.c ****           i10 = 255;
 4460              		.loc 1 2308 9 is_stmt 1 view .LVU1767
2308:Src/maze_solve.c ****           i10 = 255;
 4461              		.loc 1 2308 12 is_stmt 0 view .LVU1768
 4462 08d4 FF2B     		cmp	r3, #255
 4463 08d6 00F2DD80 		bhi	.L420
 4464              	.LVL655:
 4465              	.L315:
2312:Src/maze_solve.c **** 
 4466              		.loc 1 2312 9 is_stmt 1 view .LVU1769
2312:Src/maze_solve.c **** 
 4467              		.loc 1 2312 45 is_stmt 0 view .LVU1770
 4468 08da 013B     		subs	r3, r3, #1
 4469              	.LVL656:
2312:Src/maze_solve.c **** 
 4470              		.loc 1 2312 50 view .LVU1771
 4471 08dc 5A42     		rsbs	r2, r3, #0
 4472 08de 03F00303 		and	r3, r3, #3
 4473              	.LVL657:
2312:Src/maze_solve.c **** 
 4474              		.loc 1 2312 50 view .LVU1772
 4475 08e2 02F00302 		and	r2, r2, #3
 4476 08e6 58BF     		it	pl
 4477 08e8 5342     		rsbpl	r3, r2, #0
ARM GAS  C:\Temp\cc4yiJU0.s 			page 137


2312:Src/maze_solve.c **** 
 4478              		.loc 1 2312 24 view .LVU1773
 4479 08ea DBB2     		uxtb	r3, r3
2312:Src/maze_solve.c **** 
 4480              		.loc 1 2312 22 view .LVU1774
 4481 08ec 8AF80030 		strb	r3, [r10]
2318:Src/maze_solve.c ****           i10 = (int)(*current_y + 1U);
 4482              		.loc 1 2318 9 is_stmt 1 view .LVU1775
2318:Src/maze_solve.c ****           i10 = (int)(*current_y + 1U);
 4483              		.loc 1 2318 50 is_stmt 0 view .LVU1776
 4484 08f0 2A78     		ldrb	r2, [r5]	@ zero_extendqisi2
2318:Src/maze_solve.c ****           i10 = (int)(*current_y + 1U);
 4485              		.loc 1 2318 12 view .LVU1777
 4486 08f2 9342     		cmp	r3, r2
 4487 08f4 00F0D080 		beq	.L451
 4488              	.L339:
2330:Src/maze_solve.c ****           i10 = (int)(*current_x + 1U);
 4489              		.loc 1 2330 9 is_stmt 1 view .LVU1778
2330:Src/maze_solve.c ****           i10 = (int)(*current_x + 1U);
 4490              		.loc 1 2330 13 is_stmt 0 view .LVU1779
 4491 08f8 9AF80020 		ldrb	r2, [r10]	@ zero_extendqisi2
2330:Src/maze_solve.c ****           i10 = (int)(*current_x + 1U);
 4492              		.loc 1 2330 50 view .LVU1780
 4493 08fc 6B78     		ldrb	r3, [r5, #1]	@ zero_extendqisi2
2330:Src/maze_solve.c ****           i10 = (int)(*current_x + 1U);
 4494              		.loc 1 2330 12 view .LVU1781
 4495 08fe 9A42     		cmp	r2, r3
 4496 0900 00F0D380 		beq	.L452
 4497              	.L341:
2342:Src/maze_solve.c ****           qY = *current_y - 1U;
 4498              		.loc 1 2342 9 is_stmt 1 view .LVU1782
2342:Src/maze_solve.c ****           qY = *current_y - 1U;
 4499              		.loc 1 2342 13 is_stmt 0 view .LVU1783
 4500 0904 9AF80020 		ldrb	r2, [r10]	@ zero_extendqisi2
2342:Src/maze_solve.c ****           qY = *current_y - 1U;
 4501              		.loc 1 2342 50 view .LVU1784
 4502 0908 AB78     		ldrb	r3, [r5, #2]	@ zero_extendqisi2
2342:Src/maze_solve.c ****           qY = *current_y - 1U;
 4503              		.loc 1 2342 12 view .LVU1785
 4504 090a 9A42     		cmp	r2, r3
 4505 090c 00F0D480 		beq	.L453
 4506              	.L343:
2354:Src/maze_solve.c ****           qY = *current_x - 1U;
 4507              		.loc 1 2354 9 is_stmt 1 view .LVU1786
2354:Src/maze_solve.c ****           qY = *current_x - 1U;
 4508              		.loc 1 2354 13 is_stmt 0 view .LVU1787
 4509 0910 9AF80020 		ldrb	r2, [r10]	@ zero_extendqisi2
2354:Src/maze_solve.c ****           qY = *current_x - 1U;
 4510              		.loc 1 2354 50 view .LVU1788
 4511 0914 EB78     		ldrb	r3, [r5, #3]	@ zero_extendqisi2
2354:Src/maze_solve.c ****           qY = *current_x - 1U;
 4512              		.loc 1 2354 12 view .LVU1789
 4513 0916 9A42     		cmp	r2, r3
 4514 0918 ADD1     		bne	.L223
2355:Src/maze_solve.c ****           if (qY > *current_x) {
 4515              		.loc 1 2355 11 is_stmt 1 view .LVU1790
2355:Src/maze_solve.c ****           if (qY > *current_x) {
ARM GAS  C:\Temp\cc4yiJU0.s 			page 138


 4516              		.loc 1 2355 16 is_stmt 0 view .LVU1791
 4517 091a 2278     		ldrb	r2, [r4]	@ zero_extendqisi2
2355:Src/maze_solve.c ****           if (qY > *current_x) {
 4518              		.loc 1 2355 14 view .LVU1792
 4519 091c 531E     		subs	r3, r2, #1
 4520              	.LVL658:
2356:Src/maze_solve.c ****             qY = 0U;
 4521              		.loc 1 2356 11 is_stmt 1 view .LVU1793
2356:Src/maze_solve.c ****             qY = 0U;
 4522              		.loc 1 2356 14 is_stmt 0 view .LVU1794
 4523 091e 9A42     		cmp	r2, r3
 4524 0920 00D2     		bcs	.L345
2357:Src/maze_solve.c ****           }
 4525              		.loc 1 2357 16 view .LVU1795
 4526 0922 0023     		movs	r3, #0
 4527              	.LVL659:
 4528              	.L345:
2360:Src/maze_solve.c **** 
 4529              		.loc 1 2360 11 is_stmt 1 view .LVU1796
2360:Src/maze_solve.c **** 
 4530              		.loc 1 2360 22 is_stmt 0 view .LVU1797
 4531 0924 2370     		strb	r3, [r4]
2373:Src/maze_solve.c **** 
 4532              		.loc 1 2373 11 is_stmt 1 view .LVU1798
 4533 0926 A6E7     		b	.L223
 4534              	.LVL660:
 4535              	.L313:
2108:Src/maze_solve.c ****        case 0:	//前進時
 4536              		.loc 1 2108 7 view .LVU1799
2237:Src/maze_solve.c ****         /* 入力 現在方向 */
 4537              		.loc 1 2237 6 view .LVU1800
 4538 0928 FFF7FEFF 		bl	move_back
 4539              	.LVL661:
2241:Src/maze_solve.c ****         if ((unsigned int)i10 > 255U) {
 4540              		.loc 1 2241 9 view .LVU1801
2241:Src/maze_solve.c ****         if ((unsigned int)i10 > 255U) {
 4541              		.loc 1 2241 26 is_stmt 0 view .LVU1802
 4542 092c 9AF80030 		ldrb	r3, [r10]	@ zero_extendqisi2
2241:Src/maze_solve.c ****         if ((unsigned int)i10 > 255U) {
 4543              		.loc 1 2241 24 view .LVU1803
 4544 0930 0433     		adds	r3, r3, #4
 4545              	.LVL662:
2242:Src/maze_solve.c ****           i10 = 255;
 4546              		.loc 1 2242 9 is_stmt 1 view .LVU1804
2242:Src/maze_solve.c ****           i10 = 255;
 4547              		.loc 1 2242 12 is_stmt 0 view .LVU1805
 4548 0932 FF2B     		cmp	r3, #255
 4549 0934 00F29380 		bhi	.L421
 4550              	.LVL663:
 4551              	.L316:
2246:Src/maze_solve.c **** 
 4552              		.loc 1 2246 9 is_stmt 1 view .LVU1806
2246:Src/maze_solve.c **** 
 4553              		.loc 1 2246 45 is_stmt 0 view .LVU1807
 4554 0938 023B     		subs	r3, r3, #2
 4555              	.LVL664:
2246:Src/maze_solve.c **** 
ARM GAS  C:\Temp\cc4yiJU0.s 			page 139


 4556              		.loc 1 2246 50 view .LVU1808
 4557 093a 5A42     		rsbs	r2, r3, #0
 4558 093c 03F00303 		and	r3, r3, #3
 4559              	.LVL665:
2246:Src/maze_solve.c **** 
 4560              		.loc 1 2246 50 view .LVU1809
 4561 0940 02F00302 		and	r2, r2, #3
 4562 0944 58BF     		it	pl
 4563 0946 5342     		rsbpl	r3, r2, #0
2246:Src/maze_solve.c **** 
 4564              		.loc 1 2246 24 view .LVU1810
 4565 0948 DBB2     		uxtb	r3, r3
2246:Src/maze_solve.c **** 
 4566              		.loc 1 2246 22 view .LVU1811
 4567 094a 8AF80030 		strb	r3, [r10]
2252:Src/maze_solve.c ****           i10 = (int)(*current_y + 1U);
 4568              		.loc 1 2252 9 is_stmt 1 view .LVU1812
2252:Src/maze_solve.c ****           i10 = (int)(*current_y + 1U);
 4569              		.loc 1 2252 50 is_stmt 0 view .LVU1813
 4570 094e 2A78     		ldrb	r2, [r5]	@ zero_extendqisi2
2252:Src/maze_solve.c ****           i10 = (int)(*current_y + 1U);
 4571              		.loc 1 2252 12 view .LVU1814
 4572 0950 9342     		cmp	r3, r2
 4573 0952 00F08680 		beq	.L454
 4574              	.L332:
2264:Src/maze_solve.c ****           i10 = (int)(*current_x + 1U);
 4575              		.loc 1 2264 9 is_stmt 1 view .LVU1815
2264:Src/maze_solve.c ****           i10 = (int)(*current_x + 1U);
 4576              		.loc 1 2264 13 is_stmt 0 view .LVU1816
 4577 0956 9AF80020 		ldrb	r2, [r10]	@ zero_extendqisi2
2264:Src/maze_solve.c ****           i10 = (int)(*current_x + 1U);
 4578              		.loc 1 2264 50 view .LVU1817
 4579 095a 6B78     		ldrb	r3, [r5, #1]	@ zero_extendqisi2
2264:Src/maze_solve.c ****           i10 = (int)(*current_x + 1U);
 4580              		.loc 1 2264 12 view .LVU1818
 4581 095c 9A42     		cmp	r2, r3
 4582 095e 00F08980 		beq	.L455
 4583              	.L334:
2276:Src/maze_solve.c ****           qY = *current_y - 1U;
 4584              		.loc 1 2276 9 is_stmt 1 view .LVU1819
2276:Src/maze_solve.c ****           qY = *current_y - 1U;
 4585              		.loc 1 2276 13 is_stmt 0 view .LVU1820
 4586 0962 9AF80020 		ldrb	r2, [r10]	@ zero_extendqisi2
2276:Src/maze_solve.c ****           qY = *current_y - 1U;
 4587              		.loc 1 2276 50 view .LVU1821
 4588 0966 AB78     		ldrb	r3, [r5, #2]	@ zero_extendqisi2
2276:Src/maze_solve.c ****           qY = *current_y - 1U;
 4589              		.loc 1 2276 12 view .LVU1822
 4590 0968 9A42     		cmp	r2, r3
 4591 096a 00F08A80 		beq	.L456
 4592              	.L336:
2288:Src/maze_solve.c ****           qY = *current_x - 1U;
 4593              		.loc 1 2288 9 is_stmt 1 view .LVU1823
2288:Src/maze_solve.c ****           qY = *current_x - 1U;
 4594              		.loc 1 2288 13 is_stmt 0 view .LVU1824
 4595 096e 9AF80020 		ldrb	r2, [r10]	@ zero_extendqisi2
2288:Src/maze_solve.c ****           qY = *current_x - 1U;
ARM GAS  C:\Temp\cc4yiJU0.s 			page 140


 4596              		.loc 1 2288 50 view .LVU1825
 4597 0972 EB78     		ldrb	r3, [r5, #3]	@ zero_extendqisi2
2288:Src/maze_solve.c ****           qY = *current_x - 1U;
 4598              		.loc 1 2288 12 view .LVU1826
 4599 0974 9A42     		cmp	r2, r3
 4600 0976 7FF47EAF 		bne	.L223
2289:Src/maze_solve.c ****           if (qY > *current_x) {
 4601              		.loc 1 2289 11 is_stmt 1 view .LVU1827
2289:Src/maze_solve.c ****           if (qY > *current_x) {
 4602              		.loc 1 2289 16 is_stmt 0 view .LVU1828
 4603 097a 2278     		ldrb	r2, [r4]	@ zero_extendqisi2
2289:Src/maze_solve.c ****           if (qY > *current_x) {
 4604              		.loc 1 2289 14 view .LVU1829
 4605 097c 531E     		subs	r3, r2, #1
 4606              	.LVL666:
2290:Src/maze_solve.c ****             qY = 0U;
 4607              		.loc 1 2290 11 is_stmt 1 view .LVU1830
2290:Src/maze_solve.c ****             qY = 0U;
 4608              		.loc 1 2290 14 is_stmt 0 view .LVU1831
 4609 097e 9A42     		cmp	r2, r3
 4610 0980 00D2     		bcs	.L338
2291:Src/maze_solve.c ****           }
 4611              		.loc 1 2291 16 view .LVU1832
 4612 0982 0023     		movs	r3, #0
 4613              	.LVL667:
 4614              	.L338:
2294:Src/maze_solve.c **** 
 4615              		.loc 1 2294 11 is_stmt 1 view .LVU1833
2294:Src/maze_solve.c **** 
 4616              		.loc 1 2294 22 is_stmt 0 view .LVU1834
 4617 0984 2370     		strb	r3, [r4]
2373:Src/maze_solve.c **** 
 4618              		.loc 1 2373 11 is_stmt 1 view .LVU1835
 4619 0986 76E7     		b	.L223
 4620              	.L464:
 4621              		.align	2
 4622              	.L463:
 4623 0988 00000000 		.word	.LANCHOR5
 4624 098c 00000000 		.word	.LANCHOR4
 4625 0990 00000240 		.word	1073872896
 4626 0994 00000000 		.word	.LANCHOR3
 4627              	.LVL668:
 4628              	.L312:
2108:Src/maze_solve.c ****        case 0:	//前進時
 4629              		.loc 1 2108 7 view .LVU1836
2166:Src/maze_solve.c ****         /* 入力 現在方向 */
 4630              		.loc 1 2166 6 view .LVU1837
 4631 0998 FFF7FEFF 		bl	move_right
 4632              	.LVL669:
2170:Src/maze_solve.c ****         if ((unsigned int)i10 > 255U) {
 4633              		.loc 1 2170 9 view .LVU1838
2170:Src/maze_solve.c ****         if ((unsigned int)i10 > 255U) {
 4634              		.loc 1 2170 26 is_stmt 0 view .LVU1839
 4635 099c 9AF80030 		ldrb	r3, [r10]	@ zero_extendqisi2
2170:Src/maze_solve.c ****         if ((unsigned int)i10 > 255U) {
 4636              		.loc 1 2170 24 view .LVU1840
 4637 09a0 0433     		adds	r3, r3, #4
ARM GAS  C:\Temp\cc4yiJU0.s 			page 141


 4638              	.LVL670:
2171:Src/maze_solve.c ****           i10 = 255;
 4639              		.loc 1 2171 9 is_stmt 1 view .LVU1841
2171:Src/maze_solve.c ****           i10 = 255;
 4640              		.loc 1 2171 12 is_stmt 0 view .LVU1842
 4641 09a2 FF2B     		cmp	r3, #255
 4642 09a4 40D8     		bhi	.L422
 4643              	.LVL671:
 4644              	.L317:
2175:Src/maze_solve.c ****         if ((unsigned int)i10 > 255U) {
 4645              		.loc 1 2175 9 is_stmt 1 view .LVU1843
2175:Src/maze_solve.c ****         if ((unsigned int)i10 > 255U) {
 4646              		.loc 1 2175 12 is_stmt 0 view .LVU1844
 4647 09a6 0133     		adds	r3, r3, #1
 4648              	.LVL672:
2176:Src/maze_solve.c ****           i10 = 255;
 4649              		.loc 1 2176 9 is_stmt 1 view .LVU1845
2176:Src/maze_solve.c ****           i10 = 255;
 4650              		.loc 1 2176 12 is_stmt 0 view .LVU1846
 4651 09a8 FF2B     		cmp	r3, #255
 4652 09aa 00D9     		bls	.L324
2177:Src/maze_solve.c ****         }
 4653              		.loc 1 2177 15 view .LVU1847
 4654 09ac FF23     		movs	r3, #255
 4655              	.LVL673:
 4656              	.L324:
2180:Src/maze_solve.c **** 
 4657              		.loc 1 2180 9 is_stmt 1 view .LVU1848
2180:Src/maze_solve.c **** 
 4658              		.loc 1 2180 44 is_stmt 0 view .LVU1849
 4659 09ae 5A42     		rsbs	r2, r3, #0
 4660 09b0 03F00303 		and	r3, r3, #3
 4661              	.LVL674:
2180:Src/maze_solve.c **** 
 4662              		.loc 1 2180 44 view .LVU1850
 4663 09b4 02F00302 		and	r2, r2, #3
 4664 09b8 58BF     		it	pl
 4665 09ba 5342     		rsbpl	r3, r2, #0
2180:Src/maze_solve.c **** 
 4666              		.loc 1 2180 24 view .LVU1851
 4667 09bc DBB2     		uxtb	r3, r3
2180:Src/maze_solve.c **** 
 4668              		.loc 1 2180 22 view .LVU1852
 4669 09be 8AF80030 		strb	r3, [r10]
2186:Src/maze_solve.c ****           i10 = (int)(*current_y + 1U);
 4670              		.loc 1 2186 9 is_stmt 1 view .LVU1853
2186:Src/maze_solve.c ****           i10 = (int)(*current_y + 1U);
 4671              		.loc 1 2186 50 is_stmt 0 view .LVU1854
 4672 09c2 2A78     		ldrb	r2, [r5]	@ zero_extendqisi2
2186:Src/maze_solve.c ****           i10 = (int)(*current_y + 1U);
 4673              		.loc 1 2186 12 view .LVU1855
 4674 09c4 9342     		cmp	r3, r2
 4675 09c6 31D0     		beq	.L457
 4676              	.L325:
2198:Src/maze_solve.c ****           i10 = (int)(*current_x + 1U);
 4677              		.loc 1 2198 9 is_stmt 1 view .LVU1856
2198:Src/maze_solve.c ****           i10 = (int)(*current_x + 1U);
ARM GAS  C:\Temp\cc4yiJU0.s 			page 142


 4678              		.loc 1 2198 13 is_stmt 0 view .LVU1857
 4679 09c8 9AF80020 		ldrb	r2, [r10]	@ zero_extendqisi2
2198:Src/maze_solve.c ****           i10 = (int)(*current_x + 1U);
 4680              		.loc 1 2198 50 view .LVU1858
 4681 09cc 6B78     		ldrb	r3, [r5, #1]	@ zero_extendqisi2
2198:Src/maze_solve.c ****           i10 = (int)(*current_x + 1U);
 4682              		.loc 1 2198 12 view .LVU1859
 4683 09ce 9A42     		cmp	r2, r3
 4684 09d0 35D0     		beq	.L458
 4685              	.L327:
2210:Src/maze_solve.c ****           qY = *current_y - 1U;
 4686              		.loc 1 2210 9 is_stmt 1 view .LVU1860
2210:Src/maze_solve.c ****           qY = *current_y - 1U;
 4687              		.loc 1 2210 13 is_stmt 0 view .LVU1861
 4688 09d2 9AF80020 		ldrb	r2, [r10]	@ zero_extendqisi2
2210:Src/maze_solve.c ****           qY = *current_y - 1U;
 4689              		.loc 1 2210 50 view .LVU1862
 4690 09d6 AB78     		ldrb	r3, [r5, #2]	@ zero_extendqisi2
2210:Src/maze_solve.c ****           qY = *current_y - 1U;
 4691              		.loc 1 2210 12 view .LVU1863
 4692 09d8 9A42     		cmp	r2, r3
 4693 09da 37D0     		beq	.L459
 4694              	.L329:
2222:Src/maze_solve.c ****           qY = *current_x - 1U;
 4695              		.loc 1 2222 9 is_stmt 1 view .LVU1864
2222:Src/maze_solve.c ****           qY = *current_x - 1U;
 4696              		.loc 1 2222 13 is_stmt 0 view .LVU1865
 4697 09dc 9AF80020 		ldrb	r2, [r10]	@ zero_extendqisi2
2222:Src/maze_solve.c ****           qY = *current_x - 1U;
 4698              		.loc 1 2222 50 view .LVU1866
 4699 09e0 EB78     		ldrb	r3, [r5, #3]	@ zero_extendqisi2
2222:Src/maze_solve.c ****           qY = *current_x - 1U;
 4700              		.loc 1 2222 12 view .LVU1867
 4701 09e2 9A42     		cmp	r2, r3
 4702 09e4 7FF447AF 		bne	.L223
2223:Src/maze_solve.c ****           if (qY > *current_x) {
 4703              		.loc 1 2223 11 is_stmt 1 view .LVU1868
2223:Src/maze_solve.c ****           if (qY > *current_x) {
 4704              		.loc 1 2223 16 is_stmt 0 view .LVU1869
 4705 09e8 2278     		ldrb	r2, [r4]	@ zero_extendqisi2
2223:Src/maze_solve.c ****           if (qY > *current_x) {
 4706              		.loc 1 2223 14 view .LVU1870
 4707 09ea 531E     		subs	r3, r2, #1
 4708              	.LVL675:
2224:Src/maze_solve.c ****             qY = 0U;
 4709              		.loc 1 2224 11 is_stmt 1 view .LVU1871
2224:Src/maze_solve.c ****             qY = 0U;
 4710              		.loc 1 2224 14 is_stmt 0 view .LVU1872
 4711 09ec 9A42     		cmp	r2, r3
 4712 09ee 00D2     		bcs	.L331
2225:Src/maze_solve.c ****           }
 4713              		.loc 1 2225 16 view .LVU1873
 4714 09f0 0023     		movs	r3, #0
 4715              	.LVL676:
 4716              	.L331:
2228:Src/maze_solve.c **** 
 4717              		.loc 1 2228 11 is_stmt 1 view .LVU1874
ARM GAS  C:\Temp\cc4yiJU0.s 			page 143


2228:Src/maze_solve.c **** 
 4718              		.loc 1 2228 22 is_stmt 0 view .LVU1875
 4719 09f2 2370     		strb	r3, [r4]
2373:Src/maze_solve.c **** 
 4720              		.loc 1 2373 11 is_stmt 1 view .LVU1876
 4721 09f4 3FE7     		b	.L223
 4722              	.LVL677:
 4723              	.L448:
2116:Src/maze_solve.c ****           if ((unsigned int)i10 > 255U) {
 4724              		.loc 1 2116 11 view .LVU1877
2116:Src/maze_solve.c ****           if ((unsigned int)i10 > 255U) {
 4725              		.loc 1 2116 23 is_stmt 0 view .LVU1878
 4726 09f6 99F80030 		ldrb	r3, [r9]	@ zero_extendqisi2
2116:Src/maze_solve.c ****           if ((unsigned int)i10 > 255U) {
 4727              		.loc 1 2116 34 view .LVU1879
 4728 09fa 0133     		adds	r3, r3, #1
 4729              	.LVL678:
2117:Src/maze_solve.c ****             i10 = 255;
 4730              		.loc 1 2117 11 is_stmt 1 view .LVU1880
2117:Src/maze_solve.c ****             i10 = 255;
 4731              		.loc 1 2117 14 is_stmt 0 view .LVU1881
 4732 09fc FF2B     		cmp	r3, #255
 4733 09fe 00D9     		bls	.L318
2118:Src/maze_solve.c ****           }
 4734              		.loc 1 2118 17 view .LVU1882
 4735 0a00 FF23     		movs	r3, #255
 4736              	.LVL679:
 4737              	.L318:
2121:Src/maze_solve.c **** 
 4738              		.loc 1 2121 11 is_stmt 1 view .LVU1883
2121:Src/maze_solve.c **** 
 4739              		.loc 1 2121 22 is_stmt 0 view .LVU1884
 4740 0a02 89F80030 		strb	r3, [r9]
 4741 0a06 48E7     		b	.L311
 4742              	.LVL680:
 4743              	.L449:
2128:Src/maze_solve.c ****           if ((unsigned int)i10 > 255U) {
 4744              		.loc 1 2128 11 is_stmt 1 view .LVU1885
2128:Src/maze_solve.c ****           if ((unsigned int)i10 > 255U) {
 4745              		.loc 1 2128 23 is_stmt 0 view .LVU1886
 4746 0a08 2378     		ldrb	r3, [r4]	@ zero_extendqisi2
2128:Src/maze_solve.c ****           if ((unsigned int)i10 > 255U) {
 4747              		.loc 1 2128 34 view .LVU1887
 4748 0a0a 0133     		adds	r3, r3, #1
 4749              	.LVL681:
2129:Src/maze_solve.c ****             i10 = 255;
 4750              		.loc 1 2129 11 is_stmt 1 view .LVU1888
2129:Src/maze_solve.c ****             i10 = 255;
 4751              		.loc 1 2129 14 is_stmt 0 view .LVU1889
 4752 0a0c FF2B     		cmp	r3, #255
 4753 0a0e 00D9     		bls	.L320
2130:Src/maze_solve.c ****           }
 4754              		.loc 1 2130 17 view .LVU1890
 4755 0a10 FF23     		movs	r3, #255
 4756              	.LVL682:
 4757              	.L320:
2133:Src/maze_solve.c **** 
ARM GAS  C:\Temp\cc4yiJU0.s 			page 144


 4758              		.loc 1 2133 11 is_stmt 1 view .LVU1891
2133:Src/maze_solve.c **** 
 4759              		.loc 1 2133 22 is_stmt 0 view .LVU1892
 4760 0a12 2370     		strb	r3, [r4]
 4761 0a14 47E7     		b	.L319
 4762              	.LVL683:
 4763              	.L450:
2140:Src/maze_solve.c ****           if (qY > *current_y) {
 4764              		.loc 1 2140 11 is_stmt 1 view .LVU1893
2140:Src/maze_solve.c ****           if (qY > *current_y) {
 4765              		.loc 1 2140 16 is_stmt 0 view .LVU1894
 4766 0a16 99F80020 		ldrb	r2, [r9]	@ zero_extendqisi2
2140:Src/maze_solve.c ****           if (qY > *current_y) {
 4767              		.loc 1 2140 14 view .LVU1895
 4768 0a1a 531E     		subs	r3, r2, #1
 4769              	.LVL684:
2141:Src/maze_solve.c ****             qY = 0U;
 4770              		.loc 1 2141 11 is_stmt 1 view .LVU1896
2141:Src/maze_solve.c ****             qY = 0U;
 4771              		.loc 1 2141 14 is_stmt 0 view .LVU1897
 4772 0a1c 9A42     		cmp	r2, r3
 4773 0a1e 00D2     		bcs	.L322
2142:Src/maze_solve.c ****           }
 4774              		.loc 1 2142 16 view .LVU1898
 4775 0a20 0023     		movs	r3, #0
 4776              	.LVL685:
 4777              	.L322:
2145:Src/maze_solve.c **** 
 4778              		.loc 1 2145 11 is_stmt 1 view .LVU1899
2145:Src/maze_solve.c **** 
 4779              		.loc 1 2145 22 is_stmt 0 view .LVU1900
 4780 0a22 89F80030 		strb	r3, [r9]
 4781 0a26 44E7     		b	.L321
 4782              	.LVL686:
 4783              	.L422:
2172:Src/maze_solve.c ****         }
 4784              		.loc 1 2172 15 view .LVU1901
 4785 0a28 FF23     		movs	r3, #255
 4786              	.LVL687:
2172:Src/maze_solve.c ****         }
 4787              		.loc 1 2172 15 view .LVU1902
 4788 0a2a BCE7     		b	.L317
 4789              	.LVL688:
 4790              	.L457:
2187:Src/maze_solve.c ****           if ((unsigned int)i10 > 255U) {
 4791              		.loc 1 2187 11 is_stmt 1 view .LVU1903
2187:Src/maze_solve.c ****           if ((unsigned int)i10 > 255U) {
 4792              		.loc 1 2187 23 is_stmt 0 view .LVU1904
 4793 0a2c 99F80030 		ldrb	r3, [r9]	@ zero_extendqisi2
2187:Src/maze_solve.c ****           if ((unsigned int)i10 > 255U) {
 4794              		.loc 1 2187 34 view .LVU1905
 4795 0a30 0133     		adds	r3, r3, #1
 4796              	.LVL689:
2188:Src/maze_solve.c ****             i10 = 255;
 4797              		.loc 1 2188 11 is_stmt 1 view .LVU1906
2188:Src/maze_solve.c ****             i10 = 255;
 4798              		.loc 1 2188 14 is_stmt 0 view .LVU1907
ARM GAS  C:\Temp\cc4yiJU0.s 			page 145


 4799 0a32 FF2B     		cmp	r3, #255
 4800 0a34 00D9     		bls	.L326
2189:Src/maze_solve.c ****           }
 4801              		.loc 1 2189 17 view .LVU1908
 4802 0a36 FF23     		movs	r3, #255
 4803              	.LVL690:
 4804              	.L326:
2192:Src/maze_solve.c **** 
 4805              		.loc 1 2192 11 is_stmt 1 view .LVU1909
2192:Src/maze_solve.c **** 
 4806              		.loc 1 2192 22 is_stmt 0 view .LVU1910
 4807 0a38 89F80030 		strb	r3, [r9]
 4808 0a3c C4E7     		b	.L325
 4809              	.LVL691:
 4810              	.L458:
2199:Src/maze_solve.c ****           if ((unsigned int)i10 > 255U) {
 4811              		.loc 1 2199 11 is_stmt 1 view .LVU1911
2199:Src/maze_solve.c ****           if ((unsigned int)i10 > 255U) {
 4812              		.loc 1 2199 23 is_stmt 0 view .LVU1912
 4813 0a3e 2378     		ldrb	r3, [r4]	@ zero_extendqisi2
2199:Src/maze_solve.c ****           if ((unsigned int)i10 > 255U) {
 4814              		.loc 1 2199 34 view .LVU1913
 4815 0a40 0133     		adds	r3, r3, #1
 4816              	.LVL692:
2200:Src/maze_solve.c ****             i10 = 255;
 4817              		.loc 1 2200 11 is_stmt 1 view .LVU1914
2200:Src/maze_solve.c ****             i10 = 255;
 4818              		.loc 1 2200 14 is_stmt 0 view .LVU1915
 4819 0a42 FF2B     		cmp	r3, #255
 4820 0a44 00D9     		bls	.L328
2201:Src/maze_solve.c ****           }
 4821              		.loc 1 2201 17 view .LVU1916
 4822 0a46 FF23     		movs	r3, #255
 4823              	.LVL693:
 4824              	.L328:
2204:Src/maze_solve.c **** 
 4825              		.loc 1 2204 11 is_stmt 1 view .LVU1917
2204:Src/maze_solve.c **** 
 4826              		.loc 1 2204 22 is_stmt 0 view .LVU1918
 4827 0a48 2370     		strb	r3, [r4]
 4828 0a4a C2E7     		b	.L327
 4829              	.LVL694:
 4830              	.L459:
2211:Src/maze_solve.c ****           if (qY > *current_y) {
 4831              		.loc 1 2211 11 is_stmt 1 view .LVU1919
2211:Src/maze_solve.c ****           if (qY > *current_y) {
 4832              		.loc 1 2211 16 is_stmt 0 view .LVU1920
 4833 0a4c 99F80020 		ldrb	r2, [r9]	@ zero_extendqisi2
2211:Src/maze_solve.c ****           if (qY > *current_y) {
 4834              		.loc 1 2211 14 view .LVU1921
 4835 0a50 531E     		subs	r3, r2, #1
 4836              	.LVL695:
2212:Src/maze_solve.c ****             qY = 0U;
 4837              		.loc 1 2212 11 is_stmt 1 view .LVU1922
2212:Src/maze_solve.c ****             qY = 0U;
 4838              		.loc 1 2212 14 is_stmt 0 view .LVU1923
 4839 0a52 9A42     		cmp	r2, r3
ARM GAS  C:\Temp\cc4yiJU0.s 			page 146


 4840 0a54 00D2     		bcs	.L330
2213:Src/maze_solve.c ****           }
 4841              		.loc 1 2213 16 view .LVU1924
 4842 0a56 0023     		movs	r3, #0
 4843              	.LVL696:
 4844              	.L330:
2216:Src/maze_solve.c **** 
 4845              		.loc 1 2216 11 is_stmt 1 view .LVU1925
2216:Src/maze_solve.c **** 
 4846              		.loc 1 2216 22 is_stmt 0 view .LVU1926
 4847 0a58 89F80030 		strb	r3, [r9]
 4848 0a5c BEE7     		b	.L329
 4849              	.LVL697:
 4850              	.L421:
2243:Src/maze_solve.c ****         }
 4851              		.loc 1 2243 15 view .LVU1927
 4852 0a5e FF23     		movs	r3, #255
 4853              	.LVL698:
2243:Src/maze_solve.c ****         }
 4854              		.loc 1 2243 15 view .LVU1928
 4855 0a60 6AE7     		b	.L316
 4856              	.LVL699:
 4857              	.L454:
2253:Src/maze_solve.c ****           if ((unsigned int)i10 > 255U) {
 4858              		.loc 1 2253 11 is_stmt 1 view .LVU1929
2253:Src/maze_solve.c ****           if ((unsigned int)i10 > 255U) {
 4859              		.loc 1 2253 23 is_stmt 0 view .LVU1930
 4860 0a62 99F80030 		ldrb	r3, [r9]	@ zero_extendqisi2
2253:Src/maze_solve.c ****           if ((unsigned int)i10 > 255U) {
 4861              		.loc 1 2253 34 view .LVU1931
 4862 0a66 0133     		adds	r3, r3, #1
 4863              	.LVL700:
2254:Src/maze_solve.c ****             i10 = 255;
 4864              		.loc 1 2254 11 is_stmt 1 view .LVU1932
2254:Src/maze_solve.c ****             i10 = 255;
 4865              		.loc 1 2254 14 is_stmt 0 view .LVU1933
 4866 0a68 FF2B     		cmp	r3, #255
 4867 0a6a 00D9     		bls	.L333
2255:Src/maze_solve.c ****           }
 4868              		.loc 1 2255 17 view .LVU1934
 4869 0a6c FF23     		movs	r3, #255
 4870              	.LVL701:
 4871              	.L333:
2258:Src/maze_solve.c **** 
 4872              		.loc 1 2258 11 is_stmt 1 view .LVU1935
2258:Src/maze_solve.c **** 
 4873              		.loc 1 2258 22 is_stmt 0 view .LVU1936
 4874 0a6e 89F80030 		strb	r3, [r9]
 4875 0a72 70E7     		b	.L332
 4876              	.LVL702:
 4877              	.L455:
2265:Src/maze_solve.c ****           if ((unsigned int)i10 > 255U) {
 4878              		.loc 1 2265 11 is_stmt 1 view .LVU1937
2265:Src/maze_solve.c ****           if ((unsigned int)i10 > 255U) {
 4879              		.loc 1 2265 23 is_stmt 0 view .LVU1938
 4880 0a74 2378     		ldrb	r3, [r4]	@ zero_extendqisi2
2265:Src/maze_solve.c ****           if ((unsigned int)i10 > 255U) {
ARM GAS  C:\Temp\cc4yiJU0.s 			page 147


 4881              		.loc 1 2265 34 view .LVU1939
 4882 0a76 0133     		adds	r3, r3, #1
 4883              	.LVL703:
2266:Src/maze_solve.c ****             i10 = 255;
 4884              		.loc 1 2266 11 is_stmt 1 view .LVU1940
2266:Src/maze_solve.c ****             i10 = 255;
 4885              		.loc 1 2266 14 is_stmt 0 view .LVU1941
 4886 0a78 FF2B     		cmp	r3, #255
 4887 0a7a 00D9     		bls	.L335
2267:Src/maze_solve.c ****           }
 4888              		.loc 1 2267 17 view .LVU1942
 4889 0a7c FF23     		movs	r3, #255
 4890              	.LVL704:
 4891              	.L335:
2270:Src/maze_solve.c **** 
 4892              		.loc 1 2270 11 is_stmt 1 view .LVU1943
2270:Src/maze_solve.c **** 
 4893              		.loc 1 2270 22 is_stmt 0 view .LVU1944
 4894 0a7e 2370     		strb	r3, [r4]
 4895 0a80 6FE7     		b	.L334
 4896              	.LVL705:
 4897              	.L456:
2277:Src/maze_solve.c ****           if (qY > *current_y) {
 4898              		.loc 1 2277 11 is_stmt 1 view .LVU1945
2277:Src/maze_solve.c ****           if (qY > *current_y) {
 4899              		.loc 1 2277 16 is_stmt 0 view .LVU1946
 4900 0a82 99F80020 		ldrb	r2, [r9]	@ zero_extendqisi2
2277:Src/maze_solve.c ****           if (qY > *current_y) {
 4901              		.loc 1 2277 14 view .LVU1947
 4902 0a86 531E     		subs	r3, r2, #1
 4903              	.LVL706:
2278:Src/maze_solve.c ****             qY = 0U;
 4904              		.loc 1 2278 11 is_stmt 1 view .LVU1948
2278:Src/maze_solve.c ****             qY = 0U;
 4905              		.loc 1 2278 14 is_stmt 0 view .LVU1949
 4906 0a88 9A42     		cmp	r2, r3
 4907 0a8a 00D2     		bcs	.L337
2279:Src/maze_solve.c ****           }
 4908              		.loc 1 2279 16 view .LVU1950
 4909 0a8c 0023     		movs	r3, #0
 4910              	.LVL707:
 4911              	.L337:
2282:Src/maze_solve.c **** 
 4912              		.loc 1 2282 11 is_stmt 1 view .LVU1951
2282:Src/maze_solve.c **** 
 4913              		.loc 1 2282 22 is_stmt 0 view .LVU1952
 4914 0a8e 89F80030 		strb	r3, [r9]
 4915 0a92 6CE7     		b	.L336
 4916              	.LVL708:
 4917              	.L420:
2309:Src/maze_solve.c ****         }
 4918              		.loc 1 2309 15 view .LVU1953
 4919 0a94 FF23     		movs	r3, #255
 4920              	.LVL709:
2309:Src/maze_solve.c ****         }
 4921              		.loc 1 2309 15 view .LVU1954
 4922 0a96 20E7     		b	.L315
ARM GAS  C:\Temp\cc4yiJU0.s 			page 148


 4923              	.LVL710:
 4924              	.L451:
2319:Src/maze_solve.c ****           if ((unsigned int)i10 > 255U) {
 4925              		.loc 1 2319 11 is_stmt 1 view .LVU1955
2319:Src/maze_solve.c ****           if ((unsigned int)i10 > 255U) {
 4926              		.loc 1 2319 23 is_stmt 0 view .LVU1956
 4927 0a98 99F80030 		ldrb	r3, [r9]	@ zero_extendqisi2
2319:Src/maze_solve.c ****           if ((unsigned int)i10 > 255U) {
 4928              		.loc 1 2319 34 view .LVU1957
 4929 0a9c 0133     		adds	r3, r3, #1
 4930              	.LVL711:
2320:Src/maze_solve.c ****             i10 = 255;
 4931              		.loc 1 2320 11 is_stmt 1 view .LVU1958
2320:Src/maze_solve.c ****             i10 = 255;
 4932              		.loc 1 2320 14 is_stmt 0 view .LVU1959
 4933 0a9e FF2B     		cmp	r3, #255
 4934 0aa0 00D9     		bls	.L340
2321:Src/maze_solve.c ****           }
 4935              		.loc 1 2321 17 view .LVU1960
 4936 0aa2 FF23     		movs	r3, #255
 4937              	.LVL712:
 4938              	.L340:
2324:Src/maze_solve.c **** 
 4939              		.loc 1 2324 11 is_stmt 1 view .LVU1961
2324:Src/maze_solve.c **** 
 4940              		.loc 1 2324 22 is_stmt 0 view .LVU1962
 4941 0aa4 89F80030 		strb	r3, [r9]
 4942 0aa8 26E7     		b	.L339
 4943              	.LVL713:
 4944              	.L452:
2331:Src/maze_solve.c ****           if ((unsigned int)i10 > 255U) {
 4945              		.loc 1 2331 11 is_stmt 1 view .LVU1963
2331:Src/maze_solve.c ****           if ((unsigned int)i10 > 255U) {
 4946              		.loc 1 2331 23 is_stmt 0 view .LVU1964
 4947 0aaa 2378     		ldrb	r3, [r4]	@ zero_extendqisi2
2331:Src/maze_solve.c ****           if ((unsigned int)i10 > 255U) {
 4948              		.loc 1 2331 34 view .LVU1965
 4949 0aac 0133     		adds	r3, r3, #1
 4950              	.LVL714:
2332:Src/maze_solve.c ****             i10 = 255;
 4951              		.loc 1 2332 11 is_stmt 1 view .LVU1966
2332:Src/maze_solve.c ****             i10 = 255;
 4952              		.loc 1 2332 14 is_stmt 0 view .LVU1967
 4953 0aae FF2B     		cmp	r3, #255
 4954 0ab0 00D9     		bls	.L342
2333:Src/maze_solve.c ****           }
 4955              		.loc 1 2333 17 view .LVU1968
 4956 0ab2 FF23     		movs	r3, #255
 4957              	.LVL715:
 4958              	.L342:
2336:Src/maze_solve.c **** 
 4959              		.loc 1 2336 11 is_stmt 1 view .LVU1969
2336:Src/maze_solve.c **** 
 4960              		.loc 1 2336 22 is_stmt 0 view .LVU1970
 4961 0ab4 2370     		strb	r3, [r4]
 4962 0ab6 25E7     		b	.L341
 4963              	.LVL716:
ARM GAS  C:\Temp\cc4yiJU0.s 			page 149


 4964              	.L453:
2343:Src/maze_solve.c ****           if (qY > *current_y) {
 4965              		.loc 1 2343 11 is_stmt 1 view .LVU1971
2343:Src/maze_solve.c ****           if (qY > *current_y) {
 4966              		.loc 1 2343 16 is_stmt 0 view .LVU1972
 4967 0ab8 99F80020 		ldrb	r2, [r9]	@ zero_extendqisi2
2343:Src/maze_solve.c ****           if (qY > *current_y) {
 4968              		.loc 1 2343 14 view .LVU1973
 4969 0abc 531E     		subs	r3, r2, #1
 4970              	.LVL717:
2344:Src/maze_solve.c ****             qY = 0U;
 4971              		.loc 1 2344 11 is_stmt 1 view .LVU1974
2344:Src/maze_solve.c ****             qY = 0U;
 4972              		.loc 1 2344 14 is_stmt 0 view .LVU1975
 4973 0abe 9A42     		cmp	r2, r3
 4974 0ac0 00D2     		bcs	.L344
2345:Src/maze_solve.c ****           }
 4975              		.loc 1 2345 16 view .LVU1976
 4976 0ac2 0023     		movs	r3, #0
 4977              	.LVL718:
 4978              	.L344:
2348:Src/maze_solve.c **** 
 4979              		.loc 1 2348 11 is_stmt 1 view .LVU1977
2348:Src/maze_solve.c **** 
 4980              		.loc 1 2348 22 is_stmt 0 view .LVU1978
 4981 0ac4 89F80030 		strb	r3, [r9]
 4982 0ac8 22E7     		b	.L343
 4983              		.cfi_endproc
 4984              	.LFE137:
 4986 0aca 00BF     		.section	.text.make_map_fustrun,"ax",%progbits
 4987              		.align	1
 4988              		.syntax unified
 4989              		.thumb
 4990              		.thumb_func
 4991              		.fpu fpv4-sp-d16
 4993              	make_map_fustrun:
 4994              	.LVL719:
 4995              	.LFB135:
 978:Src/maze_solve.c ****   unsigned int qY;
 4996              		.loc 1 978 1 is_stmt 1 view -0
 4997              		.cfi_startproc
 4998              		@ args = 28, pretend = 0, frame = 6184
 4999              		@ frame_needed = 0, uses_anonymous_args = 0
 978:Src/maze_solve.c ****   unsigned int qY;
 5000              		.loc 1 978 1 is_stmt 0 view .LVU1980
 5001 0000 2DE9F04F 		push	{r4, r5, r6, r7, r8, r9, r10, fp, lr}
 5002              	.LCFI14:
 5003              		.cfi_def_cfa_offset 36
 5004              		.cfi_offset 4, -36
 5005              		.cfi_offset 5, -32
 5006              		.cfi_offset 6, -28
 5007              		.cfi_offset 7, -24
 5008              		.cfi_offset 8, -20
 5009              		.cfi_offset 9, -16
 5010              		.cfi_offset 10, -12
 5011              		.cfi_offset 11, -8
 5012              		.cfi_offset 14, -4
ARM GAS  C:\Temp\cc4yiJU0.s 			page 150


 5013 0004 ADF5C15D 		sub	sp, sp, #6176
 5014              	.LCFI15:
 5015              		.cfi_def_cfa_offset 6212
 5016 0008 83B0     		sub	sp, sp, #12
 5017              	.LCFI16:
 5018              		.cfi_def_cfa_offset 6224
 5019 000a 0D46     		mov	r5, r1
 5020 000c 1646     		mov	r6, r2
 5021 000e 0593     		str	r3, [sp, #20]
 5022 0010 0DF5C253 		add	r3, sp, #6208
 5023              	.LVL720:
 978:Src/maze_solve.c ****   unsigned int qY;
 5024              		.loc 1 978 1 view .LVU1981
 5025 0014 1033     		adds	r3, r3, #16
 5026 0016 1C78     		ldrb	r4, [r3]	@ zero_extendqisi2
 5027 0018 0DF5C253 		add	r3, sp, #6208
 5028 001c 1433     		adds	r3, r3, #20
 5029 001e 1B78     		ldrb	r3, [r3]	@ zero_extendqisi2
 5030 0020 0DF5C252 		add	r2, sp, #6208
 5031              	.LVL721:
 978:Src/maze_solve.c ****   unsigned int qY;
 5032              		.loc 1 978 1 view .LVU1982
 5033 0024 1832     		adds	r2, r2, #24
 5034 0026 1168     		ldr	r1, [r2]
 5035              	.LVL722:
 978:Src/maze_solve.c ****   unsigned int qY;
 5036              		.loc 1 978 1 view .LVU1983
 5037 0028 0DF5C252 		add	r2, sp, #6208
 5038 002c 1C32     		adds	r2, r2, #28
 5039 002e D2F80090 		ldr	r9, [r2]
 5040 0032 0DF5C352 		add	r2, sp, #6240
 5041              	.LVL723:
 978:Src/maze_solve.c ****   unsigned int qY;
 5042              		.loc 1 978 1 view .LVU1984
 5043 0036 0432     		adds	r2, r2, #4
 5044              	.LVL724:
 978:Src/maze_solve.c ****   unsigned int qY;
 5045              		.loc 1 978 1 view .LVU1985
 5046 0038 D2F800B0 		ldr	fp, [r2]
 979:Src/maze_solve.c ****   unsigned int b_qY;
 5047              		.loc 1 979 3 is_stmt 1 view .LVU1986
 980:Src/maze_solve.c ****   int q0;
 5048              		.loc 1 980 3 view .LVU1987
 981:Src/maze_solve.c ****   int i6;
 5049              		.loc 1 981 3 view .LVU1988
 982:Src/maze_solve.c ****   unsigned char change_flag;
 5050              		.loc 1 982 3 view .LVU1989
 983:Src/maze_solve.c ****   unsigned char tempi;
 5051              		.loc 1 983 3 view .LVU1990
 984:Src/maze_solve.c ****   int idx;
 5052              		.loc 1 984 3 view .LVU1991
 985:Src/maze_solve.c ****   bool exitg1;
 5053              		.loc 1 985 3 view .LVU1992
 986:Src/maze_solve.c ****   int loop_ub;
 5054              		.loc 1 986 3 view .LVU1993
 987:Src/maze_solve.c ****   static short ii_data[1024];
 5055              		.loc 1 987 3 view .LVU1994
ARM GAS  C:\Temp\cc4yiJU0.s 			page 151


 988:Src/maze_solve.c ****   int num_temp_size[1];
 5056              		.loc 1 988 3 view .LVU1995
 989:Src/maze_solve.c ****   static unsigned short num_temp_data[1024];
 5057              		.loc 1 989 3 view .LVU1996
 990:Src/maze_solve.c ****   int b_num_temp_size[1];
 5058              		.loc 1 990 3 view .LVU1997
 991:Src/maze_solve.c ****   unsigned short b_num_temp_data[1024];
 5059              		.loc 1 991 3 view .LVU1998
 992:Src/maze_solve.c ****   unsigned short tmp_data[1024];
 5060              		.loc 1 992 3 view .LVU1999
 993:Src/maze_solve.c ****   int tmp_size[1];
 5061              		.loc 1 993 3 view .LVU2000
 994:Src/maze_solve.c ****   unsigned short u1;
 5062              		.loc 1 994 3 view .LVU2001
 995:Src/maze_solve.c ****   unsigned char row_data[1024];
 5063              		.loc 1 995 3 view .LVU2002
 996:Src/maze_solve.c ****   unsigned char k;
 5064              		.loc 1 996 3 view .LVU2003
 997:Src/maze_solve.c ****   unsigned char col_data[1024];
 5065              		.loc 1 997 3 view .LVU2004
 998:Src/maze_solve.c ****   int i7;
 5066              		.loc 1 998 3 view .LVU2005
 999:Src/maze_solve.c ****   int b_k;
 5067              		.loc 1 999 3 view .LVU2006
1000:Src/maze_solve.c ****   int c_k;
 5068              		.loc 1 1000 3 view .LVU2007
1001:Src/maze_solve.c ****   int d_k;
 5069              		.loc 1 1001 3 view .LVU2008
1002:Src/maze_solve.c ****   int i8;
 5070              		.loc 1 1002 3 view .LVU2009
1003:Src/maze_solve.c ****   int e_k;
 5071              		.loc 1 1003 3 view .LVU2010
1004:Src/maze_solve.c ****   int f_k;
 5072              		.loc 1 1004 3 view .LVU2011
1005:Src/maze_solve.c ****   int g_k;
 5073              		.loc 1 1005 3 view .LVU2012
1006:Src/maze_solve.c ****   int h_k;
 5074              		.loc 1 1006 3 view .LVU2013
1007:Src/maze_solve.c ****   int i_k;
 5075              		.loc 1 1007 3 view .LVU2014
1008:Src/maze_solve.c **** 
 5076              		.loc 1 1008 3 view .LVU2015
1013:Src/maze_solve.c ****   if (qY > maze_col_size) {
 5077              		.loc 1 1013 3 view .LVU2016
1013:Src/maze_solve.c ****   if (qY > maze_col_size) {
 5078              		.loc 1 1013 6 is_stmt 0 view .LVU2017
 5079 003c 5A1E     		subs	r2, r3, #1
 5080              	.LVL725:
1014:Src/maze_solve.c ****     qY = 0U;
 5081              		.loc 1 1014 3 is_stmt 1 view .LVU2018
1014:Src/maze_solve.c ****     qY = 0U;
 5082              		.loc 1 1014 6 is_stmt 0 view .LVU2019
 5083 003e 9342     		cmp	r3, r2
 5084 0040 00D2     		bcs	.L466
1015:Src/maze_solve.c ****   }
 5085              		.loc 1 1015 8 view .LVU2020
 5086 0042 0022     		movs	r2, #0
ARM GAS  C:\Temp\cc4yiJU0.s 			page 152


 5087              	.LVL726:
 5088              	.L466:
1018:Src/maze_solve.c ****   if (b_qY > maze_row_size) {
 5089              		.loc 1 1018 3 is_stmt 1 view .LVU2021
1018:Src/maze_solve.c ****   if (b_qY > maze_row_size) {
 5090              		.loc 1 1018 8 is_stmt 0 view .LVU2022
 5091 0044 631E     		subs	r3, r4, #1
 5092              	.LVL727:
1019:Src/maze_solve.c ****     b_qY = 0U;
 5093              		.loc 1 1019 3 is_stmt 1 view .LVU2023
1019:Src/maze_solve.c ****     b_qY = 0U;
 5094              		.loc 1 1019 6 is_stmt 0 view .LVU2024
 5095 0046 9C42     		cmp	r4, r3
 5096 0048 00D2     		bcs	.L467
1020:Src/maze_solve.c ****   }
 5097              		.loc 1 1020 10 view .LVU2025
 5098 004a 0023     		movs	r3, #0
 5099              	.LVL728:
 5100              	.L467:
1023:Src/maze_solve.c ****   if ((unsigned int)q0 > 255U) {
 5101              		.loc 1 1023 3 is_stmt 1 view .LVU2026
1023:Src/maze_solve.c ****   if ((unsigned int)q0 > 255U) {
 5102              		.loc 1 1023 17 is_stmt 0 view .LVU2027
 5103 004c 03FB02F3 		mul	r3, r3, r2
 5104              	.LVL729:
1024:Src/maze_solve.c ****     q0 = 255;
 5105              		.loc 1 1024 3 is_stmt 1 view .LVU2028
1024:Src/maze_solve.c ****     q0 = 255;
 5106              		.loc 1 1024 6 is_stmt 0 view .LVU2029
 5107 0050 FF2B     		cmp	r3, #255
 5108 0052 00D9     		bls	.L468
1025:Src/maze_solve.c ****   }
 5109              		.loc 1 1025 8 view .LVU2030
 5110 0054 FF23     		movs	r3, #255
 5111              	.LVL730:
 5112              	.L468:
1028:Src/maze_solve.c ****   if (qY > (unsigned int)q0) {
 5113              		.loc 1 1028 3 is_stmt 1 view .LVU2031
1028:Src/maze_solve.c ****   if (qY > (unsigned int)q0) {
 5114              		.loc 1 1028 6 is_stmt 0 view .LVU2032
 5115 0056 5A1E     		subs	r2, r3, #1
 5116              	.LVL731:
1029:Src/maze_solve.c ****     qY = 0U;
 5117              		.loc 1 1029 3 is_stmt 1 view .LVU2033
1029:Src/maze_solve.c ****     qY = 0U;
 5118              		.loc 1 1029 6 is_stmt 0 view .LVU2034
 5119 0058 9342     		cmp	r3, r2
 5120 005a 00D2     		bcs	.L469
1030:Src/maze_solve.c ****   }
 5121              		.loc 1 1030 8 view .LVU2035
 5122 005c 0022     		movs	r2, #0
 5123              	.LVL732:
 5124              	.L469:
1033:Src/maze_solve.c **** 
 5125              		.loc 1 1033 3 is_stmt 1 view .LVU2036
1033:Src/maze_solve.c **** 
 5126              		.loc 1 1033 17 is_stmt 0 view .LVU2037
ARM GAS  C:\Temp\cc4yiJU0.s 			page 153


 5127 005e D3B2     		uxtb	r3, r2
 5128              	.LVL733:
1033:Src/maze_solve.c **** 
 5129              		.loc 1 1033 17 view .LVU2038
 5130 0060 0393     		str	r3, [sp, #12]
1033:Src/maze_solve.c **** 
 5131              		.loc 1 1033 15 view .LVU2039
 5132 0062 0DF5C352 		add	r2, sp, #6240
 5133              	.LVL734:
1033:Src/maze_solve.c **** 
 5134              		.loc 1 1033 15 view .LVU2040
 5135 0066 0832     		adds	r2, r2, #8
 5136              	.LVL735:
1033:Src/maze_solve.c **** 
 5137              		.loc 1 1033 15 view .LVU2041
 5138 0068 1268     		ldr	r2, [r2]
 5139              	.LVL736:
1033:Src/maze_solve.c **** 
 5140              		.loc 1 1033 15 view .LVU2042
 5141 006a 1446     		mov	r4, r2
 5142 006c 1A46     		mov	r2, r3
 5143 006e 2370     		strb	r3, [r4]
1038:Src/maze_solve.c ****     contour_map[i6] = (unsigned char)qY;
 5144              		.loc 1 1038 3 is_stmt 1 view .LVU2043
 5145              	.LVL737:
1038:Src/maze_solve.c ****     contour_map[i6] = (unsigned char)qY;
 5146              		.loc 1 1038 11 is_stmt 0 view .LVU2044
 5147 0070 0023     		movs	r3, #0
 5148              	.LVL738:
 5149              	.L470:
1038:Src/maze_solve.c ****     contour_map[i6] = (unsigned char)qY;
 5150              		.loc 1 1038 16 is_stmt 1 discriminator 1 view .LVU2045
1038:Src/maze_solve.c ****     contour_map[i6] = (unsigned char)qY;
 5151              		.loc 1 1038 3 is_stmt 0 discriminator 1 view .LVU2046
 5152 0072 B3F5806F 		cmp	r3, #1024
 5153 0076 03DA     		bge	.L525
1039:Src/maze_solve.c ****   }
 5154              		.loc 1 1039 5 is_stmt 1 discriminator 3 view .LVU2047
1039:Src/maze_solve.c ****   }
 5155              		.loc 1 1039 21 is_stmt 0 discriminator 3 view .LVU2048
 5156 0078 0BF80320 		strb	r2, [fp, r3]
1038:Src/maze_solve.c ****     contour_map[i6] = (unsigned char)qY;
 5157              		.loc 1 1038 27 is_stmt 1 discriminator 3 view .LVU2049
1038:Src/maze_solve.c ****     contour_map[i6] = (unsigned char)qY;
 5158              		.loc 1 1038 29 is_stmt 0 discriminator 3 view .LVU2050
 5159 007c 0133     		adds	r3, r3, #1
 5160              	.LVL739:
1038:Src/maze_solve.c ****     contour_map[i6] = (unsigned char)qY;
 5161              		.loc 1 1038 29 discriminator 3 view .LVU2051
 5162 007e F8E7     		b	.L470
 5163              	.L525:
1043:Src/maze_solve.c ****   i6 = change_flag;
 5164              		.loc 1 1043 3 is_stmt 1 view .LVU2052
1043:Src/maze_solve.c ****   i6 = change_flag;
 5165              		.loc 1 1043 15 is_stmt 0 view .LVU2053
 5166 0080 0078     		ldrb	r0, [r0]	@ zero_extendqisi2
 5167              	.LVL740:
ARM GAS  C:\Temp\cc4yiJU0.s 			page 154


1044:Src/maze_solve.c ****   for (q0 = 0; q0 < i6; q0++) {
 5168              		.loc 1 1044 3 is_stmt 1 view .LVU2054
1045:Src/maze_solve.c ****     contour_map[(maze_goal[q0 + 9] + ((maze_goal[q0] - 1) << 5)) - 1] = 0U;
 5169              		.loc 1 1045 3 view .LVU2055
1045:Src/maze_solve.c ****     contour_map[(maze_goal[q0 + 9] + ((maze_goal[q0] - 1) << 5)) - 1] = 0U;
 5170              		.loc 1 1045 11 is_stmt 0 view .LVU2056
 5171 0082 0022     		movs	r2, #0
1045:Src/maze_solve.c ****     contour_map[(maze_goal[q0 + 9] + ((maze_goal[q0] - 1) << 5)) - 1] = 0U;
 5172              		.loc 1 1045 3 view .LVU2057
 5173 0084 0AE0     		b	.L472
 5174              	.LVL741:
 5175              	.L473:
1046:Src/maze_solve.c ****   }
 5176              		.loc 1 1046 5 is_stmt 1 discriminator 3 view .LVU2058
1046:Src/maze_solve.c ****   }
 5177              		.loc 1 1046 27 is_stmt 0 discriminator 3 view .LVU2059
 5178 0086 8B18     		adds	r3, r1, r2
 5179 0088 5B7A     		ldrb	r3, [r3, #9]	@ zero_extendqisi2
1046:Src/maze_solve.c ****   }
 5180              		.loc 1 1046 49 discriminator 3 view .LVU2060
 5181 008a 8C5C     		ldrb	r4, [r1, r2]	@ zero_extendqisi2
1046:Src/maze_solve.c ****   }
 5182              		.loc 1 1046 54 discriminator 3 view .LVU2061
 5183 008c 013C     		subs	r4, r4, #1
1046:Src/maze_solve.c ****   }
 5184              		.loc 1 1046 36 discriminator 3 view .LVU2062
 5185 008e 03EB4413 		add	r3, r3, r4, lsl #5
1046:Src/maze_solve.c ****   }
 5186              		.loc 1 1046 16 discriminator 3 view .LVU2063
 5187 0092 013B     		subs	r3, r3, #1
1046:Src/maze_solve.c ****   }
 5188              		.loc 1 1046 71 discriminator 3 view .LVU2064
 5189 0094 0024     		movs	r4, #0
 5190 0096 0BF80340 		strb	r4, [fp, r3]
1045:Src/maze_solve.c ****     contour_map[(maze_goal[q0 + 9] + ((maze_goal[q0] - 1) << 5)) - 1] = 0U;
 5191              		.loc 1 1045 25 is_stmt 1 discriminator 3 view .LVU2065
1045:Src/maze_solve.c ****     contour_map[(maze_goal[q0 + 9] + ((maze_goal[q0] - 1) << 5)) - 1] = 0U;
 5192              		.loc 1 1045 27 is_stmt 0 discriminator 3 view .LVU2066
 5193 009a 0132     		adds	r2, r2, #1
 5194              	.LVL742:
 5195              	.L472:
1045:Src/maze_solve.c ****     contour_map[(maze_goal[q0 + 9] + ((maze_goal[q0] - 1) << 5)) - 1] = 0U;
 5196              		.loc 1 1045 16 is_stmt 1 discriminator 1 view .LVU2067
1045:Src/maze_solve.c ****     contour_map[(maze_goal[q0 + 9] + ((maze_goal[q0] - 1) << 5)) - 1] = 0U;
 5197              		.loc 1 1045 3 is_stmt 0 discriminator 1 view .LVU2068
 5198 009c 8242     		cmp	r2, r0
 5199 009e F2DB     		blt	.L473
 5200              	.LVL743:
 5201              	.L507:
1049:Src/maze_solve.c ****     change_flag = 0U;
 5202              		.loc 1 1049 3 is_stmt 1 view .LVU2069
1050:Src/maze_solve.c **** 
 5203              		.loc 1 1050 5 view .LVU2070
1053:Src/maze_solve.c ****       /* 歩数カウントは0~max_length */
 5204              		.loc 1 1053 5 view .LVU2071
1053:Src/maze_solve.c ****       /* 歩数カウントは0~max_length */
 5205              		.loc 1 1053 16 is_stmt 0 view .LVU2072
ARM GAS  C:\Temp\cc4yiJU0.s 			page 155


 5206 00a0 0023     		movs	r3, #0
 5207 00a2 0193     		str	r3, [sp, #4]
1050:Src/maze_solve.c **** 
 5208              		.loc 1 1050 17 view .LVU2073
 5209 00a4 0493     		str	r3, [sp, #16]
1053:Src/maze_solve.c ****       /* 歩数カウントは0~max_length */
 5210              		.loc 1 1053 5 view .LVU2074
 5211 00a6 CAE1     		b	.L474
 5212              	.LVL744:
 5213              	.L475:
1070:Src/maze_solve.c ****         }
 5214              		.loc 1 1070 11 is_stmt 1 view .LVU2075
1070:Src/maze_solve.c ****         }
 5215              		.loc 1 1070 13 is_stmt 0 view .LVU2076
 5216 00a8 0133     		adds	r3, r3, #1
 5217              	.LVL745:
 5218              	.L506:
1060:Src/maze_solve.c ****         if (contour_map[q0] == tempi) {
 5219              		.loc 1 1060 13 is_stmt 1 view .LVU2077
 5220 00aa A9B9     		cbnz	r1, .L477
1060:Src/maze_solve.c ****         if (contour_map[q0] == tempi) {
 5221              		.loc 1 1060 24 is_stmt 0 discriminator 1 view .LVU2078
 5222 00ac B3F5806F 		cmp	r3, #1024
 5223 00b0 12DA     		bge	.L477
1061:Src/maze_solve.c ****           idx++;
 5224              		.loc 1 1061 9 is_stmt 1 view .LVU2079
1061:Src/maze_solve.c ****           idx++;
 5225              		.loc 1 1061 24 is_stmt 0 view .LVU2080
 5226 00b2 1BF80320 		ldrb	r2, [fp, r3]	@ zero_extendqisi2
1061:Src/maze_solve.c ****           idx++;
 5227              		.loc 1 1061 12 view .LVU2081
 5228 00b6 0198     		ldr	r0, [sp, #4]
 5229 00b8 8242     		cmp	r2, r0
 5230 00ba F5D1     		bne	.L475
1062:Src/maze_solve.c ****           ii_data[idx - 1] = (short)(q0 + 1);
 5231              		.loc 1 1062 11 is_stmt 1 view .LVU2082
1062:Src/maze_solve.c ****           ii_data[idx - 1] = (short)(q0 + 1);
 5232              		.loc 1 1062 14 is_stmt 0 view .LVU2083
 5233 00bc 781C     		adds	r0, r7, #1
 5234              	.LVL746:
1063:Src/maze_solve.c ****           if (idx >= 1024) {
 5235              		.loc 1 1063 11 is_stmt 1 view .LVU2084
1063:Src/maze_solve.c ****           if (idx >= 1024) {
 5236              		.loc 1 1063 41 is_stmt 0 view .LVU2085
 5237 00be 5A1C     		adds	r2, r3, #1
1063:Src/maze_solve.c ****           if (idx >= 1024) {
 5238              		.loc 1 1063 28 view .LVU2086
 5239 00c0 C64C     		ldr	r4, .L537
 5240 00c2 24F81720 		strh	r2, [r4, r7, lsl #1]	@ movhi
1064:Src/maze_solve.c ****             exitg1 = true;
 5241              		.loc 1 1064 11 is_stmt 1 view .LVU2087
1064:Src/maze_solve.c ****             exitg1 = true;
 5242              		.loc 1 1064 14 is_stmt 0 view .LVU2088
 5243 00c6 B0F5806F 		cmp	r0, #1024
 5244 00ca 02DA     		bge	.L512
1067:Src/maze_solve.c ****           }
 5245              		.loc 1 1067 13 is_stmt 1 view .LVU2089
ARM GAS  C:\Temp\cc4yiJU0.s 			page 156


1067:Src/maze_solve.c ****           }
 5246              		.loc 1 1067 15 is_stmt 0 view .LVU2090
 5247 00cc 1346     		mov	r3, r2
 5248              	.LVL747:
1062:Src/maze_solve.c ****           ii_data[idx - 1] = (short)(q0 + 1);
 5249              		.loc 1 1062 14 view .LVU2091
 5250 00ce 0746     		mov	r7, r0
 5251 00d0 EBE7     		b	.L506
 5252              	.LVL748:
 5253              	.L512:
1062:Src/maze_solve.c ****           ii_data[idx - 1] = (short)(q0 + 1);
 5254              		.loc 1 1062 14 view .LVU2092
 5255 00d2 0746     		mov	r7, r0
1065:Src/maze_solve.c ****           } else {
 5256              		.loc 1 1065 20 view .LVU2093
 5257 00d4 0121     		movs	r1, #1
 5258              	.LVL749:
1065:Src/maze_solve.c ****           } else {
 5259              		.loc 1 1065 20 view .LVU2094
 5260 00d6 E8E7     		b	.L506
 5261              	.LVL750:
 5262              	.L477:
1074:Src/maze_solve.c ****         loop_ub = 0;
 5263              		.loc 1 1074 7 is_stmt 1 view .LVU2095
1074:Src/maze_solve.c ****         loop_ub = 0;
 5264              		.loc 1 1074 10 is_stmt 0 view .LVU2096
 5265 00d8 002F     		cmp	r7, #0
 5266 00da 05DD     		ble	.L526
 5267              	.LVL751:
 5268              	.L479:
1082:Src/maze_solve.c ****       for (i6 = 0; i6 < loop_ub; i6++) {
 5269              		.loc 1 1082 7 is_stmt 1 view .LVU2097
1082:Src/maze_solve.c ****       for (i6 = 0; i6 < loop_ub; i6++) {
 5270              		.loc 1 1082 24 is_stmt 0 view .LVU2098
 5271 00dc 0DF5C153 		add	r3, sp, #6176
 5272 00e0 0433     		adds	r3, r3, #4
 5273 00e2 1F60     		str	r7, [r3]
1083:Src/maze_solve.c ****         num_temp_data[i6] = (unsigned short)ii_data[i6];
 5274              		.loc 1 1083 7 is_stmt 1 view .LVU2099
 5275              	.LVL752:
1083:Src/maze_solve.c ****         num_temp_data[i6] = (unsigned short)ii_data[i6];
 5276              		.loc 1 1083 15 is_stmt 0 view .LVU2100
 5277 00e4 0023     		movs	r3, #0
1083:Src/maze_solve.c ****         num_temp_data[i6] = (unsigned short)ii_data[i6];
 5278              		.loc 1 1083 7 view .LVU2101
 5279 00e6 08E0     		b	.L480
 5280              	.LVL753:
 5281              	.L526:
1076:Src/maze_solve.c ****       } else {
 5282              		.loc 1 1076 12 view .LVU2102
 5283 00e8 0027     		movs	r7, #0
 5284              	.LVL754:
1076:Src/maze_solve.c ****       } else {
 5285              		.loc 1 1076 12 view .LVU2103
 5286 00ea F7E7     		b	.L479
 5287              	.LVL755:
 5288              	.L481:
ARM GAS  C:\Temp\cc4yiJU0.s 			page 157


1084:Src/maze_solve.c ****       }
 5289              		.loc 1 1084 9 is_stmt 1 discriminator 3 view .LVU2104
1084:Src/maze_solve.c ****       }
 5290              		.loc 1 1084 52 is_stmt 0 discriminator 3 view .LVU2105
 5291 00ec BB4A     		ldr	r2, .L537
 5292 00ee 32F91310 		ldrsh	r1, [r2, r3, lsl #1]
1084:Src/maze_solve.c ****       }
 5293              		.loc 1 1084 27 discriminator 3 view .LVU2106
 5294 00f2 BB4A     		ldr	r2, .L537+4
 5295 00f4 22F81310 		strh	r1, [r2, r3, lsl #1]	@ movhi
1083:Src/maze_solve.c ****         num_temp_data[i6] = (unsigned short)ii_data[i6];
 5296              		.loc 1 1083 34 is_stmt 1 discriminator 3 view .LVU2107
1083:Src/maze_solve.c ****         num_temp_data[i6] = (unsigned short)ii_data[i6];
 5297              		.loc 1 1083 36 is_stmt 0 discriminator 3 view .LVU2108
 5298 00f8 0133     		adds	r3, r3, #1
 5299              	.LVL756:
 5300              	.L480:
1083:Src/maze_solve.c ****         num_temp_data[i6] = (unsigned short)ii_data[i6];
 5301              		.loc 1 1083 20 is_stmt 1 discriminator 1 view .LVU2109
1083:Src/maze_solve.c ****         num_temp_data[i6] = (unsigned short)ii_data[i6];
 5302              		.loc 1 1083 7 is_stmt 0 discriminator 1 view .LVU2110
 5303 00fa 9F42     		cmp	r7, r3
 5304 00fc F6DC     		bgt	.L481
1088:Src/maze_solve.c ****       for (i6 = 0; i6 < q0; i6++) {
 5305              		.loc 1 1088 7 is_stmt 1 view .LVU2111
1088:Src/maze_solve.c ****       for (i6 = 0; i6 < q0; i6++) {
 5306              		.loc 1 1088 26 is_stmt 0 view .LVU2112
 5307 00fe 0DF5C153 		add	r3, sp, #6176
 5308              	.LVL757:
1088:Src/maze_solve.c ****       for (i6 = 0; i6 < q0; i6++) {
 5309              		.loc 1 1088 26 view .LVU2113
 5310 0102 1F60     		str	r7, [r3]
1089:Src/maze_solve.c ****         b_num_temp_data[i6] = (unsigned short)(num_temp_data[i6] - 1U);
 5311              		.loc 1 1089 7 is_stmt 1 view .LVU2114
 5312              	.LVL758:
1089:Src/maze_solve.c ****         b_num_temp_data[i6] = (unsigned short)(num_temp_data[i6] - 1U);
 5313              		.loc 1 1089 15 is_stmt 0 view .LVU2115
 5314 0104 0023     		movs	r3, #0
 5315              	.LVL759:
 5316              	.L482:
1089:Src/maze_solve.c ****         b_num_temp_data[i6] = (unsigned short)(num_temp_data[i6] - 1U);
 5317              		.loc 1 1089 20 is_stmt 1 discriminator 1 view .LVU2116
1089:Src/maze_solve.c ****         b_num_temp_data[i6] = (unsigned short)(num_temp_data[i6] - 1U);
 5318              		.loc 1 1089 7 is_stmt 0 discriminator 1 view .LVU2117
 5319 0106 9F42     		cmp	r7, r3
 5320 0108 09DD     		ble	.L527
1090:Src/maze_solve.c ****       }
 5321              		.loc 1 1090 9 is_stmt 1 discriminator 3 view .LVU2118
1090:Src/maze_solve.c ****       }
 5322              		.loc 1 1090 61 is_stmt 0 discriminator 3 view .LVU2119
 5323 010a B54A     		ldr	r2, .L537+4
 5324 010c 32F81320 		ldrh	r2, [r2, r3, lsl #1]
1090:Src/maze_solve.c ****       }
 5325              		.loc 1 1090 31 discriminator 3 view .LVU2120
 5326 0110 013A     		subs	r2, r2, #1
1090:Src/maze_solve.c ****       }
 5327              		.loc 1 1090 29 discriminator 3 view .LVU2121
ARM GAS  C:\Temp\cc4yiJU0.s 			page 158


 5328 0112 0DF58151 		add	r1, sp, #4128
 5329 0116 21F81320 		strh	r2, [r1, r3, lsl #1]	@ movhi
1089:Src/maze_solve.c ****         b_num_temp_data[i6] = (unsigned short)(num_temp_data[i6] - 1U);
 5330              		.loc 1 1089 29 is_stmt 1 discriminator 3 view .LVU2122
1089:Src/maze_solve.c ****         b_num_temp_data[i6] = (unsigned short)(num_temp_data[i6] - 1U);
 5331              		.loc 1 1089 31 is_stmt 0 discriminator 3 view .LVU2123
 5332 011a 0133     		adds	r3, r3, #1
 5333              	.LVL760:
1089:Src/maze_solve.c ****         b_num_temp_data[i6] = (unsigned short)(num_temp_data[i6] - 1U);
 5334              		.loc 1 1089 31 discriminator 3 view .LVU2124
 5335 011c F3E7     		b	.L482
 5336              	.L527:
1093:Src/maze_solve.c ****       loop_ub = tmp_size[0];
 5337              		.loc 1 1093 7 is_stmt 1 view .LVU2125
 5338 011e 0DF61C03 		addw	r3, sp, #2076
 5339              	.LVL761:
1093:Src/maze_solve.c ****       loop_ub = tmp_size[0];
 5340              		.loc 1 1093 7 is_stmt 0 view .LVU2126
 5341 0122 0DF50262 		add	r2, sp, #2080
 5342 0126 0DF5C151 		add	r1, sp, #6176
 5343 012a 0DF58150 		add	r0, sp, #4128
 5344 012e FFF7FEFF 		bl	b_rem
 5345              	.LVL762:
1094:Src/maze_solve.c ****       for (i6 = 0; i6 < loop_ub; i6++) {
 5346              		.loc 1 1094 7 is_stmt 1 view .LVU2127
1094:Src/maze_solve.c ****       for (i6 = 0; i6 < loop_ub; i6++) {
 5347              		.loc 1 1094 15 is_stmt 0 view .LVU2128
 5348 0132 DDF81C48 		ldr	r4, [sp, #2076]
 5349              	.LVL763:
1095:Src/maze_solve.c ****         b_qY = tmp_data[i6] + 1U;
 5350              		.loc 1 1095 7 is_stmt 1 view .LVU2129
1095:Src/maze_solve.c ****         b_qY = tmp_data[i6] + 1U;
 5351              		.loc 1 1095 15 is_stmt 0 view .LVU2130
 5352 0136 0022     		movs	r2, #0
1095:Src/maze_solve.c ****         b_qY = tmp_data[i6] + 1U;
 5353              		.loc 1 1095 7 view .LVU2131
 5354 0138 03E0     		b	.L484
 5355              	.LVL764:
 5356              	.L486:
1106:Src/maze_solve.c ****       }
 5357              		.loc 1 1106 9 is_stmt 1 discriminator 2 view .LVU2132
1106:Src/maze_solve.c ****       }
 5358              		.loc 1 1106 22 is_stmt 0 discriminator 2 view .LVU2133
 5359 013a 0DF21C41 		addw	r1, sp, #1052
 5360 013e 8B54     		strb	r3, [r1, r2]
1095:Src/maze_solve.c ****         b_qY = tmp_data[i6] + 1U;
 5361              		.loc 1 1095 34 is_stmt 1 discriminator 2 view .LVU2134
1095:Src/maze_solve.c ****         b_qY = tmp_data[i6] + 1U;
 5362              		.loc 1 1095 36 is_stmt 0 discriminator 2 view .LVU2135
 5363 0140 0132     		adds	r2, r2, #1
 5364              	.LVL765:
 5365              	.L484:
1095:Src/maze_solve.c ****         b_qY = tmp_data[i6] + 1U;
 5366              		.loc 1 1095 20 is_stmt 1 discriminator 1 view .LVU2136
1095:Src/maze_solve.c ****         b_qY = tmp_data[i6] + 1U;
 5367              		.loc 1 1095 7 is_stmt 0 discriminator 1 view .LVU2137
 5368 0142 A242     		cmp	r2, r4
ARM GAS  C:\Temp\cc4yiJU0.s 			page 159


 5369 0144 0EDA     		bge	.L528
1096:Src/maze_solve.c ****         if (b_qY > 65535U) {
 5370              		.loc 1 1096 9 is_stmt 1 view .LVU2138
1096:Src/maze_solve.c ****         if (b_qY > 65535U) {
 5371              		.loc 1 1096 24 is_stmt 0 view .LVU2139
 5372 0146 0DF50263 		add	r3, sp, #2080
 5373 014a 33F81230 		ldrh	r3, [r3, r2, lsl #1]
1096:Src/maze_solve.c ****         if (b_qY > 65535U) {
 5374              		.loc 1 1096 14 view .LVU2140
 5375 014e 0133     		adds	r3, r3, #1
 5376              	.LVL766:
1097:Src/maze_solve.c ****           b_qY = 65535U;
 5377              		.loc 1 1097 9 is_stmt 1 view .LVU2141
1097:Src/maze_solve.c ****           b_qY = 65535U;
 5378              		.loc 1 1097 12 is_stmt 0 view .LVU2142
 5379 0150 B3F5803F 		cmp	r3, #65536
 5380 0154 01D3     		bcc	.L485
1098:Src/maze_solve.c ****         }
 5381              		.loc 1 1098 16 view .LVU2143
 5382 0156 4FF6FF73 		movw	r3, #65535
 5383              	.LVL767:
 5384              	.L485:
1101:Src/maze_solve.c ****         if ((unsigned short)b_qY > 255) {
 5385              		.loc 1 1101 9 is_stmt 1 view .LVU2144
1101:Src/maze_solve.c ****         if ((unsigned short)b_qY > 255) {
 5386              		.loc 1 1101 12 is_stmt 0 view .LVU2145
 5387 015a 9BB2     		uxth	r3, r3
 5388              	.LVL768:
1102:Src/maze_solve.c ****           u1 = 255U;
 5389              		.loc 1 1102 9 is_stmt 1 view .LVU2146
1102:Src/maze_solve.c ****           u1 = 255U;
 5390              		.loc 1 1102 12 is_stmt 0 view .LVU2147
 5391 015c FF2B     		cmp	r3, #255
 5392 015e ECD9     		bls	.L486
1103:Src/maze_solve.c ****         }
 5393              		.loc 1 1103 14 view .LVU2148
 5394 0160 FF23     		movs	r3, #255
 5395              	.LVL769:
1103:Src/maze_solve.c ****         }
 5396              		.loc 1 1103 14 view .LVU2149
 5397 0162 EAE7     		b	.L486
 5398              	.L528:
1110:Src/maze_solve.c ****         num_temp_data[i6]--;
 5399              		.loc 1 1110 15 view .LVU2150
 5400 0164 0023     		movs	r3, #0
 5401              	.LVL770:
 5402              	.L488:
1110:Src/maze_solve.c ****         num_temp_data[i6]--;
 5403              		.loc 1 1110 20 is_stmt 1 discriminator 1 view .LVU2151
1110:Src/maze_solve.c ****         num_temp_data[i6]--;
 5404              		.loc 1 1110 7 is_stmt 0 discriminator 1 view .LVU2152
 5405 0166 9F42     		cmp	r7, r3
 5406 0168 07DD     		ble	.L529
1111:Src/maze_solve.c ****       }
 5407              		.loc 1 1111 9 is_stmt 1 discriminator 3 view .LVU2153
1111:Src/maze_solve.c ****       }
 5408              		.loc 1 1111 22 is_stmt 0 discriminator 3 view .LVU2154
ARM GAS  C:\Temp\cc4yiJU0.s 			page 160


 5409 016a 9D49     		ldr	r1, .L537+4
 5410 016c 31F81320 		ldrh	r2, [r1, r3, lsl #1]
1111:Src/maze_solve.c ****       }
 5411              		.loc 1 1111 26 discriminator 3 view .LVU2155
 5412 0170 013A     		subs	r2, r2, #1
 5413 0172 21F81320 		strh	r2, [r1, r3, lsl #1]	@ movhi
1110:Src/maze_solve.c ****         num_temp_data[i6]--;
 5414              		.loc 1 1110 29 is_stmt 1 discriminator 3 view .LVU2156
1110:Src/maze_solve.c ****         num_temp_data[i6]--;
 5415              		.loc 1 1110 31 is_stmt 0 discriminator 3 view .LVU2157
 5416 0176 0133     		adds	r3, r3, #1
 5417              	.LVL771:
1110:Src/maze_solve.c ****         num_temp_data[i6]--;
 5418              		.loc 1 1110 31 discriminator 3 view .LVU2158
 5419 0178 F5E7     		b	.L488
 5420              	.L529:
1114:Src/maze_solve.c ****       q0 = tmp_size[0];
 5421              		.loc 1 1114 7 is_stmt 1 view .LVU2159
 5422 017a 0DF61C03 		addw	r3, sp, #2076
 5423              	.LVL772:
1114:Src/maze_solve.c ****       q0 = tmp_size[0];
 5424              		.loc 1 1114 7 is_stmt 0 view .LVU2160
 5425 017e 0DF50262 		add	r2, sp, #2080
 5426 0182 0DF5C151 		add	r1, sp, #6176
 5427 0186 0431     		adds	r1, r1, #4
 5428 0188 9548     		ldr	r0, .L537+4
 5429 018a FFF7FEFF 		bl	idivide
 5430              	.LVL773:
1115:Src/maze_solve.c ****       for (i6 = 0; i6 < q0; i6++) {
 5431              		.loc 1 1115 7 is_stmt 1 view .LVU2161
1115:Src/maze_solve.c ****       for (i6 = 0; i6 < q0; i6++) {
 5432              		.loc 1 1115 10 is_stmt 0 view .LVU2162
 5433 018e DDF81C08 		ldr	r0, [sp, #2076]
 5434              	.LVL774:
1116:Src/maze_solve.c ****         b_qY = tmp_data[i6] + 1U;
 5435              		.loc 1 1116 7 is_stmt 1 view .LVU2163
1116:Src/maze_solve.c ****         b_qY = tmp_data[i6] + 1U;
 5436              		.loc 1 1116 15 is_stmt 0 view .LVU2164
 5437 0192 0022     		movs	r2, #0
1116:Src/maze_solve.c ****         b_qY = tmp_data[i6] + 1U;
 5438              		.loc 1 1116 7 view .LVU2165
 5439 0194 02E0     		b	.L490
 5440              	.LVL775:
 5441              	.L492:
1127:Src/maze_solve.c ****       }
 5442              		.loc 1 1127 9 is_stmt 1 discriminator 2 view .LVU2166
1127:Src/maze_solve.c ****       }
 5443              		.loc 1 1127 22 is_stmt 0 discriminator 2 view .LVU2167
 5444 0196 07A9     		add	r1, sp, #28
 5445 0198 8B54     		strb	r3, [r1, r2]
1116:Src/maze_solve.c ****         b_qY = tmp_data[i6] + 1U;
 5446              		.loc 1 1116 29 is_stmt 1 discriminator 2 view .LVU2168
1116:Src/maze_solve.c ****         b_qY = tmp_data[i6] + 1U;
 5447              		.loc 1 1116 31 is_stmt 0 discriminator 2 view .LVU2169
 5448 019a 0132     		adds	r2, r2, #1
 5449              	.LVL776:
 5450              	.L490:
ARM GAS  C:\Temp\cc4yiJU0.s 			page 161


1116:Src/maze_solve.c ****         b_qY = tmp_data[i6] + 1U;
 5451              		.loc 1 1116 20 is_stmt 1 discriminator 1 view .LVU2170
1116:Src/maze_solve.c ****         b_qY = tmp_data[i6] + 1U;
 5452              		.loc 1 1116 7 is_stmt 0 discriminator 1 view .LVU2171
 5453 019c 8242     		cmp	r2, r0
 5454 019e 0EDA     		bge	.L530
1117:Src/maze_solve.c ****         if (b_qY > 65535U) {
 5455              		.loc 1 1117 9 is_stmt 1 view .LVU2172
1117:Src/maze_solve.c ****         if (b_qY > 65535U) {
 5456              		.loc 1 1117 24 is_stmt 0 view .LVU2173
 5457 01a0 0DF50263 		add	r3, sp, #2080
 5458 01a4 33F81230 		ldrh	r3, [r3, r2, lsl #1]
1117:Src/maze_solve.c ****         if (b_qY > 65535U) {
 5459              		.loc 1 1117 14 view .LVU2174
 5460 01a8 0133     		adds	r3, r3, #1
 5461              	.LVL777:
1118:Src/maze_solve.c ****           b_qY = 65535U;
 5462              		.loc 1 1118 9 is_stmt 1 view .LVU2175
1118:Src/maze_solve.c ****           b_qY = 65535U;
 5463              		.loc 1 1118 12 is_stmt 0 view .LVU2176
 5464 01aa B3F5803F 		cmp	r3, #65536
 5465 01ae 01D3     		bcc	.L491
1119:Src/maze_solve.c ****         }
 5466              		.loc 1 1119 16 view .LVU2177
 5467 01b0 4FF6FF73 		movw	r3, #65535
 5468              	.LVL778:
 5469              	.L491:
1122:Src/maze_solve.c ****         if ((unsigned short)b_qY > 255) {
 5470              		.loc 1 1122 9 is_stmt 1 view .LVU2178
1122:Src/maze_solve.c ****         if ((unsigned short)b_qY > 255) {
 5471              		.loc 1 1122 12 is_stmt 0 view .LVU2179
 5472 01b4 9BB2     		uxth	r3, r3
 5473              	.LVL779:
1123:Src/maze_solve.c ****           u1 = 255U;
 5474              		.loc 1 1123 9 is_stmt 1 view .LVU2180
1123:Src/maze_solve.c ****           u1 = 255U;
 5475              		.loc 1 1123 12 is_stmt 0 view .LVU2181
 5476 01b6 FF2B     		cmp	r3, #255
 5477 01b8 EDD9     		bls	.L492
1124:Src/maze_solve.c ****         }
 5478              		.loc 1 1124 14 view .LVU2182
 5479 01ba FF23     		movs	r3, #255
 5480              	.LVL780:
1124:Src/maze_solve.c ****         }
 5481              		.loc 1 1124 14 view .LVU2183
 5482 01bc EBE7     		b	.L492
 5483              	.L530:
1132:Src/maze_solve.c ****         /* 北側 */
 5484              		.loc 1 1132 15 view .LVU2184
 5485 01be 0021     		movs	r1, #0
 5486 01c0 0294     		str	r4, [sp, #8]
 5487 01c2 0DF5C353 		add	r3, sp, #6240
 5488              	.LVL781:
1132:Src/maze_solve.c ****         /* 北側 */
 5489              		.loc 1 1132 15 view .LVU2185
 5490 01c6 0433     		adds	r3, r3, #4
 5491              	.LVL782:
ARM GAS  C:\Temp\cc4yiJU0.s 			page 162


1132:Src/maze_solve.c ****         /* 北側 */
 5492              		.loc 1 1132 15 view .LVU2186
 5493 01c8 C3F800B0 		str	fp, [r3]
 5494 01cc DDF814B0 		ldr	fp, [sp, #20]
 5495 01d0 57E0     		b	.L494
 5496              	.LVL783:
 5497              	.L517:
1143:Src/maze_solve.c ****         }
 5498              		.loc 1 1143 15 view .LVU2187
 5499 01d2 0022     		movs	r2, #0
 5500              	.LVL784:
 5501              	.L495:
1146:Src/maze_solve.c ****           k = g_direction->contents.North;
 5502              		.loc 1 1146 9 is_stmt 1 view .LVU2188
1146:Src/maze_solve.c ****           k = g_direction->contents.North;
 5503              		.loc 1 1146 24 is_stmt 0 view .LVU2189
 5504 01d4 19F80CE0 		ldrb	lr, [r9, ip]	@ zero_extendqisi2
1146:Src/maze_solve.c ****           k = g_direction->contents.North;
 5505              		.loc 1 1146 36 view .LVU2190
 5506 01d8 1EEA020F 		tst	lr, r2
 5507 01dc 14BF     		ite	ne
 5508 01de 4FF00108 		movne	r8, #1
 5509 01e2 4FF00008 		moveq	r8, #0
1146:Src/maze_solve.c ****           k = g_direction->contents.North;
 5510              		.loc 1 1146 59 view .LVU2191
 5511 01e6 96F800E0 		ldrb	lr, [r6]	@ zero_extendqisi2
1146:Src/maze_solve.c ****           k = g_direction->contents.North;
 5512              		.loc 1 1146 12 view .LVU2192
 5513 01ea F045     		cmp	r8, lr
 5514 01ec 66D0     		beq	.L531
 5515              	.LVL785:
 5516              	.L496:
1174:Src/maze_solve.c ****         if (k <= 7) {
 5517              		.loc 1 1174 9 is_stmt 1 view .LVU2193
1174:Src/maze_solve.c ****         if (k <= 7) {
 5518              		.loc 1 1174 11 is_stmt 0 view .LVU2194
 5519 01ee 6A78     		ldrb	r2, [r5, #1]	@ zero_extendqisi2
 5520              	.LVL786:
1175:Src/maze_solve.c ****           d_k = (unsigned char)(1 << k);
 5521              		.loc 1 1175 9 is_stmt 1 view .LVU2195
1175:Src/maze_solve.c ****           d_k = (unsigned char)(1 << k);
 5522              		.loc 1 1175 12 is_stmt 0 view .LVU2196
 5523 01f0 072A     		cmp	r2, #7
 5524 01f2 00F28F80 		bhi	.L519
1176:Src/maze_solve.c ****         } else {
 5525              		.loc 1 1176 11 is_stmt 1 view .LVU2197
1176:Src/maze_solve.c ****         } else {
 5526              		.loc 1 1176 35 is_stmt 0 view .LVU2198
 5527 01f6 4FF0010C 		mov	ip, #1
 5528 01fa 0CFA02FC 		lsl	ip, ip, r2
 5529 01fe 5FFA8CFC 		uxtb	ip, ip
 5530              	.LVL787:
 5531              	.L498:
1181:Src/maze_solve.c ****                  [(unsigned short)(1 + q0) - 1] - 1) << 5)) - 1] & d_k) != 0) ==
 5532              		.loc 1 1181 9 is_stmt 1 view .LVU2199
1181:Src/maze_solve.c ****                  [(unsigned short)(1 + q0) - 1] - 1) << 5)) - 1] & d_k) != 0) ==
 5533              		.loc 1 1181 24 is_stmt 0 view .LVU2200
ARM GAS  C:\Temp\cc4yiJU0.s 			page 163


 5534 0202 5A1E     		subs	r2, r3, #1
 5535              	.LVL788:
1181:Src/maze_solve.c ****                  [(unsigned short)(1 + q0) - 1] - 1) << 5)) - 1] & d_k) != 0) ==
 5536              		.loc 1 1181 24 view .LVU2201
 5537 0204 19F802E0 		ldrb	lr, [r9, r2]	@ zero_extendqisi2
1182:Src/maze_solve.c ****             wall->contents.nowall) {
 5538              		.loc 1 1182 73 view .LVU2202
 5539 0208 1EEA0C0F 		tst	lr, ip
 5540 020c 14BF     		ite	ne
 5541 020e 4FF00108 		movne	r8, #1
 5542 0212 4FF00008 		moveq	r8, #0
1183:Src/maze_solve.c ****           k = g_direction->contents.East;
 5543              		.loc 1 1183 27 view .LVU2203
 5544 0216 96F800E0 		ldrb	lr, [r6]	@ zero_extendqisi2
1181:Src/maze_solve.c ****                  [(unsigned short)(1 + q0) - 1] - 1) << 5)) - 1] & d_k) != 0) ==
 5545              		.loc 1 1181 12 view .LVU2204
 5546 021a F045     		cmp	r8, lr
 5547 021c 7DD0     		beq	.L532
 5548              	.LVL789:
 5549              	.L499:
1215:Src/maze_solve.c ****         if (k <= 7) {
 5550              		.loc 1 1215 9 is_stmt 1 view .LVU2205
1215:Src/maze_solve.c ****         if (k <= 7) {
 5551              		.loc 1 1215 11 is_stmt 0 view .LVU2206
 5552 021e 95F802C0 		ldrb	ip, [r5, #2]	@ zero_extendqisi2
 5553              	.LVL790:
1216:Src/maze_solve.c ****           f_k = (unsigned char)(1 << k);
 5554              		.loc 1 1216 9 is_stmt 1 view .LVU2207
1216:Src/maze_solve.c ****           f_k = (unsigned char)(1 << k);
 5555              		.loc 1 1216 12 is_stmt 0 view .LVU2208
 5556 0222 BCF1070F 		cmp	ip, #7
 5557 0226 00F2AC80 		bhi	.L521
1217:Src/maze_solve.c ****         } else {
 5558              		.loc 1 1217 11 is_stmt 1 view .LVU2209
1217:Src/maze_solve.c ****         } else {
 5559              		.loc 1 1217 35 is_stmt 0 view .LVU2210
 5560 022a 4FF0010E 		mov	lr, #1
 5561 022e 0EFA0CFC 		lsl	ip, lr, ip
 5562              	.LVL791:
1217:Src/maze_solve.c ****         } else {
 5563              		.loc 1 1217 35 view .LVU2211
 5564 0232 5FFA8CFC 		uxtb	ip, ip
 5565              	.LVL792:
 5566              	.L501:
1222:Src/maze_solve.c ****                  [(unsigned short)(1 + q0) - 1] - 1) << 5)) - 1] & f_k) != 0) ==
 5567              		.loc 1 1222 9 is_stmt 1 view .LVU2212
1222:Src/maze_solve.c ****                  [(unsigned short)(1 + q0) - 1] - 1) << 5)) - 1] & f_k) != 0) ==
 5568              		.loc 1 1222 24 is_stmt 0 view .LVU2213
 5569 0236 19F802E0 		ldrb	lr, [r9, r2]	@ zero_extendqisi2
1223:Src/maze_solve.c ****             wall->contents.nowall) {
 5570              		.loc 1 1223 73 view .LVU2214
 5571 023a 1EEA0C0F 		tst	lr, ip
 5572 023e 14BF     		ite	ne
 5573 0240 4FF00108 		movne	r8, #1
 5574 0244 4FF00008 		moveq	r8, #0
1224:Src/maze_solve.c ****           k = g_direction->contents.South;
 5575              		.loc 1 1224 27 view .LVU2215
ARM GAS  C:\Temp\cc4yiJU0.s 			page 164


 5576 0248 96F800E0 		ldrb	lr, [r6]	@ zero_extendqisi2
1222:Src/maze_solve.c ****                  [(unsigned short)(1 + q0) - 1] - 1) << 5)) - 1] & f_k) != 0) ==
 5577              		.loc 1 1222 12 view .LVU2216
 5578 024c F045     		cmp	r8, lr
 5579 024e 00F09B80 		beq	.L533
 5580              	.LVL793:
 5581              	.L502:
1245:Src/maze_solve.c ****         if (k <= 7) {
 5582              		.loc 1 1245 9 is_stmt 1 view .LVU2217
1245:Src/maze_solve.c ****         if (k <= 7) {
 5583              		.loc 1 1245 11 is_stmt 0 view .LVU2218
 5584 0252 EB78     		ldrb	r3, [r5, #3]	@ zero_extendqisi2
 5585              	.LVL794:
1246:Src/maze_solve.c ****           h_k = (unsigned char)(1 << k);
 5586              		.loc 1 1246 9 is_stmt 1 view .LVU2219
1246:Src/maze_solve.c ****           h_k = (unsigned char)(1 << k);
 5587              		.loc 1 1246 12 is_stmt 0 view .LVU2220
 5588 0254 072B     		cmp	r3, #7
 5589 0256 00F2BF80 		bhi	.L522
1247:Src/maze_solve.c ****         } else {
 5590              		.loc 1 1247 11 is_stmt 1 view .LVU2221
1247:Src/maze_solve.c ****         } else {
 5591              		.loc 1 1247 35 is_stmt 0 view .LVU2222
 5592 025a 4FF0010C 		mov	ip, #1
 5593 025e 0CFA03F3 		lsl	r3, ip, r3
 5594              	.LVL795:
1247:Src/maze_solve.c ****         } else {
 5595              		.loc 1 1247 35 view .LVU2223
 5596 0262 DBB2     		uxtb	r3, r3
 5597              	.LVL796:
 5598              	.L503:
1252:Src/maze_solve.c ****                  [(unsigned short)(1 + q0) - 1] - 1) << 5)) - 1] & h_k) != 0) ==
 5599              		.loc 1 1252 9 is_stmt 1 view .LVU2224
1252:Src/maze_solve.c ****                  [(unsigned short)(1 + q0) - 1] - 1) << 5)) - 1] & h_k) != 0) ==
 5600              		.loc 1 1252 24 is_stmt 0 view .LVU2225
 5601 0264 19F802C0 		ldrb	ip, [r9, r2]	@ zero_extendqisi2
1253:Src/maze_solve.c ****             wall->contents.nowall) {
 5602              		.loc 1 1253 73 view .LVU2226
 5603 0268 1CEA030F 		tst	ip, r3
 5604 026c 14BF     		ite	ne
 5605 026e 4FF0010E 		movne	lr, #1
 5606 0272 4FF0000E 		moveq	lr, #0
1254:Src/maze_solve.c ****           k = g_direction->contents.West;
 5607              		.loc 1 1254 27 view .LVU2227
 5608 0276 96F800C0 		ldrb	ip, [r6]	@ zero_extendqisi2
1252:Src/maze_solve.c ****                  [(unsigned short)(1 + q0) - 1] - 1) << 5)) - 1] & h_k) != 0) ==
 5609              		.loc 1 1252 12 view .LVU2228
 5610 027a E645     		cmp	lr, ip
 5611 027c 00F0B280 		beq	.L534
 5612              	.LVL797:
 5613              	.L504:
1132:Src/maze_solve.c ****         /* 北側 */
 5614              		.loc 1 1132 34 is_stmt 1 discriminator 2 view .LVU2229
1132:Src/maze_solve.c ****         /* 北側 */
 5615              		.loc 1 1132 36 is_stmt 0 discriminator 2 view .LVU2230
 5616 0280 0131     		adds	r1, r1, #1
 5617              	.LVL798:
ARM GAS  C:\Temp\cc4yiJU0.s 			page 165


 5618              	.L494:
1132:Src/maze_solve.c ****         /* 北側 */
 5619              		.loc 1 1132 20 is_stmt 1 discriminator 1 view .LVU2231
1132:Src/maze_solve.c ****         /* 北側 */
 5620              		.loc 1 1132 7 is_stmt 0 discriminator 1 view .LVU2232
 5621 0282 029B     		ldr	r3, [sp, #8]
 5622 0284 9942     		cmp	r1, r3
 5623 0286 80F2D180 		bge	.L535
1135:Src/maze_solve.c ****         i6 = (unsigned short)(1 + q0) - 1;
 5624              		.loc 1 1135 9 is_stmt 1 view .LVU2233
1135:Src/maze_solve.c ****         i6 = (unsigned short)(1 + q0) - 1;
 5625              		.loc 1 1135 11 is_stmt 0 view .LVU2234
 5626 028a 2A78     		ldrb	r2, [r5]	@ zero_extendqisi2
 5627              	.LVL799:
1136:Src/maze_solve.c ****         idx = (col_data[i6] - 1) << 5;
 5628              		.loc 1 1136 9 is_stmt 1 view .LVU2235
1136:Src/maze_solve.c ****         idx = (col_data[i6] - 1) << 5;
 5629              		.loc 1 1136 14 is_stmt 0 view .LVU2236
 5630 028c 481C     		adds	r0, r1, #1
 5631 028e 80B2     		uxth	r0, r0
1136:Src/maze_solve.c ****         idx = (col_data[i6] - 1) << 5;
 5632              		.loc 1 1136 12 view .LVU2237
 5633 0290 0138     		subs	r0, r0, #1
 5634              	.LVL800:
1137:Src/maze_solve.c ****         i6 = row_data[i6] + idx;
 5635              		.loc 1 1137 9 is_stmt 1 view .LVU2238
1137:Src/maze_solve.c ****         i6 = row_data[i6] + idx;
 5636              		.loc 1 1137 24 is_stmt 0 view .LVU2239
 5637 0292 07AB     		add	r3, sp, #28
 5638 0294 1F5C     		ldrb	r7, [r3, r0]	@ zero_extendqisi2
1137:Src/maze_solve.c ****         i6 = row_data[i6] + idx;
 5639              		.loc 1 1137 29 view .LVU2240
 5640 0296 7B1E     		subs	r3, r7, #1
1137:Src/maze_solve.c ****         i6 = row_data[i6] + idx;
 5641              		.loc 1 1137 13 view .LVU2241
 5642 0298 4FEA431A 		lsl	r10, r3, #5
 5643              	.LVL801:
1138:Src/maze_solve.c ****         i7 = i6 - 1;
 5644              		.loc 1 1138 9 is_stmt 1 view .LVU2242
1138:Src/maze_solve.c ****         i7 = i6 - 1;
 5645              		.loc 1 1138 22 is_stmt 0 view .LVU2243
 5646 029c 0DF21C4C 		addw	ip, sp, #1052
 5647 02a0 1CF80000 		ldrb	r0, [ip, r0]	@ zero_extendqisi2
 5648              	.LVL802:
1138:Src/maze_solve.c ****         i7 = i6 - 1;
 5649              		.loc 1 1138 12 view .LVU2244
 5650 02a4 00EB4313 		add	r3, r0, r3, lsl #5
 5651              	.LVL803:
1139:Src/maze_solve.c ****         if (k <= 7) {
 5652              		.loc 1 1139 9 is_stmt 1 view .LVU2245
1139:Src/maze_solve.c ****         if (k <= 7) {
 5653              		.loc 1 1139 12 is_stmt 0 view .LVU2246
 5654 02a8 03F1FF3C 		add	ip, r3, #-1
 5655              	.LVL804:
1140:Src/maze_solve.c ****           b_k = (unsigned char)(1 << k);
 5656              		.loc 1 1140 9 is_stmt 1 view .LVU2247
1140:Src/maze_solve.c ****           b_k = (unsigned char)(1 << k);
ARM GAS  C:\Temp\cc4yiJU0.s 			page 166


 5657              		.loc 1 1140 12 is_stmt 0 view .LVU2248
 5658 02ac 072A     		cmp	r2, #7
 5659 02ae 90D8     		bhi	.L517
1141:Src/maze_solve.c ****         } else {
 5660              		.loc 1 1141 11 is_stmt 1 view .LVU2249
1141:Src/maze_solve.c ****         } else {
 5661              		.loc 1 1141 35 is_stmt 0 view .LVU2250
 5662 02b0 4FF0010E 		mov	lr, #1
 5663 02b4 0EFA02F2 		lsl	r2, lr, r2
 5664              	.LVL805:
1141:Src/maze_solve.c ****         } else {
 5665              		.loc 1 1141 35 view .LVU2251
 5666 02b8 D2B2     		uxtb	r2, r2
 5667              	.LVL806:
1141:Src/maze_solve.c ****         } else {
 5668              		.loc 1 1141 35 view .LVU2252
 5669 02ba 8BE7     		b	.L495
 5670              	.L531:
1147:Src/maze_solve.c ****           if (k <= 7) {
 5671              		.loc 1 1147 11 is_stmt 1 view .LVU2253
1148:Src/maze_solve.c ****             c_k = (unsigned char)(1 << k);
 5672              		.loc 1 1148 11 view .LVU2254
 5673              	.LVL807:
1154:Src/maze_solve.c ****             /* 北側のMAPが更新されているか判断、されていなければ書き込み
 5674              		.loc 1 1154 11 view .LVU2255
1154:Src/maze_solve.c ****             /* 北側のMAPが更新されているか判断、されていなければ書き込み
 5675              		.loc 1 1154 33 is_stmt 0 view .LVU2256
 5676 02bc 0DF5C354 		add	r4, sp, #6240
 5677              	.LVL808:
1154:Src/maze_solve.c ****             /* 北側のMAPが更新されているか判断、されていなければ書き込み
 5678              		.loc 1 1154 33 view .LVU2257
 5679 02c0 2468     		ldr	r4, [r4]
 5680              	.LVL809:
1154:Src/maze_solve.c ****             /* 北側のMAPが更新されているか判断、されていなければ書き込み
 5681              		.loc 1 1154 33 view .LVU2258
 5682 02c2 14F80CC0 		ldrb	ip, [r4, ip]	@ zero_extendqisi2
 5683              	.LVL810:
1154:Src/maze_solve.c ****             /* 北側のMAPが更新されているか判断、されていなければ書き込み
 5684              		.loc 1 1154 45 view .LVU2259
 5685 02c6 1CEA020F 		tst	ip, r2
 5686 02ca 14BF     		ite	ne
 5687 02cc 4FF0010C 		movne	ip, #1
 5688 02d0 4FF0000C 		moveq	ip, #0
1154:Src/maze_solve.c ****             /* 北側のMAPが更新されているか判断、されていなければ書き込み
 5689              		.loc 1 1154 70 view .LVU2260
 5690 02d4 9BF80120 		ldrb	r2, [fp, #1]	@ zero_extendqisi2
 5691              	.LVL811:
1154:Src/maze_solve.c ****             /* 北側のMAPが更新されているか判断、されていなければ書き込み
 5692              		.loc 1 1154 14 view .LVU2261
 5693 02d8 9445     		cmp	ip, r2
 5694 02da 88D1     		bne	.L496
1156:Src/maze_solve.c ****             i8 = i7;
 5695              		.loc 1 1156 13 is_stmt 1 view .LVU2262
1156:Src/maze_solve.c ****             i8 = i7;
 5696              		.loc 1 1156 63 is_stmt 0 view .LVU2263
 5697 02dc 421C     		adds	r2, r0, #1
 5698              	.LVL812:
ARM GAS  C:\Temp\cc4yiJU0.s 			page 167


1157:Src/maze_solve.c ****             if ((unsigned int)i7 > 255U) {
 5699              		.loc 1 1157 13 is_stmt 1 view .LVU2264
1158:Src/maze_solve.c ****               i8 = 255;
 5700              		.loc 1 1158 13 view .LVU2265
1158:Src/maze_solve.c ****               i8 = 255;
 5701              		.loc 1 1158 16 is_stmt 0 view .LVU2266
 5702 02de FF2A     		cmp	r2, #255
 5703 02e0 00D9     		bls	.L497
 5704              	.LVL813:
1159:Src/maze_solve.c ****             }
 5705              		.loc 1 1159 18 view .LVU2267
 5706 02e2 FF22     		movs	r2, #255
 5707              	.LVL814:
 5708              	.L497:
1162:Src/maze_solve.c ****               if ((unsigned int)i7 > 255U) {
 5709              		.loc 1 1162 13 is_stmt 1 view .LVU2268
1162:Src/maze_solve.c ****               if ((unsigned int)i7 > 255U) {
 5710              		.loc 1 1162 33 is_stmt 0 view .LVU2269
 5711 02e4 9244     		add	r10, r10, r2
 5712              	.LVL815:
1162:Src/maze_solve.c ****               if ((unsigned int)i7 > 255U) {
 5713              		.loc 1 1162 28 view .LVU2270
 5714 02e6 0AF1FF3A 		add	r10, r10, #-1
 5715 02ea 0DF5C352 		add	r2, sp, #6240
 5716              	.LVL816:
1162:Src/maze_solve.c ****               if ((unsigned int)i7 > 255U) {
 5717              		.loc 1 1162 28 view .LVU2271
 5718 02ee 0432     		adds	r2, r2, #4
 5719              	.LVL817:
1162:Src/maze_solve.c ****               if ((unsigned int)i7 > 255U) {
 5720              		.loc 1 1162 28 view .LVU2272
 5721 02f0 1268     		ldr	r2, [r2]
 5722              	.LVL818:
1162:Src/maze_solve.c ****               if ((unsigned int)i7 > 255U) {
 5723              		.loc 1 1162 28 view .LVU2273
 5724 02f2 12F80A20 		ldrb	r2, [r2, r10]	@ zero_extendqisi2
1162:Src/maze_solve.c ****               if ((unsigned int)i7 > 255U) {
 5725              		.loc 1 1162 16 view .LVU2274
 5726 02f6 039C     		ldr	r4, [sp, #12]
 5727 02f8 9442     		cmp	r4, r2
 5728 02fa 7FF478AF 		bne	.L496
1163:Src/maze_solve.c ****                 i7 = 255;
 5729              		.loc 1 1163 15 is_stmt 1 view .LVU2275
1167:Src/maze_solve.c ****               change_flag = 1U;
 5730              		.loc 1 1167 15 view .LVU2276
1167:Src/maze_solve.c ****               change_flag = 1U;
 5731              		.loc 1 1167 45 is_stmt 0 view .LVU2277
 5732 02fe 019A     		ldr	r2, [sp, #4]
 5733 0300 0132     		adds	r2, r2, #1
1167:Src/maze_solve.c ****               change_flag = 1U;
 5734              		.loc 1 1167 43 view .LVU2278
 5735 0302 0DF5C354 		add	r4, sp, #6240
 5736              	.LVL819:
1167:Src/maze_solve.c ****               change_flag = 1U;
 5737              		.loc 1 1167 43 view .LVU2279
 5738 0306 0434     		adds	r4, r4, #4
 5739              	.LVL820:
ARM GAS  C:\Temp\cc4yiJU0.s 			page 168


1167:Src/maze_solve.c ****               change_flag = 1U;
 5740              		.loc 1 1167 43 view .LVU2280
 5741 0308 2468     		ldr	r4, [r4]
 5742              	.LVL821:
1167:Src/maze_solve.c ****               change_flag = 1U;
 5743              		.loc 1 1167 43 view .LVU2281
 5744 030a 04F80A20 		strb	r2, [r4, r10]
 5745              	.LVL822:
1168:Src/maze_solve.c ****             }
 5746              		.loc 1 1168 15 is_stmt 1 view .LVU2282
1168:Src/maze_solve.c ****             }
 5747              		.loc 1 1168 27 is_stmt 0 view .LVU2283
 5748 030e 0122     		movs	r2, #1
 5749 0310 0492     		str	r2, [sp, #16]
 5750 0312 6CE7     		b	.L496
 5751              	.LVL823:
 5752              	.L519:
1178:Src/maze_solve.c ****         }
 5753              		.loc 1 1178 15 view .LVU2284
 5754 0314 4FF0000C 		mov	ip, #0
 5755 0318 73E7     		b	.L498
 5756              	.LVL824:
 5757              	.L532:
1184:Src/maze_solve.c ****           if (k <= 7) {
 5758              		.loc 1 1184 11 is_stmt 1 view .LVU2285
1185:Src/maze_solve.c ****             e_k = (unsigned char)(1 << k);
 5759              		.loc 1 1185 11 view .LVU2286
1191:Src/maze_solve.c ****                                   ((col_data[(unsigned short)(1 + q0) - 1] - 1) <<
 5760              		.loc 1 1191 11 view .LVU2287
1191:Src/maze_solve.c ****                                   ((col_data[(unsigned short)(1 + q0) - 1] - 1) <<
 5761              		.loc 1 1191 33 is_stmt 0 view .LVU2288
 5762 031a 0DF5C354 		add	r4, sp, #6240
 5763              	.LVL825:
1191:Src/maze_solve.c ****                                   ((col_data[(unsigned short)(1 + q0) - 1] - 1) <<
 5764              		.loc 1 1191 33 view .LVU2289
 5765 031e 2468     		ldr	r4, [r4]
 5766              	.LVL826:
1191:Src/maze_solve.c ****                                   ((col_data[(unsigned short)(1 + q0) - 1] - 1) <<
 5767              		.loc 1 1191 33 view .LVU2290
 5768 0320 14F802E0 		ldrb	lr, [r4, r2]	@ zero_extendqisi2
1193:Src/maze_solve.c ****             /* 東側のMAPが更新されているか判断、されていなければ書き込み
 5769              		.loc 1 1193 35 view .LVU2291
 5770 0324 1EEA0C0F 		tst	lr, ip
 5771 0328 14BF     		ite	ne
 5772 032a 4FF0010E 		movne	lr, #1
 5773 032e 4FF0000E 		moveq	lr, #0
1193:Src/maze_solve.c ****             /* 東側のMAPが更新されているか判断、されていなければ書き込み
 5774              		.loc 1 1193 60 view .LVU2292
 5775 0332 9BF801C0 		ldrb	ip, [fp, #1]	@ zero_extendqisi2
 5776              	.LVL827:
1191:Src/maze_solve.c ****                                   ((col_data[(unsigned short)(1 + q0) - 1] - 1) <<
 5777              		.loc 1 1191 14 view .LVU2293
 5778 0336 E645     		cmp	lr, ip
 5779 0338 7FF471AF 		bne	.L499
1195:Src/maze_solve.c ****             i7 = idx;
 5780              		.loc 1 1195 13 is_stmt 1 view .LVU2294
1195:Src/maze_solve.c ****             i7 = idx;
ARM GAS  C:\Temp\cc4yiJU0.s 			page 169


 5781              		.loc 1 1195 64 is_stmt 0 view .LVU2295
 5782 033c 07F1010C 		add	ip, r7, #1
 5783              	.LVL828:
1196:Src/maze_solve.c ****             if ((unsigned int)idx > 255U) {
 5784              		.loc 1 1196 13 is_stmt 1 view .LVU2296
1197:Src/maze_solve.c ****               i7 = 255;
 5785              		.loc 1 1197 13 view .LVU2297
1197:Src/maze_solve.c ****               i7 = 255;
 5786              		.loc 1 1197 16 is_stmt 0 view .LVU2298
 5787 0340 BCF1FF0F 		cmp	ip, #255
 5788 0344 01D9     		bls	.L500
 5789              	.LVL829:
1198:Src/maze_solve.c ****             }
 5790              		.loc 1 1198 18 view .LVU2299
 5791 0346 4FF0FF0C 		mov	ip, #255
 5792              	.LVL830:
 5793              	.L500:
1201:Src/maze_solve.c ****                   5)) - 1] == (unsigned char)qY) {
 5794              		.loc 1 1201 13 is_stmt 1 view .LVU2300
1201:Src/maze_solve.c ****                   5)) - 1] == (unsigned char)qY) {
 5795              		.loc 1 1201 76 is_stmt 0 view .LVU2301
 5796 034a 0CF1FF3C 		add	ip, ip, #-1
1201:Src/maze_solve.c ****                   5)) - 1] == (unsigned char)qY) {
 5797              		.loc 1 1201 69 view .LVU2302
 5798 034e 00EB4C1C 		add	ip, r0, ip, lsl #5
1201:Src/maze_solve.c ****                   5)) - 1] == (unsigned char)qY) {
 5799              		.loc 1 1201 28 view .LVU2303
 5800 0352 0CF1FF3C 		add	ip, ip, #-1
 5801 0356 0DF5C354 		add	r4, sp, #6240
 5802              	.LVL831:
1201:Src/maze_solve.c ****                   5)) - 1] == (unsigned char)qY) {
 5803              		.loc 1 1201 28 view .LVU2304
 5804 035a 0434     		adds	r4, r4, #4
 5805              	.LVL832:
1201:Src/maze_solve.c ****                   5)) - 1] == (unsigned char)qY) {
 5806              		.loc 1 1201 28 view .LVU2305
 5807 035c 2468     		ldr	r4, [r4]
 5808              	.LVL833:
1201:Src/maze_solve.c ****                   5)) - 1] == (unsigned char)qY) {
 5809              		.loc 1 1201 28 view .LVU2306
 5810 035e 14F80CE0 		ldrb	lr, [r4, ip]	@ zero_extendqisi2
1201:Src/maze_solve.c ****                   5)) - 1] == (unsigned char)qY) {
 5811              		.loc 1 1201 16 view .LVU2307
 5812 0362 039C     		ldr	r4, [sp, #12]
 5813 0364 7445     		cmp	r4, lr
 5814 0366 7FF45AAF 		bne	.L499
1203:Src/maze_solve.c ****                 idx = 255;
 5815              		.loc 1 1203 15 is_stmt 1 view .LVU2308
1207:Src/maze_solve.c ****                 5)) - 1] = (unsigned char)(tempi + 1);
 5816              		.loc 1 1207 15 view .LVU2309
1208:Src/maze_solve.c ****               change_flag = 1U;
 5817              		.loc 1 1208 28 is_stmt 0 view .LVU2310
 5818 036a 019C     		ldr	r4, [sp, #4]
 5819 036c 04F1010E 		add	lr, r4, #1
1208:Src/maze_solve.c ****               change_flag = 1U;
 5820              		.loc 1 1208 26 view .LVU2311
 5821 0370 0DF5C354 		add	r4, sp, #6240
ARM GAS  C:\Temp\cc4yiJU0.s 			page 170


 5822              	.LVL834:
1208:Src/maze_solve.c ****               change_flag = 1U;
 5823              		.loc 1 1208 26 view .LVU2312
 5824 0374 0434     		adds	r4, r4, #4
 5825              	.LVL835:
1208:Src/maze_solve.c ****               change_flag = 1U;
 5826              		.loc 1 1208 26 view .LVU2313
 5827 0376 2468     		ldr	r4, [r4]
 5828              	.LVL836:
1208:Src/maze_solve.c ****               change_flag = 1U;
 5829              		.loc 1 1208 26 view .LVU2314
 5830 0378 04F80CE0 		strb	lr, [r4, ip]
 5831              	.LVL837:
1209:Src/maze_solve.c ****             }
 5832              		.loc 1 1209 15 is_stmt 1 view .LVU2315
1209:Src/maze_solve.c ****             }
 5833              		.loc 1 1209 27 is_stmt 0 view .LVU2316
 5834 037c 0124     		movs	r4, #1
 5835 037e 0494     		str	r4, [sp, #16]
 5836 0380 4DE7     		b	.L499
 5837              	.LVL838:
 5838              	.L521:
1219:Src/maze_solve.c ****         }
 5839              		.loc 1 1219 15 view .LVU2317
 5840 0382 4FF0000C 		mov	ip, #0
 5841              	.LVL839:
1219:Src/maze_solve.c ****         }
 5842              		.loc 1 1219 15 view .LVU2318
 5843 0386 56E7     		b	.L501
 5844              	.LVL840:
 5845              	.L533:
1225:Src/maze_solve.c ****           if (k <= 7) {
 5846              		.loc 1 1225 11 is_stmt 1 view .LVU2319
1226:Src/maze_solve.c ****             g_k = (unsigned char)(1 << k);
 5847              		.loc 1 1226 11 view .LVU2320
1232:Src/maze_solve.c ****                                   ((col_data[(unsigned short)(1 + q0) - 1] - 1) <<
 5848              		.loc 1 1232 11 view .LVU2321
1232:Src/maze_solve.c ****                                   ((col_data[(unsigned short)(1 + q0) - 1] - 1) <<
 5849              		.loc 1 1232 33 is_stmt 0 view .LVU2322
 5850 0388 0DF5C354 		add	r4, sp, #6240
 5851              	.LVL841:
1232:Src/maze_solve.c ****                                   ((col_data[(unsigned short)(1 + q0) - 1] - 1) <<
 5852              		.loc 1 1232 33 view .LVU2323
 5853 038c 2468     		ldr	r4, [r4]
 5854              	.LVL842:
1232:Src/maze_solve.c ****                                   ((col_data[(unsigned short)(1 + q0) - 1] - 1) <<
 5855              		.loc 1 1232 33 view .LVU2324
 5856 038e 14F802E0 		ldrb	lr, [r4, r2]	@ zero_extendqisi2
1234:Src/maze_solve.c ****             /* 南側のMAPが更新されているか判断、されていなければ書き込み
 5857              		.loc 1 1234 35 view .LVU2325
 5858 0392 1EEA0C0F 		tst	lr, ip
 5859 0396 14BF     		ite	ne
 5860 0398 4FF0010E 		movne	lr, #1
 5861 039c 4FF0000E 		moveq	lr, #0
1234:Src/maze_solve.c ****             /* 南側のMAPが更新されているか判断、されていなければ書き込み
 5862              		.loc 1 1234 60 view .LVU2326
 5863 03a0 9BF801C0 		ldrb	ip, [fp, #1]	@ zero_extendqisi2
ARM GAS  C:\Temp\cc4yiJU0.s 			page 171


 5864              	.LVL843:
1232:Src/maze_solve.c ****                                   ((col_data[(unsigned short)(1 + q0) - 1] - 1) <<
 5865              		.loc 1 1232 14 view .LVU2327
 5866 03a4 E645     		cmp	lr, ip
 5867 03a6 7FF454AF 		bne	.L502
1236:Src/maze_solve.c ****             if (contour_map[i6] == (unsigned char)qY) {
 5868              		.loc 1 1236 13 is_stmt 1 view .LVU2328
1236:Src/maze_solve.c ****             if (contour_map[i6] == (unsigned char)qY) {
 5869              		.loc 1 1236 16 is_stmt 0 view .LVU2329
 5870 03aa 023B     		subs	r3, r3, #2
 5871              	.LVL844:
1237:Src/maze_solve.c ****               contour_map[i6] = (unsigned char)(tempi + 1);
 5872              		.loc 1 1237 13 is_stmt 1 view .LVU2330
1237:Src/maze_solve.c ****               contour_map[i6] = (unsigned char)(tempi + 1);
 5873              		.loc 1 1237 28 is_stmt 0 view .LVU2331
 5874 03ac 0DF5C354 		add	r4, sp, #6240
 5875              	.LVL845:
1237:Src/maze_solve.c ****               contour_map[i6] = (unsigned char)(tempi + 1);
 5876              		.loc 1 1237 28 view .LVU2332
 5877 03b0 0434     		adds	r4, r4, #4
 5878              	.LVL846:
1237:Src/maze_solve.c ****               contour_map[i6] = (unsigned char)(tempi + 1);
 5879              		.loc 1 1237 28 view .LVU2333
 5880 03b2 2468     		ldr	r4, [r4]
 5881              	.LVL847:
1237:Src/maze_solve.c ****               contour_map[i6] = (unsigned char)(tempi + 1);
 5882              		.loc 1 1237 28 view .LVU2334
 5883 03b4 14F803C0 		ldrb	ip, [r4, r3]	@ zero_extendqisi2
1237:Src/maze_solve.c ****               contour_map[i6] = (unsigned char)(tempi + 1);
 5884              		.loc 1 1237 16 view .LVU2335
 5885 03b8 039C     		ldr	r4, [sp, #12]
 5886 03ba 6445     		cmp	r4, ip
 5887 03bc 7FF449AF 		bne	.L502
1238:Src/maze_solve.c ****               change_flag = 1U;
 5888              		.loc 1 1238 15 is_stmt 1 view .LVU2336
1238:Src/maze_solve.c ****               change_flag = 1U;
 5889              		.loc 1 1238 33 is_stmt 0 view .LVU2337
 5890 03c0 019C     		ldr	r4, [sp, #4]
 5891 03c2 04F1010C 		add	ip, r4, #1
1238:Src/maze_solve.c ****               change_flag = 1U;
 5892              		.loc 1 1238 31 view .LVU2338
 5893 03c6 0DF5C354 		add	r4, sp, #6240
 5894              	.LVL848:
1238:Src/maze_solve.c ****               change_flag = 1U;
 5895              		.loc 1 1238 31 view .LVU2339
 5896 03ca 0434     		adds	r4, r4, #4
 5897              	.LVL849:
1238:Src/maze_solve.c ****               change_flag = 1U;
 5898              		.loc 1 1238 31 view .LVU2340
 5899 03cc 2468     		ldr	r4, [r4]
 5900              	.LVL850:
1238:Src/maze_solve.c ****               change_flag = 1U;
 5901              		.loc 1 1238 31 view .LVU2341
 5902 03ce 04F803C0 		strb	ip, [r4, r3]
 5903              	.LVL851:
1239:Src/maze_solve.c ****             }
 5904              		.loc 1 1239 15 is_stmt 1 view .LVU2342
ARM GAS  C:\Temp\cc4yiJU0.s 			page 172


1239:Src/maze_solve.c ****             }
 5905              		.loc 1 1239 27 is_stmt 0 view .LVU2343
 5906 03d2 0123     		movs	r3, #1
 5907              	.LVL852:
1239:Src/maze_solve.c ****             }
 5908              		.loc 1 1239 27 view .LVU2344
 5909 03d4 0493     		str	r3, [sp, #16]
 5910 03d6 3CE7     		b	.L502
 5911              	.LVL853:
 5912              	.L522:
1249:Src/maze_solve.c ****         }
 5913              		.loc 1 1249 15 view .LVU2345
 5914 03d8 0023     		movs	r3, #0
 5915              	.LVL854:
1249:Src/maze_solve.c ****         }
 5916              		.loc 1 1249 15 view .LVU2346
 5917 03da 43E7     		b	.L503
 5918              	.L538:
 5919              		.align	2
 5920              	.L537:
 5921 03dc 00000000 		.word	.LANCHOR6
 5922 03e0 00000000 		.word	.LANCHOR7
 5923              	.LVL855:
 5924              	.L534:
1255:Src/maze_solve.c ****           if (k <= 7) {
 5925              		.loc 1 1255 11 is_stmt 1 view .LVU2347
1256:Src/maze_solve.c ****             i_k = (unsigned char)(1 << k);
 5926              		.loc 1 1256 11 view .LVU2348
1262:Src/maze_solve.c ****                                   ((col_data[(unsigned short)(1 + q0) - 1] - 1) <<
 5927              		.loc 1 1262 11 view .LVU2349
1262:Src/maze_solve.c ****                                   ((col_data[(unsigned short)(1 + q0) - 1] - 1) <<
 5928              		.loc 1 1262 33 is_stmt 0 view .LVU2350
 5929 03e4 0DF5C354 		add	r4, sp, #6240
 5930              	.LVL856:
1262:Src/maze_solve.c ****                                   ((col_data[(unsigned short)(1 + q0) - 1] - 1) <<
 5931              		.loc 1 1262 33 view .LVU2351
 5932 03e8 2468     		ldr	r4, [r4]
 5933              	.LVL857:
1262:Src/maze_solve.c ****                                   ((col_data[(unsigned short)(1 + q0) - 1] - 1) <<
 5934              		.loc 1 1262 33 view .LVU2352
 5935 03ea A25C     		ldrb	r2, [r4, r2]	@ zero_extendqisi2
1264:Src/maze_solve.c ****             /* 西側のMAPが更新されているか判断、されていなければ書き込み
 5936              		.loc 1 1264 35 view .LVU2353
 5937 03ec 1A42     		tst	r2, r3
 5938 03ee 14BF     		ite	ne
 5939 03f0 0122     		movne	r2, #1
 5940 03f2 0022     		moveq	r2, #0
1264:Src/maze_solve.c ****             /* 西側のMAPが更新されているか判断、されていなければ書き込み
 5941              		.loc 1 1264 60 view .LVU2354
 5942 03f4 9BF80130 		ldrb	r3, [fp, #1]	@ zero_extendqisi2
 5943              	.LVL858:
1262:Src/maze_solve.c ****                                   ((col_data[(unsigned short)(1 + q0) - 1] - 1) <<
 5944              		.loc 1 1262 14 view .LVU2355
 5945 03f8 9A42     		cmp	r2, r3
 5946 03fa 7FF441AF 		bne	.L504
1266:Src/maze_solve.c ****                      short)(1 + q0) - 1] - 2) << 5)) - 1;
 5947              		.loc 1 1266 13 is_stmt 1 view .LVU2356
ARM GAS  C:\Temp\cc4yiJU0.s 			page 173


1267:Src/maze_solve.c ****             if (contour_map[i6] == (unsigned char)qY) {
 5948              		.loc 1 1267 42 is_stmt 0 view .LVU2357
 5949 03fe 023F     		subs	r7, r7, #2
1266:Src/maze_solve.c ****                      short)(1 + q0) - 1] - 2) << 5)) - 1;
 5950              		.loc 1 1266 58 view .LVU2358
 5951 0400 00EB4710 		add	r0, r0, r7, lsl #5
1266:Src/maze_solve.c ****                      short)(1 + q0) - 1] - 2) << 5)) - 1;
 5952              		.loc 1 1266 16 view .LVU2359
 5953 0404 0138     		subs	r0, r0, #1
 5954              	.LVL859:
1268:Src/maze_solve.c ****               contour_map[i6] = (unsigned char)(tempi + 1);
 5955              		.loc 1 1268 13 is_stmt 1 view .LVU2360
1268:Src/maze_solve.c ****               contour_map[i6] = (unsigned char)(tempi + 1);
 5956              		.loc 1 1268 28 is_stmt 0 view .LVU2361
 5957 0406 0DF5C353 		add	r3, sp, #6240
 5958              	.LVL860:
1268:Src/maze_solve.c ****               contour_map[i6] = (unsigned char)(tempi + 1);
 5959              		.loc 1 1268 28 view .LVU2362
 5960 040a 0433     		adds	r3, r3, #4
 5961              	.LVL861:
1268:Src/maze_solve.c ****               contour_map[i6] = (unsigned char)(tempi + 1);
 5962              		.loc 1 1268 28 view .LVU2363
 5963 040c 1B68     		ldr	r3, [r3]
 5964              	.LVL862:
1268:Src/maze_solve.c ****               contour_map[i6] = (unsigned char)(tempi + 1);
 5965              		.loc 1 1268 28 view .LVU2364
 5966 040e 1B5C     		ldrb	r3, [r3, r0]	@ zero_extendqisi2
1268:Src/maze_solve.c ****               contour_map[i6] = (unsigned char)(tempi + 1);
 5967              		.loc 1 1268 16 view .LVU2365
 5968 0410 039A     		ldr	r2, [sp, #12]
 5969 0412 9A42     		cmp	r2, r3
 5970 0414 7FF434AF 		bne	.L504
1269:Src/maze_solve.c ****               change_flag = 1U;
 5971              		.loc 1 1269 15 is_stmt 1 view .LVU2366
1269:Src/maze_solve.c ****               change_flag = 1U;
 5972              		.loc 1 1269 33 is_stmt 0 view .LVU2367
 5973 0418 019B     		ldr	r3, [sp, #4]
 5974 041a 0133     		adds	r3, r3, #1
1269:Src/maze_solve.c ****               change_flag = 1U;
 5975              		.loc 1 1269 31 view .LVU2368
 5976 041c 0DF5C352 		add	r2, sp, #6240
 5977              	.LVL863:
1269:Src/maze_solve.c ****               change_flag = 1U;
 5978              		.loc 1 1269 31 view .LVU2369
 5979 0420 0432     		adds	r2, r2, #4
 5980              	.LVL864:
1269:Src/maze_solve.c ****               change_flag = 1U;
 5981              		.loc 1 1269 31 view .LVU2370
 5982 0422 1268     		ldr	r2, [r2]
 5983              	.LVL865:
1269:Src/maze_solve.c ****               change_flag = 1U;
 5984              		.loc 1 1269 31 view .LVU2371
 5985 0424 1354     		strb	r3, [r2, r0]
 5986              	.LVL866:
1270:Src/maze_solve.c ****             }
 5987              		.loc 1 1270 15 is_stmt 1 view .LVU2372
1270:Src/maze_solve.c ****             }
ARM GAS  C:\Temp\cc4yiJU0.s 			page 174


 5988              		.loc 1 1270 27 is_stmt 0 view .LVU2373
 5989 0426 0123     		movs	r3, #1
 5990 0428 0493     		str	r3, [sp, #16]
 5991 042a 29E7     		b	.L504
 5992              	.LVL867:
 5993              	.L535:
1270:Src/maze_solve.c ****             }
 5994              		.loc 1 1270 27 view .LVU2374
 5995 042c 0DF5C353 		add	r3, sp, #6240
 5996              	.LVL868:
1270:Src/maze_solve.c ****             }
 5997              		.loc 1 1270 27 view .LVU2375
 5998 0430 0433     		adds	r3, r3, #4
 5999              	.LVL869:
1270:Src/maze_solve.c ****             }
 6000              		.loc 1 1270 27 view .LVU2376
 6001 0432 D3F800B0 		ldr	fp, [r3]
1053:Src/maze_solve.c ****       /* 歩数カウントは0~max_length */
 6002              		.loc 1 1053 43 is_stmt 1 discriminator 2 view .LVU2377
1053:Src/maze_solve.c ****       /* 歩数カウントは0~max_length */
 6003              		.loc 1 1053 48 is_stmt 0 discriminator 2 view .LVU2378
 6004 0436 019B     		ldr	r3, [sp, #4]
 6005              	.LVL870:
1053:Src/maze_solve.c ****       /* 歩数カウントは0~max_length */
 6006              		.loc 1 1053 48 discriminator 2 view .LVU2379
 6007 0438 0133     		adds	r3, r3, #1
 6008 043a DBB2     		uxtb	r3, r3
 6009 043c 0193     		str	r3, [sp, #4]
 6010              	.LVL871:
 6011              	.L474:
1053:Src/maze_solve.c ****       /* 歩数カウントは0~max_length */
 6012              		.loc 1 1053 21 is_stmt 1 discriminator 1 view .LVU2380
1053:Src/maze_solve.c ****       /* 歩数カウントは0~max_length */
 6013              		.loc 1 1053 30 is_stmt 0 discriminator 1 view .LVU2381
 6014 043e 0DF5C353 		add	r3, sp, #6240
 6015              	.LVL872:
1053:Src/maze_solve.c ****       /* 歩数カウントは0~max_length */
 6016              		.loc 1 1053 30 discriminator 1 view .LVU2382
 6017 0442 0833     		adds	r3, r3, #8
 6018              	.LVL873:
1053:Src/maze_solve.c ****       /* 歩数カウントは0~max_length */
 6019              		.loc 1 1053 30 discriminator 1 view .LVU2383
 6020 0444 1B68     		ldr	r3, [r3]
 6021              	.LVL874:
1053:Src/maze_solve.c ****       /* 歩数カウントは0~max_length */
 6022              		.loc 1 1053 30 discriminator 1 view .LVU2384
 6023 0446 1B78     		ldrb	r3, [r3]	@ zero_extendqisi2
1053:Src/maze_solve.c ****       /* 歩数カウントは0~max_length */
 6024              		.loc 1 1053 5 discriminator 1 view .LVU2385
 6025 0448 019A     		ldr	r2, [sp, #4]
 6026 044a 9342     		cmp	r3, r2
 6027 044c 03D3     		bcc	.L536
1059:Src/maze_solve.c ****       while ((!exitg1) && (q0 < 1024)) {
 6028              		.loc 1 1059 14 view .LVU2386
 6029 044e 0021     		movs	r1, #0
1057:Src/maze_solve.c ****       q0 = 0;
 6030              		.loc 1 1057 11 view .LVU2387
ARM GAS  C:\Temp\cc4yiJU0.s 			page 175


 6031 0450 0F46     		mov	r7, r1
1058:Src/maze_solve.c ****       exitg1 = false;
 6032              		.loc 1 1058 10 view .LVU2388
 6033 0452 0B46     		mov	r3, r1
 6034 0454 29E6     		b	.L506
 6035              	.L536:
1278:Src/maze_solve.c **** }
 6036              		.loc 1 1278 11 is_stmt 1 view .LVU2389
1278:Src/maze_solve.c **** }
 6037              		.loc 1 1278 3 is_stmt 0 view .LVU2390
 6038 0456 049B     		ldr	r3, [sp, #16]
 6039 0458 002B     		cmp	r3, #0
 6040 045a 7FF421AE 		bne	.L507
1279:Src/maze_solve.c **** 
 6041              		.loc 1 1279 1 view .LVU2391
 6042 045e 0DF5C15D 		add	sp, sp, #6176
 6043 0462 03B0     		add	sp, sp, #12
 6044              	.LCFI17:
 6045              		.cfi_def_cfa_offset 36
 6046              		@ sp needed
 6047 0464 BDE8F08F 		pop	{r4, r5, r6, r7, r8, r9, r10, fp, pc}
1279:Src/maze_solve.c **** 
 6048              		.loc 1 1279 1 view .LVU2392
 6049              		.cfi_endproc
 6050              	.LFE135:
 6052              		.section	.text.maze_solve,"ax",%progbits
 6053              		.align	1
 6054              		.global	maze_solve
 6055              		.syntax unified
 6056              		.thumb
 6057              		.thumb_func
 6058              		.fpu fpv4-sp-d16
 6060              	maze_solve:
 6061              	.LVL875:
 6062              	.LFB138:
2377:Src/maze_solve.c **** 
2378:Src/maze_solve.c **** /*
2379:Src/maze_solve.c ****  * maze_solve 実機での迷路探索関数
2380:Src/maze_solve.c ****  * 入力 迷路壁情報,迷路探索情報,迷路縦サイズ,迷路横サイズ,ゴール座標,
2381:Src/maze_solve.c ****  * 出力 壁情報,探索情報
2382:Src/maze_solve.c ****  * Arguments    : unsigned char maze_wall[1024]
2383:Src/maze_solve.c ****  *                unsigned char maze_wall_search[1024]
2384:Src/maze_solve.c ****  *                unsigned char maze_row_size
2385:Src/maze_solve.c ****  *                unsigned char maze_col_size
2386:Src/maze_solve.c ****  *                const unsigned char maze_goal[18]
2387:Src/maze_solve.c ****  *                unsigned char goal_size
2388:Src/maze_solve.c ****  *                unsigned char run_mode
2389:Src/maze_solve.c ****  * Return Type  : void
2390:Src/maze_solve.c ****  */
2391:Src/maze_solve.c **** void maze_solve(unsigned char maze_wall[1024], unsigned char maze_wall_search
2392:Src/maze_solve.c ****                 [1024], unsigned char maze_row_size, unsigned char maze_col_size,
2393:Src/maze_solve.c ****                 const unsigned char maze_goal[18], unsigned char goal_size,
2394:Src/maze_solve.c ****                 unsigned char run_mode)
2395:Src/maze_solve.c **** {
 6063              		.loc 1 2395 1 is_stmt 1 view -0
 6064              		.cfi_startproc
 6065              		@ args = 12, pretend = 0, frame = 1080
ARM GAS  C:\Temp\cc4yiJU0.s 			page 176


 6066              		@ frame_needed = 0, uses_anonymous_args = 0
 6067              		.loc 1 2395 1 is_stmt 0 view .LVU2394
 6068 0000 2DE9F04F 		push	{r4, r5, r6, r7, r8, r9, r10, fp, lr}
 6069              	.LCFI18:
 6070              		.cfi_def_cfa_offset 36
 6071              		.cfi_offset 4, -36
 6072              		.cfi_offset 5, -32
 6073              		.cfi_offset 6, -28
 6074              		.cfi_offset 7, -24
 6075              		.cfi_offset 8, -20
 6076              		.cfi_offset 9, -16
 6077              		.cfi_offset 10, -12
 6078              		.cfi_offset 11, -8
 6079              		.cfi_offset 14, -4
 6080 0004 ADF2644D 		subw	sp, sp, #1124
 6081              	.LCFI19:
 6082              		.cfi_def_cfa_offset 1160
 6083 0008 0746     		mov	r7, r0
 6084 000a 0D46     		mov	r5, r1
 6085 000c 9046     		mov	r8, r2
 6086 000e 9946     		mov	r9, r3
 6087 0010 DDF88844 		ldr	r4, [sp, #1160]
 6088 0014 9DF88C64 		ldrb	r6, [sp, #1164]	@ zero_extendqisi2
 6089 0018 9DF890A4 		ldrb	r10, [sp, #1168]	@ zero_extendqisi2
2396:Src/maze_solve.c ****   coder_internal_ref b_goal_size;
 6090              		.loc 1 2396 3 is_stmt 1 view .LVU2395
2397:Src/maze_solve.c ****   int N;
 6091              		.loc 1 2397 3 view .LVU2396
2398:Src/maze_solve.c ****   unsigned char new_goal[18];
 6092              		.loc 1 2398 3 view .LVU2397
2399:Src/maze_solve.c ****   coder_internal_ref_4 g_direction;
 6093              		.loc 1 2399 3 view .LVU2398
2400:Src/maze_solve.c ****   coder_internal_ref_3 l_direction;
 6094              		.loc 1 2400 3 view .LVU2399
2401:Src/maze_solve.c ****   coder_internal_ref_2 wall;
 6095              		.loc 1 2401 3 view .LVU2400
2402:Src/maze_solve.c ****   coder_internal_ref_1 search;
 6096              		.loc 1 2402 3 view .LVU2401
2403:Src/maze_solve.c ****   coder_internal_ref current_x;
 6097              		.loc 1 2403 3 view .LVU2402
2404:Src/maze_solve.c ****   unsigned char contour_map[1024];
 6098              		.loc 1 2404 3 view .LVU2403
2405:Src/maze_solve.c ****   unsigned char search_flag;
 6099              		.loc 1 2405 3 view .LVU2404
2406:Src/maze_solve.c ****   coder_internal_ref current_y;
 6100              		.loc 1 2406 3 view .LVU2405
2407:Src/maze_solve.c ****   coder_internal_ref current_dir;
 6101              		.loc 1 2407 3 view .LVU2406
2408:Src/maze_solve.c ****   int exitg1;
 6102              		.loc 1 2408 3 view .LVU2407
2409:Src/maze_solve.c ****   bool exitg2;
 6103              		.loc 1 2409 3 view .LVU2408
2410:Src/maze_solve.c ****   unsigned char u2;
 6104              		.loc 1 2410 3 view .LVU2409
2411:Src/maze_solve.c ****   b_goal_size.contents = goal_size;
 6105              		.loc 1 2411 3 view .LVU2410
 6106              		.loc 1 2411 24 is_stmt 0 view .LVU2411
ARM GAS  C:\Temp\cc4yiJU0.s 			page 177


 6107 001c 8DF85C64 		strb	r6, [sp, #1116]
2412:Src/maze_solve.c **** 
2413:Src/maze_solve.c ****   /* ローカル変数宣言 */
2414:Src/maze_solve.c ****   for (N = 0; N < 18; N++) {
 6108              		.loc 1 2414 3 is_stmt 1 view .LVU2412
 6109              	.LVL876:
 6110              		.loc 1 2414 10 is_stmt 0 view .LVU2413
 6111 0020 0023     		movs	r3, #0
 6112              	.LVL877:
 6113              	.L540:
 6114              		.loc 1 2414 15 is_stmt 1 discriminator 1 view .LVU2414
 6115              		.loc 1 2414 3 is_stmt 0 discriminator 1 view .LVU2415
 6116 0022 112B     		cmp	r3, #17
 6117 0024 07DC     		bgt	.L552
2415:Src/maze_solve.c ****     new_goal[N] = 0U;
 6118              		.loc 1 2415 5 is_stmt 1 discriminator 3 view .LVU2416
 6119              		.loc 1 2415 17 is_stmt 0 discriminator 3 view .LVU2417
 6120 0026 0DF58C62 		add	r2, sp, #1120
 6121 002a 1A44     		add	r2, r2, r3
 6122 002c 0021     		movs	r1, #0
 6123 002e 02F8181C 		strb	r1, [r2, #-24]
2414:Src/maze_solve.c ****     new_goal[N] = 0U;
 6124              		.loc 1 2414 23 is_stmt 1 discriminator 3 view .LVU2418
2414:Src/maze_solve.c ****     new_goal[N] = 0U;
 6125              		.loc 1 2414 24 is_stmt 0 discriminator 3 view .LVU2419
 6126 0032 0133     		adds	r3, r3, #1
 6127              	.LVL878:
2414:Src/maze_solve.c ****     new_goal[N] = 0U;
 6128              		.loc 1 2414 24 discriminator 3 view .LVU2420
 6129 0034 F5E7     		b	.L540
 6130              	.L552:
2416:Src/maze_solve.c ****   }
2417:Src/maze_solve.c **** 
2418:Src/maze_solve.c ****   /* 絶対方角定義 */
2419:Src/maze_solve.c ****   g_direction.contents.North = 0U;
 6131              		.loc 1 2419 3 is_stmt 1 view .LVU2421
 6132              		.loc 1 2419 30 is_stmt 0 view .LVU2422
 6133 0036 0022     		movs	r2, #0
 6134 0038 8DF84424 		strb	r2, [sp, #1092]
2420:Src/maze_solve.c ****   g_direction.contents.East = 1U;
 6135              		.loc 1 2420 3 is_stmt 1 view .LVU2423
 6136              		.loc 1 2420 29 is_stmt 0 view .LVU2424
 6137 003c 0123     		movs	r3, #1
 6138              	.LVL879:
 6139              		.loc 1 2420 29 view .LVU2425
 6140 003e 8DF84534 		strb	r3, [sp, #1093]
2421:Src/maze_solve.c ****   g_direction.contents.South = 2U;
 6141              		.loc 1 2421 3 is_stmt 1 view .LVU2426
 6142              		.loc 1 2421 30 is_stmt 0 view .LVU2427
 6143 0042 0220     		movs	r0, #2
 6144              	.LVL880:
 6145              		.loc 1 2421 30 view .LVU2428
 6146 0044 8DF84604 		strb	r0, [sp, #1094]
2422:Src/maze_solve.c ****   g_direction.contents.West = 3U;
 6147              		.loc 1 2422 3 is_stmt 1 view .LVU2429
 6148              		.loc 1 2422 29 is_stmt 0 view .LVU2430
 6149 0048 0321     		movs	r1, #3
ARM GAS  C:\Temp\cc4yiJU0.s 			page 178


 6150 004a 8DF84714 		strb	r1, [sp, #1095]
2423:Src/maze_solve.c **** 
2424:Src/maze_solve.c ****   /* マウス方向定義 */
2425:Src/maze_solve.c ****   l_direction.contents.front = 0U;
 6151              		.loc 1 2425 3 is_stmt 1 view .LVU2431
 6152              		.loc 1 2425 30 is_stmt 0 view .LVU2432
 6153 004e 8DF84024 		strb	r2, [sp, #1088]
2426:Src/maze_solve.c ****   l_direction.contents.right = 1U;
 6154              		.loc 1 2426 3 is_stmt 1 view .LVU2433
 6155              		.loc 1 2426 30 is_stmt 0 view .LVU2434
 6156 0052 8DF84134 		strb	r3, [sp, #1089]
2427:Src/maze_solve.c ****   l_direction.contents.back = 2U;
 6157              		.loc 1 2427 3 is_stmt 1 view .LVU2435
 6158              		.loc 1 2427 29 is_stmt 0 view .LVU2436
 6159 0056 8DF84204 		strb	r0, [sp, #1090]
2428:Src/maze_solve.c ****   l_direction.contents.left = 3U;
 6160              		.loc 1 2428 3 is_stmt 1 view .LVU2437
 6161              		.loc 1 2428 29 is_stmt 0 view .LVU2438
 6162 005a 8DF84314 		strb	r1, [sp, #1091]
2429:Src/maze_solve.c **** 
2430:Src/maze_solve.c ****   /* 壁情報定義 */
2431:Src/maze_solve.c ****   wall.contents.nowall = 0U;
 6163              		.loc 1 2431 3 is_stmt 1 view .LVU2439
 6164              		.loc 1 2431 24 is_stmt 0 view .LVU2440
 6165 005e 8DF83C24 		strb	r2, [sp, #1084]
2432:Src/maze_solve.c ****   wall.contents.wall = 1U;
 6166              		.loc 1 2432 3 is_stmt 1 view .LVU2441
 6167              		.loc 1 2432 22 is_stmt 0 view .LVU2442
 6168 0062 8DF83D34 		strb	r3, [sp, #1085]
2433:Src/maze_solve.c **** 
2434:Src/maze_solve.c ****   /* 探索情報定義 */
2435:Src/maze_solve.c ****   search.contents.unknown = 0U;
 6169              		.loc 1 2435 3 is_stmt 1 view .LVU2443
 6170              		.loc 1 2435 27 is_stmt 0 view .LVU2444
 6171 0066 8DF83824 		strb	r2, [sp, #1080]
2436:Src/maze_solve.c ****   search.contents.known = 1U;
 6172              		.loc 1 2436 3 is_stmt 1 view .LVU2445
 6173              		.loc 1 2436 25 is_stmt 0 view .LVU2446
 6174 006a 8DF83934 		strb	r3, [sp, #1081]
2437:Src/maze_solve.c **** 
2438:Src/maze_solve.c ****   /* 走行モード定義 */
2439:Src/maze_solve.c ****   /* 探索時 */
2440:Src/maze_solve.c ****   if (run_mode == 0) {
 6175              		.loc 1 2440 3 is_stmt 1 view .LVU2447
 6176              		.loc 1 2440 6 is_stmt 0 view .LVU2448
 6177 006e BAF1000F 		cmp	r10, #0
 6178 0072 07D0     		beq	.L553
 6179              	.L542:
2441:Src/maze_solve.c ****     /* マウスの初期位置設定 */
2442:Src/maze_solve.c ****     /* 一マス前進 */
2443:Src/maze_solve.c **** 
2444:Src/maze_solve.c **** 	start_acceleration(  );//スタート時の加速
2445:Src/maze_solve.c **** 
2446:Src/maze_solve.c ****     current_x.contents = 1U;
2447:Src/maze_solve.c ****     current_y.contents = 1U;
2448:Src/maze_solve.c ****     move_step(&g_direction, &current_x.contents, &current_y.contents, 0U);
2449:Src/maze_solve.c ****     move_front();
ARM GAS  C:\Temp\cc4yiJU0.s 			page 179


2450:Src/maze_solve.c **** 
2451:Src/maze_solve.c ****     /* 足立法による探索 */
2452:Src/maze_solve.c ****     current_dir.contents = g_direction.contents.North;
2453:Src/maze_solve.c ****     search_adachi(&wall, &search, &g_direction, &l_direction,
2454:Src/maze_solve.c ****                   &current_x.contents, &current_y.contents,
2455:Src/maze_solve.c ****                   &current_dir.contents, maze_row_size, maze_col_size, maze_wall,
2456:Src/maze_solve.c ****                   maze_wall_search, maze_goal, goal_size);
2457:Src/maze_solve.c **** 
2458:Src/maze_solve.c ****     HAL_Delay(1000);
2459:Src/maze_solve.c **** 
2460:Src/maze_solve.c ****     /* ゴールをすべて探索 */
2461:Src/maze_solve.c ****     do {
2462:Src/maze_solve.c ****       exitg1 = 0;
2463:Src/maze_solve.c ****       search_flag = 0U;
2464:Src/maze_solve.c ****       N = 0;
2465:Src/maze_solve.c ****       exitg2 = false;
2466:Src/maze_solve.c ****       while ((!exitg2) && (N <= goal_size - 1)) {
2467:Src/maze_solve.c ****         u2 = maze_goal[N + 9];
2468:Src/maze_solve.c ****         if (maze_wall_search[(u2 + ((maze_goal[N] - 1) << 5)) - 1] != 15) {
2469:Src/maze_solve.c ****           new_goal[0] = maze_goal[N];
2470:Src/maze_solve.c ****           new_goal[9] = u2;
2471:Src/maze_solve.c ****           search_flag = 1U;
2472:Src/maze_solve.c ****           exitg2 = true;
2473:Src/maze_solve.c ****         } else {
2474:Src/maze_solve.c ****           N++;
2475:Src/maze_solve.c ****         }
2476:Src/maze_solve.c ****       }
2477:Src/maze_solve.c **** 
2478:Src/maze_solve.c ****       if (search_flag == 1) {
2479:Src/maze_solve.c ****     	clr_run_first_flg(); //走行開始フラグのクリア
2480:Src/maze_solve.c ****       goal_after_flg = immediately_after;
2481:Src/maze_solve.c ****         search_adachi(&wall, &search, &g_direction, &l_direction,
2482:Src/maze_solve.c ****                       &current_x.contents, &current_y.contents,
2483:Src/maze_solve.c ****                       &current_dir.contents, maze_row_size, maze_col_size,
2484:Src/maze_solve.c ****                       maze_wall, maze_wall_search, new_goal, 1U);
2485:Src/maze_solve.c ****       } else {
2486:Src/maze_solve.c ****         exitg1 = 1;
2487:Src/maze_solve.c ****       }
2488:Src/maze_solve.c ****     } while (exitg1 == 0);
2489:Src/maze_solve.c **** 
2490:Src/maze_solve.c ****     HAL_Delay(1000);
2491:Src/maze_solve.c ****     
2492:Src/maze_solve.c ****     /* スタートを目的地として足立法で再探索 */
2493:Src/maze_solve.c ****     new_goal[0] = 1U;
2494:Src/maze_solve.c ****     new_goal[9] = 1U;
2495:Src/maze_solve.c ****     clr_run_first_flg(); //走行開始フラグのクリア
2496:Src/maze_solve.c ****     goal_after_flg = immediately_after;
2497:Src/maze_solve.c ****     search_adachi(&wall, &search, &g_direction, &l_direction,
2498:Src/maze_solve.c ****                   &current_x.contents, &current_y.contents,
2499:Src/maze_solve.c ****                   &current_dir.contents, maze_row_size, maze_col_size, maze_wall,
2500:Src/maze_solve.c ****                   maze_wall_search, new_goal, 1U);
2501:Src/maze_solve.c **** 
2502:Src/maze_solve.c ****     fornt_wall_calibrate();
2503:Src/maze_solve.c ****     turn_conclk_180();
2504:Src/maze_solve.c ****     set_target_length(-0.5);
2505:Src/maze_solve.c ****     /* for code generation */
2506:Src/maze_solve.c ****   }
ARM GAS  C:\Temp\cc4yiJU0.s 			page 180


2507:Src/maze_solve.c **** 
2508:Src/maze_solve.c ****   if (run_mode == 1) {
 6180              		.loc 1 2508 3 is_stmt 1 view .LVU2449
 6181              		.loc 1 2508 6 is_stmt 0 view .LVU2450
 6182 0074 BAF1010F 		cmp	r10, #1
 6183 0078 00F0AD80 		beq	.L554
 6184              	.L539:
2509:Src/maze_solve.c ****     /* 探索情報をもとに等高線MAPを生成 */
2510:Src/maze_solve.c ****     make_map_fustrun(&b_goal_size, &g_direction, &wall, &search, maze_row_size,
2511:Src/maze_solve.c ****                      maze_col_size, maze_goal, maze_wall, maze_wall_search,
2512:Src/maze_solve.c ****                      contour_map, &search_flag);
2513:Src/maze_solve.c **** 
2514:Src/maze_solve.c ****     /* 最短距離走行 */
2515:Src/maze_solve.c ****     fust_run(&g_direction, &current_x, &current_y, &current_dir, &b_goal_size,
2516:Src/maze_solve.c ****              &wall, &l_direction, maze_wall, contour_map, maze_goal, search_flag);
2517:Src/maze_solve.c ****   }
2518:Src/maze_solve.c **** }
 6185              		.loc 1 2518 1 view .LVU2451
 6186 007c 0DF2644D 		addw	sp, sp, #1124
 6187              	.LCFI20:
 6188              		.cfi_remember_state
 6189              		.cfi_def_cfa_offset 36
 6190              		@ sp needed
 6191 0080 BDE8F08F 		pop	{r4, r5, r6, r7, r8, r9, r10, fp, pc}
 6192              	.LVL881:
 6193              	.L553:
 6194              	.LCFI21:
 6195              		.cfi_restore_state
2444:Src/maze_solve.c **** 
 6196              		.loc 1 2444 2 is_stmt 1 view .LVU2452
 6197 0084 FFF7FEFF 		bl	start_acceleration
 6198              	.LVL882:
2446:Src/maze_solve.c ****     current_y.contents = 1U;
 6199              		.loc 1 2446 5 view .LVU2453
2446:Src/maze_solve.c ****     current_y.contents = 1U;
 6200              		.loc 1 2446 24 is_stmt 0 view .LVU2454
 6201 0088 0123     		movs	r3, #1
 6202 008a 8DF83434 		strb	r3, [sp, #1076]
2447:Src/maze_solve.c ****     move_step(&g_direction, &current_x.contents, &current_y.contents, 0U);
 6203              		.loc 1 2447 5 is_stmt 1 view .LVU2455
2447:Src/maze_solve.c ****     move_step(&g_direction, &current_x.contents, &current_y.contents, 0U);
 6204              		.loc 1 2447 24 is_stmt 0 view .LVU2456
 6205 008e 0DF1300B 		add	fp, sp, #48
 6206 0092 8DF83030 		strb	r3, [sp, #48]
2448:Src/maze_solve.c ****     move_front();
 6207              		.loc 1 2448 5 is_stmt 1 view .LVU2457
 6208 0096 0023     		movs	r3, #0
 6209 0098 5A46     		mov	r2, fp
 6210 009a 0DF23441 		addw	r1, sp, #1076
 6211 009e 0DF24440 		addw	r0, sp, #1092
 6212 00a2 FFF7FEFF 		bl	move_step
 6213              	.LVL883:
2449:Src/maze_solve.c **** 
 6214              		.loc 1 2449 5 view .LVU2458
 6215 00a6 FFF7FEFF 		bl	move_front
 6216              	.LVL884:
2452:Src/maze_solve.c ****     search_adachi(&wall, &search, &g_direction, &l_direction,
ARM GAS  C:\Temp\cc4yiJU0.s 			page 181


 6217              		.loc 1 2452 5 view .LVU2459
2452:Src/maze_solve.c ****     search_adachi(&wall, &search, &g_direction, &l_direction,
 6218              		.loc 1 2452 48 is_stmt 0 view .LVU2460
 6219 00aa 9DF84424 		ldrb	r2, [sp, #1092]	@ zero_extendqisi2
2452:Src/maze_solve.c ****     search_adachi(&wall, &search, &g_direction, &l_direction,
 6220              		.loc 1 2452 26 view .LVU2461
 6221 00ae 0BAB     		add	r3, sp, #44
 6222 00b0 8DF82C20 		strb	r2, [sp, #44]
2453:Src/maze_solve.c ****                   &current_x.contents, &current_y.contents,
 6223              		.loc 1 2453 5 is_stmt 1 view .LVU2462
 6224 00b4 0896     		str	r6, [sp, #32]
 6225 00b6 0794     		str	r4, [sp, #28]
 6226 00b8 0695     		str	r5, [sp, #24]
 6227 00ba 0597     		str	r7, [sp, #20]
 6228 00bc CDF81090 		str	r9, [sp, #16]
 6229 00c0 CDF80C80 		str	r8, [sp, #12]
 6230 00c4 0293     		str	r3, [sp, #8]
 6231 00c6 CDF804B0 		str	fp, [sp, #4]
 6232 00ca 0DF23443 		addw	r3, sp, #1076
 6233 00ce 0093     		str	r3, [sp]
 6234 00d0 0DF58863 		add	r3, sp, #1088
 6235 00d4 0DF24442 		addw	r2, sp, #1092
 6236 00d8 0DF58761 		add	r1, sp, #1080
 6237 00dc 0DF23C40 		addw	r0, sp, #1084
 6238 00e0 FFF7FEFF 		bl	search_adachi
 6239              	.LVL885:
2458:Src/maze_solve.c **** 
 6240              		.loc 1 2458 5 view .LVU2463
 6241 00e4 4FF47A70 		mov	r0, #1000
 6242 00e8 FFF7FEFF 		bl	HAL_Delay
 6243              	.LVL886:
 6244 00ec 3DE0     		b	.L549
 6245              	.LVL887:
 6246              	.L555:
2469:Src/maze_solve.c ****           new_goal[9] = u2;
 6247              		.loc 1 2469 11 view .LVU2464
2469:Src/maze_solve.c ****           new_goal[9] = u2;
 6248              		.loc 1 2469 23 is_stmt 0 view .LVU2465
 6249 00ee 8DF848C4 		strb	ip, [sp, #1096]
2470:Src/maze_solve.c ****           search_flag = 1U;
 6250              		.loc 1 2470 11 is_stmt 1 view .LVU2466
2470:Src/maze_solve.c ****           search_flag = 1U;
 6251              		.loc 1 2470 23 is_stmt 0 view .LVU2467
 6252 00f2 8DF85104 		strb	r0, [sp, #1105]
2471:Src/maze_solve.c ****           exitg2 = true;
 6253              		.loc 1 2471 11 is_stmt 1 view .LVU2468
2471:Src/maze_solve.c ****           exitg2 = true;
 6254              		.loc 1 2471 23 is_stmt 0 view .LVU2469
 6255 00f6 0121     		movs	r1, #1
 6256              	.LVL888:
2471:Src/maze_solve.c ****           exitg2 = true;
 6257              		.loc 1 2471 23 view .LVU2470
 6258 00f8 8DF83310 		strb	r1, [sp, #51]
2472:Src/maze_solve.c ****         } else {
 6259              		.loc 1 2472 11 is_stmt 1 view .LVU2471
 6260              	.LVL889:
 6261              	.L543:
ARM GAS  C:\Temp\cc4yiJU0.s 			page 182


2466:Src/maze_solve.c ****         u2 = maze_goal[N + 9];
 6262              		.loc 1 2466 13 view .LVU2472
 6263 00fc 89B9     		cbnz	r1, .L546
2466:Src/maze_solve.c ****         u2 = maze_goal[N + 9];
 6264              		.loc 1 2466 24 is_stmt 0 discriminator 1 view .LVU2473
 6265 00fe 9642     		cmp	r6, r2
 6266 0100 0FDD     		ble	.L546
2467:Src/maze_solve.c ****         if (maze_wall_search[(u2 + ((maze_goal[N] - 1) << 5)) - 1] != 15) {
 6267              		.loc 1 2467 9 is_stmt 1 view .LVU2474
2467:Src/maze_solve.c ****         if (maze_wall_search[(u2 + ((maze_goal[N] - 1) << 5)) - 1] != 15) {
 6268              		.loc 1 2467 23 is_stmt 0 view .LVU2475
 6269 0102 02F10903 		add	r3, r2, #9
2467:Src/maze_solve.c ****         if (maze_wall_search[(u2 + ((maze_goal[N] - 1) << 5)) - 1] != 15) {
 6270              		.loc 1 2467 12 view .LVU2476
 6271 0106 E05C     		ldrb	r0, [r4, r3]	@ zero_extendqisi2
 6272              	.LVL890:
2468:Src/maze_solve.c ****           new_goal[0] = maze_goal[N];
 6273              		.loc 1 2468 9 is_stmt 1 view .LVU2477
2468:Src/maze_solve.c ****           new_goal[0] = maze_goal[N];
 6274              		.loc 1 2468 47 is_stmt 0 view .LVU2478
 6275 0108 14F802C0 		ldrb	ip, [r4, r2]	@ zero_extendqisi2
2468:Src/maze_solve.c ****           new_goal[0] = maze_goal[N];
 6276              		.loc 1 2468 51 view .LVU2479
 6277 010c 0CF1FF33 		add	r3, ip, #-1
2468:Src/maze_solve.c ****           new_goal[0] = maze_goal[N];
 6278              		.loc 1 2468 34 view .LVU2480
 6279 0110 00EB4313 		add	r3, r0, r3, lsl #5
2468:Src/maze_solve.c ****           new_goal[0] = maze_goal[N];
 6280              		.loc 1 2468 29 view .LVU2481
 6281 0114 2B44     		add	r3, r3, r5
 6282 0116 13F8013C 		ldrb	r3, [r3, #-1]	@ zero_extendqisi2
2468:Src/maze_solve.c ****           new_goal[0] = maze_goal[N];
 6283              		.loc 1 2468 12 view .LVU2482
 6284 011a 0F2B     		cmp	r3, #15
 6285 011c E7D1     		bne	.L555
2474:Src/maze_solve.c ****         }
 6286              		.loc 1 2474 11 is_stmt 1 view .LVU2483
2474:Src/maze_solve.c ****         }
 6287              		.loc 1 2474 12 is_stmt 0 view .LVU2484
 6288 011e 0132     		adds	r2, r2, #1
 6289              	.LVL891:
2474:Src/maze_solve.c ****         }
 6290              		.loc 1 2474 12 view .LVU2485
 6291 0120 ECE7     		b	.L543
 6292              	.LVL892:
 6293              	.L546:
2478:Src/maze_solve.c ****     	clr_run_first_flg(); //走行開始フラグのクリア
 6294              		.loc 1 2478 7 is_stmt 1 view .LVU2486
2478:Src/maze_solve.c ****     	clr_run_first_flg(); //走行開始フラグのクリア
 6295              		.loc 1 2478 23 is_stmt 0 view .LVU2487
 6296 0122 9DF83330 		ldrb	r3, [sp, #51]	@ zero_extendqisi2
2478:Src/maze_solve.c ****     	clr_run_first_flg(); //走行開始フラグのクリア
 6297              		.loc 1 2478 10 view .LVU2488
 6298 0126 012B     		cmp	r3, #1
 6299 0128 24D1     		bne	.L548
2479:Src/maze_solve.c ****       goal_after_flg = immediately_after;
 6300              		.loc 1 2479 6 is_stmt 1 view .LVU2489
ARM GAS  C:\Temp\cc4yiJU0.s 			page 183


 6301 012a FFF7FEFF 		bl	clr_run_first_flg
 6302              	.LVL893:
2480:Src/maze_solve.c ****         search_adachi(&wall, &search, &g_direction, &l_direction,
 6303              		.loc 1 2480 7 view .LVU2490
2480:Src/maze_solve.c ****         search_adachi(&wall, &search, &g_direction, &l_direction,
 6304              		.loc 1 2480 22 is_stmt 0 view .LVU2491
 6305 012e 0123     		movs	r3, #1
 6306 0130 404A     		ldr	r2, .L556
 6307 0132 1370     		strb	r3, [r2]
2481:Src/maze_solve.c ****                       &current_x.contents, &current_y.contents,
 6308              		.loc 1 2481 9 is_stmt 1 view .LVU2492
 6309 0134 0893     		str	r3, [sp, #32]
 6310 0136 0DF58963 		add	r3, sp, #1096
 6311 013a 0793     		str	r3, [sp, #28]
 6312 013c 0695     		str	r5, [sp, #24]
 6313 013e 0597     		str	r7, [sp, #20]
 6314 0140 CDF81090 		str	r9, [sp, #16]
 6315 0144 CDF80C80 		str	r8, [sp, #12]
 6316 0148 0BAB     		add	r3, sp, #44
 6317 014a 0293     		str	r3, [sp, #8]
 6318 014c 0CAB     		add	r3, sp, #48
 6319 014e 0193     		str	r3, [sp, #4]
 6320 0150 0DF23443 		addw	r3, sp, #1076
 6321 0154 0093     		str	r3, [sp]
 6322 0156 0DF58863 		add	r3, sp, #1088
 6323 015a 0DF24442 		addw	r2, sp, #1092
 6324 015e 0DF58761 		add	r1, sp, #1080
 6325 0162 0DF23C40 		addw	r0, sp, #1084
 6326 0166 FFF7FEFF 		bl	search_adachi
 6327              	.LVL894:
2488:Src/maze_solve.c **** 
 6328              		.loc 1 2488 13 view .LVU2493
 6329              	.L549:
2461:Src/maze_solve.c ****       exitg1 = 0;
 6330              		.loc 1 2461 5 view .LVU2494
2462:Src/maze_solve.c ****       search_flag = 0U;
 6331              		.loc 1 2462 7 view .LVU2495
2463:Src/maze_solve.c ****       N = 0;
 6332              		.loc 1 2463 7 view .LVU2496
2463:Src/maze_solve.c ****       N = 0;
 6333              		.loc 1 2463 19 is_stmt 0 view .LVU2497
 6334 016a 0022     		movs	r2, #0
 6335 016c 8DF83320 		strb	r2, [sp, #51]
2464:Src/maze_solve.c ****       exitg2 = false;
 6336              		.loc 1 2464 7 is_stmt 1 view .LVU2498
 6337              	.LVL895:
2465:Src/maze_solve.c ****       while ((!exitg2) && (N <= goal_size - 1)) {
 6338              		.loc 1 2465 7 view .LVU2499
2466:Src/maze_solve.c ****         u2 = maze_goal[N + 9];
 6339              		.loc 1 2466 7 view .LVU2500
2465:Src/maze_solve.c ****       while ((!exitg2) && (N <= goal_size - 1)) {
 6340              		.loc 1 2465 14 is_stmt 0 view .LVU2501
 6341 0170 1146     		mov	r1, r2
2466:Src/maze_solve.c ****         u2 = maze_goal[N + 9];
 6342              		.loc 1 2466 13 view .LVU2502
 6343 0172 C3E7     		b	.L543
 6344              	.LVL896:
ARM GAS  C:\Temp\cc4yiJU0.s 			page 184


 6345              	.L548:
2488:Src/maze_solve.c **** 
 6346              		.loc 1 2488 13 is_stmt 1 view .LVU2503
2490:Src/maze_solve.c ****     
 6347              		.loc 1 2490 5 view .LVU2504
 6348 0174 4FF47A70 		mov	r0, #1000
 6349 0178 FFF7FEFF 		bl	HAL_Delay
 6350              	.LVL897:
2493:Src/maze_solve.c ****     new_goal[9] = 1U;
 6351              		.loc 1 2493 5 view .LVU2505
2493:Src/maze_solve.c ****     new_goal[9] = 1U;
 6352              		.loc 1 2493 17 is_stmt 0 view .LVU2506
 6353 017c 0126     		movs	r6, #1
 6354 017e 8DF84864 		strb	r6, [sp, #1096]
2494:Src/maze_solve.c ****     clr_run_first_flg(); //走行開始フラグのクリア
 6355              		.loc 1 2494 5 is_stmt 1 view .LVU2507
2494:Src/maze_solve.c ****     clr_run_first_flg(); //走行開始フラグのクリア
 6356              		.loc 1 2494 17 is_stmt 0 view .LVU2508
 6357 0182 8DF85164 		strb	r6, [sp, #1105]
2495:Src/maze_solve.c ****     goal_after_flg = immediately_after;
 6358              		.loc 1 2495 5 is_stmt 1 view .LVU2509
 6359 0186 FFF7FEFF 		bl	clr_run_first_flg
 6360              	.LVL898:
2496:Src/maze_solve.c ****     search_adachi(&wall, &search, &g_direction, &l_direction,
 6361              		.loc 1 2496 5 view .LVU2510
2496:Src/maze_solve.c ****     search_adachi(&wall, &search, &g_direction, &l_direction,
 6362              		.loc 1 2496 20 is_stmt 0 view .LVU2511
 6363 018a 2A4B     		ldr	r3, .L556
 6364 018c 1E70     		strb	r6, [r3]
2497:Src/maze_solve.c ****                   &current_x.contents, &current_y.contents,
 6365              		.loc 1 2497 5 is_stmt 1 view .LVU2512
 6366 018e 0896     		str	r6, [sp, #32]
 6367 0190 0DF58963 		add	r3, sp, #1096
 6368 0194 0793     		str	r3, [sp, #28]
 6369 0196 0695     		str	r5, [sp, #24]
 6370 0198 0597     		str	r7, [sp, #20]
 6371 019a CDF81090 		str	r9, [sp, #16]
 6372 019e CDF80C80 		str	r8, [sp, #12]
 6373 01a2 0BAB     		add	r3, sp, #44
 6374 01a4 0293     		str	r3, [sp, #8]
 6375 01a6 0CAB     		add	r3, sp, #48
 6376 01a8 0193     		str	r3, [sp, #4]
 6377 01aa 0DF23443 		addw	r3, sp, #1076
 6378 01ae 0093     		str	r3, [sp]
 6379 01b0 0DF58863 		add	r3, sp, #1088
 6380 01b4 0DF24442 		addw	r2, sp, #1092
 6381 01b8 0DF58761 		add	r1, sp, #1080
 6382 01bc 0DF23C40 		addw	r0, sp, #1084
 6383 01c0 FFF7FEFF 		bl	search_adachi
 6384              	.LVL899:
2502:Src/maze_solve.c ****     turn_conclk_180();
 6385              		.loc 1 2502 5 view .LVU2513
 6386 01c4 FFF7FEFF 		bl	fornt_wall_calibrate
 6387              	.LVL900:
2503:Src/maze_solve.c ****     set_target_length(-0.5);
 6388              		.loc 1 2503 5 view .LVU2514
 6389 01c8 FFF7FEFF 		bl	turn_conclk_180
ARM GAS  C:\Temp\cc4yiJU0.s 			page 185


 6390              	.LVL901:
2504:Src/maze_solve.c ****     /* for code generation */
 6391              		.loc 1 2504 5 view .LVU2515
 6392 01cc BEEE000A 		vmov.f32	s0, #-5.0e-1
 6393 01d0 FFF7FEFF 		bl	set_target_length
 6394              	.LVL902:
 6395 01d4 4EE7     		b	.L542
 6396              	.LVL903:
 6397              	.L554:
2510:Src/maze_solve.c ****                      maze_col_size, maze_goal, maze_wall, maze_wall_search,
 6398              		.loc 1 2510 5 view .LVU2516
 6399 01d6 0DF23C4A 		addw	r10, sp, #1084
 6400 01da 0DF1330B 		add	fp, sp, #51
 6401 01de CDF818B0 		str	fp, [sp, #24]
 6402 01e2 0DAE     		add	r6, sp, #52
 6403 01e4 0596     		str	r6, [sp, #20]
 6404 01e6 0495     		str	r5, [sp, #16]
 6405 01e8 0397     		str	r7, [sp, #12]
 6406 01ea 0294     		str	r4, [sp, #8]
 6407 01ec CDF80490 		str	r9, [sp, #4]
 6408 01f0 CDF80080 		str	r8, [sp]
 6409 01f4 0DF58763 		add	r3, sp, #1080
 6410 01f8 5246     		mov	r2, r10
 6411 01fa 0DF24441 		addw	r1, sp, #1092
 6412 01fe 0DF25C40 		addw	r0, sp, #1116
 6413 0202 FFF7FEFF 		bl	make_map_fustrun
 6414              	.LVL904:
2515:Src/maze_solve.c ****              &wall, &l_direction, maze_wall, contour_map, maze_goal, search_flag);
 6415              		.loc 1 2515 5 view .LVU2517
 6416 0206 9BF80030 		ldrb	r3, [fp]	@ zero_extendqisi2
 6417 020a 0693     		str	r3, [sp, #24]
 6418 020c 0594     		str	r4, [sp, #20]
 6419 020e 0496     		str	r6, [sp, #16]
 6420 0210 0397     		str	r7, [sp, #12]
 6421 0212 0DF58863 		add	r3, sp, #1088
 6422 0216 0293     		str	r3, [sp, #8]
 6423 0218 CDF804A0 		str	r10, [sp, #4]
 6424 021c 0DF25C43 		addw	r3, sp, #1116
 6425 0220 0093     		str	r3, [sp]
 6426 0222 0BAB     		add	r3, sp, #44
 6427 0224 0CAA     		add	r2, sp, #48
 6428 0226 0DF23441 		addw	r1, sp, #1076
 6429 022a 0DF24440 		addw	r0, sp, #1092
 6430 022e FFF7FEFF 		bl	fust_run
 6431              	.LVL905:
 6432              		.loc 1 2518 1 is_stmt 0 view .LVU2518
 6433 0232 23E7     		b	.L539
 6434              	.L557:
 6435              		.align	2
 6436              	.L556:
 6437 0234 00000000 		.word	.LANCHOR3
 6438              		.cfi_endproc
 6439              	.LFE138:
 6441              		.section	.bss.b_num_temp_data.10761,"aw",%nobits
 6442              		.align	2
 6443              		.set	.LANCHOR2,. + 0
 6446              	b_num_temp_data.10761:
ARM GAS  C:\Temp\cc4yiJU0.s 			page 186


 6447 0000 00000000 		.space	2048
 6447      00000000 
 6447      00000000 
 6447      00000000 
 6447      00000000 
 6448              		.section	.bss.goal_after_flg,"aw",%nobits
 6449              		.set	.LANCHOR3,. + 0
 6452              	goal_after_flg:
 6453 0000 00       		.space	1
 6454              		.section	.bss.i11.10913,"aw",%nobits
 6455              		.align	2
 6456              		.set	.LANCHOR4,. + 0
 6459              	i11.10913:
 6460 0000 00000000 		.space	4
 6461              		.section	.bss.i12.10914,"aw",%nobits
 6462              		.align	2
 6463              		.set	.LANCHOR5,. + 0
 6466              	i12.10914:
 6467 0000 00000000 		.space	4
 6468              		.section	.bss.ii_data.10757,"aw",%nobits
 6469              		.align	2
 6470              		.set	.LANCHOR0,. + 0
 6473              	ii_data.10757:
 6474 0000 00000000 		.space	2048
 6474      00000000 
 6474      00000000 
 6474      00000000 
 6474      00000000 
 6475              		.section	.bss.ii_data.10829,"aw",%nobits
 6476              		.align	2
 6477              		.set	.LANCHOR6,. + 0
 6480              	ii_data.10829:
 6481 0000 00000000 		.space	2048
 6481      00000000 
 6481      00000000 
 6481      00000000 
 6481      00000000 
 6482              		.section	.bss.num_temp_data.10759,"aw",%nobits
 6483              		.align	2
 6484              		.set	.LANCHOR1,. + 0
 6487              	num_temp_data.10759:
 6488 0000 00000000 		.space	2048
 6488      00000000 
 6488      00000000 
 6488      00000000 
 6488      00000000 
 6489              		.section	.bss.num_temp_data.10831,"aw",%nobits
 6490              		.align	2
 6491              		.set	.LANCHOR7,. + 0
 6494              	num_temp_data.10831:
 6495 0000 00000000 		.space	2048
 6495      00000000 
 6495      00000000 
 6495      00000000 
 6495      00000000 
 6496              		.text
 6497              	.Letext0:
ARM GAS  C:\Temp\cc4yiJU0.s 			page 187


 6498              		.file 2 "c:\\tools\\gcc-arm-none-eabi-9-2019-q4-major\\arm-none-eabi\\include\\machine\\_default_t
 6499              		.file 3 "c:\\tools\\gcc-arm-none-eabi-9-2019-q4-major\\arm-none-eabi\\include\\sys\\lock.h"
 6500              		.file 4 "c:\\tools\\gcc-arm-none-eabi-9-2019-q4-major\\arm-none-eabi\\include\\sys\\_types.h"
 6501              		.file 5 "c:\\tools\\gcc-arm-none-eabi-9-2019-q4-major\\lib\\gcc\\arm-none-eabi\\9.2.1\\include\\st
 6502              		.file 6 "c:\\tools\\gcc-arm-none-eabi-9-2019-q4-major\\arm-none-eabi\\include\\sys\\reent.h"
 6503              		.file 7 "c:\\tools\\gcc-arm-none-eabi-9-2019-q4-major\\arm-none-eabi\\include\\stdlib.h"
 6504              		.file 8 "c:\\tools\\gcc-arm-none-eabi-9-2019-q4-major\\arm-none-eabi\\include\\sys\\_stdint.h"
 6505              		.file 9 "c:\\tools\\gcc-arm-none-eabi-9-2019-q4-major\\arm-none-eabi\\include\\math.h"
 6506              		.file 10 "Drivers/CMSIS/Include/core_cm4.h"
 6507              		.file 11 "Drivers/CMSIS/Device/ST/STM32F4xx/Include/system_stm32f4xx.h"
 6508              		.file 12 "Drivers/CMSIS/Device/ST/STM32F4xx/Include/stm32f413xx.h"
 6509              		.file 13 "Drivers/CMSIS/Device/ST/STM32F4xx/Include/stm32f4xx.h"
 6510              		.file 14 "Drivers/STM32F4xx_HAL_Driver/Inc/stm32f4xx_hal_def.h"
 6511              		.file 15 "Drivers/STM32F4xx_HAL_Driver/Inc/stm32f4xx_hal_gpio.h"
 6512              		.file 16 "Drivers/STM32F4xx_HAL_Driver/Inc/stm32f4xx_hal_dma.h"
 6513              		.file 17 "Drivers/STM32F4xx_HAL_Driver/Inc/stm32f4xx_hal_adc.h"
 6514              		.file 18 "Drivers/STM32F4xx_HAL_Driver/Inc/stm32f4xx_hal_spi.h"
 6515              		.file 19 "Drivers/STM32F4xx_HAL_Driver/Inc/stm32f4xx_hal_tim.h"
 6516              		.file 20 "Drivers/STM32F4xx_HAL_Driver/Inc/stm32f4xx_hal_uart.h"
 6517              		.file 21 "Inc/adc.h"
 6518              		.file 22 "Inc/spi.h"
 6519              		.file 23 "Inc/tim.h"
 6520              		.file 24 "Inc/usart.h"
 6521              		.file 25 "Inc/matlab_code_gen_data.h"
 6522              		.file 26 "Inc/movement.h"
 6523              		.file 27 "Drivers/STM32F4xx_HAL_Driver/Inc/stm32f4xx_hal.h"
 6524              		.file 28 "Inc/adjust.h"
 6525              		.file 29 "Inc/target.h"
 6526              		.file 30 "Inc/ir_sensor.h"
 6527              		.file 31 "Inc/rem.h"
 6528              		.file 32 "Inc/idivide.h"
ARM GAS  C:\Temp\cc4yiJU0.s 			page 188


DEFINED SYMBOLS
                            *ABS*:00000000 maze_solve.c
  C:\Temp\cc4yiJU0.s:18     .text.fust_run:00000000 $t
  C:\Temp\cc4yiJU0.s:25     .text.fust_run:00000000 fust_run
  C:\Temp\cc4yiJU0.s:1172   .text.move_step:00000000 $t
  C:\Temp\cc4yiJU0.s:1178   .text.move_step:00000000 move_step
  C:\Temp\cc4yiJU0.s:1323   .text.make_map_find:00000000 $t
  C:\Temp\cc4yiJU0.s:1329   .text.make_map_find:00000000 make_map_find
  C:\Temp\cc4yiJU0.s:2197   .text.make_map_find:00000320 $d
  C:\Temp\cc4yiJU0.s:2204   .text.search_adachi:00000000 $t
  C:\Temp\cc4yiJU0.s:2210   .text.search_adachi:00000000 search_adachi
  C:\Temp\cc4yiJU0.s:3107   .text.search_adachi:000003bc $d
  C:\Temp\cc4yiJU0.s:3122   .text.search_adachi:000003dc $t
  C:\Temp\cc4yiJU0.s:4623   .text.search_adachi:00000988 $d
  C:\Temp\cc4yiJU0.s:4631   .text.search_adachi:00000998 $t
  C:\Temp\cc4yiJU0.s:4987   .text.make_map_fustrun:00000000 $t
  C:\Temp\cc4yiJU0.s:4993   .text.make_map_fustrun:00000000 make_map_fustrun
  C:\Temp\cc4yiJU0.s:5921   .text.make_map_fustrun:000003dc $d
  C:\Temp\cc4yiJU0.s:5929   .text.make_map_fustrun:000003e4 $t
  C:\Temp\cc4yiJU0.s:6053   .text.maze_solve:00000000 $t
  C:\Temp\cc4yiJU0.s:6060   .text.maze_solve:00000000 maze_solve
  C:\Temp\cc4yiJU0.s:6437   .text.maze_solve:00000234 $d
  C:\Temp\cc4yiJU0.s:6442   .bss.b_num_temp_data.10761:00000000 $d
  C:\Temp\cc4yiJU0.s:6446   .bss.b_num_temp_data.10761:00000000 b_num_temp_data.10761
  C:\Temp\cc4yiJU0.s:6452   .bss.goal_after_flg:00000000 goal_after_flg
  C:\Temp\cc4yiJU0.s:6453   .bss.goal_after_flg:00000000 $d
  C:\Temp\cc4yiJU0.s:6455   .bss.i11.10913:00000000 $d
  C:\Temp\cc4yiJU0.s:6459   .bss.i11.10913:00000000 i11.10913
  C:\Temp\cc4yiJU0.s:6462   .bss.i12.10914:00000000 $d
  C:\Temp\cc4yiJU0.s:6466   .bss.i12.10914:00000000 i12.10914
  C:\Temp\cc4yiJU0.s:6469   .bss.ii_data.10757:00000000 $d
  C:\Temp\cc4yiJU0.s:6473   .bss.ii_data.10757:00000000 ii_data.10757
  C:\Temp\cc4yiJU0.s:6476   .bss.ii_data.10829:00000000 $d
  C:\Temp\cc4yiJU0.s:6480   .bss.ii_data.10829:00000000 ii_data.10829
  C:\Temp\cc4yiJU0.s:6483   .bss.num_temp_data.10759:00000000 $d
  C:\Temp\cc4yiJU0.s:6487   .bss.num_temp_data.10759:00000000 num_temp_data.10759
  C:\Temp\cc4yiJU0.s:6490   .bss.num_temp_data.10831:00000000 $d
  C:\Temp\cc4yiJU0.s:6494   .bss.num_temp_data.10831:00000000 num_temp_data.10831

UNDEFINED SYMBOLS
b_rem
idivide
Sensor_GetValue
set_rigth_wall_flg
set_left_wall_flg
wall_sensor_front
wall_sensor_right
wall_sensor_left
wall_sensor_front_th
wall_sensor_right_th
wall_sensor_left_th
set_front_wall_flg
half_deceleration
Sensor_StopADC
HAL_GPIO_WritePin
HAL_Delay
Sensor_Initialize
ARM GAS  C:\Temp\cc4yiJU0.s 			page 189


move_front
move_left
move_back
move_right
start_acceleration
clr_run_first_flg
fornt_wall_calibrate
turn_conclk_180
set_target_length
