ARM GAS  C:\Temp\ccSQM2w2.s 			page 1


   1              		.cpu cortex-m4
   2              		.eabi_attribute 27, 1
   3              		.eabi_attribute 28, 1
   4              		.eabi_attribute 20, 1
   5              		.eabi_attribute 21, 1
   6              		.eabi_attribute 23, 3
   7              		.eabi_attribute 24, 1
   8              		.eabi_attribute 25, 1
   9              		.eabi_attribute 26, 1
  10              		.eabi_attribute 30, 1
  11              		.eabi_attribute 34, 1
  12              		.eabi_attribute 18, 4
  13              		.file	"maze_solve.c"
  14              		.text
  15              	.Ltext0:
  16              		.cfi_sections	.debug_frame
  17              		.section	.text.fust_run,"ax",%progbits
  18              		.align	1
  19              		.arch armv7e-m
  20              		.syntax unified
  21              		.thumb
  22              		.thumb_func
  23              		.fpu fpv4-sp-d16
  25              	fust_run:
  26              	.LVL0:
  27              	.LFB133:
  28              		.file 1 "Src/maze_solve.c"
   1:Src/maze_solve.c **** /*
   2:Src/maze_solve.c ****  * Sponsored License - for use in support of a program or activity
   3:Src/maze_solve.c ****  * sponsored by MathWorks.  Not for government, commercial or other
   4:Src/maze_solve.c ****  * non-sponsored organizational use.
   5:Src/maze_solve.c ****  * File: maze_solve.c
   6:Src/maze_solve.c ****  *
   7:Src/maze_solve.c ****  * MATLAB Coder version            : 4.2
   8:Src/maze_solve.c ****  * C/C++ source code generated on  : 18-Nov-2019 23:53:15
   9:Src/maze_solve.c ****  */
  10:Src/maze_solve.c **** 
  11:Src/maze_solve.c **** /* Include Files */
  12:Src/maze_solve.c **** #include "maze_init.h"
  13:Src/maze_solve.c **** #include "maze_solve.h"
  14:Src/maze_solve.c **** #include "idivide.h"
  15:Src/maze_solve.c **** #include "rem.h"
  16:Src/maze_solve.c **** #include "matlab_code_gen_data.h"
  17:Src/maze_solve.c **** 
  18:Src/maze_solve.c **** /*Include original*/
  19:Src/maze_solve.c **** #include "index.h"
  20:Src/maze_solve.c **** #include "movement.h"
  21:Src/maze_solve.c **** #include "ir_sensor.h"
  22:Src/maze_solve.c **** #include "adjust.h"
  23:Src/maze_solve.c **** #include "target.h"
  24:Src/maze_solve.c **** #include "param.h"
  25:Src/maze_solve.c **** 
  26:Src/maze_solve.c **** int wall_sensor_front = 0;
  27:Src/maze_solve.c **** int wall_sensor_front_th = front_th;
  28:Src/maze_solve.c **** int wall_sensor_right = 0;
  29:Src/maze_solve.c **** int wall_sensor_right_th = right_th;
  30:Src/maze_solve.c **** int wall_sensor_left = 0;
ARM GAS  C:\Temp\ccSQM2w2.s 			page 2


  31:Src/maze_solve.c **** int wall_sensor_left_th = left_th;
  32:Src/maze_solve.c **** 
  33:Src/maze_solve.c **** 
  34:Src/maze_solve.c **** /* Type Definitions */
  35:Src/maze_solve.c **** #ifndef typedef_coder_internal_ref
  36:Src/maze_solve.c **** #define typedef_coder_internal_ref
  37:Src/maze_solve.c **** 
  38:Src/maze_solve.c **** typedef struct {
  39:Src/maze_solve.c ****   unsigned char contents;
  40:Src/maze_solve.c **** } coder_internal_ref;
  41:Src/maze_solve.c **** 
  42:Src/maze_solve.c **** #endif                                 /*typedef_coder_internal_ref*/
  43:Src/maze_solve.c **** 
  44:Src/maze_solve.c **** #ifndef typedef_d_struct_T
  45:Src/maze_solve.c **** #define typedef_d_struct_T
  46:Src/maze_solve.c **** 
  47:Src/maze_solve.c **** typedef struct {
  48:Src/maze_solve.c ****   unsigned char unknown;
  49:Src/maze_solve.c ****   unsigned char known;
  50:Src/maze_solve.c **** } d_struct_T;
  51:Src/maze_solve.c **** 
  52:Src/maze_solve.c **** #endif                                 /*typedef_d_struct_T*/
  53:Src/maze_solve.c **** 
  54:Src/maze_solve.c **** #ifndef typedef_coder_internal_ref_1
  55:Src/maze_solve.c **** #define typedef_coder_internal_ref_1
  56:Src/maze_solve.c **** 
  57:Src/maze_solve.c **** typedef struct {
  58:Src/maze_solve.c ****   d_struct_T contents;
  59:Src/maze_solve.c **** } coder_internal_ref_1;
  60:Src/maze_solve.c **** 
  61:Src/maze_solve.c **** #endif                                 /*typedef_coder_internal_ref_1*/
  62:Src/maze_solve.c **** 
  63:Src/maze_solve.c **** #ifndef typedef_c_struct_T
  64:Src/maze_solve.c **** #define typedef_c_struct_T
  65:Src/maze_solve.c **** 
  66:Src/maze_solve.c **** typedef struct {
  67:Src/maze_solve.c ****   unsigned char nowall;
  68:Src/maze_solve.c ****   unsigned char wall;
  69:Src/maze_solve.c **** } c_struct_T;
  70:Src/maze_solve.c **** 
  71:Src/maze_solve.c **** #endif                                 /*typedef_c_struct_T*/
  72:Src/maze_solve.c **** 
  73:Src/maze_solve.c **** #ifndef typedef_coder_internal_ref_2
  74:Src/maze_solve.c **** #define typedef_coder_internal_ref_2
  75:Src/maze_solve.c **** 
  76:Src/maze_solve.c **** typedef struct {
  77:Src/maze_solve.c ****   c_struct_T contents;
  78:Src/maze_solve.c **** } coder_internal_ref_2;
  79:Src/maze_solve.c **** 
  80:Src/maze_solve.c **** #endif                                 /*typedef_coder_internal_ref_2*/
  81:Src/maze_solve.c **** 
  82:Src/maze_solve.c **** #ifndef typedef_b_struct_T
  83:Src/maze_solve.c **** #define typedef_b_struct_T
  84:Src/maze_solve.c **** 
  85:Src/maze_solve.c **** typedef struct {
  86:Src/maze_solve.c ****   unsigned char front;
  87:Src/maze_solve.c ****   unsigned char right;
ARM GAS  C:\Temp\ccSQM2w2.s 			page 3


  88:Src/maze_solve.c ****   unsigned char back;
  89:Src/maze_solve.c ****   unsigned char left;
  90:Src/maze_solve.c **** } b_struct_T;
  91:Src/maze_solve.c **** 
  92:Src/maze_solve.c **** #endif                                 /*typedef_b_struct_T*/
  93:Src/maze_solve.c **** 
  94:Src/maze_solve.c **** #ifndef typedef_coder_internal_ref_3
  95:Src/maze_solve.c **** #define typedef_coder_internal_ref_3
  96:Src/maze_solve.c **** 
  97:Src/maze_solve.c **** typedef struct {
  98:Src/maze_solve.c ****   b_struct_T contents;
  99:Src/maze_solve.c **** } coder_internal_ref_3;
 100:Src/maze_solve.c **** 
 101:Src/maze_solve.c **** #endif                                 /*typedef_coder_internal_ref_3*/
 102:Src/maze_solve.c **** 
 103:Src/maze_solve.c **** #ifndef typedef_struct_T
 104:Src/maze_solve.c **** #define typedef_struct_T
 105:Src/maze_solve.c **** 
 106:Src/maze_solve.c **** typedef struct {
 107:Src/maze_solve.c ****   unsigned char North;
 108:Src/maze_solve.c ****   unsigned char East;
 109:Src/maze_solve.c ****   unsigned char South;
 110:Src/maze_solve.c ****   unsigned char West;
 111:Src/maze_solve.c **** } struct_T;
 112:Src/maze_solve.c **** 
 113:Src/maze_solve.c **** #endif                                 /*typedef_struct_T*/
 114:Src/maze_solve.c **** 
 115:Src/maze_solve.c **** #ifndef typedef_coder_internal_ref_4
 116:Src/maze_solve.c **** #define typedef_coder_internal_ref_4
 117:Src/maze_solve.c **** 
 118:Src/maze_solve.c **** typedef struct {
 119:Src/maze_solve.c ****   struct_T contents;
 120:Src/maze_solve.c **** } coder_internal_ref_4;
 121:Src/maze_solve.c **** 
 122:Src/maze_solve.c **** #endif                                 /*typedef_coder_internal_ref_4*/
 123:Src/maze_solve.c **** 
 124:Src/maze_solve.c **** //ハンド追加部
 125:Src/maze_solve.c **** typedef enum{
 126:Src/maze_solve.c ****   other,              //ゴール直後以外か
 127:Src/maze_solve.c ****   immediately_after   //ゴール直後か
 128:Src/maze_solve.c **** }goal_after;
 129:Src/maze_solve.c **** 
 130:Src/maze_solve.c **** static goal_after goal_after_flg = other;
 131:Src/maze_solve.c **** //
 132:Src/maze_solve.c **** 
 133:Src/maze_solve.c **** /* Function Declarations */
 134:Src/maze_solve.c **** static void fust_run(const coder_internal_ref_4 *g_direction, coder_internal_ref
 135:Src/maze_solve.c ****                      *current_x, coder_internal_ref *current_y,
 136:Src/maze_solve.c ****                      coder_internal_ref *current_dir, const coder_internal_ref
 137:Src/maze_solve.c ****                      *goal_size, const coder_internal_ref_2 *wall, const
 138:Src/maze_solve.c ****                      coder_internal_ref_3 *l_direction, const unsigned char
 139:Src/maze_solve.c ****                      maze_wall[1024], const unsigned char contour_map[1024],
 140:Src/maze_solve.c ****                      const unsigned char maze_goal[18], unsigned char max_length);
 141:Src/maze_solve.c **** static void make_map_find(const coder_internal_ref_4 *g_direction, const
 142:Src/maze_solve.c ****   coder_internal_ref_2 *wall, unsigned char maze_row_size, unsigned char
 143:Src/maze_solve.c ****   maze_col_size, const unsigned char maze_goal[18], unsigned char l_goal_size,
 144:Src/maze_solve.c ****   const unsigned char maze_wall[1024], unsigned char contour_map[1024], unsigned
ARM GAS  C:\Temp\ccSQM2w2.s 			page 4


 145:Src/maze_solve.c ****   char *max_length);
 146:Src/maze_solve.c **** static void make_map_fustrun(const coder_internal_ref *goal_size, const
 147:Src/maze_solve.c ****   coder_internal_ref_4 *g_direction, const coder_internal_ref_2 *wall, const
 148:Src/maze_solve.c ****   coder_internal_ref_1 *search, unsigned char maze_row_size, unsigned char
 149:Src/maze_solve.c ****   maze_col_size, const unsigned char maze_goal[18], const unsigned char
 150:Src/maze_solve.c ****   maze_wall[1024], const unsigned char maze_wall_search[1024], unsigned char
 151:Src/maze_solve.c ****   contour_map[1024], unsigned char *max_length);
 152:Src/maze_solve.c **** static void move_step(const coder_internal_ref_4 *g_direction, unsigned char
 153:Src/maze_solve.c ****                       *current_x, unsigned char *current_y, unsigned char
 154:Src/maze_solve.c ****                       current_dir);
 155:Src/maze_solve.c **** static void search_adachi(const coder_internal_ref_2 *wall, const
 156:Src/maze_solve.c ****   coder_internal_ref_1 *search, const coder_internal_ref_4 *g_direction, const
 157:Src/maze_solve.c ****   coder_internal_ref_3 *l_direction, unsigned char *current_x, unsigned char
 158:Src/maze_solve.c ****   *current_y, unsigned char *current_dir, unsigned char maze_row_size, unsigned
 159:Src/maze_solve.c ****   char maze_col_size, unsigned char maze_wall[1024], unsigned char
 160:Src/maze_solve.c ****   maze_wall_search[1024], const unsigned char maze_goal[18], unsigned char
 161:Src/maze_solve.c ****   l_goal_size);
 162:Src/maze_solve.c **** 
 163:Src/maze_solve.c **** /* Function Definitions */
 164:Src/maze_solve.c **** 
 165:Src/maze_solve.c **** /*
 166:Src/maze_solve.c ****  * 入力　壁情報,壁探索情報,等高線MAP,ゴール座標,最大経路長
 167:Src/maze_solve.c ****  * 出力
 168:Src/maze_solve.c ****  * Arguments    : const coder_internal_ref_4 *g_direction
 169:Src/maze_solve.c ****  *                coder_internal_ref *current_x
 170:Src/maze_solve.c ****  *                coder_internal_ref *current_y
 171:Src/maze_solve.c ****  *                coder_internal_ref *current_dir
 172:Src/maze_solve.c ****  *                const coder_internal_ref *goal_size
 173:Src/maze_solve.c ****  *                const coder_internal_ref_2 *wall
 174:Src/maze_solve.c ****  *                const coder_internal_ref_3 *l_direction
 175:Src/maze_solve.c ****  *                const unsigned char maze_wall[1024]
 176:Src/maze_solve.c ****  *                const unsigned char contour_map[1024]
 177:Src/maze_solve.c ****  *                const unsigned char maze_goal[18]
 178:Src/maze_solve.c ****  *                unsigned char max_length
 179:Src/maze_solve.c ****  * Return Type  : void
 180:Src/maze_solve.c ****  */
 181:Src/maze_solve.c **** static void fust_run(const coder_internal_ref_4 *g_direction, coder_internal_ref
 182:Src/maze_solve.c ****                      *current_x, coder_internal_ref *current_y,
 183:Src/maze_solve.c ****                      coder_internal_ref *current_dir, const coder_internal_ref
 184:Src/maze_solve.c ****                      *goal_size, const coder_internal_ref_2 *wall, const
 185:Src/maze_solve.c ****                      coder_internal_ref_3 *l_direction, const unsigned char
 186:Src/maze_solve.c ****                      maze_wall[1024], const unsigned char contour_map[1024],
 187:Src/maze_solve.c ****                      const unsigned char maze_goal[18], unsigned char max_length)
 188:Src/maze_solve.c **** {
  29              		.loc 1 188 1 view -0
  30              		.cfi_startproc
  31              		@ args = 28, pretend = 0, frame = 32
  32              		@ frame_needed = 0, uses_anonymous_args = 0
  33              		.loc 1 188 1 is_stmt 0 view .LVU1
  34 0000 2DE9F04F 		push	{r4, r5, r6, r7, r8, r9, r10, fp, lr}
  35              	.LCFI0:
  36              		.cfi_def_cfa_offset 36
  37              		.cfi_offset 4, -36
  38              		.cfi_offset 5, -32
  39              		.cfi_offset 6, -28
  40              		.cfi_offset 7, -24
  41              		.cfi_offset 8, -20
ARM GAS  C:\Temp\ccSQM2w2.s 			page 5


  42              		.cfi_offset 9, -16
  43              		.cfi_offset 10, -12
  44              		.cfi_offset 11, -8
  45              		.cfi_offset 14, -4
  46 0004 89B0     		sub	sp, sp, #36
  47              	.LCFI1:
  48              		.cfi_def_cfa_offset 72
  49 0006 8246     		mov	r10, r0
  50 0008 9346     		mov	fp, r2
  51 000a 1846     		mov	r0, r3
  52              	.LVL1:
  53              		.loc 1 188 1 view .LVU2
  54 000c 0593     		str	r3, [sp, #20]
  55 000e 179B     		ldr	r3, [sp, #92]
  56              	.LVL2:
  57              		.loc 1 188 1 view .LVU3
  58 0010 9DF86020 		ldrb	r2, [sp, #96]	@ zero_extendqisi2
  59              	.LVL3:
  60              		.loc 1 188 1 view .LVU4
  61 0014 0292     		str	r2, [sp, #8]
 189:Src/maze_solve.c ****   unsigned char goal_flag;
  62              		.loc 1 189 3 is_stmt 1 view .LVU5
 190:Src/maze_solve.c ****   unsigned char little;
  63              		.loc 1 190 3 view .LVU6
 191:Src/maze_solve.c ****   unsigned char next_dir;
  64              		.loc 1 191 3 view .LVU7
 192:Src/maze_solve.c ****   int exitg1;
  65              		.loc 1 192 3 view .LVU8
 193:Src/maze_solve.c ****   unsigned char k;
  66              		.loc 1 193 3 view .LVU9
 194:Src/maze_solve.c ****   int q0;
  67              		.loc 1 194 3 view .LVU10
 195:Src/maze_solve.c ****   int tempi;
  68              		.loc 1 195 3 view .LVU11
 196:Src/maze_solve.c ****   unsigned char a;
  69              		.loc 1 196 3 view .LVU12
 197:Src/maze_solve.c ****   int b_k;
  70              		.loc 1 197 3 view .LVU13
 198:Src/maze_solve.c ****   int c_k;
  71              		.loc 1 198 3 view .LVU14
 199:Src/maze_solve.c ****   int d_k;
  72              		.loc 1 199 3 view .LVU15
 200:Src/maze_solve.c ****   unsigned int qY;
  73              		.loc 1 200 3 view .LVU16
 201:Src/maze_solve.c ****   int e_k;
  74              		.loc 1 201 3 view .LVU17
 202:Src/maze_solve.c ****   unsigned char varargin_2;
  75              		.loc 1 202 3 view .LVU18
 203:Src/maze_solve.c ****   unsigned char varargin_3;
  76              		.loc 1 203 3 view .LVU19
 204:Src/maze_solve.c ****   unsigned char varargin_4;
  77              		.loc 1 204 3 view .LVU20
 205:Src/maze_solve.c **** 
 206:Src/maze_solve.c ****   /*  fust_run 最短経路導出 */
 207:Src/maze_solve.c ****   /* local変数宣言 */
 208:Src/maze_solve.c ****   goal_flag = 0U;
  78              		.loc 1 208 3 view .LVU21
ARM GAS  C:\Temp\ccSQM2w2.s 			page 6


  79              	.LVL4:
 209:Src/maze_solve.c **** 
 210:Src/maze_solve.c ****   /* ゴール判定フラグ */
 211:Src/maze_solve.c ****   little = max_length;
  80              		.loc 1 211 3 view .LVU22
 212:Src/maze_solve.c **** 
 213:Src/maze_solve.c ****   /* 進行方向選定用閾値 */
 214:Src/maze_solve.c ****   /* マウス位置表示用オブジェクト */
 215:Src/maze_solve.c ****   /* マウスの初期位置設定 */
 216:Src/maze_solve.c ****   current_x->contents = 1U;
  81              		.loc 1 216 3 view .LVU23
  82              		.loc 1 216 23 is_stmt 0 view .LVU24
  83 0016 0122     		movs	r2, #1
  84 0018 0A70     		strb	r2, [r1]
 217:Src/maze_solve.c ****   current_y->contents = 1U;
  85              		.loc 1 217 3 is_stmt 1 view .LVU25
  86              		.loc 1 217 23 is_stmt 0 view .LVU26
  87 001a 8BF80020 		strb	r2, [fp]
 218:Src/maze_solve.c ****   current_dir->contents = g_direction->contents.North;
  88              		.loc 1 218 3 is_stmt 1 view .LVU27
  89              		.loc 1 218 48 is_stmt 0 view .LVU28
  90 001e 9AF80020 		ldrb	r2, [r10]	@ zero_extendqisi2
  91 0022 0392     		str	r2, [sp, #12]
  92              		.loc 1 218 25 view .LVU29
  93 0024 0270     		strb	r2, [r0]
 219:Src/maze_solve.c ****   next_dir = g_direction->contents.North;
  94              		.loc 1 219 3 is_stmt 1 view .LVU30
  95              	.LVL5:
 208:Src/maze_solve.c **** 
  96              		.loc 1 208 13 is_stmt 0 view .LVU31
  97 0026 0022     		movs	r2, #0
  98 0028 0192     		str	r2, [sp, #4]
  99 002a D146     		mov	r9, r10
 100 002c DDF850A0 		ldr	r10, [sp, #80]
 101              	.LVL6:
 208:Src/maze_solve.c **** 
 102              		.loc 1 208 13 view .LVU32
 103 0030 B8E1     		b	.L60
 104              	.LVL7:
 105              	.L3:
 220:Src/maze_solve.c **** 
 221:Src/maze_solve.c ****   /* 探索開始時x */
 222:Src/maze_solve.c ****   /* 探索開始時y */
 223:Src/maze_solve.c ****   /* 探索開始位置プロット */
 224:Src/maze_solve.c ****   /* 足跡プロット */
 225:Src/maze_solve.c ****   do {
 226:Src/maze_solve.c ****     exitg1 = 0;
 227:Src/maze_solve.c **** 
 228:Src/maze_solve.c ****     /* 現在位置がゴールか判定 */
 229:Src/maze_solve.c ****     k = goal_size->contents;
 230:Src/maze_solve.c ****     q0 = k;
 231:Src/maze_solve.c ****     for (tempi = 0; tempi < q0; tempi++) {
 106              		.loc 1 231 33 is_stmt 1 discriminator 2 view .LVU33
 107              		.loc 1 231 38 is_stmt 0 discriminator 2 view .LVU34
 108 0032 0132     		adds	r2, r2, #1
 109              	.LVL8:
 110              	.L2:
ARM GAS  C:\Temp\ccSQM2w2.s 			page 7


 111              		.loc 1 231 21 is_stmt 1 discriminator 1 view .LVU35
 112              		.loc 1 231 5 is_stmt 0 discriminator 1 view .LVU36
 113 0034 AA42     		cmp	r2, r5
 114 0036 0CDA     		bge	.L99
 232:Src/maze_solve.c ****       if ((current_x->contents == maze_goal[tempi]) && (current_y->contents ==
 115              		.loc 1 232 7 is_stmt 1 view .LVU37
 116              		.loc 1 232 21 is_stmt 0 view .LVU38
 117 0038 0C78     		ldrb	r4, [r1]	@ zero_extendqisi2
 118              		.loc 1 232 44 view .LVU39
 119 003a 985C     		ldrb	r0, [r3, r2]	@ zero_extendqisi2
 120              		.loc 1 232 10 view .LVU40
 121 003c 8442     		cmp	r4, r0
 122 003e F8D1     		bne	.L3
 123              		.loc 1 232 66 discriminator 1 view .LVU41
 124 0040 9BF80040 		ldrb	r4, [fp]	@ zero_extendqisi2
 233:Src/maze_solve.c ****            maze_goal[tempi + 9])) {
 125              		.loc 1 233 21 discriminator 1 view .LVU42
 126 0044 9818     		adds	r0, r3, r2
 127 0046 407A     		ldrb	r0, [r0, #9]	@ zero_extendqisi2
 232:Src/maze_solve.c ****       if ((current_x->contents == maze_goal[tempi]) && (current_y->contents ==
 128              		.loc 1 232 53 discriminator 1 view .LVU43
 129 0048 8442     		cmp	r4, r0
 130 004a F2D1     		bne	.L3
 234:Src/maze_solve.c ****         goal_flag = 1U;
 131              		.loc 1 234 19 view .LVU44
 132 004c 0120     		movs	r0, #1
 133 004e 0190     		str	r0, [sp, #4]
 134              	.LVL9:
 135              		.loc 1 234 19 view .LVU45
 136 0050 EFE7     		b	.L3
 137              	.LVL10:
 138              	.L99:
 235:Src/maze_solve.c ****       }
 236:Src/maze_solve.c ****     }
 237:Src/maze_solve.c **** 
 238:Src/maze_solve.c ****     if (goal_flag == 1) {
 139              		.loc 1 238 5 is_stmt 1 view .LVU46
 140              		.loc 1 238 8 is_stmt 0 view .LVU47
 141 0052 019A     		ldr	r2, [sp, #4]
 142              	.LVL11:
 143              		.loc 1 238 8 view .LVU48
 144 0054 002A     		cmp	r2, #0
 145 0056 40F0A381 		bne	.L62
 239:Src/maze_solve.c ****       exitg1 = 1;
 240:Src/maze_solve.c ****     } else {
 241:Src/maze_solve.c ****       /*             %%進行方向選定 */
 242:Src/maze_solve.c ****       /* 優先順位　北⇒東⇒南⇒西 */
 243:Src/maze_solve.c ****       /* 北側の壁のありなし */
 244:Src/maze_solve.c ****       k = g_direction->contents.North;
 146              		.loc 1 244 7 is_stmt 1 view .LVU49
 147              		.loc 1 244 9 is_stmt 0 view .LVU50
 148 005a 99F80080 		ldrb	r8, [r9]	@ zero_extendqisi2
 149              	.LVL12:
 245:Src/maze_solve.c ****       a = maze_wall[(current_y->contents + ((current_x->contents - 1) << 5)) - 1];
 150              		.loc 1 245 7 is_stmt 1 view .LVU51
 151              		.loc 1 245 31 is_stmt 0 view .LVU52
 152 005e 9BF80040 		ldrb	r4, [fp]	@ zero_extendqisi2
ARM GAS  C:\Temp\ccSQM2w2.s 			page 8


 153 0062 0494     		str	r4, [sp, #16]
 154              		.loc 1 245 55 view .LVU53
 155 0064 0D78     		ldrb	r5, [r1]	@ zero_extendqisi2
 156              	.LVL13:
 157              		.loc 1 245 66 view .LVU54
 158 0066 6A1E     		subs	r2, r5, #1
 159              		.loc 1 245 71 view .LVU55
 160 0068 5601     		lsls	r6, r2, #5
 161              		.loc 1 245 42 view .LVU56
 162 006a 04EB4212 		add	r2, r4, r2, lsl #5
 163              		.loc 1 245 20 view .LVU57
 164 006e 013A     		subs	r2, r2, #1
 165              		.loc 1 245 9 view .LVU58
 166 0070 1598     		ldr	r0, [sp, #84]
 167 0072 825C     		ldrb	r2, [r0, r2]	@ zero_extendqisi2
 168              	.LVL14:
 246:Src/maze_solve.c ****       if (k <= 7) {
 169              		.loc 1 246 7 is_stmt 1 view .LVU59
 170              		.loc 1 246 10 is_stmt 0 view .LVU60
 171 0074 B8F1070F 		cmp	r8, #7
 172 0078 53D8     		bhi	.L63
 247:Src/maze_solve.c ****         b_k = (unsigned char)(1 << k);
 173              		.loc 1 247 9 is_stmt 1 view .LVU61
 174              		.loc 1 247 33 is_stmt 0 view .LVU62
 175 007a 0120     		movs	r0, #1
 176 007c 00FA08F0 		lsl	r0, r0, r8
 177 0080 C0B2     		uxtb	r0, r0
 178              	.LVL15:
 179              	.L6:
 248:Src/maze_solve.c ****       } else {
 249:Src/maze_solve.c ****         b_k = 0;
 250:Src/maze_solve.c ****       }
 251:Src/maze_solve.c **** 
 252:Src/maze_solve.c ****       if ((a & b_k) == wall->contents.nowall) {
 180              		.loc 1 252 7 is_stmt 1 view .LVU63
 181              		.loc 1 252 14 is_stmt 0 view .LVU64
 182 0082 1040     		ands	r0, r0, r2
 183              	.LVL16:
 184              		.loc 1 252 38 view .LVU65
 185 0084 139F     		ldr	r7, [sp, #76]
 186 0086 97F800E0 		ldrb	lr, [r7]	@ zero_extendqisi2
 187              		.loc 1 252 10 view .LVU66
 188 008a 7045     		cmp	r0, lr
 189 008c 4BD0     		beq	.L100
 190              	.LVL17:
 191              	.L7:
 253:Src/maze_solve.c ****         /* 北側の等高線mapが閾値より低ければ、 */
 254:Src/maze_solve.c ****         q0 = (int)(current_y->contents + 1U);
 255:Src/maze_solve.c ****         if ((unsigned int)q0 > 255U) {
 256:Src/maze_solve.c ****           q0 = 255;
 257:Src/maze_solve.c ****         }
 258:Src/maze_solve.c **** 
 259:Src/maze_solve.c ****         if (contour_map[(q0 + ((current_x->contents - 1) << 5)) - 1] < little) {
 260:Src/maze_solve.c ****           /* 閾値を北側の等高map値に変更 */
 261:Src/maze_solve.c ****           q0 = (int)(current_y->contents + 1U);
 262:Src/maze_solve.c ****           if ((unsigned int)q0 > 255U) {
 263:Src/maze_solve.c ****             q0 = 255;
ARM GAS  C:\Temp\ccSQM2w2.s 			page 9


 264:Src/maze_solve.c ****           }
 265:Src/maze_solve.c **** 
 266:Src/maze_solve.c ****           little = contour_map[(q0 + ((current_x->contents - 1) << 5)) - 1];
 267:Src/maze_solve.c **** 
 268:Src/maze_solve.c ****           /* 北側を進行方向に変更y */
 269:Src/maze_solve.c ****           next_dir = g_direction->contents.North;
 270:Src/maze_solve.c ****         }
 271:Src/maze_solve.c ****       }
 272:Src/maze_solve.c **** 
 273:Src/maze_solve.c ****       /* 東側 */
 274:Src/maze_solve.c ****       k = g_direction->contents.East;
 192              		.loc 1 274 7 is_stmt 1 view .LVU67
 193              		.loc 1 274 9 is_stmt 0 view .LVU68
 194 008e 99F801C0 		ldrb	ip, [r9, #1]	@ zero_extendqisi2
 195              	.LVL18:
 275:Src/maze_solve.c ****       a = maze_wall[(current_y->contents + ((current_x->contents - 1) << 5)) - 1];
 196              		.loc 1 275 7 is_stmt 1 view .LVU69
 276:Src/maze_solve.c ****       if (k <= 7) {
 197              		.loc 1 276 7 view .LVU70
 198              		.loc 1 276 10 is_stmt 0 view .LVU71
 199 0092 BCF1070F 		cmp	ip, #7
 200 0096 56D8     		bhi	.L66
 277:Src/maze_solve.c ****         c_k = (unsigned char)(1 << k);
 201              		.loc 1 277 9 is_stmt 1 view .LVU72
 202              		.loc 1 277 33 is_stmt 0 view .LVU73
 203 0098 0120     		movs	r0, #1
 204 009a 00FA0CF0 		lsl	r0, r0, ip
 205 009e C0B2     		uxtb	r0, r0
 206              	.LVL19:
 207              	.L9:
 278:Src/maze_solve.c ****       } else {
 279:Src/maze_solve.c ****         c_k = 0;
 280:Src/maze_solve.c ****       }
 281:Src/maze_solve.c **** 
 282:Src/maze_solve.c ****       if ((a & c_k) == wall->contents.nowall) {
 208              		.loc 1 282 7 is_stmt 1 view .LVU74
 209              		.loc 1 282 14 is_stmt 0 view .LVU75
 210 00a0 1040     		ands	r0, r0, r2
 211              	.LVL20:
 212              		.loc 1 282 10 view .LVU76
 213 00a2 8645     		cmp	lr, r0
 214 00a4 51D0     		beq	.L101
 215              	.LVL21:
 216              	.L10:
 283:Src/maze_solve.c ****         q0 = (int)(current_x->contents + 1U);
 284:Src/maze_solve.c ****         if ((unsigned int)q0 > 255U) {
 285:Src/maze_solve.c ****           q0 = 255;
 286:Src/maze_solve.c ****         }
 287:Src/maze_solve.c **** 
 288:Src/maze_solve.c ****         if (contour_map[(current_y->contents + ((q0 - 1) << 5)) - 1] < little) {
 289:Src/maze_solve.c ****           q0 = (int)(current_x->contents + 1U);
 290:Src/maze_solve.c ****           if ((unsigned int)q0 > 255U) {
 291:Src/maze_solve.c ****             q0 = 255;
 292:Src/maze_solve.c ****           }
 293:Src/maze_solve.c **** 
 294:Src/maze_solve.c ****           little = contour_map[(current_y->contents + ((q0 - 1) << 5)) - 1];
 295:Src/maze_solve.c ****           next_dir = g_direction->contents.East;
ARM GAS  C:\Temp\ccSQM2w2.s 			page 10


 296:Src/maze_solve.c ****         }
 297:Src/maze_solve.c ****       }
 298:Src/maze_solve.c **** 
 299:Src/maze_solve.c ****       /* 南側 */
 300:Src/maze_solve.c ****       k = g_direction->contents.South;
 217              		.loc 1 300 7 is_stmt 1 view .LVU77
 218              		.loc 1 300 9 is_stmt 0 view .LVU78
 219 00a6 99F80270 		ldrb	r7, [r9, #2]	@ zero_extendqisi2
 220              	.LVL22:
 301:Src/maze_solve.c ****       a = maze_wall[(current_y->contents + ((current_x->contents - 1) << 5)) - 1];
 221              		.loc 1 301 7 is_stmt 1 view .LVU79
 302:Src/maze_solve.c ****       if (k <= 7) {
 222              		.loc 1 302 7 view .LVU80
 223              		.loc 1 302 10 is_stmt 0 view .LVU81
 224 00aa 072F     		cmp	r7, #7
 225 00ac 60D8     		bhi	.L69
 303:Src/maze_solve.c ****         d_k = (unsigned char)(1 << k);
 226              		.loc 1 303 9 is_stmt 1 view .LVU82
 227              		.loc 1 303 33 is_stmt 0 view .LVU83
 228 00ae 0120     		movs	r0, #1
 229 00b0 B840     		lsls	r0, r0, r7
 230 00b2 C0B2     		uxtb	r0, r0
 231              	.LVL23:
 232              	.L12:
 304:Src/maze_solve.c ****       } else {
 305:Src/maze_solve.c ****         d_k = 0;
 306:Src/maze_solve.c ****       }
 307:Src/maze_solve.c **** 
 308:Src/maze_solve.c ****       if ((a & d_k) == wall->contents.nowall) {
 233              		.loc 1 308 7 is_stmt 1 view .LVU84
 234              		.loc 1 308 14 is_stmt 0 view .LVU85
 235 00b4 1040     		ands	r0, r0, r2
 236              	.LVL24:
 237              		.loc 1 308 10 view .LVU86
 238 00b6 8645     		cmp	lr, r0
 239 00b8 5CD0     		beq	.L102
 240              	.LVL25:
 241              	.L13:
 309:Src/maze_solve.c ****         q0 = current_y->contents;
 310:Src/maze_solve.c ****         qY = q0 - 1U;
 311:Src/maze_solve.c ****         if (qY > (unsigned int)q0) {
 312:Src/maze_solve.c ****           qY = 0U;
 313:Src/maze_solve.c ****         }
 314:Src/maze_solve.c **** 
 315:Src/maze_solve.c ****         if (contour_map[((int)qY + ((current_x->contents - 1) << 5)) - 1] <
 316:Src/maze_solve.c ****             little) {
 317:Src/maze_solve.c ****           q0 = current_y->contents;
 318:Src/maze_solve.c ****           qY = q0 - 1U;
 319:Src/maze_solve.c ****           if (qY > (unsigned int)q0) {
 320:Src/maze_solve.c ****             qY = 0U;
 321:Src/maze_solve.c ****           }
 322:Src/maze_solve.c **** 
 323:Src/maze_solve.c ****           little = contour_map[((int)qY + ((current_x->contents - 1) << 5)) - 1];
 324:Src/maze_solve.c ****           next_dir = g_direction->contents.South;
 325:Src/maze_solve.c ****         }
 326:Src/maze_solve.c ****       }
 327:Src/maze_solve.c **** 
ARM GAS  C:\Temp\ccSQM2w2.s 			page 11


 328:Src/maze_solve.c ****       /* 西側 */
 329:Src/maze_solve.c ****       k = g_direction->contents.West;
 242              		.loc 1 329 7 is_stmt 1 view .LVU87
 243              		.loc 1 329 9 is_stmt 0 view .LVU88
 244 00ba 99F80360 		ldrb	r6, [r9, #3]	@ zero_extendqisi2
 245 00be 0696     		str	r6, [sp, #24]
 246              	.LVL26:
 330:Src/maze_solve.c ****       a = maze_wall[(current_y->contents + ((current_x->contents - 1) << 5)) - 1];
 247              		.loc 1 330 7 is_stmt 1 view .LVU89
 331:Src/maze_solve.c ****       if (k <= 7) {
 248              		.loc 1 331 7 view .LVU90
 249              		.loc 1 331 10 is_stmt 0 view .LVU91
 250 00c0 072E     		cmp	r6, #7
 251 00c2 66D8     		bhi	.L72
 332:Src/maze_solve.c ****         e_k = (unsigned char)(1 << k);
 252              		.loc 1 332 9 is_stmt 1 view .LVU92
 253              		.loc 1 332 33 is_stmt 0 view .LVU93
 254 00c4 0120     		movs	r0, #1
 255 00c6 B040     		lsls	r0, r0, r6
 256 00c8 C0B2     		uxtb	r0, r0
 257              	.LVL27:
 258              	.L15:
 333:Src/maze_solve.c ****       } else {
 334:Src/maze_solve.c ****         e_k = 0;
 335:Src/maze_solve.c ****       }
 336:Src/maze_solve.c **** 
 337:Src/maze_solve.c ****       if ((a & e_k) == wall->contents.nowall) {
 259              		.loc 1 337 7 is_stmt 1 view .LVU94
 260              		.loc 1 337 14 is_stmt 0 view .LVU95
 261 00ca 0240     		ands	r2, r2, r0
 262              	.LVL28:
 263              		.loc 1 337 10 view .LVU96
 264 00cc 9645     		cmp	lr, r2
 265 00ce 62D0     		beq	.L103
 266              	.LVL29:
 267              	.L16:
 338:Src/maze_solve.c ****         q0 = current_x->contents;
 339:Src/maze_solve.c ****         qY = q0 - 1U;
 340:Src/maze_solve.c ****         if (qY > (unsigned int)q0) {
 341:Src/maze_solve.c ****           qY = 0U;
 342:Src/maze_solve.c ****         }
 343:Src/maze_solve.c **** 
 344:Src/maze_solve.c ****         if (contour_map[(current_y->contents + (((int)qY - 1) << 5)) - 1] <
 345:Src/maze_solve.c ****             little) {
 346:Src/maze_solve.c ****           q0 = current_x->contents;
 347:Src/maze_solve.c ****           qY = q0 - 1U;
 348:Src/maze_solve.c ****           if (qY > (unsigned int)q0) {
 349:Src/maze_solve.c ****             qY = 0U;
 350:Src/maze_solve.c ****           }
 351:Src/maze_solve.c **** 
 352:Src/maze_solve.c ****           little = contour_map[(current_y->contents + (((int)qY - 1) << 5)) - 1];
 353:Src/maze_solve.c ****           next_dir = g_direction->contents.West;
 354:Src/maze_solve.c ****         }
 355:Src/maze_solve.c ****       }
 356:Src/maze_solve.c **** 
 357:Src/maze_solve.c ****       /*             %%現在方向と進行方向に応じた処理 */
 358:Src/maze_solve.c ****       q0 = (int)(4U + next_dir);
ARM GAS  C:\Temp\ccSQM2w2.s 			page 12


 268              		.loc 1 358 7 is_stmt 1 view .LVU97
 269              		.loc 1 358 21 is_stmt 0 view .LVU98
 270 00d0 039A     		ldr	r2, [sp, #12]
 271 00d2 02F1040E 		add	lr, r2, #4
 272              	.LVL30:
 359:Src/maze_solve.c ****       if ((unsigned int)q0 > 255U) {
 273              		.loc 1 359 7 is_stmt 1 view .LVU99
 274              		.loc 1 359 10 is_stmt 0 view .LVU100
 275 00d6 BEF1FF0F 		cmp	lr, #255
 276 00da 01D9     		bls	.L18
 360:Src/maze_solve.c ****         q0 = 255;
 277              		.loc 1 360 12 view .LVU101
 278 00dc 4FF0FF0E 		mov	lr, #255
 279              	.LVL31:
 280              	.L18:
 361:Src/maze_solve.c ****       }
 362:Src/maze_solve.c **** 
 363:Src/maze_solve.c ****       qY = (unsigned int)q0 - current_dir->contents;
 281              		.loc 1 363 7 is_stmt 1 view .LVU102
 282              		.loc 1 363 42 is_stmt 0 view .LVU103
 283 00e0 059A     		ldr	r2, [sp, #20]
 284 00e2 1278     		ldrb	r2, [r2]	@ zero_extendqisi2
 285              		.loc 1 363 10 view .LVU104
 286 00e4 AEEB0200 		sub	r0, lr, r2
 287              	.LVL32:
 364:Src/maze_solve.c ****       if (qY > (unsigned int)q0) {
 288              		.loc 1 364 7 is_stmt 1 view .LVU105
 289              		.loc 1 364 10 is_stmt 0 view .LVU106
 290 00e8 8645     		cmp	lr, r0
 291 00ea 00D2     		bcs	.L19
 365:Src/maze_solve.c ****         qY = 0U;
 292              		.loc 1 365 12 view .LVU107
 293 00ec 0020     		movs	r0, #0
 294              	.LVL33:
 295              	.L19:
 366:Src/maze_solve.c ****       }
 367:Src/maze_solve.c **** 
 368:Src/maze_solve.c ****       k = (unsigned char)((unsigned char)qY % 4);
 296              		.loc 1 368 7 is_stmt 1 view .LVU108
 297              		.loc 1 368 9 is_stmt 0 view .LVU109
 298 00ee 00F00300 		and	r0, r0, #3
 299              	.LVL34:
 369:Src/maze_solve.c ****       a = l_direction->contents.front;
 300              		.loc 1 369 7 is_stmt 1 view .LVU110
 301              		.loc 1 369 9 is_stmt 0 view .LVU111
 302 00f2 9AF800E0 		ldrb	lr, [r10]	@ zero_extendqisi2
 303              	.LVL35:
 370:Src/maze_solve.c ****       varargin_2 = l_direction->contents.right;
 304              		.loc 1 370 7 is_stmt 1 view .LVU112
 305              		.loc 1 370 18 is_stmt 0 view .LVU113
 306 00f6 9AF80160 		ldrb	r6, [r10, #1]	@ zero_extendqisi2
 307 00fa 0496     		str	r6, [sp, #16]
 308              	.LVL36:
 371:Src/maze_solve.c ****       varargin_3 = l_direction->contents.back;
 309              		.loc 1 371 7 is_stmt 1 view .LVU114
 310              		.loc 1 371 18 is_stmt 0 view .LVU115
 311 00fc 9AF80260 		ldrb	r6, [r10, #2]	@ zero_extendqisi2
ARM GAS  C:\Temp\ccSQM2w2.s 			page 13


 312 0100 0796     		str	r6, [sp, #28]
 313              	.LVL37:
 372:Src/maze_solve.c ****       varargin_4 = l_direction->contents.left;
 314              		.loc 1 372 7 is_stmt 1 view .LVU116
 315              		.loc 1 372 18 is_stmt 0 view .LVU117
 316 0102 9AF80360 		ldrb	r6, [r10, #3]	@ zero_extendqisi2
 317              	.LVL38:
 373:Src/maze_solve.c ****       if (a == k) {
 318              		.loc 1 373 7 is_stmt 1 view .LVU118
 319              		.loc 1 373 10 is_stmt 0 view .LVU119
 320 0106 7045     		cmp	r0, lr
 321 0108 58D0     		beq	.L104
 374:Src/maze_solve.c ****         q0 = 0;
 375:Src/maze_solve.c ****       } else if (varargin_2 == k) {
 322              		.loc 1 375 14 is_stmt 1 view .LVU120
 323              		.loc 1 375 17 is_stmt 0 view .LVU121
 324 010a 049C     		ldr	r4, [sp, #16]
 325 010c A042     		cmp	r0, r4
 326 010e 00F0B880 		beq	.L23
 376:Src/maze_solve.c ****         q0 = 1;
 377:Src/maze_solve.c ****       } else if (varargin_3 == k) {
 327              		.loc 1 377 14 is_stmt 1 view .LVU122
 328              		.loc 1 377 17 is_stmt 0 view .LVU123
 329 0112 079C     		ldr	r4, [sp, #28]
 330 0114 A042     		cmp	r0, r4
 331 0116 00F08E80 		beq	.L24
 378:Src/maze_solve.c ****         q0 = 2;
 379:Src/maze_solve.c ****       } else if (varargin_4 == k) {
 332              		.loc 1 379 14 is_stmt 1 view .LVU124
 333              		.loc 1 379 17 is_stmt 0 view .LVU125
 334 011a B042     		cmp	r0, r6
 335 011c 60D0     		beq	.L105
 226:Src/maze_solve.c **** 
 336              		.loc 1 226 12 view .LVU126
 337 011e 0022     		movs	r2, #0
 338 0120 3FE1     		b	.L5
 339              	.LVL39:
 340              	.L63:
 249:Src/maze_solve.c ****       }
 341              		.loc 1 249 13 view .LVU127
 342 0122 0020     		movs	r0, #0
 343 0124 ADE7     		b	.L6
 344              	.L100:
 254:Src/maze_solve.c ****         if ((unsigned int)q0 > 255U) {
 345              		.loc 1 254 9 is_stmt 1 view .LVU128
 254:Src/maze_solve.c ****         if ((unsigned int)q0 > 255U) {
 346              		.loc 1 254 40 is_stmt 0 view .LVU129
 347 0126 601C     		adds	r0, r4, #1
 348              	.LVL40:
 255:Src/maze_solve.c ****           q0 = 255;
 349              		.loc 1 255 9 is_stmt 1 view .LVU130
 255:Src/maze_solve.c ****           q0 = 255;
 350              		.loc 1 255 12 is_stmt 0 view .LVU131
 351 0128 FF28     		cmp	r0, #255
 352 012a 00D9     		bls	.L8
 256:Src/maze_solve.c ****         }
 353              		.loc 1 256 14 view .LVU132
ARM GAS  C:\Temp\ccSQM2w2.s 			page 14


 354 012c FF20     		movs	r0, #255
 355              	.LVL41:
 356              	.L8:
 259:Src/maze_solve.c ****           /* 閾値を北側の等高map値に変更 */
 357              		.loc 1 259 9 is_stmt 1 view .LVU133
 259:Src/maze_solve.c ****           /* 閾値を北側の等高map値に変更 */
 358              		.loc 1 259 29 is_stmt 0 view .LVU134
 359 012e 3044     		add	r0, r0, r6
 360              	.LVL42:
 259:Src/maze_solve.c ****           /* 閾値を北側の等高map値に変更 */
 361              		.loc 1 259 24 view .LVU135
 362 0130 169F     		ldr	r7, [sp, #88]
 363 0132 3844     		add	r0, r0, r7
 364 0134 10F8010C 		ldrb	r0, [r0, #-1]	@ zero_extendqisi2
 259:Src/maze_solve.c ****           /* 閾値を北側の等高map値に変更 */
 365              		.loc 1 259 12 view .LVU136
 366 0138 029F     		ldr	r7, [sp, #8]
 367 013a B842     		cmp	r0, r7
 368 013c A7D2     		bcs	.L7
 269:Src/maze_solve.c ****         }
 369              		.loc 1 269 20 view .LVU137
 370 013e CDF80C80 		str	r8, [sp, #12]
 371              	.LVL43:
 266:Src/maze_solve.c **** 
 372              		.loc 1 266 18 view .LVU138
 373 0142 0290     		str	r0, [sp, #8]
 374              	.LVL44:
 266:Src/maze_solve.c **** 
 375              		.loc 1 266 18 view .LVU139
 376 0144 A3E7     		b	.L7
 377              	.LVL45:
 378              	.L66:
 279:Src/maze_solve.c ****       }
 379              		.loc 1 279 13 view .LVU140
 380 0146 0020     		movs	r0, #0
 381 0148 AAE7     		b	.L9
 382              	.L101:
 283:Src/maze_solve.c ****         if ((unsigned int)q0 > 255U) {
 383              		.loc 1 283 9 is_stmt 1 view .LVU141
 283:Src/maze_solve.c ****         if ((unsigned int)q0 > 255U) {
 384              		.loc 1 283 40 is_stmt 0 view .LVU142
 385 014a 681C     		adds	r0, r5, #1
 386              	.LVL46:
 284:Src/maze_solve.c ****           q0 = 255;
 387              		.loc 1 284 9 is_stmt 1 view .LVU143
 284:Src/maze_solve.c ****           q0 = 255;
 388              		.loc 1 284 12 is_stmt 0 view .LVU144
 389 014c FF28     		cmp	r0, #255
 390 014e 00D9     		bls	.L11
 285:Src/maze_solve.c ****         }
 391              		.loc 1 285 14 view .LVU145
 392 0150 FF20     		movs	r0, #255
 393              	.LVL47:
 394              	.L11:
 288:Src/maze_solve.c ****           q0 = (int)(current_x->contents + 1U);
 395              		.loc 1 288 9 is_stmt 1 view .LVU146
 288:Src/maze_solve.c ****           q0 = (int)(current_x->contents + 1U);
ARM GAS  C:\Temp\ccSQM2w2.s 			page 15


 396              		.loc 1 288 53 is_stmt 0 view .LVU147
 397 0152 0138     		subs	r0, r0, #1
 398              	.LVL48:
 288:Src/maze_solve.c ****           q0 = (int)(current_x->contents + 1U);
 399              		.loc 1 288 46 view .LVU148
 400 0154 049F     		ldr	r7, [sp, #16]
 401 0156 07EB4010 		add	r0, r7, r0, lsl #5
 402              	.LVL49:
 288:Src/maze_solve.c ****           q0 = (int)(current_x->contents + 1U);
 403              		.loc 1 288 24 view .LVU149
 404 015a 169F     		ldr	r7, [sp, #88]
 405 015c 3844     		add	r0, r0, r7
 406 015e 10F8010C 		ldrb	r0, [r0, #-1]	@ zero_extendqisi2
 288:Src/maze_solve.c ****           q0 = (int)(current_x->contents + 1U);
 407              		.loc 1 288 12 view .LVU150
 408 0162 029F     		ldr	r7, [sp, #8]
 409 0164 B842     		cmp	r0, r7
 410 0166 9ED2     		bcs	.L10
 295:Src/maze_solve.c ****         }
 411              		.loc 1 295 20 view .LVU151
 412 0168 CDF80CC0 		str	ip, [sp, #12]
 413              	.LVL50:
 294:Src/maze_solve.c ****           next_dir = g_direction->contents.East;
 414              		.loc 1 294 18 view .LVU152
 415 016c 0290     		str	r0, [sp, #8]
 416              	.LVL51:
 294:Src/maze_solve.c ****           next_dir = g_direction->contents.East;
 417              		.loc 1 294 18 view .LVU153
 418 016e 9AE7     		b	.L10
 419              	.LVL52:
 420              	.L69:
 305:Src/maze_solve.c ****       }
 421              		.loc 1 305 13 view .LVU154
 422 0170 0020     		movs	r0, #0
 423 0172 9FE7     		b	.L12
 424              	.L102:
 309:Src/maze_solve.c ****         qY = q0 - 1U;
 425              		.loc 1 309 9 is_stmt 1 view .LVU155
 426              	.LVL53:
 310:Src/maze_solve.c ****         if (qY > (unsigned int)q0) {
 427              		.loc 1 310 9 view .LVU156
 310:Src/maze_solve.c ****         if (qY > (unsigned int)q0) {
 428              		.loc 1 310 12 is_stmt 0 view .LVU157
 429 0174 601E     		subs	r0, r4, #1
 430              	.LVL54:
 311:Src/maze_solve.c ****           qY = 0U;
 431              		.loc 1 311 9 is_stmt 1 view .LVU158
 311:Src/maze_solve.c ****           qY = 0U;
 432              		.loc 1 311 12 is_stmt 0 view .LVU159
 433 0176 8442     		cmp	r4, r0
 434 0178 00D2     		bcs	.L14
 312:Src/maze_solve.c ****         }
 435              		.loc 1 312 14 view .LVU160
 436 017a 0020     		movs	r0, #0
 437              	.LVL55:
 438              	.L14:
 315:Src/maze_solve.c ****             little) {
ARM GAS  C:\Temp\ccSQM2w2.s 			page 16


 439              		.loc 1 315 9 is_stmt 1 view .LVU161
 315:Src/maze_solve.c ****             little) {
 440              		.loc 1 315 34 is_stmt 0 view .LVU162
 441 017c 3044     		add	r0, r0, r6
 442              	.LVL56:
 315:Src/maze_solve.c ****             little) {
 443              		.loc 1 315 24 view .LVU163
 444 017e 169E     		ldr	r6, [sp, #88]
 445 0180 3044     		add	r0, r0, r6
 446 0182 10F8010C 		ldrb	r0, [r0, #-1]	@ zero_extendqisi2
 315:Src/maze_solve.c ****             little) {
 447              		.loc 1 315 12 view .LVU164
 448 0186 029E     		ldr	r6, [sp, #8]
 449 0188 B042     		cmp	r0, r6
 450 018a 96D2     		bcs	.L13
 324:Src/maze_solve.c ****         }
 451              		.loc 1 324 20 view .LVU165
 452 018c 0397     		str	r7, [sp, #12]
 453              	.LVL57:
 323:Src/maze_solve.c ****           next_dir = g_direction->contents.South;
 454              		.loc 1 323 18 view .LVU166
 455 018e 0290     		str	r0, [sp, #8]
 456              	.LVL58:
 323:Src/maze_solve.c ****           next_dir = g_direction->contents.South;
 457              		.loc 1 323 18 view .LVU167
 458 0190 93E7     		b	.L13
 459              	.LVL59:
 460              	.L72:
 334:Src/maze_solve.c ****       }
 461              		.loc 1 334 13 view .LVU168
 462 0192 0020     		movs	r0, #0
 463 0194 99E7     		b	.L15
 464              	.LVL60:
 465              	.L103:
 338:Src/maze_solve.c ****         qY = q0 - 1U;
 466              		.loc 1 338 9 is_stmt 1 view .LVU169
 339:Src/maze_solve.c ****         if (qY > (unsigned int)q0) {
 467              		.loc 1 339 9 view .LVU170
 339:Src/maze_solve.c ****         if (qY > (unsigned int)q0) {
 468              		.loc 1 339 12 is_stmt 0 view .LVU171
 469 0196 6A1E     		subs	r2, r5, #1
 470              	.LVL61:
 340:Src/maze_solve.c ****           qY = 0U;
 471              		.loc 1 340 9 is_stmt 1 view .LVU172
 340:Src/maze_solve.c ****           qY = 0U;
 472              		.loc 1 340 12 is_stmt 0 view .LVU173
 473 0198 9542     		cmp	r5, r2
 474 019a 00D2     		bcs	.L17
 341:Src/maze_solve.c ****         }
 475              		.loc 1 341 14 view .LVU174
 476 019c 0022     		movs	r2, #0
 477              	.LVL62:
 478              	.L17:
 344:Src/maze_solve.c ****             little) {
 479              		.loc 1 344 9 is_stmt 1 view .LVU175
 344:Src/maze_solve.c ****             little) {
 480              		.loc 1 344 58 is_stmt 0 view .LVU176
ARM GAS  C:\Temp\ccSQM2w2.s 			page 17


 481 019e 013A     		subs	r2, r2, #1
 482              	.LVL63:
 344:Src/maze_solve.c ****             little) {
 483              		.loc 1 344 46 view .LVU177
 484 01a0 0498     		ldr	r0, [sp, #16]
 485              	.LVL64:
 344:Src/maze_solve.c ****             little) {
 486              		.loc 1 344 46 view .LVU178
 487 01a2 00EB4212 		add	r2, r0, r2, lsl #5
 488              	.LVL65:
 344:Src/maze_solve.c ****             little) {
 489              		.loc 1 344 24 view .LVU179
 490 01a6 1698     		ldr	r0, [sp, #88]
 491 01a8 0244     		add	r2, r2, r0
 492 01aa 12F8012C 		ldrb	r2, [r2, #-1]	@ zero_extendqisi2
 344:Src/maze_solve.c ****             little) {
 493              		.loc 1 344 12 view .LVU180
 494 01ae 0298     		ldr	r0, [sp, #8]
 495 01b0 8242     		cmp	r2, r0
 496 01b2 8DD2     		bcs	.L16
 353:Src/maze_solve.c ****         }
 497              		.loc 1 353 20 view .LVU181
 498 01b4 0698     		ldr	r0, [sp, #24]
 499 01b6 0390     		str	r0, [sp, #12]
 500              	.LVL66:
 352:Src/maze_solve.c ****           next_dir = g_direction->contents.West;
 501              		.loc 1 352 18 view .LVU182
 502 01b8 0292     		str	r2, [sp, #8]
 503              	.LVL67:
 352:Src/maze_solve.c ****           next_dir = g_direction->contents.West;
 504              		.loc 1 352 18 view .LVU183
 505 01ba 89E7     		b	.L16
 506              	.LVL68:
 507              	.L104:
 380:Src/maze_solve.c ****         q0 = 3;
 381:Src/maze_solve.c ****       } else {
 382:Src/maze_solve.c ****         q0 = -1;
 383:Src/maze_solve.c ****       }
 384:Src/maze_solve.c **** 
 385:Src/maze_solve.c ****       switch (q0) {
 508              		.loc 1 385 7 is_stmt 1 view .LVU184
 386:Src/maze_solve.c ****        case 0:
 387:Src/maze_solve.c ****         k = current_x->contents;
 509              		.loc 1 387 9 view .LVU185
 388:Src/maze_solve.c ****         a = current_y->contents;
 510              		.loc 1 388 9 view .LVU186
 389:Src/maze_solve.c ****         varargin_2 = current_dir->contents;
 511              		.loc 1 389 9 view .LVU187
 390:Src/maze_solve.c **** 
 391:Src/maze_solve.c ****         /* 入力 現在位置x,y,現在方向 */
 392:Src/maze_solve.c ****         /* 出力 現在位置x,y */
 393:Src/maze_solve.c ****         /*  move_step 一マス前進する関数 */
 394:Src/maze_solve.c ****         /* 北に一マス */
 395:Src/maze_solve.c ****         if (varargin_2 == g_direction->contents.North) {
 512              		.loc 1 395 9 view .LVU188
 513              		.loc 1 395 12 is_stmt 0 view .LVU189
 514 01bc 4245     		cmp	r2, r8
ARM GAS  C:\Temp\ccSQM2w2.s 			page 18


 515 01be 00F08980 		beq	.L106
 516              	.LVL69:
 517              	.L22:
 396:Src/maze_solve.c ****           q0 = (int)(a + 1U);
 397:Src/maze_solve.c ****           if ((unsigned int)q0 > 255U) {
 398:Src/maze_solve.c ****             q0 = 255;
 399:Src/maze_solve.c ****           }
 400:Src/maze_solve.c **** 
 401:Src/maze_solve.c ****           a = (unsigned char)q0;
 402:Src/maze_solve.c **** 
 403:Src/maze_solve.c ****           /* disp("north_step") */
 404:Src/maze_solve.c ****         }
 405:Src/maze_solve.c **** 
 406:Src/maze_solve.c ****         /* 東に一マス */
 407:Src/maze_solve.c ****         if (varargin_2 == g_direction->contents.East) {
 518              		.loc 1 407 9 is_stmt 1 view .LVU190
 519              		.loc 1 407 12 is_stmt 0 view .LVU191
 520 01c2 6245     		cmp	r2, ip
 521 01c4 00F08C80 		beq	.L107
 522              	.L29:
 408:Src/maze_solve.c ****           q0 = (int)(k + 1U);
 409:Src/maze_solve.c ****           if ((unsigned int)q0 > 255U) {
 410:Src/maze_solve.c ****             q0 = 255;
 411:Src/maze_solve.c ****           }
 412:Src/maze_solve.c **** 
 413:Src/maze_solve.c ****           k = (unsigned char)q0;
 414:Src/maze_solve.c **** 
 415:Src/maze_solve.c ****           /* disp("east_step") */
 416:Src/maze_solve.c ****         }
 417:Src/maze_solve.c **** 
 418:Src/maze_solve.c ****         /* 南に一マス */
 419:Src/maze_solve.c ****         if (varargin_2 == g_direction->contents.South) {
 523              		.loc 1 419 9 is_stmt 1 view .LVU192
 524              		.loc 1 419 12 is_stmt 0 view .LVU193
 525 01c8 BA42     		cmp	r2, r7
 526 01ca 00F08F80 		beq	.L108
 527              	.L31:
 420:Src/maze_solve.c ****           qY = a - 1U;
 421:Src/maze_solve.c ****           if (qY > a) {
 422:Src/maze_solve.c ****             qY = 0U;
 423:Src/maze_solve.c ****           }
 424:Src/maze_solve.c **** 
 425:Src/maze_solve.c ****           a = (unsigned char)qY;
 426:Src/maze_solve.c **** 
 427:Src/maze_solve.c ****           /* disp("south_step") */
 428:Src/maze_solve.c ****         }
 429:Src/maze_solve.c **** 
 430:Src/maze_solve.c ****         /* 西に一マス */
 431:Src/maze_solve.c ****         if (varargin_2 == g_direction->contents.West) {
 528              		.loc 1 431 9 is_stmt 1 view .LVU194
 529              		.loc 1 431 12 is_stmt 0 view .LVU195
 530 01ce 0698     		ldr	r0, [sp, #24]
 531 01d0 8242     		cmp	r2, r0
 532 01d2 00F09180 		beq	.L109
 533              	.LVL70:
 534              	.L33:
 432:Src/maze_solve.c ****           qY = k - 1U;
ARM GAS  C:\Temp\ccSQM2w2.s 			page 19


 433:Src/maze_solve.c ****           if (qY > k) {
 434:Src/maze_solve.c ****             qY = 0U;
 435:Src/maze_solve.c ****           }
 436:Src/maze_solve.c **** 
 437:Src/maze_solve.c ****           k = (unsigned char)qY;
 438:Src/maze_solve.c **** 
 439:Src/maze_solve.c ****           /* disp("west_step") */
 440:Src/maze_solve.c ****         }
 441:Src/maze_solve.c **** 
 442:Src/maze_solve.c ****         current_x->contents = k;
 535              		.loc 1 442 9 is_stmt 1 view .LVU196
 536              		.loc 1 442 29 is_stmt 0 view .LVU197
 537 01d6 0D70     		strb	r5, [r1]
 538              	.LVL71:
 443:Src/maze_solve.c ****         current_y->contents = a;
 539              		.loc 1 443 9 is_stmt 1 view .LVU198
 540              		.loc 1 443 29 is_stmt 0 view .LVU199
 541 01d8 8BF80040 		strb	r4, [fp]
 444:Src/maze_solve.c **** 
 445:Src/maze_solve.c ****         /* disp("front") */
 446:Src/maze_solve.c ****         break;
 542              		.loc 1 446 9 is_stmt 1 view .LVU200
 226:Src/maze_solve.c **** 
 543              		.loc 1 226 12 is_stmt 0 view .LVU201
 544 01dc 0022     		movs	r2, #0
 545              		.loc 1 446 9 view .LVU202
 546 01de E0E0     		b	.L5
 547              	.LVL72:
 548              	.L105:
 385:Src/maze_solve.c ****        case 0:
 549              		.loc 1 385 7 is_stmt 1 view .LVU203
 447:Src/maze_solve.c **** 
 448:Src/maze_solve.c ****        case 1:
 449:Src/maze_solve.c ****         k = current_dir->contents;
 450:Src/maze_solve.c **** 
 451:Src/maze_solve.c ****         /* 入力 現在方向 */
 452:Src/maze_solve.c ****         /* 出力 現在方向 */
 453:Src/maze_solve.c ****         /*  turn_clk_90deg 時計周りに90度ターンする関数  */
 454:Src/maze_solve.c ****         q0 = (int)(4U + k);
 455:Src/maze_solve.c ****         if ((unsigned int)q0 > 255U) {
 456:Src/maze_solve.c ****           q0 = 255;
 457:Src/maze_solve.c ****         }
 458:Src/maze_solve.c **** 
 459:Src/maze_solve.c ****         q0++;
 460:Src/maze_solve.c ****         if ((unsigned int)q0 > 255U) {
 461:Src/maze_solve.c ****           q0 = 255;
 462:Src/maze_solve.c ****         }
 463:Src/maze_solve.c **** 
 464:Src/maze_solve.c ****         current_dir->contents = (unsigned char)(q0 % 4);
 465:Src/maze_solve.c ****         k = current_x->contents;
 466:Src/maze_solve.c ****         a = current_y->contents;
 467:Src/maze_solve.c ****         varargin_2 = current_dir->contents;
 468:Src/maze_solve.c **** 
 469:Src/maze_solve.c ****         /* 入力 現在位置x,y,現在方向 */
 470:Src/maze_solve.c ****         /* 出力 現在位置x,y */
 471:Src/maze_solve.c ****         /*  move_step 一マス前進する関数 */
 472:Src/maze_solve.c ****         /* 北に一マス */
ARM GAS  C:\Temp\ccSQM2w2.s 			page 20


 473:Src/maze_solve.c ****         if (varargin_2 == g_direction->contents.North) {
 474:Src/maze_solve.c ****           q0 = (int)(a + 1U);
 475:Src/maze_solve.c ****           if ((unsigned int)q0 > 255U) {
 476:Src/maze_solve.c ****             q0 = 255;
 477:Src/maze_solve.c ****           }
 478:Src/maze_solve.c **** 
 479:Src/maze_solve.c ****           a = (unsigned char)q0;
 480:Src/maze_solve.c **** 
 481:Src/maze_solve.c ****           /* disp("north_step") */
 482:Src/maze_solve.c ****         }
 483:Src/maze_solve.c **** 
 484:Src/maze_solve.c ****         /* 東に一マス */
 485:Src/maze_solve.c ****         if (varargin_2 == g_direction->contents.East) {
 486:Src/maze_solve.c ****           q0 = (int)(k + 1U);
 487:Src/maze_solve.c ****           if ((unsigned int)q0 > 255U) {
 488:Src/maze_solve.c ****             q0 = 255;
 489:Src/maze_solve.c ****           }
 490:Src/maze_solve.c **** 
 491:Src/maze_solve.c ****           k = (unsigned char)q0;
 492:Src/maze_solve.c **** 
 493:Src/maze_solve.c ****           /* disp("east_step") */
 494:Src/maze_solve.c ****         }
 495:Src/maze_solve.c **** 
 496:Src/maze_solve.c ****         /* 南に一マス */
 497:Src/maze_solve.c ****         if (varargin_2 == g_direction->contents.South) {
 498:Src/maze_solve.c ****           qY = a - 1U;
 499:Src/maze_solve.c ****           if (qY > a) {
 500:Src/maze_solve.c ****             qY = 0U;
 501:Src/maze_solve.c ****           }
 502:Src/maze_solve.c **** 
 503:Src/maze_solve.c ****           a = (unsigned char)qY;
 504:Src/maze_solve.c **** 
 505:Src/maze_solve.c ****           /* disp("south_step") */
 506:Src/maze_solve.c ****         }
 507:Src/maze_solve.c **** 
 508:Src/maze_solve.c ****         /* 西に一マス */
 509:Src/maze_solve.c ****         if (varargin_2 == g_direction->contents.West) {
 510:Src/maze_solve.c ****           qY = k - 1U;
 511:Src/maze_solve.c ****           if (qY > k) {
 512:Src/maze_solve.c ****             qY = 0U;
 513:Src/maze_solve.c ****           }
 514:Src/maze_solve.c **** 
 515:Src/maze_solve.c ****           k = (unsigned char)qY;
 516:Src/maze_solve.c **** 
 517:Src/maze_solve.c ****           /* disp("west_step") */
 518:Src/maze_solve.c ****         }
 519:Src/maze_solve.c **** 
 520:Src/maze_solve.c ****         current_x->contents = k;
 521:Src/maze_solve.c ****         current_y->contents = a;
 522:Src/maze_solve.c **** 
 523:Src/maze_solve.c ****         /* disp("right") */
 524:Src/maze_solve.c ****         break;
 525:Src/maze_solve.c **** 
 526:Src/maze_solve.c ****        case 2:
 527:Src/maze_solve.c ****         k = current_dir->contents;
 528:Src/maze_solve.c **** 
 529:Src/maze_solve.c ****         /* 入力 現在方向 */
ARM GAS  C:\Temp\ccSQM2w2.s 			page 21


 530:Src/maze_solve.c ****         /* 出力 現在方向 */
 531:Src/maze_solve.c ****         /*  turn_180deg 180度ターンする関数 */
 532:Src/maze_solve.c ****         q0 = (int)(4U + k);
 533:Src/maze_solve.c ****         if ((unsigned int)q0 > 255U) {
 534:Src/maze_solve.c ****           q0 = 255;
 535:Src/maze_solve.c ****         }
 536:Src/maze_solve.c **** 
 537:Src/maze_solve.c ****         current_dir->contents = (unsigned char)((q0 - 2) % 4);
 538:Src/maze_solve.c ****         k = current_x->contents;
 539:Src/maze_solve.c ****         a = current_y->contents;
 540:Src/maze_solve.c ****         varargin_2 = current_dir->contents;
 541:Src/maze_solve.c **** 
 542:Src/maze_solve.c ****         /* 入力 現在位置x,y,現在方向 */
 543:Src/maze_solve.c ****         /* 出力 現在位置x,y */
 544:Src/maze_solve.c ****         /*  move_step 一マス前進する関数 */
 545:Src/maze_solve.c ****         /* 北に一マス */
 546:Src/maze_solve.c ****         if (varargin_2 == g_direction->contents.North) {
 547:Src/maze_solve.c ****           q0 = (int)(a + 1U);
 548:Src/maze_solve.c ****           if ((unsigned int)q0 > 255U) {
 549:Src/maze_solve.c ****             q0 = 255;
 550:Src/maze_solve.c ****           }
 551:Src/maze_solve.c **** 
 552:Src/maze_solve.c ****           a = (unsigned char)q0;
 553:Src/maze_solve.c **** 
 554:Src/maze_solve.c ****           /* disp("north_step") */
 555:Src/maze_solve.c ****         }
 556:Src/maze_solve.c **** 
 557:Src/maze_solve.c ****         /* 東に一マス */
 558:Src/maze_solve.c ****         if (varargin_2 == g_direction->contents.East) {
 559:Src/maze_solve.c ****           q0 = (int)(k + 1U);
 560:Src/maze_solve.c ****           if ((unsigned int)q0 > 255U) {
 561:Src/maze_solve.c ****             q0 = 255;
 562:Src/maze_solve.c ****           }
 563:Src/maze_solve.c **** 
 564:Src/maze_solve.c ****           k = (unsigned char)q0;
 565:Src/maze_solve.c **** 
 566:Src/maze_solve.c ****           /* disp("east_step") */
 567:Src/maze_solve.c ****         }
 568:Src/maze_solve.c **** 
 569:Src/maze_solve.c ****         /* 南に一マス */
 570:Src/maze_solve.c ****         if (varargin_2 == g_direction->contents.South) {
 571:Src/maze_solve.c ****           qY = a - 1U;
 572:Src/maze_solve.c ****           if (qY > a) {
 573:Src/maze_solve.c ****             qY = 0U;
 574:Src/maze_solve.c ****           }
 575:Src/maze_solve.c **** 
 576:Src/maze_solve.c ****           a = (unsigned char)qY;
 577:Src/maze_solve.c **** 
 578:Src/maze_solve.c ****           /* disp("south_step") */
 579:Src/maze_solve.c ****         }
 580:Src/maze_solve.c **** 
 581:Src/maze_solve.c ****         /* 西に一マス */
 582:Src/maze_solve.c ****         if (varargin_2 == g_direction->contents.West) {
 583:Src/maze_solve.c ****           qY = k - 1U;
 584:Src/maze_solve.c ****           if (qY > k) {
 585:Src/maze_solve.c ****             qY = 0U;
 586:Src/maze_solve.c ****           }
ARM GAS  C:\Temp\ccSQM2w2.s 			page 22


 587:Src/maze_solve.c **** 
 588:Src/maze_solve.c ****           k = (unsigned char)qY;
 589:Src/maze_solve.c **** 
 590:Src/maze_solve.c ****           /* disp("west_step") */
 591:Src/maze_solve.c ****         }
 592:Src/maze_solve.c **** 
 593:Src/maze_solve.c ****         current_x->contents = k;
 594:Src/maze_solve.c ****         current_y->contents = a;
 595:Src/maze_solve.c **** 
 596:Src/maze_solve.c ****         /* disp("back") */
 597:Src/maze_solve.c ****         break;
 598:Src/maze_solve.c **** 
 599:Src/maze_solve.c ****        case 3:
 600:Src/maze_solve.c ****         k = current_dir->contents;
 550              		.loc 1 600 9 view .LVU204
 601:Src/maze_solve.c **** 
 602:Src/maze_solve.c ****         /* 入力　現在方向 */
 603:Src/maze_solve.c ****         /* 出力　現在方向 */
 604:Src/maze_solve.c ****         /*  turn_conclk_90deg 反時計周りに90度回る関数  */
 605:Src/maze_solve.c ****         q0 = (int)(4U + k);
 551              		.loc 1 605 9 view .LVU205
 552              		.loc 1 605 23 is_stmt 0 view .LVU206
 553 01e0 0432     		adds	r2, r2, #4
 554              	.LVL73:
 606:Src/maze_solve.c ****         if ((unsigned int)q0 > 255U) {
 555              		.loc 1 606 9 is_stmt 1 view .LVU207
 556              		.loc 1 606 12 is_stmt 0 view .LVU208
 557 01e2 FF2A     		cmp	r2, #255
 558 01e4 00F2C280 		bhi	.L78
 559              	.LVL74:
 560              	.L25:
 607:Src/maze_solve.c ****           q0 = 255;
 608:Src/maze_solve.c ****         }
 609:Src/maze_solve.c **** 
 610:Src/maze_solve.c ****         current_dir->contents = (unsigned char)((q0 - 1) % 4);
 561              		.loc 1 610 9 is_stmt 1 view .LVU209
 562              		.loc 1 610 53 is_stmt 0 view .LVU210
 563 01e8 013A     		subs	r2, r2, #1
 564              	.LVL75:
 565              		.loc 1 610 58 view .LVU211
 566 01ea 5042     		rsbs	r0, r2, #0
 567 01ec 02F00302 		and	r2, r2, #3
 568              	.LVL76:
 569              		.loc 1 610 58 view .LVU212
 570 01f0 00F00300 		and	r0, r0, #3
 571 01f4 58BF     		it	pl
 572 01f6 4242     		rsbpl	r2, r0, #0
 573              		.loc 1 610 33 view .LVU213
 574 01f8 D2B2     		uxtb	r2, r2
 575              		.loc 1 610 31 view .LVU214
 576 01fa 0598     		ldr	r0, [sp, #20]
 577 01fc 0270     		strb	r2, [r0]
 578              	.LVL77:
 611:Src/maze_solve.c ****         k = current_x->contents;
 579              		.loc 1 611 9 is_stmt 1 view .LVU215
 580              		.loc 1 611 11 is_stmt 0 view .LVU216
 581 01fe 0C78     		ldrb	r4, [r1]	@ zero_extendqisi2
ARM GAS  C:\Temp\ccSQM2w2.s 			page 23


 582              	.LVL78:
 612:Src/maze_solve.c ****         a = current_y->contents;
 583              		.loc 1 612 9 is_stmt 1 view .LVU217
 584              		.loc 1 612 11 is_stmt 0 view .LVU218
 585 0200 9BF80000 		ldrb	r0, [fp]	@ zero_extendqisi2
 586              	.LVL79:
 613:Src/maze_solve.c ****         varargin_2 = current_dir->contents;
 587              		.loc 1 613 9 is_stmt 1 view .LVU219
 614:Src/maze_solve.c **** 
 615:Src/maze_solve.c ****         /* 入力 現在位置x,y,現在方向 */
 616:Src/maze_solve.c ****         /* 出力 現在位置x,y */
 617:Src/maze_solve.c ****         /*  move_step 一マス前進する関数 */
 618:Src/maze_solve.c ****         /* 北に一マス */
 619:Src/maze_solve.c ****         if (varargin_2 == g_direction->contents.North) {
 588              		.loc 1 619 9 view .LVU220
 589              		.loc 1 619 48 is_stmt 0 view .LVU221
 590 0204 99F80050 		ldrb	r5, [r9]	@ zero_extendqisi2
 591              		.loc 1 619 12 view .LVU222
 592 0208 AA42     		cmp	r2, r5
 593 020a 00F0B180 		beq	.L110
 594              	.L52:
 620:Src/maze_solve.c ****           q0 = (int)(a + 1U);
 621:Src/maze_solve.c ****           if ((unsigned int)q0 > 255U) {
 622:Src/maze_solve.c ****             q0 = 255;
 623:Src/maze_solve.c ****           }
 624:Src/maze_solve.c **** 
 625:Src/maze_solve.c ****           a = (unsigned char)q0;
 626:Src/maze_solve.c **** 
 627:Src/maze_solve.c ****           /* disp("north_step") */
 628:Src/maze_solve.c ****         }
 629:Src/maze_solve.c **** 
 630:Src/maze_solve.c ****         /* 東に一マス */
 631:Src/maze_solve.c ****         if (varargin_2 == g_direction->contents.East) {
 595              		.loc 1 631 9 is_stmt 1 view .LVU223
 596              		.loc 1 631 48 is_stmt 0 view .LVU224
 597 020e 99F80150 		ldrb	r5, [r9, #1]	@ zero_extendqisi2
 598              		.loc 1 631 12 view .LVU225
 599 0212 AA42     		cmp	r2, r5
 600 0214 00F0B280 		beq	.L111
 601              	.L54:
 632:Src/maze_solve.c ****           q0 = (int)(k + 1U);
 633:Src/maze_solve.c ****           if ((unsigned int)q0 > 255U) {
 634:Src/maze_solve.c ****             q0 = 255;
 635:Src/maze_solve.c ****           }
 636:Src/maze_solve.c **** 
 637:Src/maze_solve.c ****           k = (unsigned char)q0;
 638:Src/maze_solve.c **** 
 639:Src/maze_solve.c ****           /* disp("east_step") */
 640:Src/maze_solve.c ****         }
 641:Src/maze_solve.c **** 
 642:Src/maze_solve.c ****         /* 南に一マス */
 643:Src/maze_solve.c ****         if (varargin_2 == g_direction->contents.South) {
 602              		.loc 1 643 9 is_stmt 1 view .LVU226
 603              		.loc 1 643 48 is_stmt 0 view .LVU227
 604 0218 99F80250 		ldrb	r5, [r9, #2]	@ zero_extendqisi2
 605              		.loc 1 643 12 view .LVU228
 606 021c AA42     		cmp	r2, r5
ARM GAS  C:\Temp\ccSQM2w2.s 			page 24


 607 021e 00F0B380 		beq	.L112
 608              	.L56:
 644:Src/maze_solve.c ****           qY = a - 1U;
 645:Src/maze_solve.c ****           if (qY > a) {
 646:Src/maze_solve.c ****             qY = 0U;
 647:Src/maze_solve.c ****           }
 648:Src/maze_solve.c **** 
 649:Src/maze_solve.c ****           a = (unsigned char)qY;
 650:Src/maze_solve.c **** 
 651:Src/maze_solve.c ****           /* disp("south_step") */
 652:Src/maze_solve.c ****         }
 653:Src/maze_solve.c **** 
 654:Src/maze_solve.c ****         /* 西に一マス */
 655:Src/maze_solve.c ****         if (varargin_2 == g_direction->contents.West) {
 609              		.loc 1 655 9 is_stmt 1 view .LVU229
 610              		.loc 1 655 48 is_stmt 0 view .LVU230
 611 0222 99F80350 		ldrb	r5, [r9, #3]	@ zero_extendqisi2
 612              		.loc 1 655 12 view .LVU231
 613 0226 AA42     		cmp	r2, r5
 614 0228 00F0B480 		beq	.L113
 615              	.LVL80:
 616              	.L58:
 656:Src/maze_solve.c ****           qY = k - 1U;
 657:Src/maze_solve.c ****           if (qY > k) {
 658:Src/maze_solve.c ****             qY = 0U;
 659:Src/maze_solve.c ****           }
 660:Src/maze_solve.c **** 
 661:Src/maze_solve.c ****           k = (unsigned char)qY;
 662:Src/maze_solve.c **** 
 663:Src/maze_solve.c ****           /* disp("west_step") */
 664:Src/maze_solve.c ****         }
 665:Src/maze_solve.c **** 
 666:Src/maze_solve.c ****         current_x->contents = k;
 617              		.loc 1 666 9 is_stmt 1 view .LVU232
 618              		.loc 1 666 29 is_stmt 0 view .LVU233
 619 022c 0C70     		strb	r4, [r1]
 620              	.LVL81:
 667:Src/maze_solve.c ****         current_y->contents = a;
 621              		.loc 1 667 9 is_stmt 1 view .LVU234
 622              		.loc 1 667 29 is_stmt 0 view .LVU235
 623 022e 8BF80000 		strb	r0, [fp]
 668:Src/maze_solve.c **** 
 669:Src/maze_solve.c ****         /* disp("left") */
 670:Src/maze_solve.c ****         break;
 624              		.loc 1 670 9 is_stmt 1 view .LVU236
 226:Src/maze_solve.c **** 
 625              		.loc 1 226 12 is_stmt 0 view .LVU237
 626 0232 0022     		movs	r2, #0
 627              		.loc 1 670 9 view .LVU238
 628 0234 B5E0     		b	.L5
 629              	.LVL82:
 630              	.L24:
 385:Src/maze_solve.c ****        case 0:
 631              		.loc 1 385 7 is_stmt 1 view .LVU239
 527:Src/maze_solve.c **** 
 632              		.loc 1 527 9 view .LVU240
 532:Src/maze_solve.c ****         if ((unsigned int)q0 > 255U) {
ARM GAS  C:\Temp\ccSQM2w2.s 			page 25


 633              		.loc 1 532 9 view .LVU241
 532:Src/maze_solve.c ****         if ((unsigned int)q0 > 255U) {
 634              		.loc 1 532 23 is_stmt 0 view .LVU242
 635 0236 0432     		adds	r2, r2, #4
 636              	.LVL83:
 533:Src/maze_solve.c ****           q0 = 255;
 637              		.loc 1 533 9 is_stmt 1 view .LVU243
 533:Src/maze_solve.c ****           q0 = 255;
 638              		.loc 1 533 12 is_stmt 0 view .LVU244
 639 0238 FF2A     		cmp	r2, #255
 640 023a 7DD8     		bhi	.L79
 641              	.LVL84:
 642              	.L26:
 537:Src/maze_solve.c ****         k = current_x->contents;
 643              		.loc 1 537 9 is_stmt 1 view .LVU245
 537:Src/maze_solve.c ****         k = current_x->contents;
 644              		.loc 1 537 53 is_stmt 0 view .LVU246
 645 023c 023A     		subs	r2, r2, #2
 646              	.LVL85:
 537:Src/maze_solve.c ****         k = current_x->contents;
 647              		.loc 1 537 58 view .LVU247
 648 023e 5042     		rsbs	r0, r2, #0
 649 0240 02F00302 		and	r2, r2, #3
 650              	.LVL86:
 537:Src/maze_solve.c ****         k = current_x->contents;
 651              		.loc 1 537 58 view .LVU248
 652 0244 00F00300 		and	r0, r0, #3
 653 0248 58BF     		it	pl
 654 024a 4242     		rsbpl	r2, r0, #0
 537:Src/maze_solve.c ****         k = current_x->contents;
 655              		.loc 1 537 33 view .LVU249
 656 024c D2B2     		uxtb	r2, r2
 537:Src/maze_solve.c ****         k = current_x->contents;
 657              		.loc 1 537 31 view .LVU250
 658 024e 0598     		ldr	r0, [sp, #20]
 659 0250 0270     		strb	r2, [r0]
 660              	.LVL87:
 538:Src/maze_solve.c ****         a = current_y->contents;
 661              		.loc 1 538 9 is_stmt 1 view .LVU251
 538:Src/maze_solve.c ****         a = current_y->contents;
 662              		.loc 1 538 11 is_stmt 0 view .LVU252
 663 0252 0C78     		ldrb	r4, [r1]	@ zero_extendqisi2
 664              	.LVL88:
 539:Src/maze_solve.c ****         varargin_2 = current_dir->contents;
 665              		.loc 1 539 9 is_stmt 1 view .LVU253
 539:Src/maze_solve.c ****         varargin_2 = current_dir->contents;
 666              		.loc 1 539 11 is_stmt 0 view .LVU254
 667 0254 9BF80000 		ldrb	r0, [fp]	@ zero_extendqisi2
 668              	.LVL89:
 540:Src/maze_solve.c **** 
 669              		.loc 1 540 9 is_stmt 1 view .LVU255
 546:Src/maze_solve.c ****           q0 = (int)(a + 1U);
 670              		.loc 1 546 9 view .LVU256
 546:Src/maze_solve.c ****           q0 = (int)(a + 1U);
 671              		.loc 1 546 48 is_stmt 0 view .LVU257
 672 0258 99F80050 		ldrb	r5, [r9]	@ zero_extendqisi2
 546:Src/maze_solve.c ****           q0 = (int)(a + 1U);
ARM GAS  C:\Temp\ccSQM2w2.s 			page 26


 673              		.loc 1 546 12 view .LVU258
 674 025c AA42     		cmp	r2, r5
 675 025e 6DD0     		beq	.L114
 676              	.L44:
 558:Src/maze_solve.c ****           q0 = (int)(k + 1U);
 677              		.loc 1 558 9 is_stmt 1 view .LVU259
 558:Src/maze_solve.c ****           q0 = (int)(k + 1U);
 678              		.loc 1 558 48 is_stmt 0 view .LVU260
 679 0260 99F80150 		ldrb	r5, [r9, #1]	@ zero_extendqisi2
 558:Src/maze_solve.c ****           q0 = (int)(k + 1U);
 680              		.loc 1 558 12 view .LVU261
 681 0264 AA42     		cmp	r2, r5
 682 0266 6FD0     		beq	.L115
 683              	.L46:
 570:Src/maze_solve.c ****           qY = a - 1U;
 684              		.loc 1 570 9 is_stmt 1 view .LVU262
 570:Src/maze_solve.c ****           qY = a - 1U;
 685              		.loc 1 570 48 is_stmt 0 view .LVU263
 686 0268 99F80250 		ldrb	r5, [r9, #2]	@ zero_extendqisi2
 570:Src/maze_solve.c ****           qY = a - 1U;
 687              		.loc 1 570 12 view .LVU264
 688 026c AA42     		cmp	r2, r5
 689 026e 71D0     		beq	.L116
 690              	.L48:
 582:Src/maze_solve.c ****           qY = k - 1U;
 691              		.loc 1 582 9 is_stmt 1 view .LVU265
 582:Src/maze_solve.c ****           qY = k - 1U;
 692              		.loc 1 582 48 is_stmt 0 view .LVU266
 693 0270 99F80350 		ldrb	r5, [r9, #3]	@ zero_extendqisi2
 582:Src/maze_solve.c ****           qY = k - 1U;
 694              		.loc 1 582 12 view .LVU267
 695 0274 AA42     		cmp	r2, r5
 696 0276 73D0     		beq	.L117
 697              	.LVL90:
 698              	.L50:
 593:Src/maze_solve.c ****         current_y->contents = a;
 699              		.loc 1 593 9 is_stmt 1 view .LVU268
 593:Src/maze_solve.c ****         current_y->contents = a;
 700              		.loc 1 593 29 is_stmt 0 view .LVU269
 701 0278 0C70     		strb	r4, [r1]
 702              	.LVL91:
 594:Src/maze_solve.c **** 
 703              		.loc 1 594 9 is_stmt 1 view .LVU270
 594:Src/maze_solve.c **** 
 704              		.loc 1 594 29 is_stmt 0 view .LVU271
 705 027a 8BF80000 		strb	r0, [fp]
 597:Src/maze_solve.c **** 
 706              		.loc 1 597 9 is_stmt 1 view .LVU272
 226:Src/maze_solve.c **** 
 707              		.loc 1 226 12 is_stmt 0 view .LVU273
 708 027e 0022     		movs	r2, #0
 597:Src/maze_solve.c **** 
 709              		.loc 1 597 9 view .LVU274
 710 0280 8FE0     		b	.L5
 711              	.LVL92:
 712              	.L23:
 385:Src/maze_solve.c ****        case 0:
ARM GAS  C:\Temp\ccSQM2w2.s 			page 27


 713              		.loc 1 385 7 is_stmt 1 view .LVU275
 449:Src/maze_solve.c **** 
 714              		.loc 1 449 9 view .LVU276
 454:Src/maze_solve.c ****         if ((unsigned int)q0 > 255U) {
 715              		.loc 1 454 9 view .LVU277
 454:Src/maze_solve.c ****         if ((unsigned int)q0 > 255U) {
 716              		.loc 1 454 23 is_stmt 0 view .LVU278
 717 0282 0432     		adds	r2, r2, #4
 718              	.LVL93:
 455:Src/maze_solve.c ****           q0 = 255;
 719              		.loc 1 455 9 is_stmt 1 view .LVU279
 455:Src/maze_solve.c ****           q0 = 255;
 720              		.loc 1 455 12 is_stmt 0 view .LVU280
 721 0284 FF2A     		cmp	r2, #255
 722 0286 3DD8     		bhi	.L80
 723              	.LVL94:
 724              	.L27:
 459:Src/maze_solve.c ****         if ((unsigned int)q0 > 255U) {
 725              		.loc 1 459 9 is_stmt 1 view .LVU281
 459:Src/maze_solve.c ****         if ((unsigned int)q0 > 255U) {
 726              		.loc 1 459 11 is_stmt 0 view .LVU282
 727 0288 0132     		adds	r2, r2, #1
 728              	.LVL95:
 460:Src/maze_solve.c ****           q0 = 255;
 729              		.loc 1 460 9 is_stmt 1 view .LVU283
 460:Src/maze_solve.c ****           q0 = 255;
 730              		.loc 1 460 12 is_stmt 0 view .LVU284
 731 028a FF2A     		cmp	r2, #255
 732 028c 00D9     		bls	.L35
 461:Src/maze_solve.c ****         }
 733              		.loc 1 461 14 view .LVU285
 734 028e FF22     		movs	r2, #255
 735              	.LVL96:
 736              	.L35:
 464:Src/maze_solve.c ****         k = current_x->contents;
 737              		.loc 1 464 9 is_stmt 1 view .LVU286
 464:Src/maze_solve.c ****         k = current_x->contents;
 738              		.loc 1 464 52 is_stmt 0 view .LVU287
 739 0290 5042     		rsbs	r0, r2, #0
 740 0292 02F00302 		and	r2, r2, #3
 741              	.LVL97:
 464:Src/maze_solve.c ****         k = current_x->contents;
 742              		.loc 1 464 52 view .LVU288
 743 0296 00F00300 		and	r0, r0, #3
 744 029a 58BF     		it	pl
 745 029c 4242     		rsbpl	r2, r0, #0
 464:Src/maze_solve.c ****         k = current_x->contents;
 746              		.loc 1 464 33 view .LVU289
 747 029e D2B2     		uxtb	r2, r2
 464:Src/maze_solve.c ****         k = current_x->contents;
 748              		.loc 1 464 31 view .LVU290
 749 02a0 0598     		ldr	r0, [sp, #20]
 750 02a2 0270     		strb	r2, [r0]
 751              	.LVL98:
 465:Src/maze_solve.c ****         a = current_y->contents;
 752              		.loc 1 465 9 is_stmt 1 view .LVU291
 465:Src/maze_solve.c ****         a = current_y->contents;
ARM GAS  C:\Temp\ccSQM2w2.s 			page 28


 753              		.loc 1 465 11 is_stmt 0 view .LVU292
 754 02a4 0C78     		ldrb	r4, [r1]	@ zero_extendqisi2
 755              	.LVL99:
 466:Src/maze_solve.c ****         varargin_2 = current_dir->contents;
 756              		.loc 1 466 9 is_stmt 1 view .LVU293
 466:Src/maze_solve.c ****         varargin_2 = current_dir->contents;
 757              		.loc 1 466 11 is_stmt 0 view .LVU294
 758 02a6 9BF80000 		ldrb	r0, [fp]	@ zero_extendqisi2
 759              	.LVL100:
 467:Src/maze_solve.c **** 
 760              		.loc 1 467 9 is_stmt 1 view .LVU295
 473:Src/maze_solve.c ****           q0 = (int)(a + 1U);
 761              		.loc 1 473 9 view .LVU296
 473:Src/maze_solve.c ****           q0 = (int)(a + 1U);
 762              		.loc 1 473 48 is_stmt 0 view .LVU297
 763 02aa 99F80050 		ldrb	r5, [r9]	@ zero_extendqisi2
 473:Src/maze_solve.c ****           q0 = (int)(a + 1U);
 764              		.loc 1 473 12 view .LVU298
 765 02ae AA42     		cmp	r2, r5
 766 02b0 2AD0     		beq	.L118
 767              	.L36:
 485:Src/maze_solve.c ****           q0 = (int)(k + 1U);
 768              		.loc 1 485 9 is_stmt 1 view .LVU299
 485:Src/maze_solve.c ****           q0 = (int)(k + 1U);
 769              		.loc 1 485 48 is_stmt 0 view .LVU300
 770 02b2 99F80150 		ldrb	r5, [r9, #1]	@ zero_extendqisi2
 485:Src/maze_solve.c ****           q0 = (int)(k + 1U);
 771              		.loc 1 485 12 view .LVU301
 772 02b6 AA42     		cmp	r2, r5
 773 02b8 2CD0     		beq	.L119
 774              	.L38:
 497:Src/maze_solve.c ****           qY = a - 1U;
 775              		.loc 1 497 9 is_stmt 1 view .LVU302
 497:Src/maze_solve.c ****           qY = a - 1U;
 776              		.loc 1 497 48 is_stmt 0 view .LVU303
 777 02ba 99F80250 		ldrb	r5, [r9, #2]	@ zero_extendqisi2
 497:Src/maze_solve.c ****           qY = a - 1U;
 778              		.loc 1 497 12 view .LVU304
 779 02be AA42     		cmp	r2, r5
 780 02c0 2ED0     		beq	.L120
 781              	.L40:
 509:Src/maze_solve.c ****           qY = k - 1U;
 782              		.loc 1 509 9 is_stmt 1 view .LVU305
 509:Src/maze_solve.c ****           qY = k - 1U;
 783              		.loc 1 509 48 is_stmt 0 view .LVU306
 784 02c2 99F80350 		ldrb	r5, [r9, #3]	@ zero_extendqisi2
 509:Src/maze_solve.c ****           qY = k - 1U;
 785              		.loc 1 509 12 view .LVU307
 786 02c6 AA42     		cmp	r2, r5
 787 02c8 30D0     		beq	.L121
 788              	.LVL101:
 789              	.L42:
 520:Src/maze_solve.c ****         current_y->contents = a;
 790              		.loc 1 520 9 is_stmt 1 view .LVU308
 520:Src/maze_solve.c ****         current_y->contents = a;
 791              		.loc 1 520 29 is_stmt 0 view .LVU309
 792 02ca 0C70     		strb	r4, [r1]
ARM GAS  C:\Temp\ccSQM2w2.s 			page 29


 793              	.LVL102:
 521:Src/maze_solve.c **** 
 794              		.loc 1 521 9 is_stmt 1 view .LVU310
 521:Src/maze_solve.c **** 
 795              		.loc 1 521 29 is_stmt 0 view .LVU311
 796 02cc 8BF80000 		strb	r0, [fp]
 524:Src/maze_solve.c **** 
 797              		.loc 1 524 9 is_stmt 1 view .LVU312
 226:Src/maze_solve.c **** 
 798              		.loc 1 226 12 is_stmt 0 view .LVU313
 799 02d0 0022     		movs	r2, #0
 524:Src/maze_solve.c **** 
 800              		.loc 1 524 9 view .LVU314
 801 02d2 66E0     		b	.L5
 802              	.LVL103:
 803              	.L106:
 396:Src/maze_solve.c ****           if ((unsigned int)q0 > 255U) {
 804              		.loc 1 396 11 is_stmt 1 view .LVU315
 396:Src/maze_solve.c ****           if ((unsigned int)q0 > 255U) {
 805              		.loc 1 396 24 is_stmt 0 view .LVU316
 806 02d4 0134     		adds	r4, r4, #1
 807              	.LVL104:
 397:Src/maze_solve.c ****             q0 = 255;
 808              		.loc 1 397 11 is_stmt 1 view .LVU317
 397:Src/maze_solve.c ****             q0 = 255;
 809              		.loc 1 397 14 is_stmt 0 view .LVU318
 810 02d6 FF2C     		cmp	r4, #255
 811 02d8 00D9     		bls	.L28
 398:Src/maze_solve.c ****           }
 812              		.loc 1 398 16 view .LVU319
 813 02da FF24     		movs	r4, #255
 814              	.LVL105:
 815              	.L28:
 401:Src/maze_solve.c **** 
 816              		.loc 1 401 11 is_stmt 1 view .LVU320
 401:Src/maze_solve.c **** 
 817              		.loc 1 401 13 is_stmt 0 view .LVU321
 818 02dc E4B2     		uxtb	r4, r4
 819              	.LVL106:
 401:Src/maze_solve.c **** 
 820              		.loc 1 401 13 view .LVU322
 821 02de 70E7     		b	.L22
 822              	.L107:
 408:Src/maze_solve.c ****           if ((unsigned int)q0 > 255U) {
 823              		.loc 1 408 11 is_stmt 1 view .LVU323
 408:Src/maze_solve.c ****           if ((unsigned int)q0 > 255U) {
 824              		.loc 1 408 24 is_stmt 0 view .LVU324
 825 02e0 0135     		adds	r5, r5, #1
 826              	.LVL107:
 409:Src/maze_solve.c ****             q0 = 255;
 827              		.loc 1 409 11 is_stmt 1 view .LVU325
 409:Src/maze_solve.c ****             q0 = 255;
 828              		.loc 1 409 14 is_stmt 0 view .LVU326
 829 02e2 FF2D     		cmp	r5, #255
 830 02e4 00D9     		bls	.L30
 410:Src/maze_solve.c ****           }
 831              		.loc 1 410 16 view .LVU327
ARM GAS  C:\Temp\ccSQM2w2.s 			page 30


 832 02e6 FF25     		movs	r5, #255
 833              	.LVL108:
 834              	.L30:
 413:Src/maze_solve.c **** 
 835              		.loc 1 413 11 is_stmt 1 view .LVU328
 413:Src/maze_solve.c **** 
 836              		.loc 1 413 13 is_stmt 0 view .LVU329
 837 02e8 EDB2     		uxtb	r5, r5
 838              	.LVL109:
 413:Src/maze_solve.c **** 
 839              		.loc 1 413 13 view .LVU330
 840 02ea 6DE7     		b	.L29
 841              	.L108:
 420:Src/maze_solve.c ****           if (qY > a) {
 842              		.loc 1 420 11 is_stmt 1 view .LVU331
 420:Src/maze_solve.c ****           if (qY > a) {
 843              		.loc 1 420 14 is_stmt 0 view .LVU332
 844 02ec 601E     		subs	r0, r4, #1
 845              	.LVL110:
 421:Src/maze_solve.c ****             qY = 0U;
 846              		.loc 1 421 11 is_stmt 1 view .LVU333
 421:Src/maze_solve.c ****             qY = 0U;
 847              		.loc 1 421 14 is_stmt 0 view .LVU334
 848 02ee 8442     		cmp	r4, r0
 849 02f0 00D2     		bcs	.L32
 422:Src/maze_solve.c ****           }
 850              		.loc 1 422 16 view .LVU335
 851 02f2 0020     		movs	r0, #0
 852              	.LVL111:
 853              	.L32:
 425:Src/maze_solve.c **** 
 854              		.loc 1 425 11 is_stmt 1 view .LVU336
 425:Src/maze_solve.c **** 
 855              		.loc 1 425 13 is_stmt 0 view .LVU337
 856 02f4 C4B2     		uxtb	r4, r0
 857              	.LVL112:
 425:Src/maze_solve.c **** 
 858              		.loc 1 425 13 view .LVU338
 859 02f6 6AE7     		b	.L31
 860              	.LVL113:
 861              	.L109:
 432:Src/maze_solve.c ****           if (qY > k) {
 862              		.loc 1 432 11 is_stmt 1 view .LVU339
 432:Src/maze_solve.c ****           if (qY > k) {
 863              		.loc 1 432 14 is_stmt 0 view .LVU340
 864 02f8 6A1E     		subs	r2, r5, #1
 865              	.LVL114:
 433:Src/maze_solve.c ****             qY = 0U;
 866              		.loc 1 433 11 is_stmt 1 view .LVU341
 433:Src/maze_solve.c ****             qY = 0U;
 867              		.loc 1 433 14 is_stmt 0 view .LVU342
 868 02fa 9542     		cmp	r5, r2
 869 02fc 00D2     		bcs	.L34
 434:Src/maze_solve.c ****           }
 870              		.loc 1 434 16 view .LVU343
 871 02fe 0022     		movs	r2, #0
 872              	.LVL115:
ARM GAS  C:\Temp\ccSQM2w2.s 			page 31


 873              	.L34:
 437:Src/maze_solve.c **** 
 874              		.loc 1 437 11 is_stmt 1 view .LVU344
 437:Src/maze_solve.c **** 
 875              		.loc 1 437 13 is_stmt 0 view .LVU345
 876 0300 D5B2     		uxtb	r5, r2
 877              	.LVL116:
 437:Src/maze_solve.c **** 
 878              		.loc 1 437 13 view .LVU346
 879 0302 68E7     		b	.L33
 880              	.LVL117:
 881              	.L80:
 456:Src/maze_solve.c ****         }
 882              		.loc 1 456 14 view .LVU347
 883 0304 FF22     		movs	r2, #255
 884              	.LVL118:
 456:Src/maze_solve.c ****         }
 885              		.loc 1 456 14 view .LVU348
 886 0306 BFE7     		b	.L27
 887              	.LVL119:
 888              	.L118:
 474:Src/maze_solve.c ****           if ((unsigned int)q0 > 255U) {
 889              		.loc 1 474 11 is_stmt 1 view .LVU349
 474:Src/maze_solve.c ****           if ((unsigned int)q0 > 255U) {
 890              		.loc 1 474 24 is_stmt 0 view .LVU350
 891 0308 0130     		adds	r0, r0, #1
 892              	.LVL120:
 475:Src/maze_solve.c ****             q0 = 255;
 893              		.loc 1 475 11 is_stmt 1 view .LVU351
 475:Src/maze_solve.c ****             q0 = 255;
 894              		.loc 1 475 14 is_stmt 0 view .LVU352
 895 030a FF28     		cmp	r0, #255
 896 030c 00D9     		bls	.L37
 476:Src/maze_solve.c ****           }
 897              		.loc 1 476 16 view .LVU353
 898 030e FF20     		movs	r0, #255
 899              	.LVL121:
 900              	.L37:
 479:Src/maze_solve.c **** 
 901              		.loc 1 479 11 is_stmt 1 view .LVU354
 479:Src/maze_solve.c **** 
 902              		.loc 1 479 13 is_stmt 0 view .LVU355
 903 0310 C0B2     		uxtb	r0, r0
 904              	.LVL122:
 479:Src/maze_solve.c **** 
 905              		.loc 1 479 13 view .LVU356
 906 0312 CEE7     		b	.L36
 907              	.L119:
 486:Src/maze_solve.c ****           if ((unsigned int)q0 > 255U) {
 908              		.loc 1 486 11 is_stmt 1 view .LVU357
 486:Src/maze_solve.c ****           if ((unsigned int)q0 > 255U) {
 909              		.loc 1 486 24 is_stmt 0 view .LVU358
 910 0314 0134     		adds	r4, r4, #1
 911              	.LVL123:
 487:Src/maze_solve.c ****             q0 = 255;
 912              		.loc 1 487 11 is_stmt 1 view .LVU359
 487:Src/maze_solve.c ****             q0 = 255;
ARM GAS  C:\Temp\ccSQM2w2.s 			page 32


 913              		.loc 1 487 14 is_stmt 0 view .LVU360
 914 0316 FF2C     		cmp	r4, #255
 915 0318 00D9     		bls	.L39
 488:Src/maze_solve.c ****           }
 916              		.loc 1 488 16 view .LVU361
 917 031a FF24     		movs	r4, #255
 918              	.LVL124:
 919              	.L39:
 491:Src/maze_solve.c **** 
 920              		.loc 1 491 11 is_stmt 1 view .LVU362
 491:Src/maze_solve.c **** 
 921              		.loc 1 491 13 is_stmt 0 view .LVU363
 922 031c E4B2     		uxtb	r4, r4
 923              	.LVL125:
 491:Src/maze_solve.c **** 
 924              		.loc 1 491 13 view .LVU364
 925 031e CCE7     		b	.L38
 926              	.L120:
 498:Src/maze_solve.c ****           if (qY > a) {
 927              		.loc 1 498 11 is_stmt 1 view .LVU365
 498:Src/maze_solve.c ****           if (qY > a) {
 928              		.loc 1 498 14 is_stmt 0 view .LVU366
 929 0320 451E     		subs	r5, r0, #1
 930              	.LVL126:
 499:Src/maze_solve.c ****             qY = 0U;
 931              		.loc 1 499 11 is_stmt 1 view .LVU367
 499:Src/maze_solve.c ****             qY = 0U;
 932              		.loc 1 499 14 is_stmt 0 view .LVU368
 933 0322 A842     		cmp	r0, r5
 934 0324 00D2     		bcs	.L41
 500:Src/maze_solve.c ****           }
 935              		.loc 1 500 16 view .LVU369
 936 0326 0025     		movs	r5, #0
 937              	.LVL127:
 938              	.L41:
 503:Src/maze_solve.c **** 
 939              		.loc 1 503 11 is_stmt 1 view .LVU370
 503:Src/maze_solve.c **** 
 940              		.loc 1 503 13 is_stmt 0 view .LVU371
 941 0328 E8B2     		uxtb	r0, r5
 942              	.LVL128:
 503:Src/maze_solve.c **** 
 943              		.loc 1 503 13 view .LVU372
 944 032a CAE7     		b	.L40
 945              	.LVL129:
 946              	.L121:
 510:Src/maze_solve.c ****           if (qY > k) {
 947              		.loc 1 510 11 is_stmt 1 view .LVU373
 510:Src/maze_solve.c ****           if (qY > k) {
 948              		.loc 1 510 14 is_stmt 0 view .LVU374
 949 032c 621E     		subs	r2, r4, #1
 950              	.LVL130:
 511:Src/maze_solve.c ****             qY = 0U;
 951              		.loc 1 511 11 is_stmt 1 view .LVU375
 511:Src/maze_solve.c ****             qY = 0U;
 952              		.loc 1 511 14 is_stmt 0 view .LVU376
 953 032e 9442     		cmp	r4, r2
ARM GAS  C:\Temp\ccSQM2w2.s 			page 33


 954 0330 00D2     		bcs	.L43
 512:Src/maze_solve.c ****           }
 955              		.loc 1 512 16 view .LVU377
 956 0332 0022     		movs	r2, #0
 957              	.LVL131:
 958              	.L43:
 515:Src/maze_solve.c **** 
 959              		.loc 1 515 11 is_stmt 1 view .LVU378
 515:Src/maze_solve.c **** 
 960              		.loc 1 515 13 is_stmt 0 view .LVU379
 961 0334 D4B2     		uxtb	r4, r2
 962              	.LVL132:
 515:Src/maze_solve.c **** 
 963              		.loc 1 515 13 view .LVU380
 964 0336 C8E7     		b	.L42
 965              	.LVL133:
 966              	.L79:
 534:Src/maze_solve.c ****         }
 967              		.loc 1 534 14 view .LVU381
 968 0338 FF22     		movs	r2, #255
 969              	.LVL134:
 534:Src/maze_solve.c ****         }
 970              		.loc 1 534 14 view .LVU382
 971 033a 7FE7     		b	.L26
 972              	.LVL135:
 973              	.L114:
 547:Src/maze_solve.c ****           if ((unsigned int)q0 > 255U) {
 974              		.loc 1 547 11 is_stmt 1 view .LVU383
 547:Src/maze_solve.c ****           if ((unsigned int)q0 > 255U) {
 975              		.loc 1 547 24 is_stmt 0 view .LVU384
 976 033c 0130     		adds	r0, r0, #1
 977              	.LVL136:
 548:Src/maze_solve.c ****             q0 = 255;
 978              		.loc 1 548 11 is_stmt 1 view .LVU385
 548:Src/maze_solve.c ****             q0 = 255;
 979              		.loc 1 548 14 is_stmt 0 view .LVU386
 980 033e FF28     		cmp	r0, #255
 981 0340 00D9     		bls	.L45
 549:Src/maze_solve.c ****           }
 982              		.loc 1 549 16 view .LVU387
 983 0342 FF20     		movs	r0, #255
 984              	.LVL137:
 985              	.L45:
 552:Src/maze_solve.c **** 
 986              		.loc 1 552 11 is_stmt 1 view .LVU388
 552:Src/maze_solve.c **** 
 987              		.loc 1 552 13 is_stmt 0 view .LVU389
 988 0344 C0B2     		uxtb	r0, r0
 989              	.LVL138:
 552:Src/maze_solve.c **** 
 990              		.loc 1 552 13 view .LVU390
 991 0346 8BE7     		b	.L44
 992              	.L115:
 559:Src/maze_solve.c ****           if ((unsigned int)q0 > 255U) {
 993              		.loc 1 559 11 is_stmt 1 view .LVU391
 559:Src/maze_solve.c ****           if ((unsigned int)q0 > 255U) {
 994              		.loc 1 559 24 is_stmt 0 view .LVU392
ARM GAS  C:\Temp\ccSQM2w2.s 			page 34


 995 0348 0134     		adds	r4, r4, #1
 996              	.LVL139:
 560:Src/maze_solve.c ****             q0 = 255;
 997              		.loc 1 560 11 is_stmt 1 view .LVU393
 560:Src/maze_solve.c ****             q0 = 255;
 998              		.loc 1 560 14 is_stmt 0 view .LVU394
 999 034a FF2C     		cmp	r4, #255
 1000 034c 00D9     		bls	.L47
 561:Src/maze_solve.c ****           }
 1001              		.loc 1 561 16 view .LVU395
 1002 034e FF24     		movs	r4, #255
 1003              	.LVL140:
 1004              	.L47:
 564:Src/maze_solve.c **** 
 1005              		.loc 1 564 11 is_stmt 1 view .LVU396
 564:Src/maze_solve.c **** 
 1006              		.loc 1 564 13 is_stmt 0 view .LVU397
 1007 0350 E4B2     		uxtb	r4, r4
 1008              	.LVL141:
 564:Src/maze_solve.c **** 
 1009              		.loc 1 564 13 view .LVU398
 1010 0352 89E7     		b	.L46
 1011              	.L116:
 571:Src/maze_solve.c ****           if (qY > a) {
 1012              		.loc 1 571 11 is_stmt 1 view .LVU399
 571:Src/maze_solve.c ****           if (qY > a) {
 1013              		.loc 1 571 14 is_stmt 0 view .LVU400
 1014 0354 451E     		subs	r5, r0, #1
 1015              	.LVL142:
 572:Src/maze_solve.c ****             qY = 0U;
 1016              		.loc 1 572 11 is_stmt 1 view .LVU401
 572:Src/maze_solve.c ****             qY = 0U;
 1017              		.loc 1 572 14 is_stmt 0 view .LVU402
 1018 0356 A842     		cmp	r0, r5
 1019 0358 00D2     		bcs	.L49
 573:Src/maze_solve.c ****           }
 1020              		.loc 1 573 16 view .LVU403
 1021 035a 0025     		movs	r5, #0
 1022              	.LVL143:
 1023              	.L49:
 576:Src/maze_solve.c **** 
 1024              		.loc 1 576 11 is_stmt 1 view .LVU404
 576:Src/maze_solve.c **** 
 1025              		.loc 1 576 13 is_stmt 0 view .LVU405
 1026 035c E8B2     		uxtb	r0, r5
 1027              	.LVL144:
 576:Src/maze_solve.c **** 
 1028              		.loc 1 576 13 view .LVU406
 1029 035e 87E7     		b	.L48
 1030              	.LVL145:
 1031              	.L117:
 583:Src/maze_solve.c ****           if (qY > k) {
 1032              		.loc 1 583 11 is_stmt 1 view .LVU407
 583:Src/maze_solve.c ****           if (qY > k) {
 1033              		.loc 1 583 14 is_stmt 0 view .LVU408
 1034 0360 621E     		subs	r2, r4, #1
 1035              	.LVL146:
ARM GAS  C:\Temp\ccSQM2w2.s 			page 35


 584:Src/maze_solve.c ****             qY = 0U;
 1036              		.loc 1 584 11 is_stmt 1 view .LVU409
 584:Src/maze_solve.c ****             qY = 0U;
 1037              		.loc 1 584 14 is_stmt 0 view .LVU410
 1038 0362 9442     		cmp	r4, r2
 1039 0364 00D2     		bcs	.L51
 585:Src/maze_solve.c ****           }
 1040              		.loc 1 585 16 view .LVU411
 1041 0366 0022     		movs	r2, #0
 1042              	.LVL147:
 1043              	.L51:
 588:Src/maze_solve.c **** 
 1044              		.loc 1 588 11 is_stmt 1 view .LVU412
 588:Src/maze_solve.c **** 
 1045              		.loc 1 588 13 is_stmt 0 view .LVU413
 1046 0368 D4B2     		uxtb	r4, r2
 1047              	.LVL148:
 588:Src/maze_solve.c **** 
 1048              		.loc 1 588 13 view .LVU414
 1049 036a 85E7     		b	.L50
 1050              	.LVL149:
 1051              	.L78:
 607:Src/maze_solve.c ****         }
 1052              		.loc 1 607 14 view .LVU415
 1053 036c FF22     		movs	r2, #255
 1054              	.LVL150:
 607:Src/maze_solve.c ****         }
 1055              		.loc 1 607 14 view .LVU416
 1056 036e 3BE7     		b	.L25
 1057              	.LVL151:
 1058              	.L110:
 620:Src/maze_solve.c ****           if ((unsigned int)q0 > 255U) {
 1059              		.loc 1 620 11 is_stmt 1 view .LVU417
 620:Src/maze_solve.c ****           if ((unsigned int)q0 > 255U) {
 1060              		.loc 1 620 24 is_stmt 0 view .LVU418
 1061 0370 0130     		adds	r0, r0, #1
 1062              	.LVL152:
 621:Src/maze_solve.c ****             q0 = 255;
 1063              		.loc 1 621 11 is_stmt 1 view .LVU419
 621:Src/maze_solve.c ****             q0 = 255;
 1064              		.loc 1 621 14 is_stmt 0 view .LVU420
 1065 0372 FF28     		cmp	r0, #255
 1066 0374 00D9     		bls	.L53
 622:Src/maze_solve.c ****           }
 1067              		.loc 1 622 16 view .LVU421
 1068 0376 FF20     		movs	r0, #255
 1069              	.LVL153:
 1070              	.L53:
 625:Src/maze_solve.c **** 
 1071              		.loc 1 625 11 is_stmt 1 view .LVU422
 625:Src/maze_solve.c **** 
 1072              		.loc 1 625 13 is_stmt 0 view .LVU423
 1073 0378 C0B2     		uxtb	r0, r0
 1074              	.LVL154:
 625:Src/maze_solve.c **** 
 1075              		.loc 1 625 13 view .LVU424
 1076 037a 48E7     		b	.L52
ARM GAS  C:\Temp\ccSQM2w2.s 			page 36


 1077              	.L111:
 632:Src/maze_solve.c ****           if ((unsigned int)q0 > 255U) {
 1078              		.loc 1 632 11 is_stmt 1 view .LVU425
 632:Src/maze_solve.c ****           if ((unsigned int)q0 > 255U) {
 1079              		.loc 1 632 24 is_stmt 0 view .LVU426
 1080 037c 0134     		adds	r4, r4, #1
 1081              	.LVL155:
 633:Src/maze_solve.c ****             q0 = 255;
 1082              		.loc 1 633 11 is_stmt 1 view .LVU427
 633:Src/maze_solve.c ****             q0 = 255;
 1083              		.loc 1 633 14 is_stmt 0 view .LVU428
 1084 037e FF2C     		cmp	r4, #255
 1085 0380 00D9     		bls	.L55
 634:Src/maze_solve.c ****           }
 1086              		.loc 1 634 16 view .LVU429
 1087 0382 FF24     		movs	r4, #255
 1088              	.LVL156:
 1089              	.L55:
 637:Src/maze_solve.c **** 
 1090              		.loc 1 637 11 is_stmt 1 view .LVU430
 637:Src/maze_solve.c **** 
 1091              		.loc 1 637 13 is_stmt 0 view .LVU431
 1092 0384 E4B2     		uxtb	r4, r4
 1093              	.LVL157:
 637:Src/maze_solve.c **** 
 1094              		.loc 1 637 13 view .LVU432
 1095 0386 47E7     		b	.L54
 1096              	.L112:
 644:Src/maze_solve.c ****           if (qY > a) {
 1097              		.loc 1 644 11 is_stmt 1 view .LVU433
 644:Src/maze_solve.c ****           if (qY > a) {
 1098              		.loc 1 644 14 is_stmt 0 view .LVU434
 1099 0388 451E     		subs	r5, r0, #1
 1100              	.LVL158:
 645:Src/maze_solve.c ****             qY = 0U;
 1101              		.loc 1 645 11 is_stmt 1 view .LVU435
 645:Src/maze_solve.c ****             qY = 0U;
 1102              		.loc 1 645 14 is_stmt 0 view .LVU436
 1103 038a A842     		cmp	r0, r5
 1104 038c 00D2     		bcs	.L57
 646:Src/maze_solve.c ****           }
 1105              		.loc 1 646 16 view .LVU437
 1106 038e 0025     		movs	r5, #0
 1107              	.LVL159:
 1108              	.L57:
 649:Src/maze_solve.c **** 
 1109              		.loc 1 649 11 is_stmt 1 view .LVU438
 649:Src/maze_solve.c **** 
 1110              		.loc 1 649 13 is_stmt 0 view .LVU439
 1111 0390 E8B2     		uxtb	r0, r5
 1112              	.LVL160:
 649:Src/maze_solve.c **** 
 1113              		.loc 1 649 13 view .LVU440
 1114 0392 46E7     		b	.L56
 1115              	.LVL161:
 1116              	.L113:
 656:Src/maze_solve.c ****           if (qY > k) {
ARM GAS  C:\Temp\ccSQM2w2.s 			page 37


 1117              		.loc 1 656 11 is_stmt 1 view .LVU441
 656:Src/maze_solve.c ****           if (qY > k) {
 1118              		.loc 1 656 14 is_stmt 0 view .LVU442
 1119 0394 621E     		subs	r2, r4, #1
 1120              	.LVL162:
 657:Src/maze_solve.c ****             qY = 0U;
 1121              		.loc 1 657 11 is_stmt 1 view .LVU443
 657:Src/maze_solve.c ****             qY = 0U;
 1122              		.loc 1 657 14 is_stmt 0 view .LVU444
 1123 0396 9442     		cmp	r4, r2
 1124 0398 00D2     		bcs	.L59
 658:Src/maze_solve.c ****           }
 1125              		.loc 1 658 16 view .LVU445
 1126 039a 0022     		movs	r2, #0
 1127              	.LVL163:
 1128              	.L59:
 661:Src/maze_solve.c **** 
 1129              		.loc 1 661 11 is_stmt 1 view .LVU446
 661:Src/maze_solve.c **** 
 1130              		.loc 1 661 13 is_stmt 0 view .LVU447
 1131 039c D4B2     		uxtb	r4, r2
 1132              	.LVL164:
 661:Src/maze_solve.c **** 
 1133              		.loc 1 661 13 view .LVU448
 1134 039e 45E7     		b	.L58
 1135              	.LVL165:
 1136              	.L62:
 239:Src/maze_solve.c ****     } else {
 1137              		.loc 1 239 14 view .LVU449
 1138 03a0 0122     		movs	r2, #1
 1139              	.LVL166:
 1140              	.L5:
 671:Src/maze_solve.c ****       }
 672:Src/maze_solve.c **** 
 673:Src/maze_solve.c ****       /* for code generation */
 674:Src/maze_solve.c ****     }
 675:Src/maze_solve.c ****   } while (exitg1 == 0);
 1141              		.loc 1 675 11 is_stmt 1 view .LVU450
 1142              		.loc 1 675 3 is_stmt 0 view .LVU451
 1143 03a2 1AB9     		cbnz	r2, .L122
 1144              	.LVL167:
 1145              	.L60:
 225:Src/maze_solve.c ****     exitg1 = 0;
 1146              		.loc 1 225 3 is_stmt 1 view .LVU452
 226:Src/maze_solve.c **** 
 1147              		.loc 1 226 5 view .LVU453
 229:Src/maze_solve.c ****     q0 = k;
 1148              		.loc 1 229 5 view .LVU454
 229:Src/maze_solve.c ****     q0 = k;
 1149              		.loc 1 229 7 is_stmt 0 view .LVU455
 1150 03a4 129A     		ldr	r2, [sp, #72]
 1151 03a6 1578     		ldrb	r5, [r2]	@ zero_extendqisi2
 230:Src/maze_solve.c ****     for (tempi = 0; tempi < q0; tempi++) {
 1152              		.loc 1 230 5 is_stmt 1 view .LVU456
 1153              	.LVL168:
 231:Src/maze_solve.c ****       if ((current_x->contents == maze_goal[tempi]) && (current_y->contents ==
 1154              		.loc 1 231 5 view .LVU457
ARM GAS  C:\Temp\ccSQM2w2.s 			page 38


 231:Src/maze_solve.c ****       if ((current_x->contents == maze_goal[tempi]) && (current_y->contents ==
 1155              		.loc 1 231 16 is_stmt 0 view .LVU458
 1156 03a8 0022     		movs	r2, #0
 231:Src/maze_solve.c ****       if ((current_x->contents == maze_goal[tempi]) && (current_y->contents ==
 1157              		.loc 1 231 5 view .LVU459
 1158 03aa 43E6     		b	.L2
 1159              	.LVL169:
 1160              	.L122:
 676:Src/maze_solve.c **** }
 1161              		.loc 1 676 1 view .LVU460
 1162 03ac 09B0     		add	sp, sp, #36
 1163              	.LCFI2:
 1164              		.cfi_def_cfa_offset 36
 1165              		@ sp needed
 1166 03ae BDE8F08F 		pop	{r4, r5, r6, r7, r8, r9, r10, fp, pc}
 1167              		.loc 1 676 1 view .LVU461
 1168              		.cfi_endproc
 1169              	.LFE133:
 1171              		.section	.text.move_step,"ax",%progbits
 1172              		.align	1
 1173              		.syntax unified
 1174              		.thumb
 1175              		.thumb_func
 1176              		.fpu fpv4-sp-d16
 1178              	move_step:
 1179              	.LVL170:
 1180              	.LFB136:
 677:Src/maze_solve.c **** 
 678:Src/maze_solve.c **** /*
 679:Src/maze_solve.c ****  * 入力 迷路縦サイズ,迷路横サイズ,ゴール座標,迷路情報(16進数)
 680:Src/maze_solve.c ****  * 出力 等高線map,最大経路長
 681:Src/maze_solve.c ****  * Arguments    : const coder_internal_ref_4 *g_direction
 682:Src/maze_solve.c ****  *                const coder_internal_ref_2 *wall
 683:Src/maze_solve.c ****  *                unsigned char maze_row_size
 684:Src/maze_solve.c ****  *                unsigned char maze_col_size
 685:Src/maze_solve.c ****  *                const unsigned char maze_goal[18]
 686:Src/maze_solve.c ****  *                unsigned char l_goal_size
 687:Src/maze_solve.c ****  *                const unsigned char maze_wall[1024]
 688:Src/maze_solve.c ****  *                unsigned char contour_map[1024]
 689:Src/maze_solve.c ****  *                unsigned char *max_length
 690:Src/maze_solve.c ****  * Return Type  : void
 691:Src/maze_solve.c ****  */
 692:Src/maze_solve.c **** static void make_map_find(const coder_internal_ref_4 *g_direction, const
 693:Src/maze_solve.c ****   coder_internal_ref_2 *wall, unsigned char maze_row_size, unsigned char
 694:Src/maze_solve.c ****   maze_col_size, const unsigned char maze_goal[18], unsigned char l_goal_size,
 695:Src/maze_solve.c ****   const unsigned char maze_wall[1024], unsigned char contour_map[1024], unsigned
 696:Src/maze_solve.c ****   char *max_length)
 697:Src/maze_solve.c **** {
 698:Src/maze_solve.c ****   unsigned int qY;
 699:Src/maze_solve.c ****   unsigned int b_qY;
 700:Src/maze_solve.c ****   int q0;
 701:Src/maze_solve.c ****   int i2;
 702:Src/maze_solve.c ****   unsigned char change_flag;
 703:Src/maze_solve.c ****   unsigned char tempi;
 704:Src/maze_solve.c ****   bool exitg1;
 705:Src/maze_solve.c ****   int idx;
 706:Src/maze_solve.c ****   bool exitg2;
ARM GAS  C:\Temp\ccSQM2w2.s 			page 39


 707:Src/maze_solve.c ****   int loop_ub;
 708:Src/maze_solve.c ****   static short ii_data[1024];
 709:Src/maze_solve.c ****   int num_temp_size[1];
 710:Src/maze_solve.c ****   static unsigned short num_temp_data[1024];
 711:Src/maze_solve.c ****   int b_num_temp_size[1];
 712:Src/maze_solve.c ****   static unsigned short b_num_temp_data[1024];
 713:Src/maze_solve.c ****   unsigned short tmp_data[1024];
 714:Src/maze_solve.c ****   int tmp_size[1];
 715:Src/maze_solve.c ****   unsigned short u0;
 716:Src/maze_solve.c ****   unsigned char row_data[1024];
 717:Src/maze_solve.c ****   unsigned char col_data[1024];
 718:Src/maze_solve.c ****   unsigned char k;
 719:Src/maze_solve.c ****   int i3;
 720:Src/maze_solve.c ****   int b_k;
 721:Src/maze_solve.c ****   int i4;
 722:Src/maze_solve.c ****   int i5;
 723:Src/maze_solve.c ****   int c_k;
 724:Src/maze_solve.c ****   int d_k;
 725:Src/maze_solve.c ****   int e_k;
 726:Src/maze_solve.c **** 
 727:Src/maze_solve.c ****   /*   make_map_find 壁情報から等高線MAPを生成 */
 728:Src/maze_solve.c ****   /*  迷路パラメータ設定 */
 729:Src/maze_solve.c ****   qY = maze_col_size - 1U;
 730:Src/maze_solve.c ****   if (qY > maze_col_size) {
 731:Src/maze_solve.c ****     qY = 0U;
 732:Src/maze_solve.c ****   }
 733:Src/maze_solve.c **** 
 734:Src/maze_solve.c ****   b_qY = maze_row_size - 1U;
 735:Src/maze_solve.c ****   if (b_qY > maze_row_size) {
 736:Src/maze_solve.c ****     b_qY = 0U;
 737:Src/maze_solve.c ****   }
 738:Src/maze_solve.c **** 
 739:Src/maze_solve.c ****   q0 = (int)(qY * b_qY);
 740:Src/maze_solve.c ****   if ((unsigned int)q0 > 255U) {
 741:Src/maze_solve.c ****     q0 = 255;
 742:Src/maze_solve.c ****   }
 743:Src/maze_solve.c **** 
 744:Src/maze_solve.c ****   qY = q0 ;
 745:Src/maze_solve.c ****   if (qY > (unsigned int)q0) {
 746:Src/maze_solve.c ****     qY = 0U;
 747:Src/maze_solve.c ****   }
 748:Src/maze_solve.c **** 
 749:Src/maze_solve.c ****   *max_length = (unsigned char)qY;
 750:Src/maze_solve.c **** 
 751:Src/maze_solve.c ****   /* MAPの初期化(すべての要素にmax_lengthを入力) */
 752:Src/maze_solve.c ****   /* 32マス分mapを保持 */
 753:Src/maze_solve.c ****   for (i2 = 0; i2 < 1024; i2++) {
 754:Src/maze_solve.c ****     contour_map[i2] = (unsigned char)qY;
 755:Src/maze_solve.c ****   }
 756:Src/maze_solve.c **** 
 757:Src/maze_solve.c ****   /* ゴール座標に0を入力 */
 758:Src/maze_solve.c ****   i2 = l_goal_size;
 759:Src/maze_solve.c ****   for (q0 = 0; q0 < i2; q0++) {
 760:Src/maze_solve.c ****     contour_map[(maze_goal[q0 + 9] + ((maze_goal[q0] - 1) << 5)) - 1] = 0U;
 761:Src/maze_solve.c ****   }
 762:Src/maze_solve.c **** 
 763:Src/maze_solve.c ****   do {
ARM GAS  C:\Temp\ccSQM2w2.s 			page 40


 764:Src/maze_solve.c ****     change_flag = 0U;
 765:Src/maze_solve.c **** 
 766:Src/maze_solve.c ****     /* map更新確認用フラグ */
 767:Src/maze_solve.c ****     tempi = 0U;
 768:Src/maze_solve.c ****     exitg1 = false;
 769:Src/maze_solve.c ****     while ((!exitg1) && (tempi <= (unsigned char)(qY - 1))) {
 770:Src/maze_solve.c ****       /* 歩数カウントは0~max_length-1 */
 771:Src/maze_solve.c ****       /* 歩数が確定している座標を検索 */
 772:Src/maze_solve.c ****       /* 最初は0,更新され、増加したマスを次々検索していく */
 773:Src/maze_solve.c ****       idx = 0;
 774:Src/maze_solve.c ****       q0 = 0;
 775:Src/maze_solve.c ****       exitg2 = false;
 776:Src/maze_solve.c ****       while ((!exitg2) && (q0 < 1024)) {
 777:Src/maze_solve.c ****         if (contour_map[q0] == tempi) {
 778:Src/maze_solve.c ****           idx++;
 779:Src/maze_solve.c ****           ii_data[idx - 1] = (short)(q0 + 1);
 780:Src/maze_solve.c ****           if (idx >= 1024) {
 781:Src/maze_solve.c ****             exitg2 = true;
 782:Src/maze_solve.c ****           } else {
 783:Src/maze_solve.c ****             q0++;
 784:Src/maze_solve.c ****           }
 785:Src/maze_solve.c ****         } else {
 786:Src/maze_solve.c ****           q0++;
 787:Src/maze_solve.c ****         }
 788:Src/maze_solve.c ****       }
 789:Src/maze_solve.c **** 
 790:Src/maze_solve.c ****       if (1 > idx) {
 791:Src/maze_solve.c ****         loop_ub = 0;
 792:Src/maze_solve.c ****         q0 = 0;
 793:Src/maze_solve.c ****       } else {
 794:Src/maze_solve.c ****         loop_ub = idx;
 795:Src/maze_solve.c ****         q0 = idx;
 796:Src/maze_solve.c ****       }
 797:Src/maze_solve.c **** 
 798:Src/maze_solve.c ****       num_temp_size[0] = loop_ub;
 799:Src/maze_solve.c ****       for (i2 = 0; i2 < loop_ub; i2++) {
 800:Src/maze_solve.c ****         num_temp_data[i2] = (unsigned short)ii_data[i2];
 801:Src/maze_solve.c ****       }
 802:Src/maze_solve.c **** 
 803:Src/maze_solve.c ****       /* 32行なので、行番号:32で割ったあまり */
 804:Src/maze_solve.c ****       b_num_temp_size[0] = q0;
 805:Src/maze_solve.c ****       for (i2 = 0; i2 < q0; i2++) {
 806:Src/maze_solve.c ****         b_num_temp_data[i2] = (unsigned short)(num_temp_data[i2] - 1U);
 807:Src/maze_solve.c ****       }
 808:Src/maze_solve.c **** 
 809:Src/maze_solve.c ****       b_rem(b_num_temp_data, b_num_temp_size, tmp_data, tmp_size);
 810:Src/maze_solve.c ****       idx = tmp_size[0];
 811:Src/maze_solve.c ****       loop_ub = tmp_size[0];
 812:Src/maze_solve.c ****       for (i2 = 0; i2 < loop_ub; i2++) {
 813:Src/maze_solve.c ****         b_qY = tmp_data[i2] + 1U;
 814:Src/maze_solve.c ****         if (b_qY > 65535U) {
 815:Src/maze_solve.c ****           b_qY = 65535U;
 816:Src/maze_solve.c ****         }
 817:Src/maze_solve.c **** 
 818:Src/maze_solve.c ****         u0 = (unsigned short)b_qY;
 819:Src/maze_solve.c ****         if ((unsigned short)b_qY > 255) {
 820:Src/maze_solve.c ****           u0 = 255U;
ARM GAS  C:\Temp\ccSQM2w2.s 			page 41


 821:Src/maze_solve.c ****         }
 822:Src/maze_solve.c **** 
 823:Src/maze_solve.c ****         row_data[i2] = (unsigned char)u0;
 824:Src/maze_solve.c ****       }
 825:Src/maze_solve.c **** 
 826:Src/maze_solve.c ****       /* 列番号:32で割ったときの商 */
 827:Src/maze_solve.c ****       for (i2 = 0; i2 < q0; i2++) {
 828:Src/maze_solve.c ****         num_temp_data[i2]--;
 829:Src/maze_solve.c ****       }
 830:Src/maze_solve.c **** 
 831:Src/maze_solve.c ****       idivide(num_temp_data, num_temp_size, tmp_data, tmp_size);
 832:Src/maze_solve.c ****       loop_ub = tmp_size[0];
 833:Src/maze_solve.c ****       for (i2 = 0; i2 < loop_ub; i2++) {
 834:Src/maze_solve.c ****         b_qY = tmp_data[i2] + 1U;
 835:Src/maze_solve.c ****         if (b_qY > 65535U) {
 836:Src/maze_solve.c ****           b_qY = 65535U;
 837:Src/maze_solve.c ****         }
 838:Src/maze_solve.c **** 
 839:Src/maze_solve.c ****         u0 = (unsigned short)b_qY;
 840:Src/maze_solve.c ****         if ((unsigned short)b_qY > 255) {
 841:Src/maze_solve.c ****           u0 = 255U;
 842:Src/maze_solve.c ****         }
 843:Src/maze_solve.c **** 
 844:Src/maze_solve.c ****         col_data[i2] = (unsigned char)u0;
 845:Src/maze_solve.c ****       }
 846:Src/maze_solve.c **** 
 847:Src/maze_solve.c ****       /* 見つかったマスの数 */
 848:Src/maze_solve.c ****       if (idx < 0) {
 849:Src/maze_solve.c ****         idx = 0;
 850:Src/maze_solve.c ****       } else {
 851:Src/maze_solve.c ****         if (idx > 255) {
 852:Src/maze_solve.c ****           idx = 255;
 853:Src/maze_solve.c ****         }
 854:Src/maze_solve.c ****       }
 855:Src/maze_solve.c **** 
 856:Src/maze_solve.c ****       /* 更新マスが見つからなければ終了 */
 857:Src/maze_solve.c ****       if ((unsigned char)idx == 0) {
 858:Src/maze_solve.c ****         exitg1 = true;
 859:Src/maze_solve.c ****       } else {
 860:Src/maze_solve.c ****         /* 検索した座標に対し、歩数mapを更新 */
 861:Src/maze_solve.c ****         i2 = (unsigned char)idx;
 862:Src/maze_solve.c ****         for (q0 = 0; q0 < i2; q0++) {
 863:Src/maze_solve.c ****           /* 北側 */
 864:Src/maze_solve.c ****           k = g_direction->contents.North;
 865:Src/maze_solve.c ****           idx = (col_data[q0] - 1) << 5;
 866:Src/maze_solve.c ****           loop_ub = row_data[q0] + idx;
 867:Src/maze_solve.c ****           i3 = maze_wall[loop_ub - 1];
 868:Src/maze_solve.c ****           if (k <= 7) {
 869:Src/maze_solve.c ****             b_k = (unsigned char)(1 << k);
 870:Src/maze_solve.c ****           } else {
 871:Src/maze_solve.c ****             b_k = 0;
 872:Src/maze_solve.c ****           }
 873:Src/maze_solve.c **** 
 874:Src/maze_solve.c ****           if ((i3 & b_k) == wall->contents.nowall) {
 875:Src/maze_solve.c ****             /* 北側のMAPが更新されているか判断、されていなければ書き込み
 876:Src/maze_solve.c ****             i4 = (int)(row_data[q0] + 1U);
 877:Src/maze_solve.c ****             i5 = i4;
ARM GAS  C:\Temp\ccSQM2w2.s 			page 42


 878:Src/maze_solve.c ****             if ((unsigned int)i4 > 255U) {
 879:Src/maze_solve.c ****               i5 = 255;
 880:Src/maze_solve.c ****             }
 881:Src/maze_solve.c **** 
 882:Src/maze_solve.c ****             if (contour_map[(i5 + idx) - 1] == (unsigned char)qY) {
 883:Src/maze_solve.c ****               if ((unsigned int)i4 > 255U) {
 884:Src/maze_solve.c ****                 i4 = 255;
 885:Src/maze_solve.c ****               }
 886:Src/maze_solve.c **** 
 887:Src/maze_solve.c ****               contour_map[(i4 + idx) - 1] = (unsigned char)(tempi + 1);
 888:Src/maze_solve.c ****               change_flag = 1U;
 889:Src/maze_solve.c ****             }
 890:Src/maze_solve.c ****           }
 891:Src/maze_solve.c **** 
 892:Src/maze_solve.c ****           /* 東側 */
 893:Src/maze_solve.c ****           k = g_direction->contents.East;
 894:Src/maze_solve.c ****           if (k <= 7) {
 895:Src/maze_solve.c ****             c_k = (unsigned char)(1 << k);
 896:Src/maze_solve.c ****           } else {
 897:Src/maze_solve.c ****             c_k = 0;
 898:Src/maze_solve.c ****           }
 899:Src/maze_solve.c **** 
 900:Src/maze_solve.c ****           if ((i3 & c_k) == wall->contents.nowall) {
 901:Src/maze_solve.c ****             /* 東側のMAPが更新されているか判断、されていなければ書き込み
 902:Src/maze_solve.c ****             idx = (int)(col_data[q0] + 1U);
 903:Src/maze_solve.c ****             i4 = idx;
 904:Src/maze_solve.c ****             if ((unsigned int)idx > 255U) {
 905:Src/maze_solve.c ****               i4 = 255;
 906:Src/maze_solve.c ****             }
 907:Src/maze_solve.c **** 
 908:Src/maze_solve.c ****             if (contour_map[(row_data[q0] + ((i4 - 1) << 5)) - 1] == (unsigned
 909:Src/maze_solve.c ****                  char)qY) {
 910:Src/maze_solve.c ****               if ((unsigned int)idx > 255U) {
 911:Src/maze_solve.c ****                 idx = 255;
 912:Src/maze_solve.c ****               }
 913:Src/maze_solve.c **** 
 914:Src/maze_solve.c ****               contour_map[(row_data[q0] + ((idx - 1) << 5)) - 1] = (unsigned
 915:Src/maze_solve.c ****                 char)(tempi + 1);
 916:Src/maze_solve.c ****               change_flag = 1U;
 917:Src/maze_solve.c ****             }
 918:Src/maze_solve.c ****           }
 919:Src/maze_solve.c **** 
 920:Src/maze_solve.c ****           /* 南側 */
 921:Src/maze_solve.c ****           k = g_direction->contents.South;
 922:Src/maze_solve.c ****           if (k <= 7) {
 923:Src/maze_solve.c ****             d_k = (unsigned char)(1 << k);
 924:Src/maze_solve.c ****           } else {
 925:Src/maze_solve.c ****             d_k = 0;
 926:Src/maze_solve.c ****           }
 927:Src/maze_solve.c **** 
 928:Src/maze_solve.c ****           if ((i3 & d_k) == wall->contents.nowall) {
 929:Src/maze_solve.c ****             /* 南側のMAPが更新されているか判断、されていなければ書き込み
 930:Src/maze_solve.c ****             idx = loop_ub - 2;
 931:Src/maze_solve.c ****             if (contour_map[idx] == (unsigned char)qY) {
 932:Src/maze_solve.c ****               contour_map[idx] = (unsigned char)(tempi + 1);
 933:Src/maze_solve.c ****               change_flag = 1U;
 934:Src/maze_solve.c ****             }
ARM GAS  C:\Temp\ccSQM2w2.s 			page 43


 935:Src/maze_solve.c ****           }
 936:Src/maze_solve.c **** 
 937:Src/maze_solve.c ****           /* 西側 */
 938:Src/maze_solve.c ****           k = g_direction->contents.West;
 939:Src/maze_solve.c ****           if (k <= 7) {
 940:Src/maze_solve.c ****             e_k = (unsigned char)(1 << k);
 941:Src/maze_solve.c ****           } else {
 942:Src/maze_solve.c ****             e_k = 0;
 943:Src/maze_solve.c ****           }
 944:Src/maze_solve.c **** 
 945:Src/maze_solve.c ****           if ((i3 & e_k) == wall->contents.nowall) {
 946:Src/maze_solve.c ****             /* 西側のMAPが更新されているか判断、されていなければ書き込み
 947:Src/maze_solve.c ****             idx = (row_data[q0] + ((col_data[q0] - 2) << 5)) - 1;
 948:Src/maze_solve.c ****             if (contour_map[idx] == (unsigned char)qY) {
 949:Src/maze_solve.c ****               contour_map[idx] = (unsigned char)(tempi + 1);
 950:Src/maze_solve.c ****               change_flag = 1U;
 951:Src/maze_solve.c ****             }
 952:Src/maze_solve.c ****           }
 953:Src/maze_solve.c ****         }
 954:Src/maze_solve.c **** 
 955:Src/maze_solve.c ****         tempi++;
 956:Src/maze_solve.c ****       }
 957:Src/maze_solve.c ****     }
 958:Src/maze_solve.c **** 
 959:Src/maze_solve.c ****     /* 更新がなければ終了     */
 960:Src/maze_solve.c ****   } while (!(change_flag == 0));
 961:Src/maze_solve.c **** }
 962:Src/maze_solve.c **** 
 963:Src/maze_solve.c **** /*
 964:Src/maze_solve.c ****  * 未知壁の領域は仮想壁をおいて侵入しない。
 965:Src/maze_solve.c ****  * 入力 迷路縦サイズ,迷路横サイズ,ゴール座標,迷路情報(16進数),迷路探索
 966:Src/maze_solve.c ****  * 出力 等高線map,最大経路長
 967:Src/maze_solve.c ****  * Arguments    : const coder_internal_ref *goal_size
 968:Src/maze_solve.c ****  *                const coder_internal_ref_4 *g_direction
 969:Src/maze_solve.c ****  *                const coder_internal_ref_2 *wall
 970:Src/maze_solve.c ****  *                const coder_internal_ref_1 *search
 971:Src/maze_solve.c ****  *                unsigned char maze_row_size
 972:Src/maze_solve.c ****  *                unsigned char maze_col_size
 973:Src/maze_solve.c ****  *                const unsigned char maze_goal[18]
 974:Src/maze_solve.c ****  *                const unsigned char maze_wall[1024]
 975:Src/maze_solve.c ****  *                const unsigned char maze_wall_search[1024]
 976:Src/maze_solve.c ****  *                unsigned char contour_map[1024]
 977:Src/maze_solve.c ****  *                unsigned char *max_length
 978:Src/maze_solve.c ****  * Return Type  : void
 979:Src/maze_solve.c ****  */
 980:Src/maze_solve.c **** static void make_map_fustrun(const coder_internal_ref *goal_size, const
 981:Src/maze_solve.c ****   coder_internal_ref_4 *g_direction, const coder_internal_ref_2 *wall, const
 982:Src/maze_solve.c ****   coder_internal_ref_1 *search, unsigned char maze_row_size, unsigned char
 983:Src/maze_solve.c ****   maze_col_size, const unsigned char maze_goal[18], const unsigned char
 984:Src/maze_solve.c ****   maze_wall[1024], const unsigned char maze_wall_search[1024], unsigned char
 985:Src/maze_solve.c ****   contour_map[1024], unsigned char *max_length)
 986:Src/maze_solve.c **** {
 987:Src/maze_solve.c ****   unsigned int qY;
 988:Src/maze_solve.c ****   unsigned int b_qY;
 989:Src/maze_solve.c ****   int q0;
 990:Src/maze_solve.c ****   int i6;
 991:Src/maze_solve.c ****   unsigned char change_flag;
ARM GAS  C:\Temp\ccSQM2w2.s 			page 44


 992:Src/maze_solve.c ****   unsigned char tempi;
 993:Src/maze_solve.c ****   int idx;
 994:Src/maze_solve.c ****   bool exitg1;
 995:Src/maze_solve.c ****   int loop_ub;
 996:Src/maze_solve.c ****   static short ii_data[1024];
 997:Src/maze_solve.c ****   int num_temp_size[1];
 998:Src/maze_solve.c ****   static unsigned short num_temp_data[1024];
 999:Src/maze_solve.c ****   int b_num_temp_size[1];
1000:Src/maze_solve.c ****   unsigned short b_num_temp_data[1024];
1001:Src/maze_solve.c ****   unsigned short tmp_data[1024];
1002:Src/maze_solve.c ****   int tmp_size[1];
1003:Src/maze_solve.c ****   unsigned short u1;
1004:Src/maze_solve.c ****   unsigned char row_data[1024];
1005:Src/maze_solve.c ****   unsigned char k;
1006:Src/maze_solve.c ****   unsigned char col_data[1024];
1007:Src/maze_solve.c ****   int i7;
1008:Src/maze_solve.c ****   int b_k;
1009:Src/maze_solve.c ****   int c_k;
1010:Src/maze_solve.c ****   int d_k;
1011:Src/maze_solve.c ****   int i8;
1012:Src/maze_solve.c ****   int e_k;
1013:Src/maze_solve.c ****   int f_k;
1014:Src/maze_solve.c ****   int g_k;
1015:Src/maze_solve.c ****   int h_k;
1016:Src/maze_solve.c ****   int i_k;
1017:Src/maze_solve.c **** 
1018:Src/maze_solve.c ****   /*  make_map_fustrun 最短走行用等高線MAPを生成 */
1019:Src/maze_solve.c ****   /* ローカル変数設定 */
1020:Src/maze_solve.c ****   /*  迷路パラメータ設定 */
1021:Src/maze_solve.c ****   qY = maze_col_size - 1U;
1022:Src/maze_solve.c ****   if (qY > maze_col_size) {
1023:Src/maze_solve.c ****     qY = 0U;
1024:Src/maze_solve.c ****   }
1025:Src/maze_solve.c **** 
1026:Src/maze_solve.c ****   b_qY = maze_row_size - 1U;
1027:Src/maze_solve.c ****   if (b_qY > maze_row_size) {
1028:Src/maze_solve.c ****     b_qY = 0U;
1029:Src/maze_solve.c ****   }
1030:Src/maze_solve.c **** 
1031:Src/maze_solve.c ****   q0 = (int)(qY * b_qY);
1032:Src/maze_solve.c ****   if ((unsigned int)q0 > 255U) {
1033:Src/maze_solve.c ****     q0 = 255;
1034:Src/maze_solve.c ****   }
1035:Src/maze_solve.c **** 
1036:Src/maze_solve.c ****   qY = q0 - 1U;
1037:Src/maze_solve.c ****   if (qY > (unsigned int)q0) {
1038:Src/maze_solve.c ****     qY = 0U;
1039:Src/maze_solve.c ****   }
1040:Src/maze_solve.c **** 
1041:Src/maze_solve.c ****   *max_length = (unsigned char)qY;
1042:Src/maze_solve.c **** 
1043:Src/maze_solve.c ****   /* MAPの初期化(すべての要素にmax_lengthを入力) */
1044:Src/maze_solve.c ****   /* MAPの初期化(すべての要素にmax_lengthを入力) */
1045:Src/maze_solve.c ****   /* 32マス分mapを保持 */
1046:Src/maze_solve.c ****   for (i6 = 0; i6 < 1024; i6++) {
1047:Src/maze_solve.c ****     contour_map[i6] = (unsigned char)qY;
1048:Src/maze_solve.c ****   }
ARM GAS  C:\Temp\ccSQM2w2.s 			page 45


1049:Src/maze_solve.c **** 
1050:Src/maze_solve.c ****   /* ゴール座標に0を入力 */
1051:Src/maze_solve.c ****   change_flag = goal_size->contents;
1052:Src/maze_solve.c ****   i6 = change_flag;
1053:Src/maze_solve.c ****   for (q0 = 0; q0 < i6; q0++) {
1054:Src/maze_solve.c ****     contour_map[(maze_goal[q0 + 9] + ((maze_goal[q0] - 1) << 5)) - 1] = 0U;
1055:Src/maze_solve.c ****   }
1056:Src/maze_solve.c **** 
1057:Src/maze_solve.c ****   do {
1058:Src/maze_solve.c ****     change_flag = 0U;
1059:Src/maze_solve.c **** 
1060:Src/maze_solve.c ****     /* map更新確認用フラグ */
1061:Src/maze_solve.c ****     for (tempi = 0; tempi <= *max_length; tempi++) {
1062:Src/maze_solve.c ****       /* 歩数カウントは0~max_length */
1063:Src/maze_solve.c ****       /* 歩数が確定している座標を検索 */
1064:Src/maze_solve.c ****       /* 最初は0,更新され、増加したマスを次々検索していく */
1065:Src/maze_solve.c ****       idx = 0;
1066:Src/maze_solve.c ****       q0 = 0;
1067:Src/maze_solve.c ****       exitg1 = false;
1068:Src/maze_solve.c ****       while ((!exitg1) && (q0 < 1024)) {
1069:Src/maze_solve.c ****         if (contour_map[q0] == tempi) {
1070:Src/maze_solve.c ****           idx++;
1071:Src/maze_solve.c ****           ii_data[idx - 1] = (short)(q0 + 1);
1072:Src/maze_solve.c ****           if (idx >= 1024) {
1073:Src/maze_solve.c ****             exitg1 = true;
1074:Src/maze_solve.c ****           } else {
1075:Src/maze_solve.c ****             q0++;
1076:Src/maze_solve.c ****           }
1077:Src/maze_solve.c ****         } else {
1078:Src/maze_solve.c ****           q0++;
1079:Src/maze_solve.c ****         }
1080:Src/maze_solve.c ****       }
1081:Src/maze_solve.c **** 
1082:Src/maze_solve.c ****       if (1 > idx) {
1083:Src/maze_solve.c ****         loop_ub = 0;
1084:Src/maze_solve.c ****         q0 = 0;
1085:Src/maze_solve.c ****       } else {
1086:Src/maze_solve.c ****         loop_ub = idx;
1087:Src/maze_solve.c ****         q0 = idx;
1088:Src/maze_solve.c ****       }
1089:Src/maze_solve.c **** 
1090:Src/maze_solve.c ****       num_temp_size[0] = loop_ub;
1091:Src/maze_solve.c ****       for (i6 = 0; i6 < loop_ub; i6++) {
1092:Src/maze_solve.c ****         num_temp_data[i6] = (unsigned short)ii_data[i6];
1093:Src/maze_solve.c ****       }
1094:Src/maze_solve.c **** 
1095:Src/maze_solve.c ****       /* 32行なので、行番号:32で割ったあまり */
1096:Src/maze_solve.c ****       b_num_temp_size[0] = q0;
1097:Src/maze_solve.c ****       for (i6 = 0; i6 < q0; i6++) {
1098:Src/maze_solve.c ****         b_num_temp_data[i6] = (unsigned short)(num_temp_data[i6] - 1U);
1099:Src/maze_solve.c ****       }
1100:Src/maze_solve.c **** 
1101:Src/maze_solve.c ****       b_rem(b_num_temp_data, b_num_temp_size, tmp_data, tmp_size);
1102:Src/maze_solve.c ****       loop_ub = tmp_size[0];
1103:Src/maze_solve.c ****       for (i6 = 0; i6 < loop_ub; i6++) {
1104:Src/maze_solve.c ****         b_qY = tmp_data[i6] + 1U;
1105:Src/maze_solve.c ****         if (b_qY > 65535U) {
ARM GAS  C:\Temp\ccSQM2w2.s 			page 46


1106:Src/maze_solve.c ****           b_qY = 65535U;
1107:Src/maze_solve.c ****         }
1108:Src/maze_solve.c **** 
1109:Src/maze_solve.c ****         u1 = (unsigned short)b_qY;
1110:Src/maze_solve.c ****         if ((unsigned short)b_qY > 255) {
1111:Src/maze_solve.c ****           u1 = 255U;
1112:Src/maze_solve.c ****         }
1113:Src/maze_solve.c **** 
1114:Src/maze_solve.c ****         row_data[i6] = (unsigned char)u1;
1115:Src/maze_solve.c ****       }
1116:Src/maze_solve.c **** 
1117:Src/maze_solve.c ****       /* 列番号:32で割ったときの商 */
1118:Src/maze_solve.c ****       for (i6 = 0; i6 < q0; i6++) {
1119:Src/maze_solve.c ****         num_temp_data[i6]--;
1120:Src/maze_solve.c ****       }
1121:Src/maze_solve.c **** 
1122:Src/maze_solve.c ****       idivide(num_temp_data, num_temp_size, tmp_data, tmp_size);
1123:Src/maze_solve.c ****       q0 = tmp_size[0];
1124:Src/maze_solve.c ****       for (i6 = 0; i6 < q0; i6++) {
1125:Src/maze_solve.c ****         b_qY = tmp_data[i6] + 1U;
1126:Src/maze_solve.c ****         if (b_qY > 65535U) {
1127:Src/maze_solve.c ****           b_qY = 65535U;
1128:Src/maze_solve.c ****         }
1129:Src/maze_solve.c **** 
1130:Src/maze_solve.c ****         u1 = (unsigned short)b_qY;
1131:Src/maze_solve.c ****         if ((unsigned short)b_qY > 255) {
1132:Src/maze_solve.c ****           u1 = 255U;
1133:Src/maze_solve.c ****         }
1134:Src/maze_solve.c **** 
1135:Src/maze_solve.c ****         col_data[i6] = (unsigned char)u1;
1136:Src/maze_solve.c ****       }
1137:Src/maze_solve.c **** 
1138:Src/maze_solve.c ****       /* 見つかったマスの数 */
1139:Src/maze_solve.c ****       /* 検索した座標に対し、歩数mapを更新 */
1140:Src/maze_solve.c ****       for (q0 = 0; q0 < loop_ub; q0++) {
1141:Src/maze_solve.c ****         /* 北側 */
1142:Src/maze_solve.c ****         /* 壁が無い & 探索済みであるとき */
1143:Src/maze_solve.c ****         k = g_direction->contents.North;
1144:Src/maze_solve.c ****         i6 = (unsigned short)(1 + q0) - 1;
1145:Src/maze_solve.c ****         idx = (col_data[i6] - 1) << 5;
1146:Src/maze_solve.c ****         i6 = row_data[i6] + idx;
1147:Src/maze_solve.c ****         i7 = i6 - 1;
1148:Src/maze_solve.c ****         if (k <= 7) {
1149:Src/maze_solve.c ****           b_k = (unsigned char)(1 << k);
1150:Src/maze_solve.c ****         } else {
1151:Src/maze_solve.c ****           b_k = 0;
1152:Src/maze_solve.c ****         }
1153:Src/maze_solve.c **** 
1154:Src/maze_solve.c ****         if (((maze_wall[i7] & b_k) != 0) == wall->contents.nowall) {
1155:Src/maze_solve.c ****           k = g_direction->contents.North;
1156:Src/maze_solve.c ****           if (k <= 7) {
1157:Src/maze_solve.c ****             c_k = (unsigned char)(1 << k);
1158:Src/maze_solve.c ****           } else {
1159:Src/maze_solve.c ****             c_k = 0;
1160:Src/maze_solve.c ****           }
1161:Src/maze_solve.c **** 
1162:Src/maze_solve.c ****           if (((maze_wall_search[i7] & c_k) != 0) == search->contents.known) {
ARM GAS  C:\Temp\ccSQM2w2.s 			page 47


1163:Src/maze_solve.c ****             /* 北側のMAPが更新されているか判断、されていなければ書き込み
1164:Src/maze_solve.c ****             i7 = (int)(row_data[(unsigned short)(1 + q0) - 1] + 1U);
1165:Src/maze_solve.c ****             i8 = i7;
1166:Src/maze_solve.c ****             if ((unsigned int)i7 > 255U) {
1167:Src/maze_solve.c ****               i8 = 255;
1168:Src/maze_solve.c ****             }
1169:Src/maze_solve.c **** 
1170:Src/maze_solve.c ****             if (contour_map[(i8 + idx) - 1] == (unsigned char)qY) {
1171:Src/maze_solve.c ****               if ((unsigned int)i7 > 255U) {
1172:Src/maze_solve.c ****                 i7 = 255;
1173:Src/maze_solve.c ****               }
1174:Src/maze_solve.c **** 
1175:Src/maze_solve.c ****               contour_map[(i7 + idx) - 1] = (unsigned char)(tempi + 1);
1176:Src/maze_solve.c ****               change_flag = 1U;
1177:Src/maze_solve.c ****             }
1178:Src/maze_solve.c ****           }
1179:Src/maze_solve.c ****         }
1180:Src/maze_solve.c **** 
1181:Src/maze_solve.c ****         /* 東側 */
1182:Src/maze_solve.c ****         k = g_direction->contents.East;
1183:Src/maze_solve.c ****         if (k <= 7) {
1184:Src/maze_solve.c ****           d_k = (unsigned char)(1 << k);
1185:Src/maze_solve.c ****         } else {
1186:Src/maze_solve.c ****           d_k = 0;
1187:Src/maze_solve.c ****         }
1188:Src/maze_solve.c **** 
1189:Src/maze_solve.c ****         if (((maze_wall[(row_data[(unsigned short)(1 + q0) - 1] + ((col_data
1190:Src/maze_solve.c ****                  [(unsigned short)(1 + q0) - 1] - 1) << 5)) - 1] & d_k) != 0) ==
1191:Src/maze_solve.c ****             wall->contents.nowall) {
1192:Src/maze_solve.c ****           k = g_direction->contents.East;
1193:Src/maze_solve.c ****           if (k <= 7) {
1194:Src/maze_solve.c ****             e_k = (unsigned char)(1 << k);
1195:Src/maze_solve.c ****           } else {
1196:Src/maze_solve.c ****             e_k = 0;
1197:Src/maze_solve.c ****           }
1198:Src/maze_solve.c **** 
1199:Src/maze_solve.c ****           if (((maze_wall_search[(row_data[(unsigned short)(1 + q0) - 1] +
1200:Src/maze_solve.c ****                                   ((col_data[(unsigned short)(1 + q0) - 1] - 1) <<
1201:Src/maze_solve.c ****                   5)) - 1] & e_k) != 0) == search->contents.known) {
1202:Src/maze_solve.c ****             /* 東側のMAPが更新されているか判断、されていなければ書き込み
1203:Src/maze_solve.c ****             idx = (int)(col_data[(unsigned short)(1 + q0) - 1] + 1U);
1204:Src/maze_solve.c ****             i7 = idx;
1205:Src/maze_solve.c ****             if ((unsigned int)idx > 255U) {
1206:Src/maze_solve.c ****               i7 = 255;
1207:Src/maze_solve.c ****             }
1208:Src/maze_solve.c **** 
1209:Src/maze_solve.c ****             if (contour_map[(row_data[(unsigned short)(1 + q0) - 1] + ((i7 - 1) <<
1210:Src/maze_solve.c ****                   5)) - 1] == (unsigned char)qY) {
1211:Src/maze_solve.c ****               if ((unsigned int)idx > 255U) {
1212:Src/maze_solve.c ****                 idx = 255;
1213:Src/maze_solve.c ****               }
1214:Src/maze_solve.c **** 
1215:Src/maze_solve.c ****               contour_map[(row_data[(unsigned short)(1 + q0) - 1] + ((idx - 1) <<
1216:Src/maze_solve.c ****                 5)) - 1] = (unsigned char)(tempi + 1);
1217:Src/maze_solve.c ****               change_flag = 1U;
1218:Src/maze_solve.c ****             }
1219:Src/maze_solve.c ****           }
ARM GAS  C:\Temp\ccSQM2w2.s 			page 48


1220:Src/maze_solve.c ****         }
1221:Src/maze_solve.c **** 
1222:Src/maze_solve.c ****         /* 南側 */
1223:Src/maze_solve.c ****         k = g_direction->contents.South;
1224:Src/maze_solve.c ****         if (k <= 7) {
1225:Src/maze_solve.c ****           f_k = (unsigned char)(1 << k);
1226:Src/maze_solve.c ****         } else {
1227:Src/maze_solve.c ****           f_k = 0;
1228:Src/maze_solve.c ****         }
1229:Src/maze_solve.c **** 
1230:Src/maze_solve.c ****         if (((maze_wall[(row_data[(unsigned short)(1 + q0) - 1] + ((col_data
1231:Src/maze_solve.c ****                  [(unsigned short)(1 + q0) - 1] - 1) << 5)) - 1] & f_k) != 0) ==
1232:Src/maze_solve.c ****             wall->contents.nowall) {
1233:Src/maze_solve.c ****           k = g_direction->contents.South;
1234:Src/maze_solve.c ****           if (k <= 7) {
1235:Src/maze_solve.c ****             g_k = (unsigned char)(1 << k);
1236:Src/maze_solve.c ****           } else {
1237:Src/maze_solve.c ****             g_k = 0;
1238:Src/maze_solve.c ****           }
1239:Src/maze_solve.c **** 
1240:Src/maze_solve.c ****           if (((maze_wall_search[(row_data[(unsigned short)(1 + q0) - 1] +
1241:Src/maze_solve.c ****                                   ((col_data[(unsigned short)(1 + q0) - 1] - 1) <<
1242:Src/maze_solve.c ****                   5)) - 1] & g_k) != 0) == search->contents.known) {
1243:Src/maze_solve.c ****             /* 南側のMAPが更新されているか判断、されていなければ書き込み
1244:Src/maze_solve.c ****             i6 -= 2;
1245:Src/maze_solve.c ****             if (contour_map[i6] == (unsigned char)qY) {
1246:Src/maze_solve.c ****               contour_map[i6] = (unsigned char)(tempi + 1);
1247:Src/maze_solve.c ****               change_flag = 1U;
1248:Src/maze_solve.c ****             }
1249:Src/maze_solve.c ****           }
1250:Src/maze_solve.c ****         }
1251:Src/maze_solve.c **** 
1252:Src/maze_solve.c ****         /* 西側 */
1253:Src/maze_solve.c ****         k = g_direction->contents.West;
1254:Src/maze_solve.c ****         if (k <= 7) {
1255:Src/maze_solve.c ****           h_k = (unsigned char)(1 << k);
1256:Src/maze_solve.c ****         } else {
1257:Src/maze_solve.c ****           h_k = 0;
1258:Src/maze_solve.c ****         }
1259:Src/maze_solve.c **** 
1260:Src/maze_solve.c ****         if (((maze_wall[(row_data[(unsigned short)(1 + q0) - 1] + ((col_data
1261:Src/maze_solve.c ****                  [(unsigned short)(1 + q0) - 1] - 1) << 5)) - 1] & h_k) != 0) ==
1262:Src/maze_solve.c ****             wall->contents.nowall) {
1263:Src/maze_solve.c ****           k = g_direction->contents.West;
1264:Src/maze_solve.c ****           if (k <= 7) {
1265:Src/maze_solve.c ****             i_k = (unsigned char)(1 << k);
1266:Src/maze_solve.c ****           } else {
1267:Src/maze_solve.c ****             i_k = 0;
1268:Src/maze_solve.c ****           }
1269:Src/maze_solve.c **** 
1270:Src/maze_solve.c ****           if (((maze_wall_search[(row_data[(unsigned short)(1 + q0) - 1] +
1271:Src/maze_solve.c ****                                   ((col_data[(unsigned short)(1 + q0) - 1] - 1) <<
1272:Src/maze_solve.c ****                   5)) - 1] & i_k) != 0) == search->contents.known) {
1273:Src/maze_solve.c ****             /* 西側のMAPが更新されているか判断、されていなければ書き込み
1274:Src/maze_solve.c ****             i6 = (row_data[(unsigned short)(1 + q0) - 1] + ((col_data[(unsigned
1275:Src/maze_solve.c ****                      short)(1 + q0) - 1] - 2) << 5)) - 1;
1276:Src/maze_solve.c ****             if (contour_map[i6] == (unsigned char)qY) {
ARM GAS  C:\Temp\ccSQM2w2.s 			page 49


1277:Src/maze_solve.c ****               contour_map[i6] = (unsigned char)(tempi + 1);
1278:Src/maze_solve.c ****               change_flag = 1U;
1279:Src/maze_solve.c ****             }
1280:Src/maze_solve.c ****           }
1281:Src/maze_solve.c ****         }
1282:Src/maze_solve.c ****       }
1283:Src/maze_solve.c ****     }
1284:Src/maze_solve.c **** 
1285:Src/maze_solve.c ****     /* 更新がなければ終了     */
1286:Src/maze_solve.c ****   } while (!(change_flag == 0));
1287:Src/maze_solve.c **** }
1288:Src/maze_solve.c **** 
1289:Src/maze_solve.c **** /*
1290:Src/maze_solve.c ****  * 入力 現在位置x,y,現在方向
1291:Src/maze_solve.c ****  * 出力 現在位置x,y
1292:Src/maze_solve.c ****  * Arguments    : const coder_internal_ref_4 *g_direction
1293:Src/maze_solve.c ****  *                unsigned char *current_x
1294:Src/maze_solve.c ****  *                unsigned char *current_y
1295:Src/maze_solve.c ****  *                unsigned char current_dir
1296:Src/maze_solve.c ****  * Return Type  : void
1297:Src/maze_solve.c ****  */
1298:Src/maze_solve.c **** static void move_step(const coder_internal_ref_4 *g_direction, unsigned char
1299:Src/maze_solve.c ****                       *current_x, unsigned char *current_y, unsigned char
1300:Src/maze_solve.c ****                       current_dir)
1301:Src/maze_solve.c **** {
 1181              		.loc 1 1301 1 is_stmt 1 view -0
 1182              		.cfi_startproc
 1183              		@ args = 0, pretend = 0, frame = 0
 1184              		@ frame_needed = 0, uses_anonymous_args = 0
 1185              		@ link register save eliminated.
 1186              		.loc 1 1301 1 is_stmt 0 view .LVU463
 1187 0000 30B4     		push	{r4, r5}
 1188              	.LCFI3:
 1189              		.cfi_def_cfa_offset 8
 1190              		.cfi_offset 4, -8
 1191              		.cfi_offset 5, -4
1302:Src/maze_solve.c ****   int q0;
 1192              		.loc 1 1302 3 is_stmt 1 view .LVU464
1303:Src/maze_solve.c ****   unsigned int qY;
 1193              		.loc 1 1303 3 view .LVU465
1304:Src/maze_solve.c **** 
1305:Src/maze_solve.c ****   /*  move_step 一マス前進する関数 */
1306:Src/maze_solve.c ****   /* 北に一マス */
1307:Src/maze_solve.c ****   if (current_dir == g_direction->contents.North) {
 1194              		.loc 1 1307 3 view .LVU466
 1195              		.loc 1 1307 43 is_stmt 0 view .LVU467
 1196 0002 0478     		ldrb	r4, [r0]	@ zero_extendqisi2
 1197              		.loc 1 1307 6 view .LVU468
 1198 0004 9C42     		cmp	r4, r3
 1199 0006 0AD0     		beq	.L137
 1200              	.L124:
1308:Src/maze_solve.c ****     q0 = (int)(*current_y + 1U);
1309:Src/maze_solve.c ****     if ((unsigned int)q0 > 255U) {
1310:Src/maze_solve.c ****       q0 = 255;
1311:Src/maze_solve.c ****     }
1312:Src/maze_solve.c **** 
1313:Src/maze_solve.c ****     *current_y = (unsigned char)q0;
ARM GAS  C:\Temp\ccSQM2w2.s 			page 50


1314:Src/maze_solve.c **** 
1315:Src/maze_solve.c ****     /* disp("north_step") */
1316:Src/maze_solve.c ****   }
1317:Src/maze_solve.c **** 
1318:Src/maze_solve.c ****   /* 東に一マス */
1319:Src/maze_solve.c ****   if (current_dir == g_direction->contents.East) {
 1201              		.loc 1 1319 3 is_stmt 1 view .LVU469
 1202              		.loc 1 1319 43 is_stmt 0 view .LVU470
 1203 0008 4478     		ldrb	r4, [r0, #1]	@ zero_extendqisi2
 1204              		.loc 1 1319 6 view .LVU471
 1205 000a 9C42     		cmp	r4, r3
 1206 000c 0ED0     		beq	.L138
 1207              	.L126:
1320:Src/maze_solve.c ****     q0 = (int)(*current_x + 1U);
1321:Src/maze_solve.c ****     if ((unsigned int)q0 > 255U) {
1322:Src/maze_solve.c ****       q0 = 255;
1323:Src/maze_solve.c ****     }
1324:Src/maze_solve.c **** 
1325:Src/maze_solve.c ****     *current_x = (unsigned char)q0;
1326:Src/maze_solve.c **** 
1327:Src/maze_solve.c ****     /* disp("east_step") */
1328:Src/maze_solve.c ****   }
1329:Src/maze_solve.c **** 
1330:Src/maze_solve.c ****   /* 南に一マス */
1331:Src/maze_solve.c ****   if (current_dir == g_direction->contents.South) {
 1208              		.loc 1 1331 3 is_stmt 1 view .LVU472
 1209              		.loc 1 1331 43 is_stmt 0 view .LVU473
 1210 000e 8478     		ldrb	r4, [r0, #2]	@ zero_extendqisi2
 1211              		.loc 1 1331 6 view .LVU474
 1212 0010 9C42     		cmp	r4, r3
 1213 0012 12D0     		beq	.L139
 1214              	.L128:
1332:Src/maze_solve.c ****     q0 = *current_y;
1333:Src/maze_solve.c ****     qY = q0 - 1U;
1334:Src/maze_solve.c ****     if (qY > (unsigned int)q0) {
1335:Src/maze_solve.c ****       qY = 0U;
1336:Src/maze_solve.c ****     }
1337:Src/maze_solve.c **** 
1338:Src/maze_solve.c ****     *current_y = (unsigned char)qY;
1339:Src/maze_solve.c **** 
1340:Src/maze_solve.c ****     /* disp("south_step") */
1341:Src/maze_solve.c ****   }
1342:Src/maze_solve.c **** 
1343:Src/maze_solve.c ****   /* 西に一マス */
1344:Src/maze_solve.c ****   if (current_dir == g_direction->contents.West) {
 1215              		.loc 1 1344 3 is_stmt 1 view .LVU475
 1216              		.loc 1 1344 43 is_stmt 0 view .LVU476
 1217 0014 C278     		ldrb	r2, [r0, #3]	@ zero_extendqisi2
 1218              	.LVL171:
 1219              		.loc 1 1344 6 view .LVU477
 1220 0016 9A42     		cmp	r2, r3
 1221 0018 16D0     		beq	.L140
 1222              	.LVL172:
 1223              	.L123:
1345:Src/maze_solve.c ****     q0 = *current_x;
1346:Src/maze_solve.c ****     qY = q0 - 1U;
1347:Src/maze_solve.c ****     if (qY > (unsigned int)q0) {
ARM GAS  C:\Temp\ccSQM2w2.s 			page 51


1348:Src/maze_solve.c ****       qY = 0U;
1349:Src/maze_solve.c ****     }
1350:Src/maze_solve.c **** 
1351:Src/maze_solve.c ****     *current_x = (unsigned char)qY;
1352:Src/maze_solve.c **** 
1353:Src/maze_solve.c ****     /* disp("west_step") */
1354:Src/maze_solve.c ****   }
1355:Src/maze_solve.c **** }
 1224              		.loc 1 1355 1 view .LVU478
 1225 001a 30BC     		pop	{r4, r5}
 1226              	.LCFI4:
 1227              		.cfi_remember_state
 1228              		.cfi_restore 5
 1229              		.cfi_restore 4
 1230              		.cfi_def_cfa_offset 0
 1231 001c 7047     		bx	lr
 1232              	.LVL173:
 1233              	.L137:
 1234              	.LCFI5:
 1235              		.cfi_restore_state
1308:Src/maze_solve.c ****     if ((unsigned int)q0 > 255U) {
 1236              		.loc 1 1308 5 is_stmt 1 view .LVU479
1308:Src/maze_solve.c ****     if ((unsigned int)q0 > 255U) {
 1237              		.loc 1 1308 16 is_stmt 0 view .LVU480
 1238 001e 1478     		ldrb	r4, [r2]	@ zero_extendqisi2
1308:Src/maze_solve.c ****     if ((unsigned int)q0 > 255U) {
 1239              		.loc 1 1308 27 view .LVU481
 1240 0020 0134     		adds	r4, r4, #1
 1241              	.LVL174:
1309:Src/maze_solve.c ****       q0 = 255;
 1242              		.loc 1 1309 5 is_stmt 1 view .LVU482
1309:Src/maze_solve.c ****       q0 = 255;
 1243              		.loc 1 1309 8 is_stmt 0 view .LVU483
 1244 0022 FF2C     		cmp	r4, #255
 1245 0024 00D9     		bls	.L125
1310:Src/maze_solve.c ****     }
 1246              		.loc 1 1310 10 view .LVU484
 1247 0026 FF24     		movs	r4, #255
 1248              	.LVL175:
 1249              	.L125:
1313:Src/maze_solve.c **** 
 1250              		.loc 1 1313 5 is_stmt 1 view .LVU485
1313:Src/maze_solve.c **** 
 1251              		.loc 1 1313 16 is_stmt 0 view .LVU486
 1252 0028 1470     		strb	r4, [r2]
 1253 002a EDE7     		b	.L124
 1254              	.LVL176:
 1255              	.L138:
1320:Src/maze_solve.c ****     if ((unsigned int)q0 > 255U) {
 1256              		.loc 1 1320 5 is_stmt 1 view .LVU487
1320:Src/maze_solve.c ****     if ((unsigned int)q0 > 255U) {
 1257              		.loc 1 1320 16 is_stmt 0 view .LVU488
 1258 002c 0C78     		ldrb	r4, [r1]	@ zero_extendqisi2
1320:Src/maze_solve.c ****     if ((unsigned int)q0 > 255U) {
 1259              		.loc 1 1320 27 view .LVU489
 1260 002e 0134     		adds	r4, r4, #1
 1261              	.LVL177:
ARM GAS  C:\Temp\ccSQM2w2.s 			page 52


1321:Src/maze_solve.c ****       q0 = 255;
 1262              		.loc 1 1321 5 is_stmt 1 view .LVU490
1321:Src/maze_solve.c ****       q0 = 255;
 1263              		.loc 1 1321 8 is_stmt 0 view .LVU491
 1264 0030 FF2C     		cmp	r4, #255
 1265 0032 00D9     		bls	.L127
1322:Src/maze_solve.c ****     }
 1266              		.loc 1 1322 10 view .LVU492
 1267 0034 FF24     		movs	r4, #255
 1268              	.LVL178:
 1269              	.L127:
1325:Src/maze_solve.c **** 
 1270              		.loc 1 1325 5 is_stmt 1 view .LVU493
1325:Src/maze_solve.c **** 
 1271              		.loc 1 1325 16 is_stmt 0 view .LVU494
 1272 0036 0C70     		strb	r4, [r1]
 1273 0038 E9E7     		b	.L126
 1274              	.LVL179:
 1275              	.L139:
1332:Src/maze_solve.c ****     qY = q0 - 1U;
 1276              		.loc 1 1332 5 is_stmt 1 view .LVU495
1332:Src/maze_solve.c ****     qY = q0 - 1U;
 1277              		.loc 1 1332 10 is_stmt 0 view .LVU496
 1278 003a 1578     		ldrb	r5, [r2]	@ zero_extendqisi2
 1279              	.LVL180:
1333:Src/maze_solve.c ****     if (qY > (unsigned int)q0) {
 1280              		.loc 1 1333 5 is_stmt 1 view .LVU497
1333:Src/maze_solve.c ****     if (qY > (unsigned int)q0) {
 1281              		.loc 1 1333 8 is_stmt 0 view .LVU498
 1282 003c 6C1E     		subs	r4, r5, #1
 1283              	.LVL181:
1334:Src/maze_solve.c ****       qY = 0U;
 1284              		.loc 1 1334 5 is_stmt 1 view .LVU499
1334:Src/maze_solve.c ****       qY = 0U;
 1285              		.loc 1 1334 8 is_stmt 0 view .LVU500
 1286 003e A542     		cmp	r5, r4
 1287 0040 00D2     		bcs	.L129
1335:Src/maze_solve.c ****     }
 1288              		.loc 1 1335 10 view .LVU501
 1289 0042 0024     		movs	r4, #0
 1290              	.LVL182:
 1291              	.L129:
1338:Src/maze_solve.c **** 
 1292              		.loc 1 1338 5 is_stmt 1 view .LVU502
1338:Src/maze_solve.c **** 
 1293              		.loc 1 1338 16 is_stmt 0 view .LVU503
 1294 0044 1470     		strb	r4, [r2]
 1295 0046 E5E7     		b	.L128
 1296              	.LVL183:
 1297              	.L140:
1345:Src/maze_solve.c ****     qY = q0 - 1U;
 1298              		.loc 1 1345 5 is_stmt 1 view .LVU504
1345:Src/maze_solve.c ****     qY = q0 - 1U;
 1299              		.loc 1 1345 10 is_stmt 0 view .LVU505
 1300 0048 0A78     		ldrb	r2, [r1]	@ zero_extendqisi2
 1301              	.LVL184:
1346:Src/maze_solve.c ****     if (qY > (unsigned int)q0) {
ARM GAS  C:\Temp\ccSQM2w2.s 			page 53


 1302              		.loc 1 1346 5 is_stmt 1 view .LVU506
1346:Src/maze_solve.c ****     if (qY > (unsigned int)q0) {
 1303              		.loc 1 1346 8 is_stmt 0 view .LVU507
 1304 004a 531E     		subs	r3, r2, #1
 1305              	.LVL185:
1347:Src/maze_solve.c ****       qY = 0U;
 1306              		.loc 1 1347 5 is_stmt 1 view .LVU508
1347:Src/maze_solve.c ****       qY = 0U;
 1307              		.loc 1 1347 8 is_stmt 0 view .LVU509
 1308 004c 9A42     		cmp	r2, r3
 1309 004e 00D2     		bcs	.L131
1348:Src/maze_solve.c ****     }
 1310              		.loc 1 1348 10 view .LVU510
 1311 0050 0023     		movs	r3, #0
 1312              	.LVL186:
 1313              	.L131:
1351:Src/maze_solve.c **** 
 1314              		.loc 1 1351 5 is_stmt 1 view .LVU511
1351:Src/maze_solve.c **** 
 1315              		.loc 1 1351 16 is_stmt 0 view .LVU512
 1316 0052 0B70     		strb	r3, [r1]
 1317              		.loc 1 1355 1 view .LVU513
 1318 0054 E1E7     		b	.L123
 1319              		.cfi_endproc
 1320              	.LFE136:
 1322              		.section	.text.make_map_find,"ax",%progbits
 1323              		.align	1
 1324              		.syntax unified
 1325              		.thumb
 1326              		.thumb_func
 1327              		.fpu fpv4-sp-d16
 1329              	make_map_find:
 1330              	.LVL187:
 1331              	.LFB134:
 697:Src/maze_solve.c ****   unsigned int qY;
 1332              		.loc 1 697 1 is_stmt 1 view -0
 1333              		.cfi_startproc
 1334              		@ args = 20, pretend = 0, frame = 4120
 1335              		@ frame_needed = 0, uses_anonymous_args = 0
 697:Src/maze_solve.c ****   unsigned int qY;
 1336              		.loc 1 697 1 is_stmt 0 view .LVU515
 1337 0000 2DE9F04F 		push	{r4, r5, r6, r7, r8, r9, r10, fp, lr}
 1338              	.LCFI6:
 1339              		.cfi_def_cfa_offset 36
 1340              		.cfi_offset 4, -36
 1341              		.cfi_offset 5, -32
 1342              		.cfi_offset 6, -28
 1343              		.cfi_offset 7, -24
 1344              		.cfi_offset 8, -20
 1345              		.cfi_offset 9, -16
 1346              		.cfi_offset 10, -12
 1347              		.cfi_offset 11, -8
 1348              		.cfi_offset 14, -4
 1349 0004 ADF5805D 		sub	sp, sp, #4096
 1350              	.LCFI7:
 1351              		.cfi_def_cfa_offset 4132
 1352 0008 87B0     		sub	sp, sp, #28
ARM GAS  C:\Temp\ccSQM2w2.s 			page 54


 1353              	.LCFI8:
 1354              		.cfi_def_cfa_offset 4160
 1355 000a 0446     		mov	r4, r0
 1356 000c 0D46     		mov	r5, r1
 1357 000e 0DF58251 		add	r1, sp, #4160
 1358              	.LVL188:
 697:Src/maze_solve.c ****   unsigned int qY;
 1359              		.loc 1 697 1 view .LVU516
 1360 0012 0868     		ldr	r0, [r1]
 1361              	.LVL189:
 697:Src/maze_solve.c ****   unsigned int qY;
 1362              		.loc 1 697 1 view .LVU517
 1363 0014 0DF58251 		add	r1, sp, #4160
 697:Src/maze_solve.c ****   unsigned int qY;
 1364              		.loc 1 697 1 view .LVU518
 1365 0018 0C31     		adds	r1, r1, #12
 1366              	.LVL190:
 697:Src/maze_solve.c ****   unsigned int qY;
 1367              		.loc 1 697 1 view .LVU519
 1368 001a 0F68     		ldr	r7, [r1]
 698:Src/maze_solve.c ****   unsigned int b_qY;
 1369              		.loc 1 698 3 is_stmt 1 view .LVU520
 699:Src/maze_solve.c ****   int q0;
 1370              		.loc 1 699 3 view .LVU521
 700:Src/maze_solve.c ****   int i2;
 1371              		.loc 1 700 3 view .LVU522
 701:Src/maze_solve.c ****   unsigned char change_flag;
 1372              		.loc 1 701 3 view .LVU523
 702:Src/maze_solve.c ****   unsigned char tempi;
 1373              		.loc 1 702 3 view .LVU524
 703:Src/maze_solve.c ****   bool exitg1;
 1374              		.loc 1 703 3 view .LVU525
 704:Src/maze_solve.c ****   int idx;
 1375              		.loc 1 704 3 view .LVU526
 705:Src/maze_solve.c ****   bool exitg2;
 1376              		.loc 1 705 3 view .LVU527
 706:Src/maze_solve.c ****   int loop_ub;
 1377              		.loc 1 706 3 view .LVU528
 707:Src/maze_solve.c ****   static short ii_data[1024];
 1378              		.loc 1 707 3 view .LVU529
 708:Src/maze_solve.c ****   int num_temp_size[1];
 1379              		.loc 1 708 3 view .LVU530
 709:Src/maze_solve.c ****   static unsigned short num_temp_data[1024];
 1380              		.loc 1 709 3 view .LVU531
 710:Src/maze_solve.c ****   int b_num_temp_size[1];
 1381              		.loc 1 710 3 view .LVU532
 711:Src/maze_solve.c ****   static unsigned short b_num_temp_data[1024];
 1382              		.loc 1 711 3 view .LVU533
 712:Src/maze_solve.c ****   unsigned short tmp_data[1024];
 1383              		.loc 1 712 3 view .LVU534
 713:Src/maze_solve.c ****   int tmp_size[1];
 1384              		.loc 1 713 3 view .LVU535
 714:Src/maze_solve.c ****   unsigned short u0;
 1385              		.loc 1 714 3 view .LVU536
 715:Src/maze_solve.c ****   unsigned char row_data[1024];
 1386              		.loc 1 715 3 view .LVU537
 716:Src/maze_solve.c ****   unsigned char col_data[1024];
ARM GAS  C:\Temp\ccSQM2w2.s 			page 55


 1387              		.loc 1 716 3 view .LVU538
 717:Src/maze_solve.c ****   unsigned char k;
 1388              		.loc 1 717 3 view .LVU539
 718:Src/maze_solve.c ****   int i3;
 1389              		.loc 1 718 3 view .LVU540
 719:Src/maze_solve.c ****   int b_k;
 1390              		.loc 1 719 3 view .LVU541
 720:Src/maze_solve.c ****   int i4;
 1391              		.loc 1 720 3 view .LVU542
 721:Src/maze_solve.c ****   int i5;
 1392              		.loc 1 721 3 view .LVU543
 722:Src/maze_solve.c ****   int c_k;
 1393              		.loc 1 722 3 view .LVU544
 723:Src/maze_solve.c ****   int d_k;
 1394              		.loc 1 723 3 view .LVU545
 724:Src/maze_solve.c ****   int e_k;
 1395              		.loc 1 724 3 view .LVU546
 725:Src/maze_solve.c **** 
 1396              		.loc 1 725 3 view .LVU547
 729:Src/maze_solve.c ****   if (qY > maze_col_size) {
 1397              		.loc 1 729 3 view .LVU548
 729:Src/maze_solve.c ****   if (qY > maze_col_size) {
 1398              		.loc 1 729 6 is_stmt 0 view .LVU549
 1399 001c 591E     		subs	r1, r3, #1
 1400              	.LVL191:
 730:Src/maze_solve.c ****     qY = 0U;
 1401              		.loc 1 730 3 is_stmt 1 view .LVU550
 730:Src/maze_solve.c ****     qY = 0U;
 1402              		.loc 1 730 6 is_stmt 0 view .LVU551
 1403 001e 8B42     		cmp	r3, r1
 1404 0020 00D2     		bcs	.L142
 731:Src/maze_solve.c ****   }
 1405              		.loc 1 731 8 view .LVU552
 1406 0022 0021     		movs	r1, #0
 1407              	.LVL192:
 1408              	.L142:
 734:Src/maze_solve.c ****   if (b_qY > maze_row_size) {
 1409              		.loc 1 734 3 is_stmt 1 view .LVU553
 734:Src/maze_solve.c ****   if (b_qY > maze_row_size) {
 1410              		.loc 1 734 8 is_stmt 0 view .LVU554
 1411 0024 531E     		subs	r3, r2, #1
 1412              	.LVL193:
 735:Src/maze_solve.c ****     b_qY = 0U;
 1413              		.loc 1 735 3 is_stmt 1 view .LVU555
 735:Src/maze_solve.c ****     b_qY = 0U;
 1414              		.loc 1 735 6 is_stmt 0 view .LVU556
 1415 0026 9A42     		cmp	r2, r3
 1416 0028 00D2     		bcs	.L143
 736:Src/maze_solve.c ****   }
 1417              		.loc 1 736 10 view .LVU557
 1418 002a 0023     		movs	r3, #0
 1419              	.LVL194:
 1420              	.L143:
 739:Src/maze_solve.c ****   if ((unsigned int)q0 > 255U) {
 1421              		.loc 1 739 3 is_stmt 1 view .LVU558
 739:Src/maze_solve.c ****   if ((unsigned int)q0 > 255U) {
 1422              		.loc 1 739 17 is_stmt 0 view .LVU559
ARM GAS  C:\Temp\ccSQM2w2.s 			page 56


 1423 002c 03FB01F3 		mul	r3, r3, r1
 1424              	.LVL195:
 740:Src/maze_solve.c ****     q0 = 255;
 1425              		.loc 1 740 3 is_stmt 1 view .LVU560
 740:Src/maze_solve.c ****     q0 = 255;
 1426              		.loc 1 740 6 is_stmt 0 view .LVU561
 1427 0030 FF2B     		cmp	r3, #255
 1428 0032 00D9     		bls	.L144
 741:Src/maze_solve.c ****   }
 1429              		.loc 1 741 8 view .LVU562
 1430 0034 FF23     		movs	r3, #255
 1431              	.LVL196:
 1432              	.L144:
 744:Src/maze_solve.c ****   if (qY > (unsigned int)q0) {
 1433              		.loc 1 744 3 is_stmt 1 view .LVU563
 745:Src/maze_solve.c ****     qY = 0U;
 1434              		.loc 1 745 3 view .LVU564
 749:Src/maze_solve.c **** 
 1435              		.loc 1 749 3 view .LVU565
 749:Src/maze_solve.c **** 
 1436              		.loc 1 749 17 is_stmt 0 view .LVU566
 1437 0036 5FFA83F8 		uxtb	r8, r3
 749:Src/maze_solve.c **** 
 1438              		.loc 1 749 15 view .LVU567
 1439 003a 0DF58253 		add	r3, sp, #4160
 1440              	.LVL197:
 749:Src/maze_solve.c **** 
 1441              		.loc 1 749 15 view .LVU568
 1442 003e 1033     		adds	r3, r3, #16
 1443              	.LVL198:
 749:Src/maze_solve.c **** 
 1444              		.loc 1 749 15 view .LVU569
 1445 0040 1B68     		ldr	r3, [r3]
 1446              	.LVL199:
 749:Src/maze_solve.c **** 
 1447              		.loc 1 749 15 view .LVU570
 1448 0042 83F80080 		strb	r8, [r3]
 753:Src/maze_solve.c ****     contour_map[i2] = (unsigned char)qY;
 1449              		.loc 1 753 3 is_stmt 1 view .LVU571
 1450              	.LVL200:
 753:Src/maze_solve.c ****     contour_map[i2] = (unsigned char)qY;
 1451              		.loc 1 753 11 is_stmt 0 view .LVU572
 1452 0046 0023     		movs	r3, #0
 1453              	.LVL201:
 1454              	.L145:
 753:Src/maze_solve.c ****     contour_map[i2] = (unsigned char)qY;
 1455              		.loc 1 753 16 is_stmt 1 discriminator 1 view .LVU573
 753:Src/maze_solve.c ****     contour_map[i2] = (unsigned char)qY;
 1456              		.loc 1 753 3 is_stmt 0 discriminator 1 view .LVU574
 1457 0048 B3F5806F 		cmp	r3, #1024
 1458 004c 03DA     		bge	.L205
 754:Src/maze_solve.c ****   }
 1459              		.loc 1 754 5 is_stmt 1 discriminator 3 view .LVU575
 754:Src/maze_solve.c ****   }
 1460              		.loc 1 754 21 is_stmt 0 discriminator 3 view .LVU576
 1461 004e 07F80380 		strb	r8, [r7, r3]
 753:Src/maze_solve.c ****     contour_map[i2] = (unsigned char)qY;
ARM GAS  C:\Temp\ccSQM2w2.s 			page 57


 1462              		.loc 1 753 27 is_stmt 1 discriminator 3 view .LVU577
 753:Src/maze_solve.c ****     contour_map[i2] = (unsigned char)qY;
 1463              		.loc 1 753 29 is_stmt 0 discriminator 3 view .LVU578
 1464 0052 0133     		adds	r3, r3, #1
 1465              	.LVL202:
 753:Src/maze_solve.c ****     contour_map[i2] = (unsigned char)qY;
 1466              		.loc 1 753 29 discriminator 3 view .LVU579
 1467 0054 F8E7     		b	.L145
 1468              	.L205:
 758:Src/maze_solve.c ****   for (q0 = 0; q0 < i2; q0++) {
 1469              		.loc 1 758 3 is_stmt 1 view .LVU580
 758:Src/maze_solve.c ****   for (q0 = 0; q0 < i2; q0++) {
 1470              		.loc 1 758 6 is_stmt 0 view .LVU581
 1471 0056 0DF58253 		add	r3, sp, #4160
 1472              	.LVL203:
 758:Src/maze_solve.c ****   for (q0 = 0; q0 < i2; q0++) {
 1473              		.loc 1 758 6 view .LVU582
 1474 005a 0433     		adds	r3, r3, #4
 1475              	.LVL204:
 758:Src/maze_solve.c ****   for (q0 = 0; q0 < i2; q0++) {
 1476              		.loc 1 758 6 view .LVU583
 1477 005c 1E78     		ldrb	r6, [r3]	@ zero_extendqisi2
 1478              	.LVL205:
 759:Src/maze_solve.c ****     contour_map[(maze_goal[q0 + 9] + ((maze_goal[q0] - 1) << 5)) - 1] = 0U;
 1479              		.loc 1 759 3 is_stmt 1 view .LVU584
 759:Src/maze_solve.c ****     contour_map[(maze_goal[q0 + 9] + ((maze_goal[q0] - 1) << 5)) - 1] = 0U;
 1480              		.loc 1 759 11 is_stmt 0 view .LVU585
 1481 005e 0022     		movs	r2, #0
 1482              	.LVL206:
 759:Src/maze_solve.c ****     contour_map[(maze_goal[q0 + 9] + ((maze_goal[q0] - 1) << 5)) - 1] = 0U;
 1483              		.loc 1 759 3 view .LVU586
 1484 0060 09E0     		b	.L147
 1485              	.LVL207:
 1486              	.L148:
 760:Src/maze_solve.c ****   }
 1487              		.loc 1 760 5 is_stmt 1 discriminator 3 view .LVU587
 760:Src/maze_solve.c ****   }
 1488              		.loc 1 760 27 is_stmt 0 discriminator 3 view .LVU588
 1489 0062 8318     		adds	r3, r0, r2
 1490 0064 5B7A     		ldrb	r3, [r3, #9]	@ zero_extendqisi2
 760:Src/maze_solve.c ****   }
 1491              		.loc 1 760 49 discriminator 3 view .LVU589
 1492 0066 815C     		ldrb	r1, [r0, r2]	@ zero_extendqisi2
 760:Src/maze_solve.c ****   }
 1493              		.loc 1 760 54 discriminator 3 view .LVU590
 1494 0068 0139     		subs	r1, r1, #1
 760:Src/maze_solve.c ****   }
 1495              		.loc 1 760 36 discriminator 3 view .LVU591
 1496 006a 03EB4113 		add	r3, r3, r1, lsl #5
 760:Src/maze_solve.c ****   }
 1497              		.loc 1 760 16 discriminator 3 view .LVU592
 1498 006e 013B     		subs	r3, r3, #1
 760:Src/maze_solve.c ****   }
 1499              		.loc 1 760 71 discriminator 3 view .LVU593
 1500 0070 0021     		movs	r1, #0
 1501 0072 F954     		strb	r1, [r7, r3]
 759:Src/maze_solve.c ****     contour_map[(maze_goal[q0 + 9] + ((maze_goal[q0] - 1) << 5)) - 1] = 0U;
ARM GAS  C:\Temp\ccSQM2w2.s 			page 58


 1502              		.loc 1 759 25 is_stmt 1 discriminator 3 view .LVU594
 759:Src/maze_solve.c ****     contour_map[(maze_goal[q0 + 9] + ((maze_goal[q0] - 1) << 5)) - 1] = 0U;
 1503              		.loc 1 759 27 is_stmt 0 discriminator 3 view .LVU595
 1504 0074 0132     		adds	r2, r2, #1
 1505              	.LVL208:
 1506              	.L147:
 759:Src/maze_solve.c ****     contour_map[(maze_goal[q0 + 9] + ((maze_goal[q0] - 1) << 5)) - 1] = 0U;
 1507              		.loc 1 759 16 is_stmt 1 discriminator 1 view .LVU596
 759:Src/maze_solve.c ****     contour_map[(maze_goal[q0 + 9] + ((maze_goal[q0] - 1) << 5)) - 1] = 0U;
 1508              		.loc 1 759 3 is_stmt 0 discriminator 1 view .LVU597
 1509 0076 B242     		cmp	r2, r6
 1510 0078 F3DB     		blt	.L148
 1511 007a 46E1     		b	.L185
 1512              	.LVL209:
 1513              	.L150:
 786:Src/maze_solve.c ****         }
 1514              		.loc 1 786 11 is_stmt 1 view .LVU598
 786:Src/maze_solve.c ****         }
 1515              		.loc 1 786 13 is_stmt 0 view .LVU599
 1516 007c 0133     		adds	r3, r3, #1
 1517              	.LVL210:
 1518              	.L184:
 776:Src/maze_solve.c ****         if (contour_map[q0] == tempi) {
 1519              		.loc 1 776 13 is_stmt 1 view .LVU600
 1520 007e A9B9     		cbnz	r1, .L152
 776:Src/maze_solve.c ****         if (contour_map[q0] == tempi) {
 1521              		.loc 1 776 24 is_stmt 0 discriminator 1 view .LVU601
 1522 0080 B3F5806F 		cmp	r3, #1024
 1523 0084 12DA     		bge	.L152
 777:Src/maze_solve.c ****           idx++;
 1524              		.loc 1 777 9 is_stmt 1 view .LVU602
 777:Src/maze_solve.c ****           idx++;
 1525              		.loc 1 777 24 is_stmt 0 view .LVU603
 1526 0086 FA5C     		ldrb	r2, [r7, r3]	@ zero_extendqisi2
 777:Src/maze_solve.c ****           idx++;
 1527              		.loc 1 777 12 view .LVU604
 1528 0088 B242     		cmp	r2, r6
 1529 008a F7D1     		bne	.L150
 778:Src/maze_solve.c ****           ii_data[idx - 1] = (short)(q0 + 1);
 1530              		.loc 1 778 11 is_stmt 1 view .LVU605
 778:Src/maze_solve.c ****           ii_data[idx - 1] = (short)(q0 + 1);
 1531              		.loc 1 778 14 is_stmt 0 view .LVU606
 1532 008c 09F10100 		add	r0, r9, #1
 1533              	.LVL211:
 779:Src/maze_solve.c ****           if (idx >= 1024) {
 1534              		.loc 1 779 11 is_stmt 1 view .LVU607
 779:Src/maze_solve.c ****           if (idx >= 1024) {
 1535              		.loc 1 779 41 is_stmt 0 view .LVU608
 1536 0090 5A1C     		adds	r2, r3, #1
 779:Src/maze_solve.c ****           if (idx >= 1024) {
 1537              		.loc 1 779 28 view .LVU609
 1538 0092 DFF88CC2 		ldr	ip, .L218
 1539 0096 2CF81920 		strh	r2, [ip, r9, lsl #1]	@ movhi
 780:Src/maze_solve.c ****             exitg2 = true;
 1540              		.loc 1 780 11 is_stmt 1 view .LVU610
 780:Src/maze_solve.c ****             exitg2 = true;
 1541              		.loc 1 780 14 is_stmt 0 view .LVU611
ARM GAS  C:\Temp\ccSQM2w2.s 			page 59


 1542 009a B0F5806F 		cmp	r0, #1024
 1543 009e 02DA     		bge	.L189
 783:Src/maze_solve.c ****           }
 1544              		.loc 1 783 13 is_stmt 1 view .LVU612
 783:Src/maze_solve.c ****           }
 1545              		.loc 1 783 15 is_stmt 0 view .LVU613
 1546 00a0 1346     		mov	r3, r2
 1547              	.LVL212:
 778:Src/maze_solve.c ****           ii_data[idx - 1] = (short)(q0 + 1);
 1548              		.loc 1 778 14 view .LVU614
 1549 00a2 8146     		mov	r9, r0
 1550 00a4 EBE7     		b	.L184
 1551              	.LVL213:
 1552              	.L189:
 778:Src/maze_solve.c ****           ii_data[idx - 1] = (short)(q0 + 1);
 1553              		.loc 1 778 14 view .LVU615
 1554 00a6 8146     		mov	r9, r0
 781:Src/maze_solve.c ****           } else {
 1555              		.loc 1 781 20 view .LVU616
 1556 00a8 0121     		movs	r1, #1
 1557              	.LVL214:
 781:Src/maze_solve.c ****           } else {
 1558              		.loc 1 781 20 view .LVU617
 1559 00aa E8E7     		b	.L184
 1560              	.LVL215:
 1561              	.L152:
 790:Src/maze_solve.c ****         loop_ub = 0;
 1562              		.loc 1 790 7 is_stmt 1 view .LVU618
 790:Src/maze_solve.c ****         loop_ub = 0;
 1563              		.loc 1 790 10 is_stmt 0 view .LVU619
 1564 00ac B9F1000F 		cmp	r9, #0
 1565 00b0 0FDD     		ble	.L206
 1566              	.LVL216:
 1567              	.L154:
 798:Src/maze_solve.c ****       for (i2 = 0; i2 < loop_ub; i2++) {
 1568              		.loc 1 798 7 is_stmt 1 view .LVU620
 798:Src/maze_solve.c ****       for (i2 = 0; i2 < loop_ub; i2++) {
 1569              		.loc 1 798 24 is_stmt 0 view .LVU621
 1570 00b2 0DF58053 		add	r3, sp, #4096
 1571 00b6 1433     		adds	r3, r3, #20
 1572 00b8 C3F80090 		str	r9, [r3]
 799:Src/maze_solve.c ****         num_temp_data[i2] = (unsigned short)ii_data[i2];
 1573              		.loc 1 799 7 is_stmt 1 view .LVU622
 1574              	.LVL217:
 799:Src/maze_solve.c ****         num_temp_data[i2] = (unsigned short)ii_data[i2];
 1575              		.loc 1 799 15 is_stmt 0 view .LVU623
 1576 00bc 0023     		movs	r3, #0
 1577              	.LVL218:
 1578              	.L155:
 799:Src/maze_solve.c ****         num_temp_data[i2] = (unsigned short)ii_data[i2];
 1579              		.loc 1 799 20 is_stmt 1 discriminator 1 view .LVU624
 799:Src/maze_solve.c ****         num_temp_data[i2] = (unsigned short)ii_data[i2];
 1580              		.loc 1 799 7 is_stmt 0 discriminator 1 view .LVU625
 1581 00be 9945     		cmp	r9, r3
 1582 00c0 0ADD     		ble	.L207
 800:Src/maze_solve.c ****       }
 1583              		.loc 1 800 9 is_stmt 1 discriminator 3 view .LVU626
ARM GAS  C:\Temp\ccSQM2w2.s 			page 60


 800:Src/maze_solve.c ****       }
 1584              		.loc 1 800 52 is_stmt 0 discriminator 3 view .LVU627
 1585 00c2 974A     		ldr	r2, .L218
 1586 00c4 32F91310 		ldrsh	r1, [r2, r3, lsl #1]
 800:Src/maze_solve.c ****       }
 1587              		.loc 1 800 27 discriminator 3 view .LVU628
 1588 00c8 964A     		ldr	r2, .L218+4
 1589 00ca 22F81310 		strh	r1, [r2, r3, lsl #1]	@ movhi
 799:Src/maze_solve.c ****         num_temp_data[i2] = (unsigned short)ii_data[i2];
 1590              		.loc 1 799 34 is_stmt 1 discriminator 3 view .LVU629
 799:Src/maze_solve.c ****         num_temp_data[i2] = (unsigned short)ii_data[i2];
 1591              		.loc 1 799 36 is_stmt 0 discriminator 3 view .LVU630
 1592 00ce 0133     		adds	r3, r3, #1
 1593              	.LVL219:
 799:Src/maze_solve.c ****         num_temp_data[i2] = (unsigned short)ii_data[i2];
 1594              		.loc 1 799 36 discriminator 3 view .LVU631
 1595 00d0 F5E7     		b	.L155
 1596              	.LVL220:
 1597              	.L206:
 792:Src/maze_solve.c ****       } else {
 1598              		.loc 1 792 12 view .LVU632
 1599 00d2 4FF00009 		mov	r9, #0
 1600              	.LVL221:
 792:Src/maze_solve.c ****       } else {
 1601              		.loc 1 792 12 view .LVU633
 1602 00d6 ECE7     		b	.L154
 1603              	.LVL222:
 1604              	.L207:
 804:Src/maze_solve.c ****       for (i2 = 0; i2 < q0; i2++) {
 1605              		.loc 1 804 7 is_stmt 1 view .LVU634
 804:Src/maze_solve.c ****       for (i2 = 0; i2 < q0; i2++) {
 1606              		.loc 1 804 26 is_stmt 0 view .LVU635
 1607 00d8 0DF58053 		add	r3, sp, #4096
 1608              	.LVL223:
 804:Src/maze_solve.c ****       for (i2 = 0; i2 < q0; i2++) {
 1609              		.loc 1 804 26 view .LVU636
 1610 00dc 1033     		adds	r3, r3, #16
 1611 00de C3F80090 		str	r9, [r3]
 805:Src/maze_solve.c ****         b_num_temp_data[i2] = (unsigned short)(num_temp_data[i2] - 1U);
 1612              		.loc 1 805 7 is_stmt 1 view .LVU637
 1613              	.LVL224:
 805:Src/maze_solve.c ****         b_num_temp_data[i2] = (unsigned short)(num_temp_data[i2] - 1U);
 1614              		.loc 1 805 15 is_stmt 0 view .LVU638
 1615 00e2 0023     		movs	r3, #0
 1616              	.LVL225:
 1617              	.L157:
 805:Src/maze_solve.c ****         b_num_temp_data[i2] = (unsigned short)(num_temp_data[i2] - 1U);
 1618              		.loc 1 805 20 is_stmt 1 discriminator 1 view .LVU639
 805:Src/maze_solve.c ****         b_num_temp_data[i2] = (unsigned short)(num_temp_data[i2] - 1U);
 1619              		.loc 1 805 7 is_stmt 0 discriminator 1 view .LVU640
 1620 00e4 9945     		cmp	r9, r3
 1621 00e6 08DD     		ble	.L208
 806:Src/maze_solve.c ****       }
 1622              		.loc 1 806 9 is_stmt 1 discriminator 3 view .LVU641
 806:Src/maze_solve.c ****       }
 1623              		.loc 1 806 61 is_stmt 0 discriminator 3 view .LVU642
 1624 00e8 8E4A     		ldr	r2, .L218+4
ARM GAS  C:\Temp\ccSQM2w2.s 			page 61


 1625 00ea 32F81320 		ldrh	r2, [r2, r3, lsl #1]
 806:Src/maze_solve.c ****       }
 1626              		.loc 1 806 31 discriminator 3 view .LVU643
 1627 00ee 013A     		subs	r2, r2, #1
 806:Src/maze_solve.c ****       }
 1628              		.loc 1 806 29 discriminator 3 view .LVU644
 1629 00f0 8D49     		ldr	r1, .L218+8
 1630 00f2 21F81320 		strh	r2, [r1, r3, lsl #1]	@ movhi
 805:Src/maze_solve.c ****         b_num_temp_data[i2] = (unsigned short)(num_temp_data[i2] - 1U);
 1631              		.loc 1 805 29 is_stmt 1 discriminator 3 view .LVU645
 805:Src/maze_solve.c ****         b_num_temp_data[i2] = (unsigned short)(num_temp_data[i2] - 1U);
 1632              		.loc 1 805 31 is_stmt 0 discriminator 3 view .LVU646
 1633 00f6 0133     		adds	r3, r3, #1
 1634              	.LVL226:
 805:Src/maze_solve.c ****         b_num_temp_data[i2] = (unsigned short)(num_temp_data[i2] - 1U);
 1635              		.loc 1 805 31 discriminator 3 view .LVU647
 1636 00f8 F4E7     		b	.L157
 1637              	.L208:
 809:Src/maze_solve.c ****       idx = tmp_size[0];
 1638              		.loc 1 809 7 is_stmt 1 view .LVU648
 1639 00fa 0DF60C03 		addw	r3, sp, #2060
 1640              	.LVL227:
 809:Src/maze_solve.c ****       idx = tmp_size[0];
 1641              		.loc 1 809 7 is_stmt 0 view .LVU649
 1642 00fe 0DF50162 		add	r2, sp, #2064
 1643 0102 0DF58051 		add	r1, sp, #4096
 1644 0106 1031     		adds	r1, r1, #16
 1645 0108 8748     		ldr	r0, .L218+8
 1646 010a FFF7FEFF 		bl	b_rem
 1647              	.LVL228:
 810:Src/maze_solve.c ****       loop_ub = tmp_size[0];
 1648              		.loc 1 810 7 is_stmt 1 view .LVU650
 810:Src/maze_solve.c ****       loop_ub = tmp_size[0];
 1649              		.loc 1 810 11 is_stmt 0 view .LVU651
 1650 010e DDF80CA8 		ldr	r10, [sp, #2060]
 1651              	.LVL229:
 811:Src/maze_solve.c ****       for (i2 = 0; i2 < loop_ub; i2++) {
 1652              		.loc 1 811 7 is_stmt 1 view .LVU652
 812:Src/maze_solve.c ****         b_qY = tmp_data[i2] + 1U;
 1653              		.loc 1 812 7 view .LVU653
 812:Src/maze_solve.c ****         b_qY = tmp_data[i2] + 1U;
 1654              		.loc 1 812 15 is_stmt 0 view .LVU654
 1655 0112 0022     		movs	r2, #0
 812:Src/maze_solve.c ****         b_qY = tmp_data[i2] + 1U;
 1656              		.loc 1 812 7 view .LVU655
 1657 0114 03E0     		b	.L159
 1658              	.LVL230:
 1659              	.L161:
 823:Src/maze_solve.c ****       }
 1660              		.loc 1 823 9 is_stmt 1 discriminator 2 view .LVU656
 823:Src/maze_solve.c ****       }
 1661              		.loc 1 823 22 is_stmt 0 discriminator 2 view .LVU657
 1662 0116 0DF20C41 		addw	r1, sp, #1036
 1663 011a 8B54     		strb	r3, [r1, r2]
 812:Src/maze_solve.c ****         b_qY = tmp_data[i2] + 1U;
 1664              		.loc 1 812 34 is_stmt 1 discriminator 2 view .LVU658
 812:Src/maze_solve.c ****         b_qY = tmp_data[i2] + 1U;
ARM GAS  C:\Temp\ccSQM2w2.s 			page 62


 1665              		.loc 1 812 36 is_stmt 0 discriminator 2 view .LVU659
 1666 011c 0132     		adds	r2, r2, #1
 1667              	.LVL231:
 1668              	.L159:
 812:Src/maze_solve.c ****         b_qY = tmp_data[i2] + 1U;
 1669              		.loc 1 812 20 is_stmt 1 discriminator 1 view .LVU660
 812:Src/maze_solve.c ****         b_qY = tmp_data[i2] + 1U;
 1670              		.loc 1 812 7 is_stmt 0 discriminator 1 view .LVU661
 1671 011e 5245     		cmp	r2, r10
 1672 0120 0EDA     		bge	.L209
 813:Src/maze_solve.c ****         if (b_qY > 65535U) {
 1673              		.loc 1 813 9 is_stmt 1 view .LVU662
 813:Src/maze_solve.c ****         if (b_qY > 65535U) {
 1674              		.loc 1 813 24 is_stmt 0 view .LVU663
 1675 0122 0DF50163 		add	r3, sp, #2064
 1676 0126 33F81230 		ldrh	r3, [r3, r2, lsl #1]
 813:Src/maze_solve.c ****         if (b_qY > 65535U) {
 1677              		.loc 1 813 14 view .LVU664
 1678 012a 0133     		adds	r3, r3, #1
 1679              	.LVL232:
 814:Src/maze_solve.c ****           b_qY = 65535U;
 1680              		.loc 1 814 9 is_stmt 1 view .LVU665
 814:Src/maze_solve.c ****           b_qY = 65535U;
 1681              		.loc 1 814 12 is_stmt 0 view .LVU666
 1682 012c B3F5803F 		cmp	r3, #65536
 1683 0130 01D3     		bcc	.L160
 815:Src/maze_solve.c ****         }
 1684              		.loc 1 815 16 view .LVU667
 1685 0132 4FF6FF73 		movw	r3, #65535
 1686              	.LVL233:
 1687              	.L160:
 818:Src/maze_solve.c ****         if ((unsigned short)b_qY > 255) {
 1688              		.loc 1 818 9 is_stmt 1 view .LVU668
 818:Src/maze_solve.c ****         if ((unsigned short)b_qY > 255) {
 1689              		.loc 1 818 12 is_stmt 0 view .LVU669
 1690 0136 9BB2     		uxth	r3, r3
 1691              	.LVL234:
 819:Src/maze_solve.c ****           u0 = 255U;
 1692              		.loc 1 819 9 is_stmt 1 view .LVU670
 819:Src/maze_solve.c ****           u0 = 255U;
 1693              		.loc 1 819 12 is_stmt 0 view .LVU671
 1694 0138 FF2B     		cmp	r3, #255
 1695 013a ECD9     		bls	.L161
 820:Src/maze_solve.c ****         }
 1696              		.loc 1 820 14 view .LVU672
 1697 013c FF23     		movs	r3, #255
 1698              	.LVL235:
 820:Src/maze_solve.c ****         }
 1699              		.loc 1 820 14 view .LVU673
 1700 013e EAE7     		b	.L161
 1701              	.L209:
 827:Src/maze_solve.c ****         num_temp_data[i2]--;
 1702              		.loc 1 827 15 view .LVU674
 1703 0140 0023     		movs	r3, #0
 1704              	.LVL236:
 1705              	.L163:
 827:Src/maze_solve.c ****         num_temp_data[i2]--;
ARM GAS  C:\Temp\ccSQM2w2.s 			page 63


 1706              		.loc 1 827 20 is_stmt 1 discriminator 1 view .LVU675
 827:Src/maze_solve.c ****         num_temp_data[i2]--;
 1707              		.loc 1 827 7 is_stmt 0 discriminator 1 view .LVU676
 1708 0142 9945     		cmp	r9, r3
 1709 0144 07DD     		ble	.L210
 828:Src/maze_solve.c ****       }
 1710              		.loc 1 828 9 is_stmt 1 discriminator 3 view .LVU677
 828:Src/maze_solve.c ****       }
 1711              		.loc 1 828 22 is_stmt 0 discriminator 3 view .LVU678
 1712 0146 7749     		ldr	r1, .L218+4
 1713 0148 31F81320 		ldrh	r2, [r1, r3, lsl #1]
 828:Src/maze_solve.c ****       }
 1714              		.loc 1 828 26 discriminator 3 view .LVU679
 1715 014c 013A     		subs	r2, r2, #1
 1716 014e 21F81320 		strh	r2, [r1, r3, lsl #1]	@ movhi
 827:Src/maze_solve.c ****         num_temp_data[i2]--;
 1717              		.loc 1 827 29 is_stmt 1 discriminator 3 view .LVU680
 827:Src/maze_solve.c ****         num_temp_data[i2]--;
 1718              		.loc 1 827 31 is_stmt 0 discriminator 3 view .LVU681
 1719 0152 0133     		adds	r3, r3, #1
 1720              	.LVL237:
 827:Src/maze_solve.c ****         num_temp_data[i2]--;
 1721              		.loc 1 827 31 discriminator 3 view .LVU682
 1722 0154 F5E7     		b	.L163
 1723              	.L210:
 831:Src/maze_solve.c ****       loop_ub = tmp_size[0];
 1724              		.loc 1 831 7 is_stmt 1 view .LVU683
 1725 0156 0DF60C03 		addw	r3, sp, #2060
 1726              	.LVL238:
 831:Src/maze_solve.c ****       loop_ub = tmp_size[0];
 1727              		.loc 1 831 7 is_stmt 0 view .LVU684
 1728 015a 0DF50162 		add	r2, sp, #2064
 1729 015e 0DF58051 		add	r1, sp, #4096
 1730 0162 1431     		adds	r1, r1, #20
 1731 0164 6F48     		ldr	r0, .L218+4
 1732 0166 FFF7FEFF 		bl	idivide
 1733              	.LVL239:
 832:Src/maze_solve.c ****       for (i2 = 0; i2 < loop_ub; i2++) {
 1734              		.loc 1 832 7 is_stmt 1 view .LVU685
 832:Src/maze_solve.c ****       for (i2 = 0; i2 < loop_ub; i2++) {
 1735              		.loc 1 832 15 is_stmt 0 view .LVU686
 1736 016a DDF80C08 		ldr	r0, [sp, #2060]
 1737              	.LVL240:
 833:Src/maze_solve.c ****         b_qY = tmp_data[i2] + 1U;
 1738              		.loc 1 833 7 is_stmt 1 view .LVU687
 833:Src/maze_solve.c ****         b_qY = tmp_data[i2] + 1U;
 1739              		.loc 1 833 15 is_stmt 0 view .LVU688
 1740 016e 0022     		movs	r2, #0
 833:Src/maze_solve.c ****         b_qY = tmp_data[i2] + 1U;
 1741              		.loc 1 833 7 view .LVU689
 1742 0170 02E0     		b	.L165
 1743              	.LVL241:
 1744              	.L167:
 844:Src/maze_solve.c ****       }
 1745              		.loc 1 844 9 is_stmt 1 discriminator 2 view .LVU690
 844:Src/maze_solve.c ****       }
 1746              		.loc 1 844 22 is_stmt 0 discriminator 2 view .LVU691
ARM GAS  C:\Temp\ccSQM2w2.s 			page 64


 1747 0172 03A9     		add	r1, sp, #12
 1748 0174 8B54     		strb	r3, [r1, r2]
 833:Src/maze_solve.c ****         b_qY = tmp_data[i2] + 1U;
 1749              		.loc 1 833 34 is_stmt 1 discriminator 2 view .LVU692
 833:Src/maze_solve.c ****         b_qY = tmp_data[i2] + 1U;
 1750              		.loc 1 833 36 is_stmt 0 discriminator 2 view .LVU693
 1751 0176 0132     		adds	r2, r2, #1
 1752              	.LVL242:
 1753              	.L165:
 833:Src/maze_solve.c ****         b_qY = tmp_data[i2] + 1U;
 1754              		.loc 1 833 20 is_stmt 1 discriminator 1 view .LVU694
 833:Src/maze_solve.c ****         b_qY = tmp_data[i2] + 1U;
 1755              		.loc 1 833 7 is_stmt 0 discriminator 1 view .LVU695
 1756 0178 8242     		cmp	r2, r0
 1757 017a 0EDA     		bge	.L211
 834:Src/maze_solve.c ****         if (b_qY > 65535U) {
 1758              		.loc 1 834 9 is_stmt 1 view .LVU696
 834:Src/maze_solve.c ****         if (b_qY > 65535U) {
 1759              		.loc 1 834 24 is_stmt 0 view .LVU697
 1760 017c 0DF50163 		add	r3, sp, #2064
 1761 0180 33F81230 		ldrh	r3, [r3, r2, lsl #1]
 834:Src/maze_solve.c ****         if (b_qY > 65535U) {
 1762              		.loc 1 834 14 view .LVU698
 1763 0184 0133     		adds	r3, r3, #1
 1764              	.LVL243:
 835:Src/maze_solve.c ****           b_qY = 65535U;
 1765              		.loc 1 835 9 is_stmt 1 view .LVU699
 835:Src/maze_solve.c ****           b_qY = 65535U;
 1766              		.loc 1 835 12 is_stmt 0 view .LVU700
 1767 0186 B3F5803F 		cmp	r3, #65536
 1768 018a 01D3     		bcc	.L166
 836:Src/maze_solve.c ****         }
 1769              		.loc 1 836 16 view .LVU701
 1770 018c 4FF6FF73 		movw	r3, #65535
 1771              	.LVL244:
 1772              	.L166:
 839:Src/maze_solve.c ****         if ((unsigned short)b_qY > 255) {
 1773              		.loc 1 839 9 is_stmt 1 view .LVU702
 839:Src/maze_solve.c ****         if ((unsigned short)b_qY > 255) {
 1774              		.loc 1 839 12 is_stmt 0 view .LVU703
 1775 0190 9BB2     		uxth	r3, r3
 1776              	.LVL245:
 840:Src/maze_solve.c ****           u0 = 255U;
 1777              		.loc 1 840 9 is_stmt 1 view .LVU704
 840:Src/maze_solve.c ****           u0 = 255U;
 1778              		.loc 1 840 12 is_stmt 0 view .LVU705
 1779 0192 FF2B     		cmp	r3, #255
 1780 0194 EDD9     		bls	.L167
 841:Src/maze_solve.c ****         }
 1781              		.loc 1 841 14 view .LVU706
 1782 0196 FF23     		movs	r3, #255
 1783              	.LVL246:
 841:Src/maze_solve.c ****         }
 1784              		.loc 1 841 14 view .LVU707
 1785 0198 EBE7     		b	.L167
 1786              	.L211:
 848:Src/maze_solve.c ****         idx = 0;
ARM GAS  C:\Temp\ccSQM2w2.s 			page 65


 1787              		.loc 1 848 7 is_stmt 1 view .LVU708
 848:Src/maze_solve.c ****         idx = 0;
 1788              		.loc 1 848 10 is_stmt 0 view .LVU709
 1789 019a BAF1000F 		cmp	r10, #0
 1790 019e 05DB     		blt	.L194
 851:Src/maze_solve.c ****           idx = 255;
 1791              		.loc 1 851 9 is_stmt 1 view .LVU710
 851:Src/maze_solve.c ****           idx = 255;
 1792              		.loc 1 851 12 is_stmt 0 view .LVU711
 1793 01a0 BAF1FF0F 		cmp	r10, #255
 1794 01a4 04DD     		ble	.L169
 852:Src/maze_solve.c ****         }
 1795              		.loc 1 852 15 view .LVU712
 1796 01a6 4FF0FF0A 		mov	r10, #255
 1797              	.LVL247:
 852:Src/maze_solve.c ****         }
 1798              		.loc 1 852 15 view .LVU713
 1799 01aa 01E0     		b	.L169
 1800              	.LVL248:
 1801              	.L194:
 849:Src/maze_solve.c ****       } else {
 1802              		.loc 1 849 13 view .LVU714
 1803 01ac 4FF0000A 		mov	r10, #0
 1804              	.LVL249:
 1805              	.L169:
 857:Src/maze_solve.c ****         exitg1 = true;
 1806              		.loc 1 857 7 is_stmt 1 view .LVU715
 857:Src/maze_solve.c ****         exitg1 = true;
 1807              		.loc 1 857 10 is_stmt 0 view .LVU716
 1808 01b0 1AF0FF0F 		tst	r10, #255
 1809 01b4 00F0A480 		beq	.L196
 861:Src/maze_solve.c ****         for (q0 = 0; q0 < i2; q0++) {
 1810              		.loc 1 861 9 is_stmt 1 view .LVU717
 1811 01b8 5FFA8AFE 		uxtb	lr, r10
 1812              	.LVL250:
 862:Src/maze_solve.c ****           /* 北側 */
 1813              		.loc 1 862 9 view .LVU718
 862:Src/maze_solve.c ****           /* 北側 */
 1814              		.loc 1 862 17 is_stmt 0 view .LVU719
 1815 01bc 0021     		movs	r1, #0
 862:Src/maze_solve.c ****           /* 北側 */
 1816              		.loc 1 862 9 view .LVU720
 1817 01be 3AE0     		b	.L171
 1818              	.LVL251:
 1819              	.L197:
 871:Src/maze_solve.c ****           }
 1820              		.loc 1 871 17 view .LVU721
 1821 01c0 0022     		movs	r2, #0
 1822 01c2 57E0     		b	.L172
 1823              	.LVL252:
 1824              	.L214:
 876:Src/maze_solve.c ****             i5 = i4;
 1825              		.loc 1 876 13 is_stmt 1 view .LVU722
 876:Src/maze_solve.c ****             i5 = i4;
 1826              		.loc 1 876 37 is_stmt 0 view .LVU723
 1827 01c4 0CF10102 		add	r2, ip, #1
 1828              	.LVL253:
ARM GAS  C:\Temp\ccSQM2w2.s 			page 66


 877:Src/maze_solve.c ****             if ((unsigned int)i4 > 255U) {
 1829              		.loc 1 877 13 is_stmt 1 view .LVU724
 878:Src/maze_solve.c ****               i5 = 255;
 1830              		.loc 1 878 13 view .LVU725
 878:Src/maze_solve.c ****               i5 = 255;
 1831              		.loc 1 878 16 is_stmt 0 view .LVU726
 1832 01c8 FF2A     		cmp	r2, #255
 1833 01ca 00D9     		bls	.L174
 1834              	.LVL254:
 879:Src/maze_solve.c ****             }
 1835              		.loc 1 879 18 view .LVU727
 1836 01cc FF22     		movs	r2, #255
 1837              	.LVL255:
 1838              	.L174:
 882:Src/maze_solve.c ****               if ((unsigned int)i4 > 255U) {
 1839              		.loc 1 882 13 is_stmt 1 view .LVU728
 882:Src/maze_solve.c ****               if ((unsigned int)i4 > 255U) {
 1840              		.loc 1 882 33 is_stmt 0 view .LVU729
 1841 01ce 9244     		add	r10, r10, r2
 1842              	.LVL256:
 882:Src/maze_solve.c ****               if ((unsigned int)i4 > 255U) {
 1843              		.loc 1 882 28 view .LVU730
 1844 01d0 0AF1FF3A 		add	r10, r10, #-1
 1845 01d4 17F80A20 		ldrb	r2, [r7, r10]	@ zero_extendqisi2
 882:Src/maze_solve.c ****               if ((unsigned int)i4 > 255U) {
 1846              		.loc 1 882 16 view .LVU731
 1847 01d8 9045     		cmp	r8, r2
 1848 01da 50D1     		bne	.L173
 883:Src/maze_solve.c ****                 i4 = 255;
 1849              		.loc 1 883 15 is_stmt 1 view .LVU732
 887:Src/maze_solve.c ****               change_flag = 1U;
 1850              		.loc 1 887 15 view .LVU733
 887:Src/maze_solve.c ****               change_flag = 1U;
 1851              		.loc 1 887 45 is_stmt 0 view .LVU734
 1852 01dc 721C     		adds	r2, r6, #1
 887:Src/maze_solve.c ****               change_flag = 1U;
 1853              		.loc 1 887 43 view .LVU735
 1854 01de 07F80A20 		strb	r2, [r7, r10]
 1855              	.LVL257:
 888:Src/maze_solve.c ****             }
 1856              		.loc 1 888 15 is_stmt 1 view .LVU736
 888:Src/maze_solve.c ****             }
 1857              		.loc 1 888 27 is_stmt 0 view .LVU737
 1858 01e2 0122     		movs	r2, #1
 1859 01e4 0092     		str	r2, [sp]
 1860 01e6 4AE0     		b	.L173
 1861              	.LVL258:
 1862              	.L199:
 897:Src/maze_solve.c ****           }
 1863              		.loc 1 897 17 view .LVU738
 1864 01e8 0022     		movs	r2, #0
 1865 01ea 51E0     		b	.L175
 1866              	.LVL259:
 1867              	.L215:
 902:Src/maze_solve.c ****             i4 = idx;
 1868              		.loc 1 902 13 is_stmt 1 view .LVU739
 902:Src/maze_solve.c ****             i4 = idx;
ARM GAS  C:\Temp\ccSQM2w2.s 			page 67


 1869              		.loc 1 902 38 is_stmt 0 view .LVU740
 1870 01ec 09F10102 		add	r2, r9, #1
 1871              	.LVL260:
 903:Src/maze_solve.c ****             if ((unsigned int)idx > 255U) {
 1872              		.loc 1 903 13 is_stmt 1 view .LVU741
 904:Src/maze_solve.c ****               i4 = 255;
 1873              		.loc 1 904 13 view .LVU742
 904:Src/maze_solve.c ****               i4 = 255;
 1874              		.loc 1 904 16 is_stmt 0 view .LVU743
 1875 01f0 FF2A     		cmp	r2, #255
 1876 01f2 00D9     		bls	.L177
 1877              	.LVL261:
 905:Src/maze_solve.c ****             }
 1878              		.loc 1 905 18 view .LVU744
 1879 01f4 FF22     		movs	r2, #255
 1880              	.LVL262:
 1881              	.L177:
 908:Src/maze_solve.c ****                  char)qY) {
 1882              		.loc 1 908 13 is_stmt 1 view .LVU745
 908:Src/maze_solve.c ****                  char)qY) {
 1883              		.loc 1 908 50 is_stmt 0 view .LVU746
 1884 01f6 013A     		subs	r2, r2, #1
 908:Src/maze_solve.c ****                  char)qY) {
 1885              		.loc 1 908 43 view .LVU747
 1886 01f8 0CEB4212 		add	r2, ip, r2, lsl #5
 908:Src/maze_solve.c ****                  char)qY) {
 1887              		.loc 1 908 28 view .LVU748
 1888 01fc 013A     		subs	r2, r2, #1
 1889 01fe 17F802A0 		ldrb	r10, [r7, r2]	@ zero_extendqisi2
 908:Src/maze_solve.c ****                  char)qY) {
 1890              		.loc 1 908 16 view .LVU749
 1891 0202 D045     		cmp	r8, r10
 1892 0204 49D1     		bne	.L176
 910:Src/maze_solve.c ****                 idx = 255;
 1893              		.loc 1 910 15 is_stmt 1 view .LVU750
 914:Src/maze_solve.c ****                 char)(tempi + 1);
 1894              		.loc 1 914 15 view .LVU751
 914:Src/maze_solve.c ****                 char)(tempi + 1);
 1895              		.loc 1 914 68 is_stmt 0 view .LVU752
 1896 0206 06F1010A 		add	r10, r6, #1
 914:Src/maze_solve.c ****                 char)(tempi + 1);
 1897              		.loc 1 914 66 view .LVU753
 1898 020a 07F802A0 		strb	r10, [r7, r2]
 1899              	.LVL263:
 916:Src/maze_solve.c ****             }
 1900              		.loc 1 916 15 is_stmt 1 view .LVU754
 916:Src/maze_solve.c ****             }
 1901              		.loc 1 916 27 is_stmt 0 view .LVU755
 1902 020e 0122     		movs	r2, #1
 1903 0210 0092     		str	r2, [sp]
 1904 0212 42E0     		b	.L176
 1905              	.LVL264:
 1906              	.L201:
 925:Src/maze_solve.c ****           }
 1907              		.loc 1 925 17 view .LVU756
 1908 0214 0022     		movs	r2, #0
 1909 0216 49E0     		b	.L178
ARM GAS  C:\Temp\ccSQM2w2.s 			page 68


 1910              	.LVL265:
 1911              	.L216:
 930:Src/maze_solve.c ****             if (contour_map[idx] == (unsigned char)qY) {
 1912              		.loc 1 930 13 is_stmt 1 view .LVU757
 930:Src/maze_solve.c ****             if (contour_map[idx] == (unsigned char)qY) {
 1913              		.loc 1 930 17 is_stmt 0 view .LVU758
 1914 0218 023B     		subs	r3, r3, #2
 1915              	.LVL266:
 931:Src/maze_solve.c ****               contour_map[idx] = (unsigned char)(tempi + 1);
 1916              		.loc 1 931 13 is_stmt 1 view .LVU759
 931:Src/maze_solve.c ****               contour_map[idx] = (unsigned char)(tempi + 1);
 1917              		.loc 1 931 28 is_stmt 0 view .LVU760
 1918 021a FA5C     		ldrb	r2, [r7, r3]	@ zero_extendqisi2
 931:Src/maze_solve.c ****               contour_map[idx] = (unsigned char)(tempi + 1);
 1919              		.loc 1 931 16 view .LVU761
 1920 021c 9045     		cmp	r8, r2
 1921 021e 4AD1     		bne	.L179
 932:Src/maze_solve.c ****               change_flag = 1U;
 1922              		.loc 1 932 15 is_stmt 1 view .LVU762
 932:Src/maze_solve.c ****               change_flag = 1U;
 1923              		.loc 1 932 34 is_stmt 0 view .LVU763
 1924 0220 721C     		adds	r2, r6, #1
 932:Src/maze_solve.c ****               change_flag = 1U;
 1925              		.loc 1 932 32 view .LVU764
 1926 0222 FA54     		strb	r2, [r7, r3]
 1927              	.LVL267:
 933:Src/maze_solve.c ****             }
 1928              		.loc 1 933 15 is_stmt 1 view .LVU765
 933:Src/maze_solve.c ****             }
 1929              		.loc 1 933 27 is_stmt 0 view .LVU766
 1930 0224 0123     		movs	r3, #1
 1931              	.LVL268:
 933:Src/maze_solve.c ****             }
 1932              		.loc 1 933 27 view .LVU767
 1933 0226 0093     		str	r3, [sp]
 1934 0228 45E0     		b	.L179
 1935              	.LVL269:
 1936              	.L202:
 942:Src/maze_solve.c ****           }
 1937              		.loc 1 942 17 view .LVU768
 1938 022a 0023     		movs	r3, #0
 1939              	.L180:
 1940              	.LVL270:
 945:Src/maze_solve.c ****             /* 西側のMAPが更新されているか判断、されていなければ書き込み
 1941              		.loc 1 945 11 is_stmt 1 view .LVU769
 945:Src/maze_solve.c ****             /* 西側のMAPが更新されているか判断、されていなければ書き込み
 1942              		.loc 1 945 19 is_stmt 0 view .LVU770
 1943 022c 1840     		ands	r0, r0, r3
 1944              	.LVL271:
 945:Src/maze_solve.c ****             /* 西側のMAPが更新されているか判断、されていなければ書き込み
 1945              		.loc 1 945 43 view .LVU771
 1946 022e 2B78     		ldrb	r3, [r5]	@ zero_extendqisi2
 1947              	.LVL272:
 945:Src/maze_solve.c ****             /* 西側のMAPが更新されているか判断、されていなければ書き込み
 1948              		.loc 1 945 14 view .LVU772
 1949 0230 9842     		cmp	r0, r3
 1950 0232 47D0     		beq	.L212
ARM GAS  C:\Temp\ccSQM2w2.s 			page 69


 1951              	.LVL273:
 1952              	.L181:
 862:Src/maze_solve.c ****           /* 北側 */
 1953              		.loc 1 862 31 is_stmt 1 discriminator 2 view .LVU773
 862:Src/maze_solve.c ****           /* 北側 */
 1954              		.loc 1 862 33 is_stmt 0 discriminator 2 view .LVU774
 1955 0234 0131     		adds	r1, r1, #1
 1956              	.LVL274:
 1957              	.L171:
 862:Src/maze_solve.c ****           /* 北側 */
 1958              		.loc 1 862 22 is_stmt 1 discriminator 1 view .LVU775
 862:Src/maze_solve.c ****           /* 北側 */
 1959              		.loc 1 862 9 is_stmt 0 discriminator 1 view .LVU776
 1960 0236 7145     		cmp	r1, lr
 1961 0238 54DA     		bge	.L213
 864:Src/maze_solve.c ****           idx = (col_data[q0] - 1) << 5;
 1962              		.loc 1 864 11 is_stmt 1 view .LVU777
 864:Src/maze_solve.c ****           idx = (col_data[q0] - 1) << 5;
 1963              		.loc 1 864 13 is_stmt 0 view .LVU778
 1964 023a 94F800B0 		ldrb	fp, [r4]	@ zero_extendqisi2
 1965              	.LVL275:
 865:Src/maze_solve.c ****           loop_ub = row_data[q0] + idx;
 1966              		.loc 1 865 11 is_stmt 1 view .LVU779
 865:Src/maze_solve.c ****           loop_ub = row_data[q0] + idx;
 1967              		.loc 1 865 26 is_stmt 0 view .LVU780
 1968 023e 03AB     		add	r3, sp, #12
 1969 0240 13F80190 		ldrb	r9, [r3, r1]	@ zero_extendqisi2
 865:Src/maze_solve.c ****           loop_ub = row_data[q0] + idx;
 1970              		.loc 1 865 31 view .LVU781
 1971 0244 09F1FF33 		add	r3, r9, #-1
 865:Src/maze_solve.c ****           loop_ub = row_data[q0] + idx;
 1972              		.loc 1 865 15 view .LVU782
 1973 0248 4FEA431A 		lsl	r10, r3, #5
 1974              	.LVL276:
 866:Src/maze_solve.c ****           i3 = maze_wall[loop_ub - 1];
 1975              		.loc 1 866 11 is_stmt 1 view .LVU783
 866:Src/maze_solve.c ****           i3 = maze_wall[loop_ub - 1];
 1976              		.loc 1 866 29 is_stmt 0 view .LVU784
 1977 024c 0DF20C42 		addw	r2, sp, #1036
 1978 0250 12F801C0 		ldrb	ip, [r2, r1]	@ zero_extendqisi2
 866:Src/maze_solve.c ****           i3 = maze_wall[loop_ub - 1];
 1979              		.loc 1 866 19 view .LVU785
 1980 0254 0CEB4313 		add	r3, ip, r3, lsl #5
 1981              	.LVL277:
 867:Src/maze_solve.c ****           if (k <= 7) {
 1982              		.loc 1 867 11 is_stmt 1 view .LVU786
 867:Src/maze_solve.c ****           if (k <= 7) {
 1983              		.loc 1 867 25 is_stmt 0 view .LVU787
 1984 0258 0DF58252 		add	r2, sp, #4160
 1985              	.LVL278:
 867:Src/maze_solve.c ****           if (k <= 7) {
 1986              		.loc 1 867 25 view .LVU788
 1987 025c 0832     		adds	r2, r2, #8
 1988              	.LVL279:
 867:Src/maze_solve.c ****           if (k <= 7) {
 1989              		.loc 1 867 25 view .LVU789
 1990 025e 1268     		ldr	r2, [r2]
ARM GAS  C:\Temp\ccSQM2w2.s 			page 70


 1991              	.LVL280:
 867:Src/maze_solve.c ****           if (k <= 7) {
 1992              		.loc 1 867 25 view .LVU790
 1993 0260 1A44     		add	r2, r2, r3
 1994 0262 12F8010C 		ldrb	r0, [r2, #-1]	@ zero_extendqisi2
 1995              	.LVL281:
 868:Src/maze_solve.c ****             b_k = (unsigned char)(1 << k);
 1996              		.loc 1 868 11 is_stmt 1 view .LVU791
 868:Src/maze_solve.c ****             b_k = (unsigned char)(1 << k);
 1997              		.loc 1 868 14 is_stmt 0 view .LVU792
 1998 0266 BBF1070F 		cmp	fp, #7
 1999 026a A9D8     		bhi	.L197
 869:Src/maze_solve.c ****           } else {
 2000              		.loc 1 869 13 is_stmt 1 view .LVU793
 869:Src/maze_solve.c ****           } else {
 2001              		.loc 1 869 37 is_stmt 0 view .LVU794
 2002 026c 0122     		movs	r2, #1
 2003 026e 02FA0BF2 		lsl	r2, r2, fp
 2004 0272 D2B2     		uxtb	r2, r2
 2005              	.LVL282:
 2006              	.L172:
 874:Src/maze_solve.c ****             /* 北側のMAPが更新されているか判断、されていなければ書き込み
 2007              		.loc 1 874 11 is_stmt 1 view .LVU795
 874:Src/maze_solve.c ****             /* 北側のMAPが更新されているか判断、されていなければ書き込み
 2008              		.loc 1 874 19 is_stmt 0 view .LVU796
 2009 0274 0240     		ands	r2, r2, r0
 2010              	.LVL283:
 874:Src/maze_solve.c ****             /* 北側のMAPが更新されているか判断、されていなければ書き込み
 2011              		.loc 1 874 43 view .LVU797
 2012 0276 95F800B0 		ldrb	fp, [r5]	@ zero_extendqisi2
 2013              	.LVL284:
 874:Src/maze_solve.c ****             /* 北側のMAPが更新されているか判断、されていなければ書き込み
 2014              		.loc 1 874 14 view .LVU798
 2015 027a 5A45     		cmp	r2, fp
 2016 027c A2D0     		beq	.L214
 2017              	.LVL285:
 2018              	.L173:
 893:Src/maze_solve.c ****           if (k <= 7) {
 2019              		.loc 1 893 11 is_stmt 1 view .LVU799
 893:Src/maze_solve.c ****           if (k <= 7) {
 2020              		.loc 1 893 13 is_stmt 0 view .LVU800
 2021 027e 94F801A0 		ldrb	r10, [r4, #1]	@ zero_extendqisi2
 2022              	.LVL286:
 894:Src/maze_solve.c ****             c_k = (unsigned char)(1 << k);
 2023              		.loc 1 894 11 is_stmt 1 view .LVU801
 894:Src/maze_solve.c ****             c_k = (unsigned char)(1 << k);
 2024              		.loc 1 894 14 is_stmt 0 view .LVU802
 2025 0282 BAF1070F 		cmp	r10, #7
 2026 0286 AFD8     		bhi	.L199
 895:Src/maze_solve.c ****           } else {
 2027              		.loc 1 895 13 is_stmt 1 view .LVU803
 895:Src/maze_solve.c ****           } else {
 2028              		.loc 1 895 37 is_stmt 0 view .LVU804
 2029 0288 0122     		movs	r2, #1
 2030 028a 02FA0AF2 		lsl	r2, r2, r10
 2031 028e D2B2     		uxtb	r2, r2
 2032              	.LVL287:
ARM GAS  C:\Temp\ccSQM2w2.s 			page 71


 2033              	.L175:
 900:Src/maze_solve.c ****             /* 東側のMAPが更新されているか判断、されていなければ書き込み
 2034              		.loc 1 900 11 is_stmt 1 view .LVU805
 900:Src/maze_solve.c ****             /* 東側のMAPが更新されているか判断、されていなければ書き込み
 2035              		.loc 1 900 19 is_stmt 0 view .LVU806
 2036 0290 0240     		ands	r2, r2, r0
 2037              	.LVL288:
 900:Src/maze_solve.c ****             /* 東側のMAPが更新されているか判断、されていなければ書き込み
 2038              		.loc 1 900 43 view .LVU807
 2039 0292 95F800A0 		ldrb	r10, [r5]	@ zero_extendqisi2
 2040              	.LVL289:
 900:Src/maze_solve.c ****             /* 東側のMAPが更新されているか判断、されていなければ書き込み
 2041              		.loc 1 900 14 view .LVU808
 2042 0296 5245     		cmp	r2, r10
 2043 0298 A8D0     		beq	.L215
 2044              	.LVL290:
 2045              	.L176:
 921:Src/maze_solve.c ****           if (k <= 7) {
 2046              		.loc 1 921 11 is_stmt 1 view .LVU809
 921:Src/maze_solve.c ****           if (k <= 7) {
 2047              		.loc 1 921 13 is_stmt 0 view .LVU810
 2048 029a 94F802A0 		ldrb	r10, [r4, #2]	@ zero_extendqisi2
 2049              	.LVL291:
 922:Src/maze_solve.c ****             d_k = (unsigned char)(1 << k);
 2050              		.loc 1 922 11 is_stmt 1 view .LVU811
 922:Src/maze_solve.c ****             d_k = (unsigned char)(1 << k);
 2051              		.loc 1 922 14 is_stmt 0 view .LVU812
 2052 029e BAF1070F 		cmp	r10, #7
 2053 02a2 B7D8     		bhi	.L201
 923:Src/maze_solve.c ****           } else {
 2054              		.loc 1 923 13 is_stmt 1 view .LVU813
 923:Src/maze_solve.c ****           } else {
 2055              		.loc 1 923 37 is_stmt 0 view .LVU814
 2056 02a4 0122     		movs	r2, #1
 2057 02a6 02FA0AF2 		lsl	r2, r2, r10
 2058 02aa D2B2     		uxtb	r2, r2
 2059              	.LVL292:
 2060              	.L178:
 928:Src/maze_solve.c ****             /* 南側のMAPが更新されているか判断、されていなければ書き込み
 2061              		.loc 1 928 11 is_stmt 1 view .LVU815
 928:Src/maze_solve.c ****             /* 南側のMAPが更新されているか判断、されていなければ書き込み
 2062              		.loc 1 928 19 is_stmt 0 view .LVU816
 2063 02ac 0240     		ands	r2, r2, r0
 2064              	.LVL293:
 928:Src/maze_solve.c ****             /* 南側のMAPが更新されているか判断、されていなければ書き込み
 2065              		.loc 1 928 43 view .LVU817
 2066 02ae 95F800A0 		ldrb	r10, [r5]	@ zero_extendqisi2
 2067              	.LVL294:
 928:Src/maze_solve.c ****             /* 南側のMAPが更新されているか判断、されていなければ書き込み
 2068              		.loc 1 928 14 view .LVU818
 2069 02b2 5245     		cmp	r2, r10
 2070 02b4 B0D0     		beq	.L216
 2071              	.LVL295:
 2072              	.L179:
 938:Src/maze_solve.c ****           if (k <= 7) {
 2073              		.loc 1 938 11 is_stmt 1 view .LVU819
 938:Src/maze_solve.c ****           if (k <= 7) {
ARM GAS  C:\Temp\ccSQM2w2.s 			page 72


 2074              		.loc 1 938 13 is_stmt 0 view .LVU820
 2075 02b6 E278     		ldrb	r2, [r4, #3]	@ zero_extendqisi2
 2076              	.LVL296:
 939:Src/maze_solve.c ****             e_k = (unsigned char)(1 << k);
 2077              		.loc 1 939 11 is_stmt 1 view .LVU821
 939:Src/maze_solve.c ****             e_k = (unsigned char)(1 << k);
 2078              		.loc 1 939 14 is_stmt 0 view .LVU822
 2079 02b8 072A     		cmp	r2, #7
 2080 02ba B6D8     		bhi	.L202
 940:Src/maze_solve.c ****           } else {
 2081              		.loc 1 940 13 is_stmt 1 view .LVU823
 940:Src/maze_solve.c ****           } else {
 2082              		.loc 1 940 37 is_stmt 0 view .LVU824
 2083 02bc 0123     		movs	r3, #1
 2084 02be 9340     		lsls	r3, r3, r2
 2085 02c0 DBB2     		uxtb	r3, r3
 2086              	.LVL297:
 940:Src/maze_solve.c ****           } else {
 2087              		.loc 1 940 37 view .LVU825
 2088 02c2 B3E7     		b	.L180
 2089              	.LVL298:
 2090              	.L212:
 947:Src/maze_solve.c ****             if (contour_map[idx] == (unsigned char)qY) {
 2091              		.loc 1 947 13 is_stmt 1 view .LVU826
 947:Src/maze_solve.c ****             if (contour_map[idx] == (unsigned char)qY) {
 2092              		.loc 1 947 50 is_stmt 0 view .LVU827
 2093 02c4 A9F10209 		sub	r9, r9, #2
 2094              	.LVL299:
 947:Src/maze_solve.c ****             if (contour_map[idx] == (unsigned char)qY) {
 2095              		.loc 1 947 33 view .LVU828
 2096 02c8 0CEB491C 		add	ip, ip, r9, lsl #5
 2097              	.LVL300:
 947:Src/maze_solve.c ****             if (contour_map[idx] == (unsigned char)qY) {
 2098              		.loc 1 947 17 view .LVU829
 2099 02cc 0CF1FF3C 		add	ip, ip, #-1
 2100              	.LVL301:
 948:Src/maze_solve.c ****               contour_map[idx] = (unsigned char)(tempi + 1);
 2101              		.loc 1 948 13 is_stmt 1 view .LVU830
 948:Src/maze_solve.c ****               contour_map[idx] = (unsigned char)(tempi + 1);
 2102              		.loc 1 948 28 is_stmt 0 view .LVU831
 2103 02d0 17F80C30 		ldrb	r3, [r7, ip]	@ zero_extendqisi2
 948:Src/maze_solve.c ****               contour_map[idx] = (unsigned char)(tempi + 1);
 2104              		.loc 1 948 16 view .LVU832
 2105 02d4 9845     		cmp	r8, r3
 2106 02d6 ADD1     		bne	.L181
 949:Src/maze_solve.c ****               change_flag = 1U;
 2107              		.loc 1 949 15 is_stmt 1 view .LVU833
 949:Src/maze_solve.c ****               change_flag = 1U;
 2108              		.loc 1 949 34 is_stmt 0 view .LVU834
 2109 02d8 731C     		adds	r3, r6, #1
 949:Src/maze_solve.c ****               change_flag = 1U;
 2110              		.loc 1 949 32 view .LVU835
 2111 02da 07F80C30 		strb	r3, [r7, ip]
 950:Src/maze_solve.c ****             }
 2112              		.loc 1 950 15 is_stmt 1 view .LVU836
 2113              	.LVL302:
 950:Src/maze_solve.c ****             }
ARM GAS  C:\Temp\ccSQM2w2.s 			page 73


 2114              		.loc 1 950 27 is_stmt 0 view .LVU837
 2115 02de 0123     		movs	r3, #1
 2116 02e0 0093     		str	r3, [sp]
 2117 02e2 A7E7     		b	.L181
 2118              	.LVL303:
 2119              	.L213:
 955:Src/maze_solve.c ****       }
 2120              		.loc 1 955 9 is_stmt 1 view .LVU838
 955:Src/maze_solve.c ****       }
 2121              		.loc 1 955 14 is_stmt 0 view .LVU839
 2122 02e4 0136     		adds	r6, r6, #1
 2123              	.LVL304:
 955:Src/maze_solve.c ****       }
 2124              		.loc 1 955 14 view .LVU840
 2125 02e6 F6B2     		uxtb	r6, r6
 2126              	.LVL305:
 2127              	.L170:
 769:Src/maze_solve.c ****       /* 歩数カウントは0~max_length-1 */
 2128              		.loc 1 769 11 is_stmt 1 view .LVU841
 2129 02e8 019B     		ldr	r3, [sp, #4]
 2130 02ea 63B9     		cbnz	r3, .L183
 769:Src/maze_solve.c ****       /* 歩数カウントは0~max_length-1 */
 2131              		.loc 1 769 35 is_stmt 0 discriminator 1 view .LVU842
 2132 02ec 08F1FF33 		add	r3, r8, #-1
 2133 02f0 DBB2     		uxtb	r3, r3
 769:Src/maze_solve.c ****       /* 歩数カウントは0~max_length-1 */
 2134              		.loc 1 769 22 discriminator 1 view .LVU843
 2135 02f2 B342     		cmp	r3, r6
 2136 02f4 07D3     		bcc	.L183
 775:Src/maze_solve.c ****       while ((!exitg2) && (q0 < 1024)) {
 2137              		.loc 1 775 14 view .LVU844
 2138 02f6 0199     		ldr	r1, [sp, #4]
 773:Src/maze_solve.c ****       q0 = 0;
 2139              		.loc 1 773 11 view .LVU845
 2140 02f8 4FF00009 		mov	r9, #0
 774:Src/maze_solve.c ****       exitg2 = false;
 2141              		.loc 1 774 10 view .LVU846
 2142 02fc 4B46     		mov	r3, r9
 2143 02fe BEE6     		b	.L184
 2144              	.LVL306:
 2145              	.L196:
 858:Src/maze_solve.c ****       } else {
 2146              		.loc 1 858 16 view .LVU847
 2147 0300 0123     		movs	r3, #1
 2148 0302 0193     		str	r3, [sp, #4]
 2149              	.LVL307:
 858:Src/maze_solve.c ****       } else {
 2150              		.loc 1 858 16 view .LVU848
 2151 0304 F0E7     		b	.L170
 2152              	.LVL308:
 2153              	.L183:
 960:Src/maze_solve.c **** }
 2154              		.loc 1 960 11 is_stmt 1 view .LVU849
 960:Src/maze_solve.c **** }
 2155              		.loc 1 960 3 is_stmt 0 view .LVU850
 2156 0306 009B     		ldr	r3, [sp]
 2157 0308 23B1     		cbz	r3, .L217
ARM GAS  C:\Temp\ccSQM2w2.s 			page 74


 2158              	.LVL309:
 2159              	.L185:
 763:Src/maze_solve.c ****     change_flag = 0U;
 2160              		.loc 1 763 3 is_stmt 1 view .LVU851
 764:Src/maze_solve.c **** 
 2161              		.loc 1 764 5 view .LVU852
 767:Src/maze_solve.c ****     exitg1 = false;
 2162              		.loc 1 767 5 view .LVU853
 768:Src/maze_solve.c ****     while ((!exitg1) && (tempi <= (unsigned char)(qY - 1))) {
 2163              		.loc 1 768 5 view .LVU854
 769:Src/maze_solve.c ****       /* 歩数カウントは0~max_length-1 */
 2164              		.loc 1 769 5 view .LVU855
 768:Src/maze_solve.c ****     while ((!exitg1) && (tempi <= (unsigned char)(qY - 1))) {
 2165              		.loc 1 768 12 is_stmt 0 view .LVU856
 2166 030a 0023     		movs	r3, #0
 2167 030c 0193     		str	r3, [sp, #4]
 767:Src/maze_solve.c ****     exitg1 = false;
 2168              		.loc 1 767 11 view .LVU857
 2169 030e 1E46     		mov	r6, r3
 764:Src/maze_solve.c **** 
 2170              		.loc 1 764 17 view .LVU858
 2171 0310 0093     		str	r3, [sp]
 769:Src/maze_solve.c ****       /* 歩数カウントは0~max_length-1 */
 2172              		.loc 1 769 11 view .LVU859
 2173 0312 E9E7     		b	.L170
 2174              	.LVL310:
 2175              	.L217:
 961:Src/maze_solve.c **** 
 2176              		.loc 1 961 1 view .LVU860
 2177 0314 0DF5805D 		add	sp, sp, #4096
 2178              	.LVL311:
 961:Src/maze_solve.c **** 
 2179              		.loc 1 961 1 view .LVU861
 2180 0318 07B0     		add	sp, sp, #28
 2181              	.LCFI9:
 2182              		.cfi_def_cfa_offset 36
 2183              		@ sp needed
 2184 031a BDE8F08F 		pop	{r4, r5, r6, r7, r8, r9, r10, fp, pc}
 2185              	.LVL312:
 2186              	.L219:
 961:Src/maze_solve.c **** 
 2187              		.loc 1 961 1 view .LVU862
 2188 031e 00BF     		.align	2
 2189              	.L218:
 2190 0320 00000000 		.word	.LANCHOR0
 2191 0324 00000000 		.word	.LANCHOR1
 2192 0328 00000000 		.word	.LANCHOR2
 2193              		.cfi_endproc
 2194              	.LFE134:
 2196              		.section	.text.search_adachi,"ax",%progbits
 2197              		.align	1
 2198              		.syntax unified
 2199              		.thumb
 2200              		.thumb_func
 2201              		.fpu fpv4-sp-d16
 2203              	search_adachi:
 2204              	.LVL313:
ARM GAS  C:\Temp\ccSQM2w2.s 			page 75


 2205              	.LFB137:
1356:Src/maze_solve.c **** 
1357:Src/maze_solve.c **** /*
1358:Src/maze_solve.c ****  * 入力　現在位置x,y,現在方向,迷路行方向サイズ,迷路列方向サイズ,迷路
1359:Src/maze_solve.c ****  * 出力  現在位置x,y,現在方向,壁情報,探索情報
1360:Src/maze_solve.c ****  * Arguments    : const coder_internal_ref_2 *wall
1361:Src/maze_solve.c ****  *                const coder_internal_ref_1 *search
1362:Src/maze_solve.c ****  *                const coder_internal_ref_4 *g_direction
1363:Src/maze_solve.c ****  *                const coder_internal_ref_3 *l_direction
1364:Src/maze_solve.c ****  *                unsigned char *current_x
1365:Src/maze_solve.c ****  *                unsigned char *current_y
1366:Src/maze_solve.c ****  *                unsigned char *current_dir
1367:Src/maze_solve.c ****  *                unsigned char maze_row_size
1368:Src/maze_solve.c ****  *                unsigned char maze_col_size
1369:Src/maze_solve.c ****  *                unsigned char maze_wall[1024]
1370:Src/maze_solve.c ****  *                unsigned char maze_wall_search[1024]
1371:Src/maze_solve.c ****  *                const unsigned char maze_goal[18]
1372:Src/maze_solve.c ****  *                unsigned char l_goal_size
1373:Src/maze_solve.c ****  * Return Type  : void
1374:Src/maze_solve.c ****  */
1375:Src/maze_solve.c **** static void search_adachi(const coder_internal_ref_2 *wall, const
1376:Src/maze_solve.c ****   coder_internal_ref_1 *search, const coder_internal_ref_4 *g_direction, const
1377:Src/maze_solve.c ****   coder_internal_ref_3 *l_direction, unsigned char *current_x, unsigned char
1378:Src/maze_solve.c ****   *current_y, unsigned char *current_dir, unsigned char maze_row_size, unsigned
1379:Src/maze_solve.c ****   char maze_col_size, unsigned char maze_wall[1024], unsigned char
1380:Src/maze_solve.c ****   maze_wall_search[1024], const unsigned char maze_goal[18], unsigned char
1381:Src/maze_solve.c ****   l_goal_size)
1382:Src/maze_solve.c **** {
 2206              		.loc 1 1382 1 is_stmt 1 view -0
 2207              		.cfi_startproc
 2208              		@ args = 36, pretend = 0, frame = 1072
 2209              		@ frame_needed = 0, uses_anonymous_args = 0
 2210              		.loc 1 1382 1 is_stmt 0 view .LVU864
 2211 0000 2DE9F04F 		push	{r4, r5, r6, r7, r8, r9, r10, fp, lr}
 2212              	.LCFI10:
 2213              		.cfi_def_cfa_offset 36
 2214              		.cfi_offset 4, -36
 2215              		.cfi_offset 5, -32
 2216              		.cfi_offset 6, -28
 2217              		.cfi_offset 7, -24
 2218              		.cfi_offset 8, -20
 2219              		.cfi_offset 9, -16
 2220              		.cfi_offset 10, -12
 2221              		.cfi_offset 11, -8
 2222              		.cfi_offset 14, -4
 2223 0004 ADF24C4D 		subw	sp, sp, #1100
 2224              	.LCFI11:
 2225              		.cfi_def_cfa_offset 1136
 2226 0008 0890     		str	r0, [sp, #32]
 2227 000a 0B91     		str	r1, [sp, #44]
 2228 000c 1546     		mov	r5, r2
 2229 000e 0C93     		str	r3, [sp, #48]
 2230 0010 DDF87044 		ldr	r4, [sp, #1136]
 2231 0014 DDF87494 		ldr	r9, [sp, #1140]
 2232 0018 DDF878A4 		ldr	r10, [sp, #1144]
 2233 001c 9DF87C34 		ldrb	r3, [sp, #1148]	@ zero_extendqisi2
 2234              	.LVL314:
ARM GAS  C:\Temp\ccSQM2w2.s 			page 76


 2235              		.loc 1 1382 1 view .LVU865
 2236 0020 0993     		str	r3, [sp, #36]
 2237 0022 9DF88034 		ldrb	r3, [sp, #1152]	@ zero_extendqisi2
 2238 0026 0A93     		str	r3, [sp, #40]
 2239 0028 DDF88484 		ldr	r8, [sp, #1156]
 2240 002c DDF888B4 		ldr	fp, [sp, #1160]
 2241 0030 DDF88C64 		ldr	r6, [sp, #1164]
 2242 0034 9DF89034 		ldrb	r3, [sp, #1168]	@ zero_extendqisi2
 2243 0038 0D93     		str	r3, [sp, #52]
1383:Src/maze_solve.c ****   unsigned char goal_flag;
 2244              		.loc 1 1383 3 is_stmt 1 view .LVU866
1384:Src/maze_solve.c ****   int i9;
 2245              		.loc 1 1384 3 view .LVU867
1385:Src/maze_solve.c ****   int exitg1;
 2246              		.loc 1 1385 3 view .LVU868
1386:Src/maze_solve.c ****   unsigned char wall_write[4];
 2247              		.loc 1 1386 3 view .LVU869
1387:Src/maze_solve.c ****   unsigned char serch_write[4];
 2248              		.loc 1 1387 3 view .LVU870
1388:Src/maze_solve.c ****   int i10;
 2249              		.loc 1 1388 3 view .LVU871
1389:Src/maze_solve.c ****   unsigned char k;
 2250              		.loc 1 1389 3 view .LVU872
1390:Src/maze_solve.c ****   int b_k;
 2251              		.loc 1 1390 3 view .LVU873
1391:Src/maze_solve.c **** static  int i11;
 2252              		.loc 1 1391 1 view .LVU874
1392:Src/maze_solve.c **** static  int i12;
 2253              		.loc 1 1392 1 view .LVU875
1393:Src/maze_solve.c ****   int c_k;
 2254              		.loc 1 1393 3 view .LVU876
1394:Src/maze_solve.c ****   int d_k;
 2255              		.loc 1 1394 3 view .LVU877
1395:Src/maze_solve.c ****   int e_k;
 2256              		.loc 1 1395 3 view .LVU878
1396:Src/maze_solve.c ****   int f_k;
 2257              		.loc 1 1396 3 view .LVU879
1397:Src/maze_solve.c ****   int g_k;
 2258              		.loc 1 1397 3 view .LVU880
1398:Src/maze_solve.c ****   int h_k;
 2259              		.loc 1 1398 3 view .LVU881
1399:Src/maze_solve.c ****   int i_k;
 2260              		.loc 1 1399 3 view .LVU882
1400:Src/maze_solve.c ****   unsigned int qY;
 2261              		.loc 1 1400 3 view .LVU883
1401:Src/maze_solve.c ****   int j_k;
 2262              		.loc 1 1401 3 view .LVU884
1402:Src/maze_solve.c ****   int q0;
 2263              		.loc 1 1402 3 view .LVU885
1403:Src/maze_solve.c ****   int k_k;
 2264              		.loc 1 1403 3 view .LVU886
1404:Src/maze_solve.c ****   int i13;
 2265              		.loc 1 1404 3 view .LVU887
1405:Src/maze_solve.c ****   int l_k;
 2266              		.loc 1 1405 3 view .LVU888
1406:Src/maze_solve.c ****   int i14;
 2267              		.loc 1 1406 3 view .LVU889
ARM GAS  C:\Temp\ccSQM2w2.s 			page 77


1407:Src/maze_solve.c ****   int m_k;
 2268              		.loc 1 1407 3 view .LVU890
1408:Src/maze_solve.c ****   unsigned char cmap[1024];
 2269              		.loc 1 1408 3 view .LVU891
1409:Src/maze_solve.c ****   unsigned char little;
 2270              		.loc 1 1409 3 view .LVU892
1410:Src/maze_solve.c ****   int n_k;
 2271              		.loc 1 1410 3 view .LVU893
1411:Src/maze_solve.c ****   unsigned int b_qY;
 2272              		.loc 1 1411 3 view .LVU894
1412:Src/maze_solve.c ****   unsigned char next_dir;
 2273              		.loc 1 1412 3 view .LVU895
1413:Src/maze_solve.c ****   int o_k;
 2274              		.loc 1 1413 3 view .LVU896
1414:Src/maze_solve.c ****   int p_k;
 2275              		.loc 1 1414 3 view .LVU897
1415:Src/maze_solve.c ****   int q_k;
 2276              		.loc 1 1415 3 view .LVU898
1416:Src/maze_solve.c ****   int r_k;
 2277              		.loc 1 1416 3 view .LVU899
1417:Src/maze_solve.c ****   int s_k;
 2278              		.loc 1 1417 3 view .LVU900
1418:Src/maze_solve.c ****   int t_k;
 2279              		.loc 1 1418 3 view .LVU901
1419:Src/maze_solve.c ****   int u_k;
 2280              		.loc 1 1419 3 view .LVU902
1420:Src/maze_solve.c ****   unsigned char varargin_3;
 2281              		.loc 1 1420 3 view .LVU903
1421:Src/maze_solve.c ****   unsigned char varargin_4;
 2282              		.loc 1 1421 3 view .LVU904
1422:Src/maze_solve.c **** 
1423:Src/maze_solve.c ****   /*  search_adachi 足立法での探索 */
1424:Src/maze_solve.c ****   /* local変数宣言 */
1425:Src/maze_solve.c ****   goal_flag = 0U;
 2283              		.loc 1 1425 3 view .LVU905
 2284              	.LVL315:
1426:Src/maze_solve.c **** 
1427:Src/maze_solve.c ****   /* 探索開始時x */
1428:Src/maze_solve.c ****   /* 探索開始時y */
1429:Src/maze_solve.c ****   /* for C gen */
1430:Src/maze_solve.c ****   i9 = l_goal_size;
 2285              		.loc 1 1430 3 view .LVU906
 2286              		.loc 1 1430 6 is_stmt 0 view .LVU907
 2287 003a 1F46     		mov	r7, r3
 2288              	.LVL316:
1425:Src/maze_solve.c **** 
 2289              		.loc 1 1425 13 view .LVU908
 2290 003c 0023     		movs	r3, #0
 2291              	.LVL317:
1425:Src/maze_solve.c **** 
 2292              		.loc 1 1425 13 view .LVU909
 2293 003e 0693     		str	r3, [sp, #24]
 2294 0040 0797     		str	r7, [sp, #28]
 2295 0042 00F012BC 		b	.L221
 2296              	.LVL318:
 2297              	.L445:
1431:Src/maze_solve.c ****   do {
ARM GAS  C:\Temp\ccSQM2w2.s 			page 78


1432:Src/maze_solve.c ****     exitg1 = 0;
1433:Src/maze_solve.c **** 
1434:Src/maze_solve.c ****     /* 壁情報取得 */
1435:Src/maze_solve.c ****       if (goal_after_flg == other)//ゴール直後は壁情報を更新しない。
1436:Src/maze_solve.c ****       {
1437:Src/maze_solve.c ****       /* matlab上では画像から取得した壁情報を参照する。 */
1438:Src/maze_solve.c ****       /* 入力:画像から得た迷路情報,迷路行方向壁枚数,迷路列方向壁枚数,  
1439:Src/maze_solve.c ****       /*      現在地座標x,y,現在進行方向,迷路壁情報,迷路壁探索情報          
1440:Src/maze_solve.c ****       /* 出力:迷路壁情報,迷路壁探索情報  */
1441:Src/maze_solve.c ****       /*   wall_set 壁情報取得 */
1442:Src/maze_solve.c ****       /* グローバル変数(matlabでは迷路データを、Cでは壁センサ値を参照) */
1443:Src/maze_solve.c ****       /* for matlab */
1444:Src/maze_solve.c ****       /* for C gen */
1445:Src/maze_solve.c ****       /* 壁センサAD値格納変数 */
1446:Src/maze_solve.c ****       /* 壁センサ閾値 */
1447:Src/maze_solve.c ****       /* ローカル変数宣言 */
1448:Src/maze_solve.c ****       /* 壁情報書き込み用バッファ(N,E,S,W) */
1449:Src/maze_solve.c ****       wall_write[0] = 0U;
 2298              		.loc 1 1449 7 is_stmt 1 view .LVU910
 2299              		.loc 1 1449 21 is_stmt 0 view .LVU911
 2300 0046 0020     		movs	r0, #0
 2301 0048 8DF84404 		strb	r0, [sp, #1092]
1450:Src/maze_solve.c ****       serch_write[0] = 0U;
 2302              		.loc 1 1450 7 is_stmt 1 view .LVU912
 2303              		.loc 1 1450 22 is_stmt 0 view .LVU913
 2304 004c 8DF84004 		strb	r0, [sp, #1088]
1451:Src/maze_solve.c ****       wall_write[1] = 0U;
 2305              		.loc 1 1451 7 is_stmt 1 view .LVU914
 2306              		.loc 1 1451 21 is_stmt 0 view .LVU915
 2307 0050 8DF84504 		strb	r0, [sp, #1093]
1452:Src/maze_solve.c ****       serch_write[1] = 0U;
 2308              		.loc 1 1452 7 is_stmt 1 view .LVU916
 2309              		.loc 1 1452 22 is_stmt 0 view .LVU917
 2310 0054 8DF84104 		strb	r0, [sp, #1089]
1453:Src/maze_solve.c ****       wall_write[2] = 0U;
 2311              		.loc 1 1453 7 is_stmt 1 view .LVU918
 2312              		.loc 1 1453 21 is_stmt 0 view .LVU919
 2313 0058 8DF84604 		strb	r0, [sp, #1094]
1454:Src/maze_solve.c ****       serch_write[2] = 0U;
 2314              		.loc 1 1454 7 is_stmt 1 view .LVU920
 2315              		.loc 1 1454 22 is_stmt 0 view .LVU921
 2316 005c 8DF84204 		strb	r0, [sp, #1090]
1455:Src/maze_solve.c ****       wall_write[3] = 0U;
 2317              		.loc 1 1455 7 is_stmt 1 view .LVU922
 2318              		.loc 1 1455 21 is_stmt 0 view .LVU923
 2319 0060 8DF84704 		strb	r0, [sp, #1095]
1456:Src/maze_solve.c ****       serch_write[3] = 0U;
 2320              		.loc 1 1456 7 is_stmt 1 view .LVU924
 2321              		.loc 1 1456 22 is_stmt 0 view .LVU925
 2322 0064 8DF84304 		strb	r0, [sp, #1091]
1457:Src/maze_solve.c **** 
1458:Src/maze_solve.c ****       /* 探索情報書き込み用バッファ(N,E,S,W) */
1459:Src/maze_solve.c ****       /* マウスの方向に基づく壁情報取得 */
1460:Src/maze_solve.c ****       /* マウスの方向と絶対方向の差=マウスの方向となることを利用し、 *
1461:Src/maze_solve.c ****       /* 絶対角度と整合をとる。 */
1462:Src/maze_solve.c ****       /*  実機はここをセンサ値に対応させる  */
1463:Src/maze_solve.c ****       wall_sensor_front = (Sensor_GetValue(0) + Sensor_GetValue(3))/2;
ARM GAS  C:\Temp\ccSQM2w2.s 			page 79


 2323              		.loc 1 1463 7 is_stmt 1 view .LVU926
 2324              		.loc 1 1463 28 is_stmt 0 view .LVU927
 2325 0068 FFF7FEFF 		bl	Sensor_GetValue
 2326              	.LVL319:
 2327 006c 0746     		mov	r7, r0
 2328              		.loc 1 1463 49 view .LVU928
 2329 006e 0320     		movs	r0, #3
 2330 0070 FFF7FEFF 		bl	Sensor_GetValue
 2331              	.LVL320:
 2332              		.loc 1 1463 47 view .LVU929
 2333 0074 3B46     		mov	r3, r7
 2334 0076 0344     		add	r3, r3, r0
 2335              		.loc 1 1463 68 view .LVU930
 2336 0078 03EBD373 		add	r3, r3, r3, lsr #31
 2337 007c 5B10     		asrs	r3, r3, #1
 2338              		.loc 1 1463 25 view .LVU931
 2339 007e CC4F     		ldr	r7, .L458
 2340 0080 3B60     		str	r3, [r7]
1464:Src/maze_solve.c ****       wall_sensor_right =  Sensor_GetValue(2);
 2341              		.loc 1 1464 7 is_stmt 1 view .LVU932
 2342              		.loc 1 1464 28 is_stmt 0 view .LVU933
 2343 0082 0220     		movs	r0, #2
 2344 0084 FFF7FEFF 		bl	Sensor_GetValue
 2345              	.LVL321:
 2346              		.loc 1 1464 25 view .LVU934
 2347 0088 CA4B     		ldr	r3, .L458+4
 2348 008a 1860     		str	r0, [r3]
1465:Src/maze_solve.c ****       wall_sensor_left =  Sensor_GetValue(1);
 2349              		.loc 1 1465 7 is_stmt 1 view .LVU935
 2350              		.loc 1 1465 27 is_stmt 0 view .LVU936
 2351 008c 0120     		movs	r0, #1
 2352 008e FFF7FEFF 		bl	Sensor_GetValue
 2353              	.LVL322:
 2354              		.loc 1 1465 24 view .LVU937
 2355 0092 C94B     		ldr	r3, .L458+8
 2356 0094 1860     		str	r0, [r3]
1466:Src/maze_solve.c ****       /* センサ値取得(要手直し) */
1467:Src/maze_solve.c ****       /* ここまで */
1468:Src/maze_solve.c ****       /* 前方の壁判定 */
1469:Src/maze_solve.c ****       /* for Cgen */
1470:Src/maze_solve.c ****       /* センサ値をもとに、壁の有無を判定 */
1471:Src/maze_solve.c **** 
1472:Src/maze_solve.c **** 
1473:Src/maze_solve.c ****       if (wall_sensor_front > wall_sensor_front_th) {
 2357              		.loc 1 1473 7 is_stmt 1 view .LVU938
 2358              		.loc 1 1473 29 is_stmt 0 view .LVU939
 2359 0096 3A68     		ldr	r2, [r7]
 2360 0098 C84B     		ldr	r3, .L458+12
 2361 009a 1B68     		ldr	r3, [r3]
 2362              		.loc 1 1473 10 view .LVU940
 2363 009c 9A42     		cmp	r2, r3
 2364 009e 00F32482 		bgt	.L440
 2365              	.L223:
1474:Src/maze_solve.c ****         /* 壁情報取得 */
1475:Src/maze_solve.c ****         wall_write[*current_dir % 4] = wall->contents.wall;
1476:Src/maze_solve.c ****         set_front_wall_flg();//前壁補正フラグを立てる
1477:Src/maze_solve.c ****       }
ARM GAS  C:\Temp\ccSQM2w2.s 			page 80


1478:Src/maze_solve.c **** 
1479:Src/maze_solve.c ****       /* 探索情報取更新 */
1480:Src/maze_solve.c ****       serch_write[*current_dir % 4] = search->contents.known;
 2366              		.loc 1 1480 7 is_stmt 1 view .LVU941
 2367              		.loc 1 1480 19 is_stmt 0 view .LVU942
 2368 00a2 9AF80030 		ldrb	r3, [r10]	@ zero_extendqisi2
 2369              		.loc 1 1480 32 view .LVU943
 2370 00a6 03F00302 		and	r2, r3, #3
 2371              		.loc 1 1480 55 view .LVU944
 2372 00aa 0B99     		ldr	r1, [sp, #44]
 2373 00ac 4978     		ldrb	r1, [r1, #1]	@ zero_extendqisi2
 2374              		.loc 1 1480 37 view .LVU945
 2375 00ae 0DF58960 		add	r0, sp, #1096
 2376 00b2 0244     		add	r2, r2, r0
 2377 00b4 02F8081C 		strb	r1, [r2, #-8]
1481:Src/maze_solve.c **** 
1482:Src/maze_solve.c ****       /* 右壁判定 */
1483:Src/maze_solve.c ****       /* for Cgen */
1484:Src/maze_solve.c ****       /* センサ値をもとに、壁の有無を判定 */
1485:Src/maze_solve.c ****       if (wall_sensor_right > wall_sensor_right_th) {
 2378              		.loc 1 1485 7 is_stmt 1 view .LVU946
 2379              		.loc 1 1485 29 is_stmt 0 view .LVU947
 2380 00b8 BE4A     		ldr	r2, .L458+4
 2381 00ba 1168     		ldr	r1, [r2]
 2382 00bc C04A     		ldr	r2, .L458+16
 2383 00be 1268     		ldr	r2, [r2]
 2384              		.loc 1 1485 10 view .LVU948
 2385 00c0 9142     		cmp	r1, r2
 2386 00c2 13DD     		ble	.L224
1486:Src/maze_solve.c ****         /* 壁情報取得 */
1487:Src/maze_solve.c ****         i10 = (int)(*current_dir + 1U);
 2387              		.loc 1 1487 9 is_stmt 1 view .LVU949
 2388              		.loc 1 1487 34 is_stmt 0 view .LVU950
 2389 00c4 0133     		adds	r3, r3, #1
 2390              	.LVL323:
1488:Src/maze_solve.c ****         if ((unsigned int)i10 > 255U) {
 2391              		.loc 1 1488 9 is_stmt 1 view .LVU951
 2392              		.loc 1 1488 12 is_stmt 0 view .LVU952
 2393 00c6 FF2B     		cmp	r3, #255
 2394 00c8 00D9     		bls	.L225
1489:Src/maze_solve.c ****           i10 = 255;
 2395              		.loc 1 1489 15 view .LVU953
 2396 00ca FF23     		movs	r3, #255
 2397              	.LVL324:
 2398              	.L225:
1490:Src/maze_solve.c ****         }
1491:Src/maze_solve.c **** 
1492:Src/maze_solve.c ****         wall_write[i10 % 4] = wall->contents.wall;
 2399              		.loc 1 1492 9 is_stmt 1 view .LVU954
 2400              		.loc 1 1492 24 is_stmt 0 view .LVU955
 2401 00cc 5A42     		rsbs	r2, r3, #0
 2402 00ce 03F00303 		and	r3, r3, #3
 2403              	.LVL325:
 2404              		.loc 1 1492 24 view .LVU956
 2405 00d2 02F00302 		and	r2, r2, #3
 2406 00d6 58BF     		it	pl
 2407 00d8 5342     		rsbpl	r3, r2, #0
ARM GAS  C:\Temp\ccSQM2w2.s 			page 81


 2408              		.loc 1 1492 45 view .LVU957
 2409 00da 089A     		ldr	r2, [sp, #32]
 2410 00dc 5278     		ldrb	r2, [r2, #1]	@ zero_extendqisi2
 2411              		.loc 1 1492 29 view .LVU958
 2412 00de 0DF58961 		add	r1, sp, #1096
 2413 00e2 0B44     		add	r3, r3, r1
 2414 00e4 03F8042C 		strb	r2, [r3, #-4]
1493:Src/maze_solve.c ****         set_rigth_wall_flg(); //前壁補正フラグを立てる
 2415              		.loc 1 1493 9 is_stmt 1 view .LVU959
 2416 00e8 FFF7FEFF 		bl	set_rigth_wall_flg
 2417              	.LVL326:
 2418              	.L224:
1494:Src/maze_solve.c ****       }
1495:Src/maze_solve.c **** 
1496:Src/maze_solve.c ****       /* 探索情報取更新 */
1497:Src/maze_solve.c ****       i10 = (int)(*current_dir + 1U);
 2419              		.loc 1 1497 7 view .LVU960
 2420              		.loc 1 1497 19 is_stmt 0 view .LVU961
 2421 00ec 9AF80020 		ldrb	r2, [r10]	@ zero_extendqisi2
 2422              		.loc 1 1497 32 view .LVU962
 2423 00f0 531C     		adds	r3, r2, #1
 2424              	.LVL327:
1498:Src/maze_solve.c ****       if ((unsigned int)i10 > 255U) {
 2425              		.loc 1 1498 7 is_stmt 1 view .LVU963
 2426              		.loc 1 1498 10 is_stmt 0 view .LVU964
 2427 00f2 FF2B     		cmp	r3, #255
 2428 00f4 00D9     		bls	.L226
1499:Src/maze_solve.c ****         i10 = 255;
 2429              		.loc 1 1499 13 view .LVU965
 2430 00f6 FF23     		movs	r3, #255
 2431              	.LVL328:
 2432              	.L226:
1500:Src/maze_solve.c ****       }
1501:Src/maze_solve.c **** 
1502:Src/maze_solve.c ****       serch_write[i10 % 4] = search->contents.known;
 2433              		.loc 1 1502 7 is_stmt 1 view .LVU966
 2434              		.loc 1 1502 23 is_stmt 0 view .LVU967
 2435 00f8 5942     		rsbs	r1, r3, #0
 2436 00fa 03F00303 		and	r3, r3, #3
 2437              	.LVL329:
 2438              		.loc 1 1502 23 view .LVU968
 2439 00fe 01F00301 		and	r1, r1, #3
 2440 0102 58BF     		it	pl
 2441 0104 4B42     		rsbpl	r3, r1, #0
 2442              		.loc 1 1502 46 view .LVU969
 2443 0106 0B99     		ldr	r1, [sp, #44]
 2444 0108 4978     		ldrb	r1, [r1, #1]	@ zero_extendqisi2
 2445              		.loc 1 1502 28 view .LVU970
 2446 010a 0DF58960 		add	r0, sp, #1096
 2447 010e 0344     		add	r3, r3, r0
 2448 0110 03F8081C 		strb	r1, [r3, #-8]
1503:Src/maze_solve.c **** 
1504:Src/maze_solve.c ****       /* 後方は情報を得ることができないので処理しない。 */
1505:Src/maze_solve.c ****       /* 左壁判定 */
1506:Src/maze_solve.c ****       /* for Cgen */
1507:Src/maze_solve.c ****       /* センサ値をもとに、壁の有無を判定 */
1508:Src/maze_solve.c ****       if (wall_sensor_left > wall_sensor_left_th) {
ARM GAS  C:\Temp\ccSQM2w2.s 			page 82


 2449              		.loc 1 1508 7 is_stmt 1 view .LVU971
 2450              		.loc 1 1508 28 is_stmt 0 view .LVU972
 2451 0114 A84B     		ldr	r3, .L458+8
 2452 0116 1968     		ldr	r1, [r3]
 2453 0118 AA4B     		ldr	r3, .L458+20
 2454 011a 1B68     		ldr	r3, [r3]
 2455              		.loc 1 1508 10 view .LVU973
 2456 011c 9942     		cmp	r1, r3
 2457 011e 13DD     		ble	.L227
1509:Src/maze_solve.c ****         /* 壁情報取得 */
1510:Src/maze_solve.c ****         i10 = (int)(*current_dir + 3U);
 2458              		.loc 1 1510 9 is_stmt 1 view .LVU974
 2459              		.loc 1 1510 34 is_stmt 0 view .LVU975
 2460 0120 D31C     		adds	r3, r2, #3
 2461              	.LVL330:
1511:Src/maze_solve.c ****         if ((unsigned int)i10 > 255U) {
 2462              		.loc 1 1511 9 is_stmt 1 view .LVU976
 2463              		.loc 1 1511 12 is_stmt 0 view .LVU977
 2464 0122 FF2B     		cmp	r3, #255
 2465 0124 00D9     		bls	.L228
1512:Src/maze_solve.c ****           i10 = 255;
 2466              		.loc 1 1512 15 view .LVU978
 2467 0126 FF23     		movs	r3, #255
 2468              	.LVL331:
 2469              	.L228:
1513:Src/maze_solve.c ****         }
1514:Src/maze_solve.c **** 
1515:Src/maze_solve.c ****         wall_write[i10 % 4] = wall->contents.wall;
 2470              		.loc 1 1515 9 is_stmt 1 view .LVU979
 2471              		.loc 1 1515 24 is_stmt 0 view .LVU980
 2472 0128 5A42     		rsbs	r2, r3, #0
 2473 012a 03F00303 		and	r3, r3, #3
 2474              	.LVL332:
 2475              		.loc 1 1515 24 view .LVU981
 2476 012e 02F00302 		and	r2, r2, #3
 2477 0132 58BF     		it	pl
 2478 0134 5342     		rsbpl	r3, r2, #0
 2479              		.loc 1 1515 45 view .LVU982
 2480 0136 089A     		ldr	r2, [sp, #32]
 2481 0138 5278     		ldrb	r2, [r2, #1]	@ zero_extendqisi2
 2482              		.loc 1 1515 29 view .LVU983
 2483 013a 0DF58961 		add	r1, sp, #1096
 2484 013e 0B44     		add	r3, r3, r1
 2485 0140 03F8042C 		strb	r2, [r3, #-4]
1516:Src/maze_solve.c ****         set_left_wall_flg(); //前壁補正フラグを立てる
 2486              		.loc 1 1516 9 is_stmt 1 view .LVU984
 2487 0144 FFF7FEFF 		bl	set_left_wall_flg
 2488              	.LVL333:
 2489              	.L227:
1517:Src/maze_solve.c **** 
1518:Src/maze_solve.c ****       }
1519:Src/maze_solve.c **** 
1520:Src/maze_solve.c ****       /* 探索情報取更新 */
1521:Src/maze_solve.c ****       i10 = (int)(*current_dir + 3U);
 2490              		.loc 1 1521 7 view .LVU985
 2491              		.loc 1 1521 19 is_stmt 0 view .LVU986
 2492 0148 9AF80030 		ldrb	r3, [r10]	@ zero_extendqisi2
ARM GAS  C:\Temp\ccSQM2w2.s 			page 83


 2493              		.loc 1 1521 32 view .LVU987
 2494 014c 0333     		adds	r3, r3, #3
 2495              	.LVL334:
1522:Src/maze_solve.c ****       if ((unsigned int)i10 > 255U) {
 2496              		.loc 1 1522 7 is_stmt 1 view .LVU988
 2497              		.loc 1 1522 10 is_stmt 0 view .LVU989
 2498 014e FF2B     		cmp	r3, #255
 2499 0150 00D9     		bls	.L229
1523:Src/maze_solve.c ****         i10 = 255;
 2500              		.loc 1 1523 13 view .LVU990
 2501 0152 FF23     		movs	r3, #255
 2502              	.LVL335:
 2503              	.L229:
1524:Src/maze_solve.c ****       }
1525:Src/maze_solve.c ****       
1526:Src/maze_solve.c ****       serch_write[i10 % 4] = search->contents.known;
 2504              		.loc 1 1526 7 is_stmt 1 view .LVU991
 2505              		.loc 1 1526 23 is_stmt 0 view .LVU992
 2506 0154 5A42     		rsbs	r2, r3, #0
 2507 0156 03F00303 		and	r3, r3, #3
 2508              	.LVL336:
 2509              		.loc 1 1526 23 view .LVU993
 2510 015a 02F00302 		and	r2, r2, #3
 2511 015e 58BF     		it	pl
 2512 0160 5342     		rsbpl	r3, r2, #0
 2513              		.loc 1 1526 46 view .LVU994
 2514 0162 0B9A     		ldr	r2, [sp, #44]
 2515 0164 5278     		ldrb	r2, [r2, #1]	@ zero_extendqisi2
 2516              		.loc 1 1526 28 view .LVU995
 2517 0166 0DF58961 		add	r1, sp, #1096
 2518 016a 0B44     		add	r3, r3, r1
 2519 016c 03F8082C 		strb	r2, [r3, #-8]
1527:Src/maze_solve.c **** 
1528:Src/maze_solve.c ****       /* ここまで */
1529:Src/maze_solve.c ****       /* 壁情報,探索情報を入力 */
1530:Src/maze_solve.c ****       /* 北側 */
1531:Src/maze_solve.c ****       k = g_direction->contents.North;
 2520              		.loc 1 1531 7 is_stmt 1 view .LVU996
 2521              		.loc 1 1531 9 is_stmt 0 view .LVU997
 2522 0170 2A78     		ldrb	r2, [r5]	@ zero_extendqisi2
 2523              	.LVL337:
1532:Src/maze_solve.c ****       i10 = (int)(g_direction->contents.North + 1U);
 2524              		.loc 1 1532 7 is_stmt 1 view .LVU998
 2525              		.loc 1 1532 47 is_stmt 0 view .LVU999
 2526 0172 531C     		adds	r3, r2, #1
 2527              	.LVL338:
1533:Src/maze_solve.c ****       if ((unsigned int)i10 > 255U) {
 2528              		.loc 1 1533 7 is_stmt 1 view .LVU1000
 2529              		.loc 1 1533 10 is_stmt 0 view .LVU1001
 2530 0174 FF2B     		cmp	r3, #255
 2531 0176 00D9     		bls	.L230
1534:Src/maze_solve.c ****         i10 = 255;
 2532              		.loc 1 1534 13 view .LVU1002
 2533 0178 FF23     		movs	r3, #255
 2534              	.LVL339:
 2535              	.L230:
1535:Src/maze_solve.c ****       }
ARM GAS  C:\Temp\ccSQM2w2.s 			page 84


1536:Src/maze_solve.c **** 
1537:Src/maze_solve.c ****       if (k <= 7) {
 2536              		.loc 1 1537 7 is_stmt 1 view .LVU1003
 2537              		.loc 1 1537 10 is_stmt 0 view .LVU1004
 2538 017a 072A     		cmp	r2, #7
 2539 017c 00F2C381 		bhi	.L349
1538:Src/maze_solve.c ****         b_k = (unsigned char)(1 << k);
 2540              		.loc 1 1538 9 is_stmt 1 view .LVU1005
 2541              		.loc 1 1538 33 is_stmt 0 view .LVU1006
 2542 0180 0121     		movs	r1, #1
 2543 0182 9140     		lsls	r1, r1, r2
 2544 0184 C9B2     		uxtb	r1, r1
 2545              	.LVL340:
 2546              	.L231:
1539:Src/maze_solve.c ****       } else {
1540:Src/maze_solve.c ****         b_k = 0;
1541:Src/maze_solve.c ****       }
1542:Src/maze_solve.c **** 
1543:Src/maze_solve.c ****       i10 = (int)((unsigned int)b_k * wall_write[i10 - 1]);
 2547              		.loc 1 1543 7 is_stmt 1 view .LVU1007
 2548              		.loc 1 1543 54 is_stmt 0 view .LVU1008
 2549 0186 013B     		subs	r3, r3, #1
 2550              	.LVL341:
 2551              		.loc 1 1543 49 view .LVU1009
 2552 0188 0DF58962 		add	r2, sp, #1096
 2553              	.LVL342:
 2554              		.loc 1 1543 49 view .LVU1010
 2555 018c 1344     		add	r3, r3, r2
 2556              	.LVL343:
 2557              		.loc 1 1543 49 view .LVU1011
 2558 018e 13F8043C 		ldrb	r3, [r3, #-4]	@ zero_extendqisi2
 2559              		.loc 1 1543 37 view .LVU1012
 2560 0192 01FB03F1 		mul	r1, r1, r3
 2561              	.LVL344:
1544:Src/maze_solve.c ****       if ((unsigned int)i10 > 255U) {
 2562              		.loc 1 1544 7 is_stmt 1 view .LVU1013
 2563              		.loc 1 1544 10 is_stmt 0 view .LVU1014
 2564 0196 FF29     		cmp	r1, #255
 2565 0198 00D9     		bls	.L232
1545:Src/maze_solve.c ****         i10 = 255;
 2566              		.loc 1 1545 13 view .LVU1015
 2567 019a FF21     		movs	r1, #255
 2568              	.LVL345:
 2569              	.L232:
1546:Src/maze_solve.c ****       }
1547:Src/maze_solve.c **** 
1548:Src/maze_solve.c ****       i11 = (*current_x - 1) << 5;
 2570              		.loc 1 1548 7 is_stmt 1 view .LVU1016
 2571              		.loc 1 1548 14 is_stmt 0 view .LVU1017
 2572 019c 2278     		ldrb	r2, [r4]	@ zero_extendqisi2
 2573              		.loc 1 1548 25 view .LVU1018
 2574 019e 013A     		subs	r2, r2, #1
 2575              		.loc 1 1548 30 view .LVU1019
 2576 01a0 5201     		lsls	r2, r2, #5
 2577              		.loc 1 1548 11 view .LVU1020
 2578 01a2 894B     		ldr	r3, .L458+24
 2579 01a4 1A60     		str	r2, [r3]
ARM GAS  C:\Temp\ccSQM2w2.s 			page 85


1549:Src/maze_solve.c ****       i12 = (*current_y + i11) - 1;
 2580              		.loc 1 1549 7 is_stmt 1 view .LVU1021
 2581              		.loc 1 1549 14 is_stmt 0 view .LVU1022
 2582 01a6 99F80030 		ldrb	r3, [r9]	@ zero_extendqisi2
 2583              		.loc 1 1549 25 view .LVU1023
 2584 01aa 1344     		add	r3, r3, r2
 2585              		.loc 1 1549 32 view .LVU1024
 2586 01ac 013B     		subs	r3, r3, #1
 2587              		.loc 1 1549 11 view .LVU1025
 2588 01ae 8748     		ldr	r0, .L458+28
 2589 01b0 0360     		str	r3, [r0]
1550:Src/maze_solve.c ****       maze_wall[i12] |= (unsigned char)i10;
 2590              		.loc 1 1550 7 is_stmt 1 view .LVU1026
 2591              		.loc 1 1550 25 is_stmt 0 view .LVU1027
 2592 01b2 C9B2     		uxtb	r1, r1
 2593              	.LVL346:
 2594              		.loc 1 1550 22 view .LVU1028
 2595 01b4 18F80300 		ldrb	r0, [r8, r3]	@ zero_extendqisi2
 2596 01b8 0143     		orrs	r1, r1, r0
 2597 01ba 08F80310 		strb	r1, [r8, r3]
 2598              	.LVL347:
1551:Src/maze_solve.c ****       k = g_direction->contents.North;
 2599              		.loc 1 1551 7 is_stmt 1 view .LVU1029
 2600              		.loc 1 1551 9 is_stmt 0 view .LVU1030
 2601 01be 2978     		ldrb	r1, [r5]	@ zero_extendqisi2
 2602              	.LVL348:
1552:Src/maze_solve.c ****       i10 = (int)(g_direction->contents.North + 1U);
 2603              		.loc 1 1552 7 is_stmt 1 view .LVU1031
 2604              		.loc 1 1552 47 is_stmt 0 view .LVU1032
 2605 01c0 481C     		adds	r0, r1, #1
 2606              	.LVL349:
1553:Src/maze_solve.c ****       if ((unsigned int)i10 > 255U) {
 2607              		.loc 1 1553 7 is_stmt 1 view .LVU1033
 2608              		.loc 1 1553 10 is_stmt 0 view .LVU1034
 2609 01c2 FF28     		cmp	r0, #255
 2610 01c4 00D9     		bls	.L233
1554:Src/maze_solve.c ****         i10 = 255;
 2611              		.loc 1 1554 13 view .LVU1035
 2612 01c6 FF20     		movs	r0, #255
 2613              	.LVL350:
 2614              	.L233:
1555:Src/maze_solve.c ****       }
1556:Src/maze_solve.c **** 
1557:Src/maze_solve.c ****       if (k <= 7) {
 2615              		.loc 1 1557 7 is_stmt 1 view .LVU1036
 2616              		.loc 1 1557 10 is_stmt 0 view .LVU1037
 2617 01c8 0729     		cmp	r1, #7
 2618 01ca 00F29E81 		bhi	.L352
1558:Src/maze_solve.c ****         c_k = (unsigned char)(1 << k);
 2619              		.loc 1 1558 9 is_stmt 1 view .LVU1038
 2620              		.loc 1 1558 33 is_stmt 0 view .LVU1039
 2621 01ce 4FF0010C 		mov	ip, #1
 2622 01d2 0CFA01F1 		lsl	r1, ip, r1
 2623              	.LVL351:
 2624              		.loc 1 1558 33 view .LVU1040
 2625 01d6 C9B2     		uxtb	r1, r1
 2626              	.LVL352:
ARM GAS  C:\Temp\ccSQM2w2.s 			page 86


 2627              	.L234:
1559:Src/maze_solve.c ****       } else {
1560:Src/maze_solve.c ****         c_k = 0;
1561:Src/maze_solve.c ****       }
1562:Src/maze_solve.c **** 
1563:Src/maze_solve.c ****       i10 = (int)((unsigned int)c_k * serch_write[i10 - 1]);
 2628              		.loc 1 1563 7 is_stmt 1 view .LVU1041
 2629              		.loc 1 1563 55 is_stmt 0 view .LVU1042
 2630 01d8 0138     		subs	r0, r0, #1
 2631              	.LVL353:
 2632              		.loc 1 1563 50 view .LVU1043
 2633 01da 0DF58967 		add	r7, sp, #1096
 2634 01de 3844     		add	r0, r0, r7
 2635              	.LVL354:
 2636              		.loc 1 1563 50 view .LVU1044
 2637 01e0 10F8080C 		ldrb	r0, [r0, #-8]	@ zero_extendqisi2
 2638              		.loc 1 1563 37 view .LVU1045
 2639 01e4 01FB00F1 		mul	r1, r1, r0
 2640              	.LVL355:
1564:Src/maze_solve.c ****       if ((unsigned int)i10 > 255U) {
 2641              		.loc 1 1564 7 is_stmt 1 view .LVU1046
 2642              		.loc 1 1564 10 is_stmt 0 view .LVU1047
 2643 01e8 FF29     		cmp	r1, #255
 2644 01ea 00D9     		bls	.L235
1565:Src/maze_solve.c ****         i10 = 255;
 2645              		.loc 1 1565 13 view .LVU1048
 2646 01ec FF21     		movs	r1, #255
 2647              	.LVL356:
 2648              	.L235:
1566:Src/maze_solve.c ****       }
1567:Src/maze_solve.c **** 
1568:Src/maze_solve.c ****       maze_wall_search[i12] |= (unsigned char)i10;
 2649              		.loc 1 1568 7 is_stmt 1 view .LVU1049
 2650              		.loc 1 1568 32 is_stmt 0 view .LVU1050
 2651 01ee C9B2     		uxtb	r1, r1
 2652              	.LVL357:
 2653              		.loc 1 1568 29 view .LVU1051
 2654 01f0 1BF80300 		ldrb	r0, [fp, r3]	@ zero_extendqisi2
 2655 01f4 0143     		orrs	r1, r1, r0
 2656 01f6 0BF80310 		strb	r1, [fp, r3]
 2657              	.LVL358:
1569:Src/maze_solve.c **** 
1570:Src/maze_solve.c ****       /* 東側 */
1571:Src/maze_solve.c ****       k = g_direction->contents.East;
 2658              		.loc 1 1571 7 is_stmt 1 view .LVU1052
 2659              		.loc 1 1571 9 is_stmt 0 view .LVU1053
 2660 01fa 6978     		ldrb	r1, [r5, #1]	@ zero_extendqisi2
 2661              	.LVL359:
1572:Src/maze_solve.c ****       i10 = (int)(g_direction->contents.East + 1U);
 2662              		.loc 1 1572 7 is_stmt 1 view .LVU1054
 2663              		.loc 1 1572 46 is_stmt 0 view .LVU1055
 2664 01fc 481C     		adds	r0, r1, #1
 2665              	.LVL360:
1573:Src/maze_solve.c ****       if ((unsigned int)i10 > 255U) {
 2666              		.loc 1 1573 7 is_stmt 1 view .LVU1056
 2667              		.loc 1 1573 10 is_stmt 0 view .LVU1057
 2668 01fe FF28     		cmp	r0, #255
ARM GAS  C:\Temp\ccSQM2w2.s 			page 87


 2669 0200 00D9     		bls	.L236
1574:Src/maze_solve.c ****         i10 = 255;
 2670              		.loc 1 1574 13 view .LVU1058
 2671 0202 FF20     		movs	r0, #255
 2672              	.LVL361:
 2673              	.L236:
1575:Src/maze_solve.c ****       }
1576:Src/maze_solve.c **** 
1577:Src/maze_solve.c ****       if (k <= 7) {
 2674              		.loc 1 1577 7 is_stmt 1 view .LVU1059
 2675              		.loc 1 1577 10 is_stmt 0 view .LVU1060
 2676 0204 0729     		cmp	r1, #7
 2677 0206 00F28281 		bhi	.L355
1578:Src/maze_solve.c ****         d_k = (unsigned char)(1 << k);
 2678              		.loc 1 1578 9 is_stmt 1 view .LVU1061
 2679              		.loc 1 1578 33 is_stmt 0 view .LVU1062
 2680 020a 4FF0010C 		mov	ip, #1
 2681 020e 0CFA01F1 		lsl	r1, ip, r1
 2682              	.LVL362:
 2683              		.loc 1 1578 33 view .LVU1063
 2684 0212 C9B2     		uxtb	r1, r1
 2685              	.LVL363:
 2686              	.L237:
1579:Src/maze_solve.c ****       } else {
1580:Src/maze_solve.c ****         d_k = 0;
1581:Src/maze_solve.c ****       }
1582:Src/maze_solve.c **** 
1583:Src/maze_solve.c ****       i10 = (int)((unsigned int)d_k * wall_write[i10 - 1]);
 2687              		.loc 1 1583 7 is_stmt 1 view .LVU1064
 2688              		.loc 1 1583 54 is_stmt 0 view .LVU1065
 2689 0214 0138     		subs	r0, r0, #1
 2690              	.LVL364:
 2691              		.loc 1 1583 49 view .LVU1066
 2692 0216 0DF58967 		add	r7, sp, #1096
 2693 021a 3844     		add	r0, r0, r7
 2694              	.LVL365:
 2695              		.loc 1 1583 49 view .LVU1067
 2696 021c 10F8040C 		ldrb	r0, [r0, #-4]	@ zero_extendqisi2
 2697              		.loc 1 1583 37 view .LVU1068
 2698 0220 01FB00F1 		mul	r1, r1, r0
 2699              	.LVL366:
1584:Src/maze_solve.c ****       if ((unsigned int)i10 > 255U) {
 2700              		.loc 1 1584 7 is_stmt 1 view .LVU1069
 2701              		.loc 1 1584 10 is_stmt 0 view .LVU1070
 2702 0224 FF29     		cmp	r1, #255
 2703 0226 00D9     		bls	.L238
1585:Src/maze_solve.c ****         i10 = 255;
 2704              		.loc 1 1585 13 view .LVU1071
 2705 0228 FF21     		movs	r1, #255
 2706              	.LVL367:
 2707              	.L238:
1586:Src/maze_solve.c ****       }
1587:Src/maze_solve.c **** 
1588:Src/maze_solve.c ****       maze_wall[i12] |= (unsigned char)i10;
 2708              		.loc 1 1588 7 is_stmt 1 view .LVU1072
 2709              		.loc 1 1588 25 is_stmt 0 view .LVU1073
 2710 022a C9B2     		uxtb	r1, r1
ARM GAS  C:\Temp\ccSQM2w2.s 			page 88


 2711              	.LVL368:
 2712              		.loc 1 1588 22 view .LVU1074
 2713 022c 18F80300 		ldrb	r0, [r8, r3]	@ zero_extendqisi2
 2714 0230 0143     		orrs	r1, r1, r0
 2715 0232 08F80310 		strb	r1, [r8, r3]
 2716              	.LVL369:
1589:Src/maze_solve.c ****       k = g_direction->contents.East;
 2717              		.loc 1 1589 7 is_stmt 1 view .LVU1075
 2718              		.loc 1 1589 9 is_stmt 0 view .LVU1076
 2719 0236 6978     		ldrb	r1, [r5, #1]	@ zero_extendqisi2
 2720              	.LVL370:
1590:Src/maze_solve.c ****       i10 = (int)(g_direction->contents.East + 1U);
 2721              		.loc 1 1590 7 is_stmt 1 view .LVU1077
 2722              		.loc 1 1590 46 is_stmt 0 view .LVU1078
 2723 0238 481C     		adds	r0, r1, #1
 2724              	.LVL371:
1591:Src/maze_solve.c ****       if ((unsigned int)i10 > 255U) {
 2725              		.loc 1 1591 7 is_stmt 1 view .LVU1079
 2726              		.loc 1 1591 10 is_stmt 0 view .LVU1080
 2727 023a FF28     		cmp	r0, #255
 2728 023c 00D9     		bls	.L239
1592:Src/maze_solve.c ****         i10 = 255;
 2729              		.loc 1 1592 13 view .LVU1081
 2730 023e FF20     		movs	r0, #255
 2731              	.LVL372:
 2732              	.L239:
1593:Src/maze_solve.c ****       }
1594:Src/maze_solve.c **** 
1595:Src/maze_solve.c ****       if (k <= 7) {
 2733              		.loc 1 1595 7 is_stmt 1 view .LVU1082
 2734              		.loc 1 1595 10 is_stmt 0 view .LVU1083
 2735 0240 0729     		cmp	r1, #7
 2736 0242 00F26681 		bhi	.L358
1596:Src/maze_solve.c ****         e_k = (unsigned char)(1 << k);
 2737              		.loc 1 1596 9 is_stmt 1 view .LVU1084
 2738              		.loc 1 1596 33 is_stmt 0 view .LVU1085
 2739 0246 4FF0010C 		mov	ip, #1
 2740 024a 0CFA01F1 		lsl	r1, ip, r1
 2741              	.LVL373:
 2742              		.loc 1 1596 33 view .LVU1086
 2743 024e C9B2     		uxtb	r1, r1
 2744              	.LVL374:
 2745              	.L240:
1597:Src/maze_solve.c ****       } else {
1598:Src/maze_solve.c ****         e_k = 0;
1599:Src/maze_solve.c ****       }
1600:Src/maze_solve.c **** 
1601:Src/maze_solve.c ****       i10 = (int)((unsigned int)e_k * serch_write[i10 - 1]);
 2746              		.loc 1 1601 7 is_stmt 1 view .LVU1087
 2747              		.loc 1 1601 55 is_stmt 0 view .LVU1088
 2748 0250 0138     		subs	r0, r0, #1
 2749              	.LVL375:
 2750              		.loc 1 1601 50 view .LVU1089
 2751 0252 0DF58967 		add	r7, sp, #1096
 2752 0256 3844     		add	r0, r0, r7
 2753              	.LVL376:
 2754              		.loc 1 1601 50 view .LVU1090
ARM GAS  C:\Temp\ccSQM2w2.s 			page 89


 2755 0258 10F8080C 		ldrb	r0, [r0, #-8]	@ zero_extendqisi2
 2756              		.loc 1 1601 37 view .LVU1091
 2757 025c 01FB00F1 		mul	r1, r1, r0
 2758              	.LVL377:
1602:Src/maze_solve.c ****       if ((unsigned int)i10 > 255U) {
 2759              		.loc 1 1602 7 is_stmt 1 view .LVU1092
 2760              		.loc 1 1602 10 is_stmt 0 view .LVU1093
 2761 0260 FF29     		cmp	r1, #255
 2762 0262 00D9     		bls	.L241
1603:Src/maze_solve.c ****         i10 = 255;
 2763              		.loc 1 1603 13 view .LVU1094
 2764 0264 FF21     		movs	r1, #255
 2765              	.LVL378:
 2766              	.L241:
1604:Src/maze_solve.c ****       }
1605:Src/maze_solve.c **** 
1606:Src/maze_solve.c ****       maze_wall_search[i12] |= (unsigned char)i10;
 2767              		.loc 1 1606 7 is_stmt 1 view .LVU1095
 2768              		.loc 1 1606 32 is_stmt 0 view .LVU1096
 2769 0266 C9B2     		uxtb	r1, r1
 2770              	.LVL379:
 2771              		.loc 1 1606 29 view .LVU1097
 2772 0268 1BF80300 		ldrb	r0, [fp, r3]	@ zero_extendqisi2
 2773 026c 0143     		orrs	r1, r1, r0
 2774 026e 0BF80310 		strb	r1, [fp, r3]
 2775              	.LVL380:
1607:Src/maze_solve.c **** 
1608:Src/maze_solve.c ****       /* 南側 */
1609:Src/maze_solve.c ****       k = g_direction->contents.South;
 2776              		.loc 1 1609 7 is_stmt 1 view .LVU1098
 2777              		.loc 1 1609 9 is_stmt 0 view .LVU1099
 2778 0272 A978     		ldrb	r1, [r5, #2]	@ zero_extendqisi2
 2779              	.LVL381:
1610:Src/maze_solve.c ****       i10 = (int)(g_direction->contents.South + 1U);
 2780              		.loc 1 1610 7 is_stmt 1 view .LVU1100
 2781              		.loc 1 1610 47 is_stmt 0 view .LVU1101
 2782 0274 481C     		adds	r0, r1, #1
 2783              	.LVL382:
1611:Src/maze_solve.c ****       if ((unsigned int)i10 > 255U) {
 2784              		.loc 1 1611 7 is_stmt 1 view .LVU1102
 2785              		.loc 1 1611 10 is_stmt 0 view .LVU1103
 2786 0276 FF28     		cmp	r0, #255
 2787 0278 00D9     		bls	.L242
1612:Src/maze_solve.c ****         i10 = 255;
 2788              		.loc 1 1612 13 view .LVU1104
 2789 027a FF20     		movs	r0, #255
 2790              	.LVL383:
 2791              	.L242:
1613:Src/maze_solve.c ****       }
1614:Src/maze_solve.c **** 
1615:Src/maze_solve.c ****       if (k <= 7) {
 2792              		.loc 1 1615 7 is_stmt 1 view .LVU1105
 2793              		.loc 1 1615 10 is_stmt 0 view .LVU1106
 2794 027c 0729     		cmp	r1, #7
 2795 027e 00F24A81 		bhi	.L361
1616:Src/maze_solve.c ****         f_k = (unsigned char)(1 << k);
 2796              		.loc 1 1616 9 is_stmt 1 view .LVU1107
ARM GAS  C:\Temp\ccSQM2w2.s 			page 90


 2797              		.loc 1 1616 33 is_stmt 0 view .LVU1108
 2798 0282 4FF0010C 		mov	ip, #1
 2799 0286 0CFA01F1 		lsl	r1, ip, r1
 2800              	.LVL384:
 2801              		.loc 1 1616 33 view .LVU1109
 2802 028a C9B2     		uxtb	r1, r1
 2803              	.LVL385:
 2804              	.L243:
1617:Src/maze_solve.c ****       } else {
1618:Src/maze_solve.c ****         f_k = 0;
1619:Src/maze_solve.c ****       }
1620:Src/maze_solve.c **** 
1621:Src/maze_solve.c ****       i10 = (int)((unsigned int)f_k * wall_write[i10 - 1]);
 2805              		.loc 1 1621 7 is_stmt 1 view .LVU1110
 2806              		.loc 1 1621 54 is_stmt 0 view .LVU1111
 2807 028c 0138     		subs	r0, r0, #1
 2808              	.LVL386:
 2809              		.loc 1 1621 49 view .LVU1112
 2810 028e 0DF58967 		add	r7, sp, #1096
 2811 0292 3844     		add	r0, r0, r7
 2812              	.LVL387:
 2813              		.loc 1 1621 49 view .LVU1113
 2814 0294 10F8040C 		ldrb	r0, [r0, #-4]	@ zero_extendqisi2
 2815              		.loc 1 1621 37 view .LVU1114
 2816 0298 01FB00F1 		mul	r1, r1, r0
 2817              	.LVL388:
1622:Src/maze_solve.c ****       if ((unsigned int)i10 > 255U) {
 2818              		.loc 1 1622 7 is_stmt 1 view .LVU1115
 2819              		.loc 1 1622 10 is_stmt 0 view .LVU1116
 2820 029c FF29     		cmp	r1, #255
 2821 029e 00D9     		bls	.L244
1623:Src/maze_solve.c ****         i10 = 255;
 2822              		.loc 1 1623 13 view .LVU1117
 2823 02a0 FF21     		movs	r1, #255
 2824              	.LVL389:
 2825              	.L244:
1624:Src/maze_solve.c ****       }
1625:Src/maze_solve.c **** 
1626:Src/maze_solve.c ****       maze_wall[i12] |= (unsigned char)i10;
 2826              		.loc 1 1626 7 is_stmt 1 view .LVU1118
 2827              		.loc 1 1626 25 is_stmt 0 view .LVU1119
 2828 02a2 C9B2     		uxtb	r1, r1
 2829              	.LVL390:
 2830              		.loc 1 1626 22 view .LVU1120
 2831 02a4 18F80300 		ldrb	r0, [r8, r3]	@ zero_extendqisi2
 2832 02a8 0143     		orrs	r1, r1, r0
 2833 02aa 08F80310 		strb	r1, [r8, r3]
 2834              	.LVL391:
1627:Src/maze_solve.c ****       k = g_direction->contents.South;
 2835              		.loc 1 1627 7 is_stmt 1 view .LVU1121
 2836              		.loc 1 1627 9 is_stmt 0 view .LVU1122
 2837 02ae A978     		ldrb	r1, [r5, #2]	@ zero_extendqisi2
 2838              	.LVL392:
1628:Src/maze_solve.c ****       i10 = (int)(g_direction->contents.South + 1U);
 2839              		.loc 1 1628 7 is_stmt 1 view .LVU1123
 2840              		.loc 1 1628 47 is_stmt 0 view .LVU1124
 2841 02b0 481C     		adds	r0, r1, #1
ARM GAS  C:\Temp\ccSQM2w2.s 			page 91


 2842              	.LVL393:
1629:Src/maze_solve.c ****       if ((unsigned int)i10 > 255U) {
 2843              		.loc 1 1629 7 is_stmt 1 view .LVU1125
 2844              		.loc 1 1629 10 is_stmt 0 view .LVU1126
 2845 02b2 FF28     		cmp	r0, #255
 2846 02b4 00D9     		bls	.L245
1630:Src/maze_solve.c ****         i10 = 255;
 2847              		.loc 1 1630 13 view .LVU1127
 2848 02b6 FF20     		movs	r0, #255
