ARM GAS  C:\Temp\ccX6Vjzt.s 			page 1


   1              		.cpu cortex-m4
   2              		.eabi_attribute 27, 1
   3              		.eabi_attribute 28, 1
   4              		.eabi_attribute 20, 1
   5              		.eabi_attribute 21, 1
   6              		.eabi_attribute 23, 3
   7              		.eabi_attribute 24, 1
   8              		.eabi_attribute 25, 1
   9              		.eabi_attribute 26, 1
  10              		.eabi_attribute 30, 1
  11              		.eabi_attribute 34, 1
  12              		.eabi_attribute 18, 4
  13              		.file	"maze_solve.c"
  14              		.text
  15              	.Ltext0:
  16              		.cfi_sections	.debug_frame
  17              		.section	.text.fust_run,"ax",%progbits
  18              		.align	1
  19              		.arch armv7e-m
  20              		.syntax unified
  21              		.thumb
  22              		.thumb_func
  23              		.fpu fpv4-sp-d16
  25              	fust_run:
  26              	.LVL0:
  27              	.LFB133:
  28              		.file 1 "Src/maze_solve.c"
   1:Src/maze_solve.c **** /*
   2:Src/maze_solve.c ****  * Sponsored License - for use in support of a program or activity
   3:Src/maze_solve.c ****  * sponsored by MathWorks.  Not for government, commercial or other
   4:Src/maze_solve.c ****  * non-sponsored organizational use.
   5:Src/maze_solve.c ****  * File: maze_solve.c
   6:Src/maze_solve.c ****  *
   7:Src/maze_solve.c ****  * MATLAB Coder version            : 4.2
   8:Src/maze_solve.c ****  * C/C++ source code generated on  : 18-Nov-2019 23:53:15
   9:Src/maze_solve.c ****  */
  10:Src/maze_solve.c **** 
  11:Src/maze_solve.c **** /* Include Files */
  12:Src/maze_solve.c **** #include "maze_init.h"
  13:Src/maze_solve.c **** #include "maze_solve.h"
  14:Src/maze_solve.c **** #include "idivide.h"
  15:Src/maze_solve.c **** #include "rem.h"
  16:Src/maze_solve.c **** #include "matlab_code_gen_data.h"
  17:Src/maze_solve.c **** 
  18:Src/maze_solve.c **** /*Include original*/
  19:Src/maze_solve.c **** #include "index.h"
  20:Src/maze_solve.c **** #include "movement.h"
  21:Src/maze_solve.c **** #include "ir_sensor.h"
  22:Src/maze_solve.c **** #include "adjust.h"
  23:Src/maze_solve.c **** #include "target.h"
  24:Src/maze_solve.c **** 
  25:Src/maze_solve.c **** 
  26:Src/maze_solve.c **** /* Type Definitions */
  27:Src/maze_solve.c **** #ifndef typedef_coder_internal_ref
  28:Src/maze_solve.c **** #define typedef_coder_internal_ref
  29:Src/maze_solve.c **** 
  30:Src/maze_solve.c **** typedef struct {
ARM GAS  C:\Temp\ccX6Vjzt.s 			page 2


  31:Src/maze_solve.c ****   unsigned char contents;
  32:Src/maze_solve.c **** } coder_internal_ref;
  33:Src/maze_solve.c **** 
  34:Src/maze_solve.c **** #endif                                 /*typedef_coder_internal_ref*/
  35:Src/maze_solve.c **** 
  36:Src/maze_solve.c **** #ifndef typedef_d_struct_T
  37:Src/maze_solve.c **** #define typedef_d_struct_T
  38:Src/maze_solve.c **** 
  39:Src/maze_solve.c **** typedef struct {
  40:Src/maze_solve.c ****   unsigned char unknown;
  41:Src/maze_solve.c ****   unsigned char known;
  42:Src/maze_solve.c **** } d_struct_T;
  43:Src/maze_solve.c **** 
  44:Src/maze_solve.c **** #endif                                 /*typedef_d_struct_T*/
  45:Src/maze_solve.c **** 
  46:Src/maze_solve.c **** #ifndef typedef_coder_internal_ref_1
  47:Src/maze_solve.c **** #define typedef_coder_internal_ref_1
  48:Src/maze_solve.c **** 
  49:Src/maze_solve.c **** typedef struct {
  50:Src/maze_solve.c ****   d_struct_T contents;
  51:Src/maze_solve.c **** } coder_internal_ref_1;
  52:Src/maze_solve.c **** 
  53:Src/maze_solve.c **** #endif                                 /*typedef_coder_internal_ref_1*/
  54:Src/maze_solve.c **** 
  55:Src/maze_solve.c **** #ifndef typedef_c_struct_T
  56:Src/maze_solve.c **** #define typedef_c_struct_T
  57:Src/maze_solve.c **** 
  58:Src/maze_solve.c **** typedef struct {
  59:Src/maze_solve.c ****   unsigned char nowall;
  60:Src/maze_solve.c ****   unsigned char wall;
  61:Src/maze_solve.c **** } c_struct_T;
  62:Src/maze_solve.c **** 
  63:Src/maze_solve.c **** #endif                                 /*typedef_c_struct_T*/
  64:Src/maze_solve.c **** 
  65:Src/maze_solve.c **** #ifndef typedef_coder_internal_ref_2
  66:Src/maze_solve.c **** #define typedef_coder_internal_ref_2
  67:Src/maze_solve.c **** 
  68:Src/maze_solve.c **** typedef struct {
  69:Src/maze_solve.c ****   c_struct_T contents;
  70:Src/maze_solve.c **** } coder_internal_ref_2;
  71:Src/maze_solve.c **** 
  72:Src/maze_solve.c **** #endif                                 /*typedef_coder_internal_ref_2*/
  73:Src/maze_solve.c **** 
  74:Src/maze_solve.c **** #ifndef typedef_b_struct_T
  75:Src/maze_solve.c **** #define typedef_b_struct_T
  76:Src/maze_solve.c **** 
  77:Src/maze_solve.c **** typedef struct {
  78:Src/maze_solve.c ****   unsigned char front;
  79:Src/maze_solve.c ****   unsigned char right;
  80:Src/maze_solve.c ****   unsigned char back;
  81:Src/maze_solve.c ****   unsigned char left;
  82:Src/maze_solve.c **** } b_struct_T;
  83:Src/maze_solve.c **** 
  84:Src/maze_solve.c **** #endif                                 /*typedef_b_struct_T*/
  85:Src/maze_solve.c **** 
  86:Src/maze_solve.c **** #ifndef typedef_coder_internal_ref_3
  87:Src/maze_solve.c **** #define typedef_coder_internal_ref_3
ARM GAS  C:\Temp\ccX6Vjzt.s 			page 3


  88:Src/maze_solve.c **** 
  89:Src/maze_solve.c **** typedef struct {
  90:Src/maze_solve.c ****   b_struct_T contents;
  91:Src/maze_solve.c **** } coder_internal_ref_3;
  92:Src/maze_solve.c **** 
  93:Src/maze_solve.c **** #endif                                 /*typedef_coder_internal_ref_3*/
  94:Src/maze_solve.c **** 
  95:Src/maze_solve.c **** #ifndef typedef_struct_T
  96:Src/maze_solve.c **** #define typedef_struct_T
  97:Src/maze_solve.c **** 
  98:Src/maze_solve.c **** typedef struct {
  99:Src/maze_solve.c ****   unsigned char North;
 100:Src/maze_solve.c ****   unsigned char East;
 101:Src/maze_solve.c ****   unsigned char South;
 102:Src/maze_solve.c ****   unsigned char West;
 103:Src/maze_solve.c **** } struct_T;
 104:Src/maze_solve.c **** 
 105:Src/maze_solve.c **** #endif                                 /*typedef_struct_T*/
 106:Src/maze_solve.c **** 
 107:Src/maze_solve.c **** #ifndef typedef_coder_internal_ref_4
 108:Src/maze_solve.c **** #define typedef_coder_internal_ref_4
 109:Src/maze_solve.c **** 
 110:Src/maze_solve.c **** typedef struct {
 111:Src/maze_solve.c ****   struct_T contents;
 112:Src/maze_solve.c **** } coder_internal_ref_4;
 113:Src/maze_solve.c **** 
 114:Src/maze_solve.c **** #endif                                 /*typedef_coder_internal_ref_4*/
 115:Src/maze_solve.c **** 
 116:Src/maze_solve.c **** //ハンド追加部
 117:Src/maze_solve.c **** typedef enum{
 118:Src/maze_solve.c ****   other,              //ゴール直後以外か
 119:Src/maze_solve.c ****   immediately_after   //ゴール直後か
 120:Src/maze_solve.c **** }goal_after;
 121:Src/maze_solve.c **** 
 122:Src/maze_solve.c **** static goal_after goal_after_flg = other;
 123:Src/maze_solve.c **** //
 124:Src/maze_solve.c **** 
 125:Src/maze_solve.c **** /* Function Declarations */
 126:Src/maze_solve.c **** static void fust_run(const coder_internal_ref_4 *g_direction, coder_internal_ref
 127:Src/maze_solve.c ****                      *current_x, coder_internal_ref *current_y,
 128:Src/maze_solve.c ****                      coder_internal_ref *current_dir, const coder_internal_ref
 129:Src/maze_solve.c ****                      *goal_size, const coder_internal_ref_2 *wall, const
 130:Src/maze_solve.c ****                      coder_internal_ref_3 *l_direction, const unsigned char
 131:Src/maze_solve.c ****                      maze_wall[1024], const unsigned char contour_map[1024],
 132:Src/maze_solve.c ****                      const unsigned char maze_goal[18], unsigned char max_length);
 133:Src/maze_solve.c **** static void make_map_find(const coder_internal_ref_4 *g_direction, const
 134:Src/maze_solve.c ****   coder_internal_ref_2 *wall, unsigned char maze_row_size, unsigned char
 135:Src/maze_solve.c ****   maze_col_size, const unsigned char maze_goal[18], unsigned char l_goal_size,
 136:Src/maze_solve.c ****   const unsigned char maze_wall[1024], unsigned int contour_map[1024], unsigned
 137:Src/maze_solve.c ****   int *max_length);
 138:Src/maze_solve.c **** static void make_map_fustrun(const coder_internal_ref *goal_size, const
 139:Src/maze_solve.c ****   coder_internal_ref_4 *g_direction, const coder_internal_ref_2 *wall, const
 140:Src/maze_solve.c ****   coder_internal_ref_1 *search, unsigned char maze_row_size, unsigned char
 141:Src/maze_solve.c ****   maze_col_size, const unsigned char maze_goal[18], const unsigned char
 142:Src/maze_solve.c ****   maze_wall[1024], const unsigned char maze_wall_search[1024], unsigned char
 143:Src/maze_solve.c ****   contour_map[1024], unsigned char *max_length);
 144:Src/maze_solve.c **** static void move_step(const coder_internal_ref_4 *g_direction, unsigned char
ARM GAS  C:\Temp\ccX6Vjzt.s 			page 4


 145:Src/maze_solve.c ****                       *current_x, unsigned char *current_y, unsigned char
 146:Src/maze_solve.c ****                       current_dir);
 147:Src/maze_solve.c **** static void search_adachi(const coder_internal_ref_2 *wall, const
 148:Src/maze_solve.c ****   coder_internal_ref_1 *search, const coder_internal_ref_4 *g_direction, const
 149:Src/maze_solve.c ****   coder_internal_ref_3 *l_direction, unsigned char *current_x, unsigned char
 150:Src/maze_solve.c ****   *current_y, unsigned char *current_dir, unsigned char maze_row_size, unsigned
 151:Src/maze_solve.c ****   char maze_col_size, unsigned char maze_wall[1024], unsigned char
 152:Src/maze_solve.c ****   maze_wall_search[1024], const unsigned char maze_goal[18], unsigned char
 153:Src/maze_solve.c ****   l_goal_size);
 154:Src/maze_solve.c **** 
 155:Src/maze_solve.c **** /* Function Definitions */
 156:Src/maze_solve.c **** 
 157:Src/maze_solve.c **** /*
 158:Src/maze_solve.c ****  * 入力　壁情報,壁探索情報,等高線MAP,ゴール座標,最大経路長
 159:Src/maze_solve.c ****  * 出力
 160:Src/maze_solve.c ****  * Arguments    : const coder_internal_ref_4 *g_direction
 161:Src/maze_solve.c ****  *                coder_internal_ref *current_x
 162:Src/maze_solve.c ****  *                coder_internal_ref *current_y
 163:Src/maze_solve.c ****  *                coder_internal_ref *current_dir
 164:Src/maze_solve.c ****  *                const coder_internal_ref *goal_size
 165:Src/maze_solve.c ****  *                const coder_internal_ref_2 *wall
 166:Src/maze_solve.c ****  *                const coder_internal_ref_3 *l_direction
 167:Src/maze_solve.c ****  *                const unsigned char maze_wall[1024]
 168:Src/maze_solve.c ****  *                const unsigned char contour_map[1024]
 169:Src/maze_solve.c ****  *                const unsigned char maze_goal[18]
 170:Src/maze_solve.c ****  *                unsigned char max_length
 171:Src/maze_solve.c ****  * Return Type  : void
 172:Src/maze_solve.c ****  */
 173:Src/maze_solve.c **** static void fust_run(const coder_internal_ref_4 *g_direction, coder_internal_ref
 174:Src/maze_solve.c ****                      *current_x, coder_internal_ref *current_y,
 175:Src/maze_solve.c ****                      coder_internal_ref *current_dir, const coder_internal_ref
 176:Src/maze_solve.c ****                      *goal_size, const coder_internal_ref_2 *wall, const
 177:Src/maze_solve.c ****                      coder_internal_ref_3 *l_direction, const unsigned char
 178:Src/maze_solve.c ****                      maze_wall[1024], const unsigned char contour_map[1024],
 179:Src/maze_solve.c ****                      const unsigned char maze_goal[18], unsigned char max_length)
 180:Src/maze_solve.c **** {
  29              		.loc 1 180 1 view -0
  30              		.cfi_startproc
  31              		@ args = 28, pretend = 0, frame = 32
  32              		@ frame_needed = 0, uses_anonymous_args = 0
  33              		.loc 1 180 1 is_stmt 0 view .LVU1
  34 0000 2DE9F04F 		push	{r4, r5, r6, r7, r8, r9, r10, fp, lr}
  35              	.LCFI0:
  36              		.cfi_def_cfa_offset 36
  37              		.cfi_offset 4, -36
  38              		.cfi_offset 5, -32
  39              		.cfi_offset 6, -28
  40              		.cfi_offset 7, -24
  41              		.cfi_offset 8, -20
  42              		.cfi_offset 9, -16
  43              		.cfi_offset 10, -12
  44              		.cfi_offset 11, -8
  45              		.cfi_offset 14, -4
  46 0004 89B0     		sub	sp, sp, #36
  47              	.LCFI1:
  48              		.cfi_def_cfa_offset 72
  49 0006 8246     		mov	r10, r0
ARM GAS  C:\Temp\ccX6Vjzt.s 			page 5


  50 0008 9346     		mov	fp, r2
  51 000a 1846     		mov	r0, r3
  52              	.LVL1:
  53              		.loc 1 180 1 view .LVU2
  54 000c 0593     		str	r3, [sp, #20]
  55 000e 179B     		ldr	r3, [sp, #92]
  56              	.LVL2:
  57              		.loc 1 180 1 view .LVU3
  58 0010 9DF86020 		ldrb	r2, [sp, #96]	@ zero_extendqisi2
  59              	.LVL3:
  60              		.loc 1 180 1 view .LVU4
  61 0014 0292     		str	r2, [sp, #8]
 181:Src/maze_solve.c ****   unsigned char goal_flag;
  62              		.loc 1 181 3 is_stmt 1 view .LVU5
 182:Src/maze_solve.c ****   unsigned char little;
  63              		.loc 1 182 3 view .LVU6
 183:Src/maze_solve.c ****   unsigned char next_dir;
  64              		.loc 1 183 3 view .LVU7
 184:Src/maze_solve.c ****   int exitg1;
  65              		.loc 1 184 3 view .LVU8
 185:Src/maze_solve.c ****   unsigned char k;
  66              		.loc 1 185 3 view .LVU9
 186:Src/maze_solve.c ****   int q0;
  67              		.loc 1 186 3 view .LVU10
 187:Src/maze_solve.c ****   int tempi;
  68              		.loc 1 187 3 view .LVU11
 188:Src/maze_solve.c ****   unsigned char a;
  69              		.loc 1 188 3 view .LVU12
 189:Src/maze_solve.c ****   int b_k;
  70              		.loc 1 189 3 view .LVU13
 190:Src/maze_solve.c ****   int c_k;
  71              		.loc 1 190 3 view .LVU14
 191:Src/maze_solve.c ****   int d_k;
  72              		.loc 1 191 3 view .LVU15
 192:Src/maze_solve.c ****   unsigned int qY;
  73              		.loc 1 192 3 view .LVU16
 193:Src/maze_solve.c ****   int e_k;
  74              		.loc 1 193 3 view .LVU17
 194:Src/maze_solve.c ****   unsigned char varargin_2;
  75              		.loc 1 194 3 view .LVU18
 195:Src/maze_solve.c ****   unsigned char varargin_3;
  76              		.loc 1 195 3 view .LVU19
 196:Src/maze_solve.c ****   unsigned char varargin_4;
  77              		.loc 1 196 3 view .LVU20
 197:Src/maze_solve.c **** 
 198:Src/maze_solve.c ****   /*  fust_run 最短経路導出 */
 199:Src/maze_solve.c ****   /* local変数宣言 */
 200:Src/maze_solve.c ****   goal_flag = 0U;
  78              		.loc 1 200 3 view .LVU21
  79              	.LVL4:
 201:Src/maze_solve.c **** 
 202:Src/maze_solve.c ****   /* ゴール判定フラグ */
 203:Src/maze_solve.c ****   little = max_length;
  80              		.loc 1 203 3 view .LVU22
 204:Src/maze_solve.c **** 
 205:Src/maze_solve.c ****   /* 進行方向選定用閾値 */
 206:Src/maze_solve.c ****   /* マウス位置表示用オブジェクト */
ARM GAS  C:\Temp\ccX6Vjzt.s 			page 6


 207:Src/maze_solve.c ****   /* マウスの初期位置設定 */
 208:Src/maze_solve.c ****   current_x->contents = 1U;
  81              		.loc 1 208 3 view .LVU23
  82              		.loc 1 208 23 is_stmt 0 view .LVU24
  83 0016 0122     		movs	r2, #1
  84 0018 0A70     		strb	r2, [r1]
 209:Src/maze_solve.c ****   current_y->contents = 1U;
  85              		.loc 1 209 3 is_stmt 1 view .LVU25
  86              		.loc 1 209 23 is_stmt 0 view .LVU26
  87 001a 8BF80020 		strb	r2, [fp]
 210:Src/maze_solve.c ****   current_dir->contents = g_direction->contents.North;
  88              		.loc 1 210 3 is_stmt 1 view .LVU27
  89              		.loc 1 210 48 is_stmt 0 view .LVU28
  90 001e 9AF80020 		ldrb	r2, [r10]	@ zero_extendqisi2
  91 0022 0392     		str	r2, [sp, #12]
  92              		.loc 1 210 25 view .LVU29
  93 0024 0270     		strb	r2, [r0]
 211:Src/maze_solve.c ****   next_dir = g_direction->contents.North;
  94              		.loc 1 211 3 is_stmt 1 view .LVU30
  95              	.LVL5:
 200:Src/maze_solve.c **** 
  96              		.loc 1 200 13 is_stmt 0 view .LVU31
  97 0026 0022     		movs	r2, #0
  98 0028 0192     		str	r2, [sp, #4]
  99 002a D146     		mov	r9, r10
 100 002c DDF850A0 		ldr	r10, [sp, #80]
 101              	.LVL6:
 200:Src/maze_solve.c **** 
 102              		.loc 1 200 13 view .LVU32
 103 0030 B8E1     		b	.L60
 104              	.LVL7:
 105              	.L3:
 212:Src/maze_solve.c **** 
 213:Src/maze_solve.c ****   /* 探索開始時x */
 214:Src/maze_solve.c ****   /* 探索開始時y */
 215:Src/maze_solve.c ****   /* 探索開始位置プロット */
 216:Src/maze_solve.c ****   /* 足跡プロット */
 217:Src/maze_solve.c ****   do {
 218:Src/maze_solve.c ****     exitg1 = 0;
 219:Src/maze_solve.c **** 
 220:Src/maze_solve.c ****     /* 現在位置がゴールか判定 */
 221:Src/maze_solve.c ****     k = goal_size->contents;
 222:Src/maze_solve.c ****     q0 = k;
 223:Src/maze_solve.c ****     for (tempi = 0; tempi < q0; tempi++) {
 106              		.loc 1 223 33 is_stmt 1 discriminator 2 view .LVU33
 107              		.loc 1 223 38 is_stmt 0 discriminator 2 view .LVU34
 108 0032 0132     		adds	r2, r2, #1
 109              	.LVL8:
 110              	.L2:
 111              		.loc 1 223 21 is_stmt 1 discriminator 1 view .LVU35
 112              		.loc 1 223 5 is_stmt 0 discriminator 1 view .LVU36
 113 0034 AA42     		cmp	r2, r5
 114 0036 0CDA     		bge	.L99
 224:Src/maze_solve.c ****       if ((current_x->contents == maze_goal[tempi]) && (current_y->contents ==
 115              		.loc 1 224 7 is_stmt 1 view .LVU37
 116              		.loc 1 224 21 is_stmt 0 view .LVU38
 117 0038 0C78     		ldrb	r4, [r1]	@ zero_extendqisi2
ARM GAS  C:\Temp\ccX6Vjzt.s 			page 7


 118              		.loc 1 224 44 view .LVU39
 119 003a 985C     		ldrb	r0, [r3, r2]	@ zero_extendqisi2
 120              		.loc 1 224 10 view .LVU40
 121 003c 8442     		cmp	r4, r0
 122 003e F8D1     		bne	.L3
 123              		.loc 1 224 66 discriminator 1 view .LVU41
 124 0040 9BF80040 		ldrb	r4, [fp]	@ zero_extendqisi2
 225:Src/maze_solve.c ****            maze_goal[tempi + 9])) {
 125              		.loc 1 225 21 discriminator 1 view .LVU42
 126 0044 9818     		adds	r0, r3, r2
 127 0046 407A     		ldrb	r0, [r0, #9]	@ zero_extendqisi2
 224:Src/maze_solve.c ****       if ((current_x->contents == maze_goal[tempi]) && (current_y->contents ==
 128              		.loc 1 224 53 discriminator 1 view .LVU43
 129 0048 8442     		cmp	r4, r0
 130 004a F2D1     		bne	.L3
 226:Src/maze_solve.c ****         goal_flag = 1U;
 131              		.loc 1 226 19 view .LVU44
 132 004c 0120     		movs	r0, #1
 133 004e 0190     		str	r0, [sp, #4]
 134              	.LVL9:
 135              		.loc 1 226 19 view .LVU45
 136 0050 EFE7     		b	.L3
 137              	.LVL10:
 138              	.L99:
 227:Src/maze_solve.c ****       }
 228:Src/maze_solve.c ****     }
 229:Src/maze_solve.c **** 
 230:Src/maze_solve.c ****     if (goal_flag == 1) {
 139              		.loc 1 230 5 is_stmt 1 view .LVU46
 140              		.loc 1 230 8 is_stmt 0 view .LVU47
 141 0052 019A     		ldr	r2, [sp, #4]
 142              	.LVL11:
 143              		.loc 1 230 8 view .LVU48
 144 0054 002A     		cmp	r2, #0
 145 0056 40F0A381 		bne	.L62
 231:Src/maze_solve.c ****       exitg1 = 1;
 232:Src/maze_solve.c ****     } else {
 233:Src/maze_solve.c ****       /*             %%進行方向選定 */
 234:Src/maze_solve.c ****       /* 優先順位　北⇒東⇒南⇒西 */
 235:Src/maze_solve.c ****       /* 北側の壁のありなし */
 236:Src/maze_solve.c ****       k = g_direction->contents.North;
 146              		.loc 1 236 7 is_stmt 1 view .LVU49
 147              		.loc 1 236 9 is_stmt 0 view .LVU50
 148 005a 99F80080 		ldrb	r8, [r9]	@ zero_extendqisi2
 149              	.LVL12:
 237:Src/maze_solve.c ****       a = maze_wall[(current_y->contents + ((current_x->contents - 1) << 5)) - 1];
 150              		.loc 1 237 7 is_stmt 1 view .LVU51
 151              		.loc 1 237 31 is_stmt 0 view .LVU52
 152 005e 9BF80040 		ldrb	r4, [fp]	@ zero_extendqisi2
 153 0062 0494     		str	r4, [sp, #16]
 154              		.loc 1 237 55 view .LVU53
 155 0064 0D78     		ldrb	r5, [r1]	@ zero_extendqisi2
 156              	.LVL13:
 157              		.loc 1 237 66 view .LVU54
 158 0066 6A1E     		subs	r2, r5, #1
 159              		.loc 1 237 71 view .LVU55
 160 0068 5601     		lsls	r6, r2, #5
ARM GAS  C:\Temp\ccX6Vjzt.s 			page 8


 161              		.loc 1 237 42 view .LVU56
 162 006a 04EB4212 		add	r2, r4, r2, lsl #5
 163              		.loc 1 237 20 view .LVU57
 164 006e 013A     		subs	r2, r2, #1
 165              		.loc 1 237 9 view .LVU58
 166 0070 1598     		ldr	r0, [sp, #84]
 167 0072 825C     		ldrb	r2, [r0, r2]	@ zero_extendqisi2
 168              	.LVL14:
 238:Src/maze_solve.c ****       if (k <= 7) {
 169              		.loc 1 238 7 is_stmt 1 view .LVU59
 170              		.loc 1 238 10 is_stmt 0 view .LVU60
 171 0074 B8F1070F 		cmp	r8, #7
 172 0078 53D8     		bhi	.L63
 239:Src/maze_solve.c ****         b_k = (unsigned char)(1 << k);
 173              		.loc 1 239 9 is_stmt 1 view .LVU61
 174              		.loc 1 239 33 is_stmt 0 view .LVU62
 175 007a 0120     		movs	r0, #1
 176 007c 00FA08F0 		lsl	r0, r0, r8
 177 0080 C0B2     		uxtb	r0, r0
 178              	.LVL15:
 179              	.L6:
 240:Src/maze_solve.c ****       } else {
 241:Src/maze_solve.c ****         b_k = 0;
 242:Src/maze_solve.c ****       }
 243:Src/maze_solve.c **** 
 244:Src/maze_solve.c ****       if ((a & b_k) == wall->contents.nowall) {
 180              		.loc 1 244 7 is_stmt 1 view .LVU63
 181              		.loc 1 244 14 is_stmt 0 view .LVU64
 182 0082 1040     		ands	r0, r0, r2
 183              	.LVL16:
 184              		.loc 1 244 38 view .LVU65
 185 0084 139F     		ldr	r7, [sp, #76]
 186 0086 97F800E0 		ldrb	lr, [r7]	@ zero_extendqisi2
 187              		.loc 1 244 10 view .LVU66
 188 008a 7045     		cmp	r0, lr
 189 008c 4BD0     		beq	.L100
 190              	.LVL17:
 191              	.L7:
 245:Src/maze_solve.c ****         /* 北側の等高線mapが閾値より低ければ、 */
 246:Src/maze_solve.c ****         q0 = (int)(current_y->contents + 1U);
 247:Src/maze_solve.c ****         if ((unsigned int)q0 > 255U) {
 248:Src/maze_solve.c ****           q0 = 255;
 249:Src/maze_solve.c ****         }
 250:Src/maze_solve.c **** 
 251:Src/maze_solve.c ****         if (contour_map[(q0 + ((current_x->contents - 1) << 5)) - 1] < little) {
 252:Src/maze_solve.c ****           /* 閾値を北側の等高map値に変更 */
 253:Src/maze_solve.c ****           q0 = (int)(current_y->contents + 1U);
 254:Src/maze_solve.c ****           if ((unsigned int)q0 > 255U) {
 255:Src/maze_solve.c ****             q0 = 255;
 256:Src/maze_solve.c ****           }
 257:Src/maze_solve.c **** 
 258:Src/maze_solve.c ****           little = contour_map[(q0 + ((current_x->contents - 1) << 5)) - 1];
 259:Src/maze_solve.c **** 
 260:Src/maze_solve.c ****           /* 北側を進行方向に変更y */
 261:Src/maze_solve.c ****           next_dir = g_direction->contents.North;
 262:Src/maze_solve.c ****         }
 263:Src/maze_solve.c ****       }
ARM GAS  C:\Temp\ccX6Vjzt.s 			page 9


 264:Src/maze_solve.c **** 
 265:Src/maze_solve.c ****       /* 東側 */
 266:Src/maze_solve.c ****       k = g_direction->contents.East;
 192              		.loc 1 266 7 is_stmt 1 view .LVU67
 193              		.loc 1 266 9 is_stmt 0 view .LVU68
 194 008e 99F801C0 		ldrb	ip, [r9, #1]	@ zero_extendqisi2
 195              	.LVL18:
 267:Src/maze_solve.c ****       a = maze_wall[(current_y->contents + ((current_x->contents - 1) << 5)) - 1];
 196              		.loc 1 267 7 is_stmt 1 view .LVU69
 268:Src/maze_solve.c ****       if (k <= 7) {
 197              		.loc 1 268 7 view .LVU70
 198              		.loc 1 268 10 is_stmt 0 view .LVU71
 199 0092 BCF1070F 		cmp	ip, #7
 200 0096 56D8     		bhi	.L66
 269:Src/maze_solve.c ****         c_k = (unsigned char)(1 << k);
 201              		.loc 1 269 9 is_stmt 1 view .LVU72
 202              		.loc 1 269 33 is_stmt 0 view .LVU73
 203 0098 0120     		movs	r0, #1
 204 009a 00FA0CF0 		lsl	r0, r0, ip
 205 009e C0B2     		uxtb	r0, r0
 206              	.LVL19:
 207              	.L9:
 270:Src/maze_solve.c ****       } else {
 271:Src/maze_solve.c ****         c_k = 0;
 272:Src/maze_solve.c ****       }
 273:Src/maze_solve.c **** 
 274:Src/maze_solve.c ****       if ((a & c_k) == wall->contents.nowall) {
 208              		.loc 1 274 7 is_stmt 1 view .LVU74
 209              		.loc 1 274 14 is_stmt 0 view .LVU75
 210 00a0 1040     		ands	r0, r0, r2
 211              	.LVL20:
 212              		.loc 1 274 10 view .LVU76
 213 00a2 8645     		cmp	lr, r0
 214 00a4 51D0     		beq	.L101
 215              	.LVL21:
 216              	.L10:
 275:Src/maze_solve.c ****         q0 = (int)(current_x->contents + 1U);
 276:Src/maze_solve.c ****         if ((unsigned int)q0 > 255U) {
 277:Src/maze_solve.c ****           q0 = 255;
 278:Src/maze_solve.c ****         }
 279:Src/maze_solve.c **** 
 280:Src/maze_solve.c ****         if (contour_map[(current_y->contents + ((q0 - 1) << 5)) - 1] < little) {
 281:Src/maze_solve.c ****           q0 = (int)(current_x->contents + 1U);
 282:Src/maze_solve.c ****           if ((unsigned int)q0 > 255U) {
 283:Src/maze_solve.c ****             q0 = 255;
 284:Src/maze_solve.c ****           }
 285:Src/maze_solve.c **** 
 286:Src/maze_solve.c ****           little = contour_map[(current_y->contents + ((q0 - 1) << 5)) - 1];
 287:Src/maze_solve.c ****           next_dir = g_direction->contents.East;
 288:Src/maze_solve.c ****         }
 289:Src/maze_solve.c ****       }
 290:Src/maze_solve.c **** 
 291:Src/maze_solve.c ****       /* 南側 */
 292:Src/maze_solve.c ****       k = g_direction->contents.South;
 217              		.loc 1 292 7 is_stmt 1 view .LVU77
 218              		.loc 1 292 9 is_stmt 0 view .LVU78
 219 00a6 99F80270 		ldrb	r7, [r9, #2]	@ zero_extendqisi2
ARM GAS  C:\Temp\ccX6Vjzt.s 			page 10


 220              	.LVL22:
 293:Src/maze_solve.c ****       a = maze_wall[(current_y->contents + ((current_x->contents - 1) << 5)) - 1];
 221              		.loc 1 293 7 is_stmt 1 view .LVU79
 294:Src/maze_solve.c ****       if (k <= 7) {
 222              		.loc 1 294 7 view .LVU80
 223              		.loc 1 294 10 is_stmt 0 view .LVU81
 224 00aa 072F     		cmp	r7, #7
 225 00ac 60D8     		bhi	.L69
 295:Src/maze_solve.c ****         d_k = (unsigned char)(1 << k);
 226              		.loc 1 295 9 is_stmt 1 view .LVU82
 227              		.loc 1 295 33 is_stmt 0 view .LVU83
 228 00ae 0120     		movs	r0, #1
 229 00b0 B840     		lsls	r0, r0, r7
 230 00b2 C0B2     		uxtb	r0, r0
 231              	.LVL23:
 232              	.L12:
 296:Src/maze_solve.c ****       } else {
 297:Src/maze_solve.c ****         d_k = 0;
 298:Src/maze_solve.c ****       }
 299:Src/maze_solve.c **** 
 300:Src/maze_solve.c ****       if ((a & d_k) == wall->contents.nowall) {
 233              		.loc 1 300 7 is_stmt 1 view .LVU84
 234              		.loc 1 300 14 is_stmt 0 view .LVU85
 235 00b4 1040     		ands	r0, r0, r2
 236              	.LVL24:
 237              		.loc 1 300 10 view .LVU86
 238 00b6 8645     		cmp	lr, r0
 239 00b8 5CD0     		beq	.L102
 240              	.LVL25:
 241              	.L13:
 301:Src/maze_solve.c ****         q0 = current_y->contents;
 302:Src/maze_solve.c ****         qY = q0 - 1U;
 303:Src/maze_solve.c ****         if (qY > (unsigned int)q0) {
 304:Src/maze_solve.c ****           qY = 0U;
 305:Src/maze_solve.c ****         }
 306:Src/maze_solve.c **** 
 307:Src/maze_solve.c ****         if (contour_map[((int)qY + ((current_x->contents - 1) << 5)) - 1] <
 308:Src/maze_solve.c ****             little) {
 309:Src/maze_solve.c ****           q0 = current_y->contents;
 310:Src/maze_solve.c ****           qY = q0 - 1U;
 311:Src/maze_solve.c ****           if (qY > (unsigned int)q0) {
 312:Src/maze_solve.c ****             qY = 0U;
 313:Src/maze_solve.c ****           }
 314:Src/maze_solve.c **** 
 315:Src/maze_solve.c ****           little = contour_map[((int)qY + ((current_x->contents - 1) << 5)) - 1];
 316:Src/maze_solve.c ****           next_dir = g_direction->contents.South;
 317:Src/maze_solve.c ****         }
 318:Src/maze_solve.c ****       }
 319:Src/maze_solve.c **** 
 320:Src/maze_solve.c ****       /* 西側 */
 321:Src/maze_solve.c ****       k = g_direction->contents.West;
 242              		.loc 1 321 7 is_stmt 1 view .LVU87
 243              		.loc 1 321 9 is_stmt 0 view .LVU88
 244 00ba 99F80360 		ldrb	r6, [r9, #3]	@ zero_extendqisi2
 245 00be 0696     		str	r6, [sp, #24]
 246              	.LVL26:
 322:Src/maze_solve.c ****       a = maze_wall[(current_y->contents + ((current_x->contents - 1) << 5)) - 1];
ARM GAS  C:\Temp\ccX6Vjzt.s 			page 11


 247              		.loc 1 322 7 is_stmt 1 view .LVU89
 323:Src/maze_solve.c ****       if (k <= 7) {
 248              		.loc 1 323 7 view .LVU90
 249              		.loc 1 323 10 is_stmt 0 view .LVU91
 250 00c0 072E     		cmp	r6, #7
 251 00c2 66D8     		bhi	.L72
 324:Src/maze_solve.c ****         e_k = (unsigned char)(1 << k);
 252              		.loc 1 324 9 is_stmt 1 view .LVU92
 253              		.loc 1 324 33 is_stmt 0 view .LVU93
 254 00c4 0120     		movs	r0, #1
 255 00c6 B040     		lsls	r0, r0, r6
 256 00c8 C0B2     		uxtb	r0, r0
 257              	.LVL27:
 258              	.L15:
 325:Src/maze_solve.c ****       } else {
 326:Src/maze_solve.c ****         e_k = 0;
 327:Src/maze_solve.c ****       }
 328:Src/maze_solve.c **** 
 329:Src/maze_solve.c ****       if ((a & e_k) == wall->contents.nowall) {
 259              		.loc 1 329 7 is_stmt 1 view .LVU94
 260              		.loc 1 329 14 is_stmt 0 view .LVU95
 261 00ca 0240     		ands	r2, r2, r0
 262              	.LVL28:
 263              		.loc 1 329 10 view .LVU96
 264 00cc 9645     		cmp	lr, r2
 265 00ce 62D0     		beq	.L103
 266              	.LVL29:
 267              	.L16:
 330:Src/maze_solve.c ****         q0 = current_x->contents;
 331:Src/maze_solve.c ****         qY = q0 - 1U;
 332:Src/maze_solve.c ****         if (qY > (unsigned int)q0) {
 333:Src/maze_solve.c ****           qY = 0U;
 334:Src/maze_solve.c ****         }
 335:Src/maze_solve.c **** 
 336:Src/maze_solve.c ****         if (contour_map[(current_y->contents + (((int)qY - 1) << 5)) - 1] <
 337:Src/maze_solve.c ****             little) {
 338:Src/maze_solve.c ****           q0 = current_x->contents;
 339:Src/maze_solve.c ****           qY = q0 - 1U;
 340:Src/maze_solve.c ****           if (qY > (unsigned int)q0) {
 341:Src/maze_solve.c ****             qY = 0U;
 342:Src/maze_solve.c ****           }
 343:Src/maze_solve.c **** 
 344:Src/maze_solve.c ****           little = contour_map[(current_y->contents + (((int)qY - 1) << 5)) - 1];
 345:Src/maze_solve.c ****           next_dir = g_direction->contents.West;
 346:Src/maze_solve.c ****         }
 347:Src/maze_solve.c ****       }
 348:Src/maze_solve.c **** 
 349:Src/maze_solve.c ****       /*             %%現在方向と進行方向に応じた処理 */
 350:Src/maze_solve.c ****       q0 = (int)(4U + next_dir);
 268              		.loc 1 350 7 is_stmt 1 view .LVU97
 269              		.loc 1 350 21 is_stmt 0 view .LVU98
 270 00d0 039A     		ldr	r2, [sp, #12]
 271 00d2 02F1040E 		add	lr, r2, #4
 272              	.LVL30:
 351:Src/maze_solve.c ****       if ((unsigned int)q0 > 255U) {
 273              		.loc 1 351 7 is_stmt 1 view .LVU99
 274              		.loc 1 351 10 is_stmt 0 view .LVU100
ARM GAS  C:\Temp\ccX6Vjzt.s 			page 12


 275 00d6 BEF1FF0F 		cmp	lr, #255
 276 00da 01D9     		bls	.L18
 352:Src/maze_solve.c ****         q0 = 255;
 277              		.loc 1 352 12 view .LVU101
 278 00dc 4FF0FF0E 		mov	lr, #255
 279              	.LVL31:
 280              	.L18:
 353:Src/maze_solve.c ****       }
 354:Src/maze_solve.c **** 
 355:Src/maze_solve.c ****       qY = (unsigned int)q0 - current_dir->contents;
 281              		.loc 1 355 7 is_stmt 1 view .LVU102
 282              		.loc 1 355 42 is_stmt 0 view .LVU103
 283 00e0 059A     		ldr	r2, [sp, #20]
 284 00e2 1278     		ldrb	r2, [r2]	@ zero_extendqisi2
 285              		.loc 1 355 10 view .LVU104
 286 00e4 AEEB0200 		sub	r0, lr, r2
 287              	.LVL32:
 356:Src/maze_solve.c ****       if (qY > (unsigned int)q0) {
 288              		.loc 1 356 7 is_stmt 1 view .LVU105
 289              		.loc 1 356 10 is_stmt 0 view .LVU106
 290 00e8 8645     		cmp	lr, r0
 291 00ea 00D2     		bcs	.L19
 357:Src/maze_solve.c ****         qY = 0U;
 292              		.loc 1 357 12 view .LVU107
 293 00ec 0020     		movs	r0, #0
 294              	.LVL33:
 295              	.L19:
 358:Src/maze_solve.c ****       }
 359:Src/maze_solve.c **** 
 360:Src/maze_solve.c ****       k = (unsigned char)((unsigned char)qY % 4);
 296              		.loc 1 360 7 is_stmt 1 view .LVU108
 297              		.loc 1 360 9 is_stmt 0 view .LVU109
 298 00ee 00F00300 		and	r0, r0, #3
 299              	.LVL34:
 361:Src/maze_solve.c ****       a = l_direction->contents.front;
 300              		.loc 1 361 7 is_stmt 1 view .LVU110
 301              		.loc 1 361 9 is_stmt 0 view .LVU111
 302 00f2 9AF800E0 		ldrb	lr, [r10]	@ zero_extendqisi2
 303              	.LVL35:
 362:Src/maze_solve.c ****       varargin_2 = l_direction->contents.right;
 304              		.loc 1 362 7 is_stmt 1 view .LVU112
 305              		.loc 1 362 18 is_stmt 0 view .LVU113
 306 00f6 9AF80160 		ldrb	r6, [r10, #1]	@ zero_extendqisi2
 307 00fa 0496     		str	r6, [sp, #16]
 308              	.LVL36:
 363:Src/maze_solve.c ****       varargin_3 = l_direction->contents.back;
 309              		.loc 1 363 7 is_stmt 1 view .LVU114
 310              		.loc 1 363 18 is_stmt 0 view .LVU115
 311 00fc 9AF80260 		ldrb	r6, [r10, #2]	@ zero_extendqisi2
 312 0100 0796     		str	r6, [sp, #28]
 313              	.LVL37:
 364:Src/maze_solve.c ****       varargin_4 = l_direction->contents.left;
 314              		.loc 1 364 7 is_stmt 1 view .LVU116
 315              		.loc 1 364 18 is_stmt 0 view .LVU117
 316 0102 9AF80360 		ldrb	r6, [r10, #3]	@ zero_extendqisi2
 317              	.LVL38:
 365:Src/maze_solve.c ****       if (a == k) {
ARM GAS  C:\Temp\ccX6Vjzt.s 			page 13


 318              		.loc 1 365 7 is_stmt 1 view .LVU118
 319              		.loc 1 365 10 is_stmt 0 view .LVU119
 320 0106 7045     		cmp	r0, lr
 321 0108 58D0     		beq	.L104
 366:Src/maze_solve.c ****         q0 = 0;
 367:Src/maze_solve.c ****       } else if (varargin_2 == k) {
 322              		.loc 1 367 14 is_stmt 1 view .LVU120
 323              		.loc 1 367 17 is_stmt 0 view .LVU121
 324 010a 049C     		ldr	r4, [sp, #16]
 325 010c A042     		cmp	r0, r4
 326 010e 00F0B880 		beq	.L23
 368:Src/maze_solve.c ****         q0 = 1;
 369:Src/maze_solve.c ****       } else if (varargin_3 == k) {
 327              		.loc 1 369 14 is_stmt 1 view .LVU122
 328              		.loc 1 369 17 is_stmt 0 view .LVU123
 329 0112 079C     		ldr	r4, [sp, #28]
 330 0114 A042     		cmp	r0, r4
 331 0116 00F08E80 		beq	.L24
 370:Src/maze_solve.c ****         q0 = 2;
 371:Src/maze_solve.c ****       } else if (varargin_4 == k) {
 332              		.loc 1 371 14 is_stmt 1 view .LVU124
 333              		.loc 1 371 17 is_stmt 0 view .LVU125
 334 011a B042     		cmp	r0, r6
 335 011c 60D0     		beq	.L105
 218:Src/maze_solve.c **** 
 336              		.loc 1 218 12 view .LVU126
 337 011e 0022     		movs	r2, #0
 338 0120 3FE1     		b	.L5
 339              	.LVL39:
 340              	.L63:
 241:Src/maze_solve.c ****       }
 341              		.loc 1 241 13 view .LVU127
 342 0122 0020     		movs	r0, #0
 343 0124 ADE7     		b	.L6
 344              	.L100:
 246:Src/maze_solve.c ****         if ((unsigned int)q0 > 255U) {
 345              		.loc 1 246 9 is_stmt 1 view .LVU128
 246:Src/maze_solve.c ****         if ((unsigned int)q0 > 255U) {
 346              		.loc 1 246 40 is_stmt 0 view .LVU129
 347 0126 601C     		adds	r0, r4, #1
 348              	.LVL40:
 247:Src/maze_solve.c ****           q0 = 255;
 349              		.loc 1 247 9 is_stmt 1 view .LVU130
 247:Src/maze_solve.c ****           q0 = 255;
 350              		.loc 1 247 12 is_stmt 0 view .LVU131
 351 0128 FF28     		cmp	r0, #255
 352 012a 00D9     		bls	.L8
 248:Src/maze_solve.c ****         }
 353              		.loc 1 248 14 view .LVU132
 354 012c FF20     		movs	r0, #255
 355              	.LVL41:
 356              	.L8:
 251:Src/maze_solve.c ****           /* 閾値を北側の等高map値に変更 */
 357              		.loc 1 251 9 is_stmt 1 view .LVU133
 251:Src/maze_solve.c ****           /* 閾値を北側の等高map値に変更 */
 358              		.loc 1 251 29 is_stmt 0 view .LVU134
 359 012e 3044     		add	r0, r0, r6
ARM GAS  C:\Temp\ccX6Vjzt.s 			page 14


 360              	.LVL42:
 251:Src/maze_solve.c ****           /* 閾値を北側の等高map値に変更 */
 361              		.loc 1 251 24 view .LVU135
 362 0130 169F     		ldr	r7, [sp, #88]
 363 0132 3844     		add	r0, r0, r7
 364 0134 10F8010C 		ldrb	r0, [r0, #-1]	@ zero_extendqisi2
 251:Src/maze_solve.c ****           /* 閾値を北側の等高map値に変更 */
 365              		.loc 1 251 12 view .LVU136
 366 0138 029F     		ldr	r7, [sp, #8]
 367 013a B842     		cmp	r0, r7
 368 013c A7D2     		bcs	.L7
 261:Src/maze_solve.c ****         }
 369              		.loc 1 261 20 view .LVU137
 370 013e CDF80C80 		str	r8, [sp, #12]
 371              	.LVL43:
 258:Src/maze_solve.c **** 
 372              		.loc 1 258 18 view .LVU138
 373 0142 0290     		str	r0, [sp, #8]
 374              	.LVL44:
 258:Src/maze_solve.c **** 
 375              		.loc 1 258 18 view .LVU139
 376 0144 A3E7     		b	.L7
 377              	.LVL45:
 378              	.L66:
 271:Src/maze_solve.c ****       }
 379              		.loc 1 271 13 view .LVU140
 380 0146 0020     		movs	r0, #0
 381 0148 AAE7     		b	.L9
 382              	.L101:
 275:Src/maze_solve.c ****         if ((unsigned int)q0 > 255U) {
 383              		.loc 1 275 9 is_stmt 1 view .LVU141
 275:Src/maze_solve.c ****         if ((unsigned int)q0 > 255U) {
 384              		.loc 1 275 40 is_stmt 0 view .LVU142
 385 014a 681C     		adds	r0, r5, #1
 386              	.LVL46:
 276:Src/maze_solve.c ****           q0 = 255;
 387              		.loc 1 276 9 is_stmt 1 view .LVU143
 276:Src/maze_solve.c ****           q0 = 255;
 388              		.loc 1 276 12 is_stmt 0 view .LVU144
 389 014c FF28     		cmp	r0, #255
 390 014e 00D9     		bls	.L11
 277:Src/maze_solve.c ****         }
 391              		.loc 1 277 14 view .LVU145
 392 0150 FF20     		movs	r0, #255
 393              	.LVL47:
 394              	.L11:
 280:Src/maze_solve.c ****           q0 = (int)(current_x->contents + 1U);
 395              		.loc 1 280 9 is_stmt 1 view .LVU146
 280:Src/maze_solve.c ****           q0 = (int)(current_x->contents + 1U);
 396              		.loc 1 280 53 is_stmt 0 view .LVU147
 397 0152 0138     		subs	r0, r0, #1
 398              	.LVL48:
 280:Src/maze_solve.c ****           q0 = (int)(current_x->contents + 1U);
 399              		.loc 1 280 46 view .LVU148
 400 0154 049F     		ldr	r7, [sp, #16]
 401 0156 07EB4010 		add	r0, r7, r0, lsl #5
 402              	.LVL49:
ARM GAS  C:\Temp\ccX6Vjzt.s 			page 15


 280:Src/maze_solve.c ****           q0 = (int)(current_x->contents + 1U);
 403              		.loc 1 280 24 view .LVU149
 404 015a 169F     		ldr	r7, [sp, #88]
 405 015c 3844     		add	r0, r0, r7
 406 015e 10F8010C 		ldrb	r0, [r0, #-1]	@ zero_extendqisi2
 280:Src/maze_solve.c ****           q0 = (int)(current_x->contents + 1U);
 407              		.loc 1 280 12 view .LVU150
 408 0162 029F     		ldr	r7, [sp, #8]
 409 0164 B842     		cmp	r0, r7
 410 0166 9ED2     		bcs	.L10
 287:Src/maze_solve.c ****         }
 411              		.loc 1 287 20 view .LVU151
 412 0168 CDF80CC0 		str	ip, [sp, #12]
 413              	.LVL50:
 286:Src/maze_solve.c ****           next_dir = g_direction->contents.East;
 414              		.loc 1 286 18 view .LVU152
 415 016c 0290     		str	r0, [sp, #8]
 416              	.LVL51:
 286:Src/maze_solve.c ****           next_dir = g_direction->contents.East;
 417              		.loc 1 286 18 view .LVU153
 418 016e 9AE7     		b	.L10
 419              	.LVL52:
 420              	.L69:
 297:Src/maze_solve.c ****       }
 421              		.loc 1 297 13 view .LVU154
 422 0170 0020     		movs	r0, #0
 423 0172 9FE7     		b	.L12
 424              	.L102:
 301:Src/maze_solve.c ****         qY = q0 - 1U;
 425              		.loc 1 301 9 is_stmt 1 view .LVU155
 426              	.LVL53:
 302:Src/maze_solve.c ****         if (qY > (unsigned int)q0) {
 427              		.loc 1 302 9 view .LVU156
 302:Src/maze_solve.c ****         if (qY > (unsigned int)q0) {
 428              		.loc 1 302 12 is_stmt 0 view .LVU157
 429 0174 601E     		subs	r0, r4, #1
 430              	.LVL54:
 303:Src/maze_solve.c ****           qY = 0U;
 431              		.loc 1 303 9 is_stmt 1 view .LVU158
 303:Src/maze_solve.c ****           qY = 0U;
 432              		.loc 1 303 12 is_stmt 0 view .LVU159
 433 0176 8442     		cmp	r4, r0
 434 0178 00D2     		bcs	.L14
 304:Src/maze_solve.c ****         }
 435              		.loc 1 304 14 view .LVU160
 436 017a 0020     		movs	r0, #0
 437              	.LVL55:
 438              	.L14:
 307:Src/maze_solve.c ****             little) {
 439              		.loc 1 307 9 is_stmt 1 view .LVU161
 307:Src/maze_solve.c ****             little) {
 440              		.loc 1 307 34 is_stmt 0 view .LVU162
 441 017c 3044     		add	r0, r0, r6
 442              	.LVL56:
 307:Src/maze_solve.c ****             little) {
 443              		.loc 1 307 24 view .LVU163
 444 017e 169E     		ldr	r6, [sp, #88]
ARM GAS  C:\Temp\ccX6Vjzt.s 			page 16


 445 0180 3044     		add	r0, r0, r6
 446 0182 10F8010C 		ldrb	r0, [r0, #-1]	@ zero_extendqisi2
 307:Src/maze_solve.c ****             little) {
 447              		.loc 1 307 12 view .LVU164
 448 0186 029E     		ldr	r6, [sp, #8]
 449 0188 B042     		cmp	r0, r6
 450 018a 96D2     		bcs	.L13
 316:Src/maze_solve.c ****         }
 451              		.loc 1 316 20 view .LVU165
 452 018c 0397     		str	r7, [sp, #12]
 453              	.LVL57:
 315:Src/maze_solve.c ****           next_dir = g_direction->contents.South;
 454              		.loc 1 315 18 view .LVU166
 455 018e 0290     		str	r0, [sp, #8]
 456              	.LVL58:
 315:Src/maze_solve.c ****           next_dir = g_direction->contents.South;
 457              		.loc 1 315 18 view .LVU167
 458 0190 93E7     		b	.L13
 459              	.LVL59:
 460              	.L72:
 326:Src/maze_solve.c ****       }
 461              		.loc 1 326 13 view .LVU168
 462 0192 0020     		movs	r0, #0
 463 0194 99E7     		b	.L15
 464              	.LVL60:
 465              	.L103:
 330:Src/maze_solve.c ****         qY = q0 - 1U;
 466              		.loc 1 330 9 is_stmt 1 view .LVU169
 331:Src/maze_solve.c ****         if (qY > (unsigned int)q0) {
 467              		.loc 1 331 9 view .LVU170
 331:Src/maze_solve.c ****         if (qY > (unsigned int)q0) {
 468              		.loc 1 331 12 is_stmt 0 view .LVU171
 469 0196 6A1E     		subs	r2, r5, #1
 470              	.LVL61:
 332:Src/maze_solve.c ****           qY = 0U;
 471              		.loc 1 332 9 is_stmt 1 view .LVU172
 332:Src/maze_solve.c ****           qY = 0U;
 472              		.loc 1 332 12 is_stmt 0 view .LVU173
 473 0198 9542     		cmp	r5, r2
 474 019a 00D2     		bcs	.L17
 333:Src/maze_solve.c ****         }
 475              		.loc 1 333 14 view .LVU174
 476 019c 0022     		movs	r2, #0
 477              	.LVL62:
 478              	.L17:
 336:Src/maze_solve.c ****             little) {
 479              		.loc 1 336 9 is_stmt 1 view .LVU175
 336:Src/maze_solve.c ****             little) {
 480              		.loc 1 336 58 is_stmt 0 view .LVU176
 481 019e 013A     		subs	r2, r2, #1
 482              	.LVL63:
 336:Src/maze_solve.c ****             little) {
 483              		.loc 1 336 46 view .LVU177
 484 01a0 0498     		ldr	r0, [sp, #16]
 485              	.LVL64:
 336:Src/maze_solve.c ****             little) {
 486              		.loc 1 336 46 view .LVU178
ARM GAS  C:\Temp\ccX6Vjzt.s 			page 17


 487 01a2 00EB4212 		add	r2, r0, r2, lsl #5
 488              	.LVL65:
 336:Src/maze_solve.c ****             little) {
 489              		.loc 1 336 24 view .LVU179
 490 01a6 1698     		ldr	r0, [sp, #88]
 491 01a8 0244     		add	r2, r2, r0
 492 01aa 12F8012C 		ldrb	r2, [r2, #-1]	@ zero_extendqisi2
 336:Src/maze_solve.c ****             little) {
 493              		.loc 1 336 12 view .LVU180
 494 01ae 0298     		ldr	r0, [sp, #8]
 495 01b0 8242     		cmp	r2, r0
 496 01b2 8DD2     		bcs	.L16
 345:Src/maze_solve.c ****         }
 497              		.loc 1 345 20 view .LVU181
 498 01b4 0698     		ldr	r0, [sp, #24]
 499 01b6 0390     		str	r0, [sp, #12]
 500              	.LVL66:
 344:Src/maze_solve.c ****           next_dir = g_direction->contents.West;
 501              		.loc 1 344 18 view .LVU182
 502 01b8 0292     		str	r2, [sp, #8]
 503              	.LVL67:
 344:Src/maze_solve.c ****           next_dir = g_direction->contents.West;
 504              		.loc 1 344 18 view .LVU183
 505 01ba 89E7     		b	.L16
 506              	.LVL68:
 507              	.L104:
 372:Src/maze_solve.c ****         q0 = 3;
 373:Src/maze_solve.c ****       } else {
 374:Src/maze_solve.c ****         q0 = -1;
 375:Src/maze_solve.c ****       }
 376:Src/maze_solve.c **** 
 377:Src/maze_solve.c ****       switch (q0) {
 508              		.loc 1 377 7 is_stmt 1 view .LVU184
 378:Src/maze_solve.c ****        case 0:
 379:Src/maze_solve.c ****         k = current_x->contents;
 509              		.loc 1 379 9 view .LVU185
 380:Src/maze_solve.c ****         a = current_y->contents;
 510              		.loc 1 380 9 view .LVU186
 381:Src/maze_solve.c ****         varargin_2 = current_dir->contents;
 511              		.loc 1 381 9 view .LVU187
 382:Src/maze_solve.c **** 
 383:Src/maze_solve.c ****         /* 入力 現在位置x,y,現在方向 */
 384:Src/maze_solve.c ****         /* 出力 現在位置x,y */
 385:Src/maze_solve.c ****         /*  move_step 一マス前進する関数 */
 386:Src/maze_solve.c ****         /* 北に一マス */
 387:Src/maze_solve.c ****         if (varargin_2 == g_direction->contents.North) {
 512              		.loc 1 387 9 view .LVU188
 513              		.loc 1 387 12 is_stmt 0 view .LVU189
 514 01bc 4245     		cmp	r2, r8
 515 01be 00F08980 		beq	.L106
 516              	.LVL69:
 517              	.L22:
 388:Src/maze_solve.c ****           q0 = (int)(a + 1U);
 389:Src/maze_solve.c ****           if ((unsigned int)q0 > 255U) {
 390:Src/maze_solve.c ****             q0 = 255;
 391:Src/maze_solve.c ****           }
 392:Src/maze_solve.c **** 
ARM GAS  C:\Temp\ccX6Vjzt.s 			page 18


 393:Src/maze_solve.c ****           a = (unsigned char)q0;
 394:Src/maze_solve.c **** 
 395:Src/maze_solve.c ****           /* disp("north_step") */
 396:Src/maze_solve.c ****         }
 397:Src/maze_solve.c **** 
 398:Src/maze_solve.c ****         /* 東に一マス */
 399:Src/maze_solve.c ****         if (varargin_2 == g_direction->contents.East) {
 518              		.loc 1 399 9 is_stmt 1 view .LVU190
 519              		.loc 1 399 12 is_stmt 0 view .LVU191
 520 01c2 6245     		cmp	r2, ip
 521 01c4 00F08C80 		beq	.L107
 522              	.L29:
 400:Src/maze_solve.c ****           q0 = (int)(k + 1U);
 401:Src/maze_solve.c ****           if ((unsigned int)q0 > 255U) {
 402:Src/maze_solve.c ****             q0 = 255;
 403:Src/maze_solve.c ****           }
 404:Src/maze_solve.c **** 
 405:Src/maze_solve.c ****           k = (unsigned char)q0;
 406:Src/maze_solve.c **** 
 407:Src/maze_solve.c ****           /* disp("east_step") */
 408:Src/maze_solve.c ****         }
 409:Src/maze_solve.c **** 
 410:Src/maze_solve.c ****         /* 南に一マス */
 411:Src/maze_solve.c ****         if (varargin_2 == g_direction->contents.South) {
 523              		.loc 1 411 9 is_stmt 1 view .LVU192
 524              		.loc 1 411 12 is_stmt 0 view .LVU193
 525 01c8 BA42     		cmp	r2, r7
 526 01ca 00F08F80 		beq	.L108
 527              	.L31:
 412:Src/maze_solve.c ****           qY = a - 1U;
 413:Src/maze_solve.c ****           if (qY > a) {
 414:Src/maze_solve.c ****             qY = 0U;
 415:Src/maze_solve.c ****           }
 416:Src/maze_solve.c **** 
 417:Src/maze_solve.c ****           a = (unsigned char)qY;
 418:Src/maze_solve.c **** 
 419:Src/maze_solve.c ****           /* disp("south_step") */
 420:Src/maze_solve.c ****         }
 421:Src/maze_solve.c **** 
 422:Src/maze_solve.c ****         /* 西に一マス */
 423:Src/maze_solve.c ****         if (varargin_2 == g_direction->contents.West) {
 528              		.loc 1 423 9 is_stmt 1 view .LVU194
 529              		.loc 1 423 12 is_stmt 0 view .LVU195
 530 01ce 0698     		ldr	r0, [sp, #24]
 531 01d0 8242     		cmp	r2, r0
 532 01d2 00F09180 		beq	.L109
 533              	.LVL70:
 534              	.L33:
 424:Src/maze_solve.c ****           qY = k - 1U;
 425:Src/maze_solve.c ****           if (qY > k) {
 426:Src/maze_solve.c ****             qY = 0U;
 427:Src/maze_solve.c ****           }
 428:Src/maze_solve.c **** 
 429:Src/maze_solve.c ****           k = (unsigned char)qY;
 430:Src/maze_solve.c **** 
 431:Src/maze_solve.c ****           /* disp("west_step") */
 432:Src/maze_solve.c ****         }
ARM GAS  C:\Temp\ccX6Vjzt.s 			page 19


 433:Src/maze_solve.c **** 
 434:Src/maze_solve.c ****         current_x->contents = k;
 535              		.loc 1 434 9 is_stmt 1 view .LVU196
 536              		.loc 1 434 29 is_stmt 0 view .LVU197
 537 01d6 0D70     		strb	r5, [r1]
 538              	.LVL71:
 435:Src/maze_solve.c ****         current_y->contents = a;
 539              		.loc 1 435 9 is_stmt 1 view .LVU198
 540              		.loc 1 435 29 is_stmt 0 view .LVU199
 541 01d8 8BF80040 		strb	r4, [fp]
 436:Src/maze_solve.c **** 
 437:Src/maze_solve.c ****         /* disp("front") */
 438:Src/maze_solve.c ****         break;
 542              		.loc 1 438 9 is_stmt 1 view .LVU200
 218:Src/maze_solve.c **** 
 543              		.loc 1 218 12 is_stmt 0 view .LVU201
 544 01dc 0022     		movs	r2, #0
 545              		.loc 1 438 9 view .LVU202
 546 01de E0E0     		b	.L5
 547              	.LVL72:
 548              	.L105:
 377:Src/maze_solve.c ****        case 0:
 549              		.loc 1 377 7 is_stmt 1 view .LVU203
 439:Src/maze_solve.c **** 
 440:Src/maze_solve.c ****        case 1:
 441:Src/maze_solve.c ****         k = current_dir->contents;
 442:Src/maze_solve.c **** 
 443:Src/maze_solve.c ****         /* 入力 現在方向 */
 444:Src/maze_solve.c ****         /* 出力 現在方向 */
 445:Src/maze_solve.c ****         /*  turn_clk_90deg 時計周りに90度ターンする関数  */
 446:Src/maze_solve.c ****         q0 = (int)(4U + k);
 447:Src/maze_solve.c ****         if ((unsigned int)q0 > 255U) {
 448:Src/maze_solve.c ****           q0 = 255;
 449:Src/maze_solve.c ****         }
 450:Src/maze_solve.c **** 
 451:Src/maze_solve.c ****         q0++;
 452:Src/maze_solve.c ****         if ((unsigned int)q0 > 255U) {
 453:Src/maze_solve.c ****           q0 = 255;
 454:Src/maze_solve.c ****         }
 455:Src/maze_solve.c **** 
 456:Src/maze_solve.c ****         current_dir->contents = (unsigned char)(q0 % 4);
 457:Src/maze_solve.c ****         k = current_x->contents;
 458:Src/maze_solve.c ****         a = current_y->contents;
 459:Src/maze_solve.c ****         varargin_2 = current_dir->contents;
 460:Src/maze_solve.c **** 
 461:Src/maze_solve.c ****         /* 入力 現在位置x,y,現在方向 */
 462:Src/maze_solve.c ****         /* 出力 現在位置x,y */
 463:Src/maze_solve.c ****         /*  move_step 一マス前進する関数 */
 464:Src/maze_solve.c ****         /* 北に一マス */
 465:Src/maze_solve.c ****         if (varargin_2 == g_direction->contents.North) {
 466:Src/maze_solve.c ****           q0 = (int)(a + 1U);
 467:Src/maze_solve.c ****           if ((unsigned int)q0 > 255U) {
 468:Src/maze_solve.c ****             q0 = 255;
 469:Src/maze_solve.c ****           }
 470:Src/maze_solve.c **** 
 471:Src/maze_solve.c ****           a = (unsigned char)q0;
 472:Src/maze_solve.c **** 
ARM GAS  C:\Temp\ccX6Vjzt.s 			page 20


 473:Src/maze_solve.c ****           /* disp("north_step") */
 474:Src/maze_solve.c ****         }
 475:Src/maze_solve.c **** 
 476:Src/maze_solve.c ****         /* 東に一マス */
 477:Src/maze_solve.c ****         if (varargin_2 == g_direction->contents.East) {
 478:Src/maze_solve.c ****           q0 = (int)(k + 1U);
 479:Src/maze_solve.c ****           if ((unsigned int)q0 > 255U) {
 480:Src/maze_solve.c ****             q0 = 255;
 481:Src/maze_solve.c ****           }
 482:Src/maze_solve.c **** 
 483:Src/maze_solve.c ****           k = (unsigned char)q0;
 484:Src/maze_solve.c **** 
 485:Src/maze_solve.c ****           /* disp("east_step") */
 486:Src/maze_solve.c ****         }
 487:Src/maze_solve.c **** 
 488:Src/maze_solve.c ****         /* 南に一マス */
 489:Src/maze_solve.c ****         if (varargin_2 == g_direction->contents.South) {
 490:Src/maze_solve.c ****           qY = a - 1U;
 491:Src/maze_solve.c ****           if (qY > a) {
 492:Src/maze_solve.c ****             qY = 0U;
 493:Src/maze_solve.c ****           }
 494:Src/maze_solve.c **** 
 495:Src/maze_solve.c ****           a = (unsigned char)qY;
 496:Src/maze_solve.c **** 
 497:Src/maze_solve.c ****           /* disp("south_step") */
 498:Src/maze_solve.c ****         }
 499:Src/maze_solve.c **** 
 500:Src/maze_solve.c ****         /* 西に一マス */
 501:Src/maze_solve.c ****         if (varargin_2 == g_direction->contents.West) {
 502:Src/maze_solve.c ****           qY = k - 1U;
 503:Src/maze_solve.c ****           if (qY > k) {
 504:Src/maze_solve.c ****             qY = 0U;
 505:Src/maze_solve.c ****           }
 506:Src/maze_solve.c **** 
 507:Src/maze_solve.c ****           k = (unsigned char)qY;
 508:Src/maze_solve.c **** 
 509:Src/maze_solve.c ****           /* disp("west_step") */
 510:Src/maze_solve.c ****         }
 511:Src/maze_solve.c **** 
 512:Src/maze_solve.c ****         current_x->contents = k;
 513:Src/maze_solve.c ****         current_y->contents = a;
 514:Src/maze_solve.c **** 
 515:Src/maze_solve.c ****         /* disp("right") */
 516:Src/maze_solve.c ****         break;
 517:Src/maze_solve.c **** 
 518:Src/maze_solve.c ****        case 2:
 519:Src/maze_solve.c ****         k = current_dir->contents;
 520:Src/maze_solve.c **** 
 521:Src/maze_solve.c ****         /* 入力 現在方向 */
 522:Src/maze_solve.c ****         /* 出力 現在方向 */
 523:Src/maze_solve.c ****         /*  turn_180deg 180度ターンする関数 */
 524:Src/maze_solve.c ****         q0 = (int)(4U + k);
 525:Src/maze_solve.c ****         if ((unsigned int)q0 > 255U) {
 526:Src/maze_solve.c ****           q0 = 255;
 527:Src/maze_solve.c ****         }
 528:Src/maze_solve.c **** 
 529:Src/maze_solve.c ****         current_dir->contents = (unsigned char)((q0 - 2) % 4);
ARM GAS  C:\Temp\ccX6Vjzt.s 			page 21


 530:Src/maze_solve.c ****         k = current_x->contents;
 531:Src/maze_solve.c ****         a = current_y->contents;
 532:Src/maze_solve.c ****         varargin_2 = current_dir->contents;
 533:Src/maze_solve.c **** 
 534:Src/maze_solve.c ****         /* 入力 現在位置x,y,現在方向 */
 535:Src/maze_solve.c ****         /* 出力 現在位置x,y */
 536:Src/maze_solve.c ****         /*  move_step 一マス前進する関数 */
 537:Src/maze_solve.c ****         /* 北に一マス */
 538:Src/maze_solve.c ****         if (varargin_2 == g_direction->contents.North) {
 539:Src/maze_solve.c ****           q0 = (int)(a + 1U);
 540:Src/maze_solve.c ****           if ((unsigned int)q0 > 255U) {
 541:Src/maze_solve.c ****             q0 = 255;
 542:Src/maze_solve.c ****           }
 543:Src/maze_solve.c **** 
 544:Src/maze_solve.c ****           a = (unsigned char)q0;
 545:Src/maze_solve.c **** 
 546:Src/maze_solve.c ****           /* disp("north_step") */
 547:Src/maze_solve.c ****         }
 548:Src/maze_solve.c **** 
 549:Src/maze_solve.c ****         /* 東に一マス */
 550:Src/maze_solve.c ****         if (varargin_2 == g_direction->contents.East) {
 551:Src/maze_solve.c ****           q0 = (int)(k + 1U);
 552:Src/maze_solve.c ****           if ((unsigned int)q0 > 255U) {
 553:Src/maze_solve.c ****             q0 = 255;
 554:Src/maze_solve.c ****           }
 555:Src/maze_solve.c **** 
 556:Src/maze_solve.c ****           k = (unsigned char)q0;
 557:Src/maze_solve.c **** 
 558:Src/maze_solve.c ****           /* disp("east_step") */
 559:Src/maze_solve.c ****         }
 560:Src/maze_solve.c **** 
 561:Src/maze_solve.c ****         /* 南に一マス */
 562:Src/maze_solve.c ****         if (varargin_2 == g_direction->contents.South) {
 563:Src/maze_solve.c ****           qY = a - 1U;
 564:Src/maze_solve.c ****           if (qY > a) {
 565:Src/maze_solve.c ****             qY = 0U;
 566:Src/maze_solve.c ****           }
 567:Src/maze_solve.c **** 
 568:Src/maze_solve.c ****           a = (unsigned char)qY;
 569:Src/maze_solve.c **** 
 570:Src/maze_solve.c ****           /* disp("south_step") */
 571:Src/maze_solve.c ****         }
 572:Src/maze_solve.c **** 
 573:Src/maze_solve.c ****         /* 西に一マス */
 574:Src/maze_solve.c ****         if (varargin_2 == g_direction->contents.West) {
 575:Src/maze_solve.c ****           qY = k - 1U;
 576:Src/maze_solve.c ****           if (qY > k) {
 577:Src/maze_solve.c ****             qY = 0U;
 578:Src/maze_solve.c ****           }
 579:Src/maze_solve.c **** 
 580:Src/maze_solve.c ****           k = (unsigned char)qY;
 581:Src/maze_solve.c **** 
 582:Src/maze_solve.c ****           /* disp("west_step") */
 583:Src/maze_solve.c ****         }
 584:Src/maze_solve.c **** 
 585:Src/maze_solve.c ****         current_x->contents = k;
 586:Src/maze_solve.c ****         current_y->contents = a;
ARM GAS  C:\Temp\ccX6Vjzt.s 			page 22


 587:Src/maze_solve.c **** 
 588:Src/maze_solve.c ****         /* disp("back") */
 589:Src/maze_solve.c ****         break;
 590:Src/maze_solve.c **** 
 591:Src/maze_solve.c ****        case 3:
 592:Src/maze_solve.c ****         k = current_dir->contents;
 550              		.loc 1 592 9 view .LVU204
 593:Src/maze_solve.c **** 
 594:Src/maze_solve.c ****         /* 入力　現在方向 */
 595:Src/maze_solve.c ****         /* 出力　現在方向 */
 596:Src/maze_solve.c ****         /*  turn_conclk_90deg 反時計周りに90度回る関数  */
 597:Src/maze_solve.c ****         q0 = (int)(4U + k);
 551              		.loc 1 597 9 view .LVU205
 552              		.loc 1 597 23 is_stmt 0 view .LVU206
 553 01e0 0432     		adds	r2, r2, #4
 554              	.LVL73:
 598:Src/maze_solve.c ****         if ((unsigned int)q0 > 255U) {
 555              		.loc 1 598 9 is_stmt 1 view .LVU207
 556              		.loc 1 598 12 is_stmt 0 view .LVU208
 557 01e2 FF2A     		cmp	r2, #255
 558 01e4 00F2C280 		bhi	.L78
 559              	.LVL74:
 560              	.L25:
 599:Src/maze_solve.c ****           q0 = 255;
 600:Src/maze_solve.c ****         }
 601:Src/maze_solve.c **** 
 602:Src/maze_solve.c ****         current_dir->contents = (unsigned char)((q0 - 1) % 4);
 561              		.loc 1 602 9 is_stmt 1 view .LVU209
 562              		.loc 1 602 53 is_stmt 0 view .LVU210
 563 01e8 013A     		subs	r2, r2, #1
 564              	.LVL75:
 565              		.loc 1 602 58 view .LVU211
 566 01ea 5042     		rsbs	r0, r2, #0
 567 01ec 02F00302 		and	r2, r2, #3
 568              	.LVL76:
 569              		.loc 1 602 58 view .LVU212
 570 01f0 00F00300 		and	r0, r0, #3
 571 01f4 58BF     		it	pl
 572 01f6 4242     		rsbpl	r2, r0, #0
 573              		.loc 1 602 33 view .LVU213
 574 01f8 D2B2     		uxtb	r2, r2
 575              		.loc 1 602 31 view .LVU214
 576 01fa 0598     		ldr	r0, [sp, #20]
 577 01fc 0270     		strb	r2, [r0]
 578              	.LVL77:
 603:Src/maze_solve.c ****         k = current_x->contents;
 579              		.loc 1 603 9 is_stmt 1 view .LVU215
 580              		.loc 1 603 11 is_stmt 0 view .LVU216
 581 01fe 0C78     		ldrb	r4, [r1]	@ zero_extendqisi2
 582              	.LVL78:
 604:Src/maze_solve.c ****         a = current_y->contents;
 583              		.loc 1 604 9 is_stmt 1 view .LVU217
 584              		.loc 1 604 11 is_stmt 0 view .LVU218
 585 0200 9BF80000 		ldrb	r0, [fp]	@ zero_extendqisi2
 586              	.LVL79:
 605:Src/maze_solve.c ****         varargin_2 = current_dir->contents;
 587              		.loc 1 605 9 is_stmt 1 view .LVU219
ARM GAS  C:\Temp\ccX6Vjzt.s 			page 23


 606:Src/maze_solve.c **** 
 607:Src/maze_solve.c ****         /* 入力 現在位置x,y,現在方向 */
 608:Src/maze_solve.c ****         /* 出力 現在位置x,y */
 609:Src/maze_solve.c ****         /*  move_step 一マス前進する関数 */
 610:Src/maze_solve.c ****         /* 北に一マス */
 611:Src/maze_solve.c ****         if (varargin_2 == g_direction->contents.North) {
 588              		.loc 1 611 9 view .LVU220
 589              		.loc 1 611 48 is_stmt 0 view .LVU221
 590 0204 99F80050 		ldrb	r5, [r9]	@ zero_extendqisi2
 591              		.loc 1 611 12 view .LVU222
 592 0208 AA42     		cmp	r2, r5
 593 020a 00F0B180 		beq	.L110
 594              	.L52:
 612:Src/maze_solve.c ****           q0 = (int)(a + 1U);
 613:Src/maze_solve.c ****           if ((unsigned int)q0 > 255U) {
 614:Src/maze_solve.c ****             q0 = 255;
 615:Src/maze_solve.c ****           }
 616:Src/maze_solve.c **** 
 617:Src/maze_solve.c ****           a = (unsigned char)q0;
 618:Src/maze_solve.c **** 
 619:Src/maze_solve.c ****           /* disp("north_step") */
 620:Src/maze_solve.c ****         }
 621:Src/maze_solve.c **** 
 622:Src/maze_solve.c ****         /* 東に一マス */
 623:Src/maze_solve.c ****         if (varargin_2 == g_direction->contents.East) {
 595              		.loc 1 623 9 is_stmt 1 view .LVU223
 596              		.loc 1 623 48 is_stmt 0 view .LVU224
 597 020e 99F80150 		ldrb	r5, [r9, #1]	@ zero_extendqisi2
 598              		.loc 1 623 12 view .LVU225
 599 0212 AA42     		cmp	r2, r5
 600 0214 00F0B280 		beq	.L111
 601              	.L54:
 624:Src/maze_solve.c ****           q0 = (int)(k + 1U);
 625:Src/maze_solve.c ****           if ((unsigned int)q0 > 255U) {
 626:Src/maze_solve.c ****             q0 = 255;
 627:Src/maze_solve.c ****           }
 628:Src/maze_solve.c **** 
 629:Src/maze_solve.c ****           k = (unsigned char)q0;
 630:Src/maze_solve.c **** 
 631:Src/maze_solve.c ****           /* disp("east_step") */
 632:Src/maze_solve.c ****         }
 633:Src/maze_solve.c **** 
 634:Src/maze_solve.c ****         /* 南に一マス */
 635:Src/maze_solve.c ****         if (varargin_2 == g_direction->contents.South) {
 602              		.loc 1 635 9 is_stmt 1 view .LVU226
 603              		.loc 1 635 48 is_stmt 0 view .LVU227
 604 0218 99F80250 		ldrb	r5, [r9, #2]	@ zero_extendqisi2
 605              		.loc 1 635 12 view .LVU228
 606 021c AA42     		cmp	r2, r5
 607 021e 00F0B380 		beq	.L112
 608              	.L56:
 636:Src/maze_solve.c ****           qY = a - 1U;
 637:Src/maze_solve.c ****           if (qY > a) {
 638:Src/maze_solve.c ****             qY = 0U;
 639:Src/maze_solve.c ****           }
 640:Src/maze_solve.c **** 
 641:Src/maze_solve.c ****           a = (unsigned char)qY;
ARM GAS  C:\Temp\ccX6Vjzt.s 			page 24


 642:Src/maze_solve.c **** 
 643:Src/maze_solve.c ****           /* disp("south_step") */
 644:Src/maze_solve.c ****         }
 645:Src/maze_solve.c **** 
 646:Src/maze_solve.c ****         /* 西に一マス */
 647:Src/maze_solve.c ****         if (varargin_2 == g_direction->contents.West) {
 609              		.loc 1 647 9 is_stmt 1 view .LVU229
 610              		.loc 1 647 48 is_stmt 0 view .LVU230
 611 0222 99F80350 		ldrb	r5, [r9, #3]	@ zero_extendqisi2
 612              		.loc 1 647 12 view .LVU231
 613 0226 AA42     		cmp	r2, r5
 614 0228 00F0B480 		beq	.L113
 615              	.LVL80:
 616              	.L58:
 648:Src/maze_solve.c ****           qY = k - 1U;
 649:Src/maze_solve.c ****           if (qY > k) {
 650:Src/maze_solve.c ****             qY = 0U;
 651:Src/maze_solve.c ****           }
 652:Src/maze_solve.c **** 
 653:Src/maze_solve.c ****           k = (unsigned char)qY;
 654:Src/maze_solve.c **** 
 655:Src/maze_solve.c ****           /* disp("west_step") */
 656:Src/maze_solve.c ****         }
 657:Src/maze_solve.c **** 
 658:Src/maze_solve.c ****         current_x->contents = k;
 617              		.loc 1 658 9 is_stmt 1 view .LVU232
 618              		.loc 1 658 29 is_stmt 0 view .LVU233
 619 022c 0C70     		strb	r4, [r1]
 620              	.LVL81:
 659:Src/maze_solve.c ****         current_y->contents = a;
 621              		.loc 1 659 9 is_stmt 1 view .LVU234
 622              		.loc 1 659 29 is_stmt 0 view .LVU235
 623 022e 8BF80000 		strb	r0, [fp]
 660:Src/maze_solve.c **** 
 661:Src/maze_solve.c ****         /* disp("left") */
 662:Src/maze_solve.c ****         break;
 624              		.loc 1 662 9 is_stmt 1 view .LVU236
 218:Src/maze_solve.c **** 
 625              		.loc 1 218 12 is_stmt 0 view .LVU237
 626 0232 0022     		movs	r2, #0
 627              		.loc 1 662 9 view .LVU238
 628 0234 B5E0     		b	.L5
 629              	.LVL82:
 630              	.L24:
 377:Src/maze_solve.c ****        case 0:
 631              		.loc 1 377 7 is_stmt 1 view .LVU239
 519:Src/maze_solve.c **** 
 632              		.loc 1 519 9 view .LVU240
 524:Src/maze_solve.c ****         if ((unsigned int)q0 > 255U) {
 633              		.loc 1 524 9 view .LVU241
 524:Src/maze_solve.c ****         if ((unsigned int)q0 > 255U) {
 634              		.loc 1 524 23 is_stmt 0 view .LVU242
 635 0236 0432     		adds	r2, r2, #4
 636              	.LVL83:
 525:Src/maze_solve.c ****           q0 = 255;
 637              		.loc 1 525 9 is_stmt 1 view .LVU243
 525:Src/maze_solve.c ****           q0 = 255;
ARM GAS  C:\Temp\ccX6Vjzt.s 			page 25


 638              		.loc 1 525 12 is_stmt 0 view .LVU244
 639 0238 FF2A     		cmp	r2, #255
 640 023a 7DD8     		bhi	.L79
 641              	.LVL84:
 642              	.L26:
 529:Src/maze_solve.c ****         k = current_x->contents;
 643              		.loc 1 529 9 is_stmt 1 view .LVU245
 529:Src/maze_solve.c ****         k = current_x->contents;
 644              		.loc 1 529 53 is_stmt 0 view .LVU246
 645 023c 023A     		subs	r2, r2, #2
 646              	.LVL85:
 529:Src/maze_solve.c ****         k = current_x->contents;
 647              		.loc 1 529 58 view .LVU247
 648 023e 5042     		rsbs	r0, r2, #0
 649 0240 02F00302 		and	r2, r2, #3
 650              	.LVL86:
 529:Src/maze_solve.c ****         k = current_x->contents;
 651              		.loc 1 529 58 view .LVU248
 652 0244 00F00300 		and	r0, r0, #3
 653 0248 58BF     		it	pl
 654 024a 4242     		rsbpl	r2, r0, #0
 529:Src/maze_solve.c ****         k = current_x->contents;
 655              		.loc 1 529 33 view .LVU249
 656 024c D2B2     		uxtb	r2, r2
 529:Src/maze_solve.c ****         k = current_x->contents;
 657              		.loc 1 529 31 view .LVU250
 658 024e 0598     		ldr	r0, [sp, #20]
 659 0250 0270     		strb	r2, [r0]
 660              	.LVL87:
 530:Src/maze_solve.c ****         a = current_y->contents;
 661              		.loc 1 530 9 is_stmt 1 view .LVU251
 530:Src/maze_solve.c ****         a = current_y->contents;
 662              		.loc 1 530 11 is_stmt 0 view .LVU252
 663 0252 0C78     		ldrb	r4, [r1]	@ zero_extendqisi2
 664              	.LVL88:
 531:Src/maze_solve.c ****         varargin_2 = current_dir->contents;
 665              		.loc 1 531 9 is_stmt 1 view .LVU253
 531:Src/maze_solve.c ****         varargin_2 = current_dir->contents;
 666              		.loc 1 531 11 is_stmt 0 view .LVU254
 667 0254 9BF80000 		ldrb	r0, [fp]	@ zero_extendqisi2
 668              	.LVL89:
 532:Src/maze_solve.c **** 
 669              		.loc 1 532 9 is_stmt 1 view .LVU255
 538:Src/maze_solve.c ****           q0 = (int)(a + 1U);
 670              		.loc 1 538 9 view .LVU256
 538:Src/maze_solve.c ****           q0 = (int)(a + 1U);
 671              		.loc 1 538 48 is_stmt 0 view .LVU257
 672 0258 99F80050 		ldrb	r5, [r9]	@ zero_extendqisi2
 538:Src/maze_solve.c ****           q0 = (int)(a + 1U);
 673              		.loc 1 538 12 view .LVU258
 674 025c AA42     		cmp	r2, r5
 675 025e 6DD0     		beq	.L114
 676              	.L44:
 550:Src/maze_solve.c ****           q0 = (int)(k + 1U);
 677              		.loc 1 550 9 is_stmt 1 view .LVU259
 550:Src/maze_solve.c ****           q0 = (int)(k + 1U);
 678              		.loc 1 550 48 is_stmt 0 view .LVU260
ARM GAS  C:\Temp\ccX6Vjzt.s 			page 26


 679 0260 99F80150 		ldrb	r5, [r9, #1]	@ zero_extendqisi2
 550:Src/maze_solve.c ****           q0 = (int)(k + 1U);
 680              		.loc 1 550 12 view .LVU261
 681 0264 AA42     		cmp	r2, r5
 682 0266 6FD0     		beq	.L115
 683              	.L46:
 562:Src/maze_solve.c ****           qY = a - 1U;
 684              		.loc 1 562 9 is_stmt 1 view .LVU262
 562:Src/maze_solve.c ****           qY = a - 1U;
 685              		.loc 1 562 48 is_stmt 0 view .LVU263
 686 0268 99F80250 		ldrb	r5, [r9, #2]	@ zero_extendqisi2
 562:Src/maze_solve.c ****           qY = a - 1U;
 687              		.loc 1 562 12 view .LVU264
 688 026c AA42     		cmp	r2, r5
 689 026e 71D0     		beq	.L116
 690              	.L48:
 574:Src/maze_solve.c ****           qY = k - 1U;
 691              		.loc 1 574 9 is_stmt 1 view .LVU265
 574:Src/maze_solve.c ****           qY = k - 1U;
 692              		.loc 1 574 48 is_stmt 0 view .LVU266
 693 0270 99F80350 		ldrb	r5, [r9, #3]	@ zero_extendqisi2
 574:Src/maze_solve.c ****           qY = k - 1U;
 694              		.loc 1 574 12 view .LVU267
 695 0274 AA42     		cmp	r2, r5
 696 0276 73D0     		beq	.L117
 697              	.LVL90:
 698              	.L50:
 585:Src/maze_solve.c ****         current_y->contents = a;
 699              		.loc 1 585 9 is_stmt 1 view .LVU268
 585:Src/maze_solve.c ****         current_y->contents = a;
 700              		.loc 1 585 29 is_stmt 0 view .LVU269
 701 0278 0C70     		strb	r4, [r1]
 702              	.LVL91:
 586:Src/maze_solve.c **** 
 703              		.loc 1 586 9 is_stmt 1 view .LVU270
 586:Src/maze_solve.c **** 
 704              		.loc 1 586 29 is_stmt 0 view .LVU271
 705 027a 8BF80000 		strb	r0, [fp]
 589:Src/maze_solve.c **** 
 706              		.loc 1 589 9 is_stmt 1 view .LVU272
 218:Src/maze_solve.c **** 
 707              		.loc 1 218 12 is_stmt 0 view .LVU273
 708 027e 0022     		movs	r2, #0
 589:Src/maze_solve.c **** 
 709              		.loc 1 589 9 view .LVU274
 710 0280 8FE0     		b	.L5
 711              	.LVL92:
 712              	.L23:
 377:Src/maze_solve.c ****        case 0:
 713              		.loc 1 377 7 is_stmt 1 view .LVU275
 441:Src/maze_solve.c **** 
 714              		.loc 1 441 9 view .LVU276
 446:Src/maze_solve.c ****         if ((unsigned int)q0 > 255U) {
 715              		.loc 1 446 9 view .LVU277
 446:Src/maze_solve.c ****         if ((unsigned int)q0 > 255U) {
 716              		.loc 1 446 23 is_stmt 0 view .LVU278
 717 0282 0432     		adds	r2, r2, #4
ARM GAS  C:\Temp\ccX6Vjzt.s 			page 27


 718              	.LVL93:
 447:Src/maze_solve.c ****           q0 = 255;
 719              		.loc 1 447 9 is_stmt 1 view .LVU279
 447:Src/maze_solve.c ****           q0 = 255;
 720              		.loc 1 447 12 is_stmt 0 view .LVU280
 721 0284 FF2A     		cmp	r2, #255
 722 0286 3DD8     		bhi	.L80
 723              	.LVL94:
 724              	.L27:
 451:Src/maze_solve.c ****         if ((unsigned int)q0 > 255U) {
 725              		.loc 1 451 9 is_stmt 1 view .LVU281
 451:Src/maze_solve.c ****         if ((unsigned int)q0 > 255U) {
 726              		.loc 1 451 11 is_stmt 0 view .LVU282
 727 0288 0132     		adds	r2, r2, #1
 728              	.LVL95:
 452:Src/maze_solve.c ****           q0 = 255;
 729              		.loc 1 452 9 is_stmt 1 view .LVU283
 452:Src/maze_solve.c ****           q0 = 255;
 730              		.loc 1 452 12 is_stmt 0 view .LVU284
 731 028a FF2A     		cmp	r2, #255
 732 028c 00D9     		bls	.L35
 453:Src/maze_solve.c ****         }
 733              		.loc 1 453 14 view .LVU285
 734 028e FF22     		movs	r2, #255
 735              	.LVL96:
 736              	.L35:
 456:Src/maze_solve.c ****         k = current_x->contents;
 737              		.loc 1 456 9 is_stmt 1 view .LVU286
 456:Src/maze_solve.c ****         k = current_x->contents;
 738              		.loc 1 456 52 is_stmt 0 view .LVU287
 739 0290 5042     		rsbs	r0, r2, #0
 740 0292 02F00302 		and	r2, r2, #3
 741              	.LVL97:
 456:Src/maze_solve.c ****         k = current_x->contents;
 742              		.loc 1 456 52 view .LVU288
 743 0296 00F00300 		and	r0, r0, #3
 744 029a 58BF     		it	pl
 745 029c 4242     		rsbpl	r2, r0, #0
 456:Src/maze_solve.c ****         k = current_x->contents;
 746              		.loc 1 456 33 view .LVU289
 747 029e D2B2     		uxtb	r2, r2
 456:Src/maze_solve.c ****         k = current_x->contents;
 748              		.loc 1 456 31 view .LVU290
 749 02a0 0598     		ldr	r0, [sp, #20]
 750 02a2 0270     		strb	r2, [r0]
 751              	.LVL98:
 457:Src/maze_solve.c ****         a = current_y->contents;
 752              		.loc 1 457 9 is_stmt 1 view .LVU291
 457:Src/maze_solve.c ****         a = current_y->contents;
 753              		.loc 1 457 11 is_stmt 0 view .LVU292
 754 02a4 0C78     		ldrb	r4, [r1]	@ zero_extendqisi2
 755              	.LVL99:
 458:Src/maze_solve.c ****         varargin_2 = current_dir->contents;
 756              		.loc 1 458 9 is_stmt 1 view .LVU293
 458:Src/maze_solve.c ****         varargin_2 = current_dir->contents;
 757              		.loc 1 458 11 is_stmt 0 view .LVU294
 758 02a6 9BF80000 		ldrb	r0, [fp]	@ zero_extendqisi2
ARM GAS  C:\Temp\ccX6Vjzt.s 			page 28


 759              	.LVL100:
 459:Src/maze_solve.c **** 
 760              		.loc 1 459 9 is_stmt 1 view .LVU295
 465:Src/maze_solve.c ****           q0 = (int)(a + 1U);
 761              		.loc 1 465 9 view .LVU296
 465:Src/maze_solve.c ****           q0 = (int)(a + 1U);
 762              		.loc 1 465 48 is_stmt 0 view .LVU297
 763 02aa 99F80050 		ldrb	r5, [r9]	@ zero_extendqisi2
 465:Src/maze_solve.c ****           q0 = (int)(a + 1U);
 764              		.loc 1 465 12 view .LVU298
 765 02ae AA42     		cmp	r2, r5
 766 02b0 2AD0     		beq	.L118
 767              	.L36:
 477:Src/maze_solve.c ****           q0 = (int)(k + 1U);
 768              		.loc 1 477 9 is_stmt 1 view .LVU299
 477:Src/maze_solve.c ****           q0 = (int)(k + 1U);
 769              		.loc 1 477 48 is_stmt 0 view .LVU300
 770 02b2 99F80150 		ldrb	r5, [r9, #1]	@ zero_extendqisi2
 477:Src/maze_solve.c ****           q0 = (int)(k + 1U);
 771              		.loc 1 477 12 view .LVU301
 772 02b6 AA42     		cmp	r2, r5
 773 02b8 2CD0     		beq	.L119
 774              	.L38:
 489:Src/maze_solve.c ****           qY = a - 1U;
 775              		.loc 1 489 9 is_stmt 1 view .LVU302
 489:Src/maze_solve.c ****           qY = a - 1U;
 776              		.loc 1 489 48 is_stmt 0 view .LVU303
 777 02ba 99F80250 		ldrb	r5, [r9, #2]	@ zero_extendqisi2
 489:Src/maze_solve.c ****           qY = a - 1U;
 778              		.loc 1 489 12 view .LVU304
 779 02be AA42     		cmp	r2, r5
 780 02c0 2ED0     		beq	.L120
 781              	.L40:
 501:Src/maze_solve.c ****           qY = k - 1U;
 782              		.loc 1 501 9 is_stmt 1 view .LVU305
 501:Src/maze_solve.c ****           qY = k - 1U;
 783              		.loc 1 501 48 is_stmt 0 view .LVU306
 784 02c2 99F80350 		ldrb	r5, [r9, #3]	@ zero_extendqisi2
 501:Src/maze_solve.c ****           qY = k - 1U;
 785              		.loc 1 501 12 view .LVU307
 786 02c6 AA42     		cmp	r2, r5
 787 02c8 30D0     		beq	.L121
 788              	.LVL101:
 789              	.L42:
 512:Src/maze_solve.c ****         current_y->contents = a;
 790              		.loc 1 512 9 is_stmt 1 view .LVU308
 512:Src/maze_solve.c ****         current_y->contents = a;
 791              		.loc 1 512 29 is_stmt 0 view .LVU309
 792 02ca 0C70     		strb	r4, [r1]
 793              	.LVL102:
 513:Src/maze_solve.c **** 
 794              		.loc 1 513 9 is_stmt 1 view .LVU310
 513:Src/maze_solve.c **** 
 795              		.loc 1 513 29 is_stmt 0 view .LVU311
 796 02cc 8BF80000 		strb	r0, [fp]
 516:Src/maze_solve.c **** 
 797              		.loc 1 516 9 is_stmt 1 view .LVU312
ARM GAS  C:\Temp\ccX6Vjzt.s 			page 29


 218:Src/maze_solve.c **** 
 798              		.loc 1 218 12 is_stmt 0 view .LVU313
 799 02d0 0022     		movs	r2, #0
 516:Src/maze_solve.c **** 
 800              		.loc 1 516 9 view .LVU314
 801 02d2 66E0     		b	.L5
 802              	.LVL103:
 803              	.L106:
 388:Src/maze_solve.c ****           if ((unsigned int)q0 > 255U) {
 804              		.loc 1 388 11 is_stmt 1 view .LVU315
 388:Src/maze_solve.c ****           if ((unsigned int)q0 > 255U) {
 805              		.loc 1 388 24 is_stmt 0 view .LVU316
 806 02d4 0134     		adds	r4, r4, #1
 807              	.LVL104:
 389:Src/maze_solve.c ****             q0 = 255;
 808              		.loc 1 389 11 is_stmt 1 view .LVU317
 389:Src/maze_solve.c ****             q0 = 255;
 809              		.loc 1 389 14 is_stmt 0 view .LVU318
 810 02d6 FF2C     		cmp	r4, #255
 811 02d8 00D9     		bls	.L28
 390:Src/maze_solve.c ****           }
 812              		.loc 1 390 16 view .LVU319
 813 02da FF24     		movs	r4, #255
 814              	.LVL105:
 815              	.L28:
 393:Src/maze_solve.c **** 
 816              		.loc 1 393 11 is_stmt 1 view .LVU320
 393:Src/maze_solve.c **** 
 817              		.loc 1 393 13 is_stmt 0 view .LVU321
 818 02dc E4B2     		uxtb	r4, r4
 819              	.LVL106:
 393:Src/maze_solve.c **** 
 820              		.loc 1 393 13 view .LVU322
 821 02de 70E7     		b	.L22
 822              	.L107:
 400:Src/maze_solve.c ****           if ((unsigned int)q0 > 255U) {
 823              		.loc 1 400 11 is_stmt 1 view .LVU323
 400:Src/maze_solve.c ****           if ((unsigned int)q0 > 255U) {
 824              		.loc 1 400 24 is_stmt 0 view .LVU324
 825 02e0 0135     		adds	r5, r5, #1
 826              	.LVL107:
 401:Src/maze_solve.c ****             q0 = 255;
 827              		.loc 1 401 11 is_stmt 1 view .LVU325
 401:Src/maze_solve.c ****             q0 = 255;
 828              		.loc 1 401 14 is_stmt 0 view .LVU326
 829 02e2 FF2D     		cmp	r5, #255
 830 02e4 00D9     		bls	.L30
 402:Src/maze_solve.c ****           }
 831              		.loc 1 402 16 view .LVU327
 832 02e6 FF25     		movs	r5, #255
 833              	.LVL108:
 834              	.L30:
 405:Src/maze_solve.c **** 
 835              		.loc 1 405 11 is_stmt 1 view .LVU328
 405:Src/maze_solve.c **** 
 836              		.loc 1 405 13 is_stmt 0 view .LVU329
 837 02e8 EDB2     		uxtb	r5, r5
ARM GAS  C:\Temp\ccX6Vjzt.s 			page 30


 838              	.LVL109:
 405:Src/maze_solve.c **** 
 839              		.loc 1 405 13 view .LVU330
 840 02ea 6DE7     		b	.L29
 841              	.L108:
 412:Src/maze_solve.c ****           if (qY > a) {
 842              		.loc 1 412 11 is_stmt 1 view .LVU331
 412:Src/maze_solve.c ****           if (qY > a) {
 843              		.loc 1 412 14 is_stmt 0 view .LVU332
 844 02ec 601E     		subs	r0, r4, #1
 845              	.LVL110:
 413:Src/maze_solve.c ****             qY = 0U;
 846              		.loc 1 413 11 is_stmt 1 view .LVU333
 413:Src/maze_solve.c ****             qY = 0U;
 847              		.loc 1 413 14 is_stmt 0 view .LVU334
 848 02ee 8442     		cmp	r4, r0
 849 02f0 00D2     		bcs	.L32
 414:Src/maze_solve.c ****           }
 850              		.loc 1 414 16 view .LVU335
 851 02f2 0020     		movs	r0, #0
 852              	.LVL111:
 853              	.L32:
 417:Src/maze_solve.c **** 
 854              		.loc 1 417 11 is_stmt 1 view .LVU336
 417:Src/maze_solve.c **** 
 855              		.loc 1 417 13 is_stmt 0 view .LVU337
 856 02f4 C4B2     		uxtb	r4, r0
 857              	.LVL112:
 417:Src/maze_solve.c **** 
 858              		.loc 1 417 13 view .LVU338
 859 02f6 6AE7     		b	.L31
 860              	.LVL113:
 861              	.L109:
 424:Src/maze_solve.c ****           if (qY > k) {
 862              		.loc 1 424 11 is_stmt 1 view .LVU339
 424:Src/maze_solve.c ****           if (qY > k) {
 863              		.loc 1 424 14 is_stmt 0 view .LVU340
 864 02f8 6A1E     		subs	r2, r5, #1
 865              	.LVL114:
 425:Src/maze_solve.c ****             qY = 0U;
 866              		.loc 1 425 11 is_stmt 1 view .LVU341
 425:Src/maze_solve.c ****             qY = 0U;
 867              		.loc 1 425 14 is_stmt 0 view .LVU342
 868 02fa 9542     		cmp	r5, r2
 869 02fc 00D2     		bcs	.L34
 426:Src/maze_solve.c ****           }
 870              		.loc 1 426 16 view .LVU343
 871 02fe 0022     		movs	r2, #0
 872              	.LVL115:
 873              	.L34:
 429:Src/maze_solve.c **** 
 874              		.loc 1 429 11 is_stmt 1 view .LVU344
 429:Src/maze_solve.c **** 
 875              		.loc 1 429 13 is_stmt 0 view .LVU345
 876 0300 D5B2     		uxtb	r5, r2
 877              	.LVL116:
 429:Src/maze_solve.c **** 
ARM GAS  C:\Temp\ccX6Vjzt.s 			page 31


 878              		.loc 1 429 13 view .LVU346
 879 0302 68E7     		b	.L33
 880              	.LVL117:
 881              	.L80:
 448:Src/maze_solve.c ****         }
 882              		.loc 1 448 14 view .LVU347
 883 0304 FF22     		movs	r2, #255
 884              	.LVL118:
 448:Src/maze_solve.c ****         }
 885              		.loc 1 448 14 view .LVU348
 886 0306 BFE7     		b	.L27
 887              	.LVL119:
 888              	.L118:
 466:Src/maze_solve.c ****           if ((unsigned int)q0 > 255U) {
 889              		.loc 1 466 11 is_stmt 1 view .LVU349
 466:Src/maze_solve.c ****           if ((unsigned int)q0 > 255U) {
 890              		.loc 1 466 24 is_stmt 0 view .LVU350
 891 0308 0130     		adds	r0, r0, #1
 892              	.LVL120:
 467:Src/maze_solve.c ****             q0 = 255;
 893              		.loc 1 467 11 is_stmt 1 view .LVU351
 467:Src/maze_solve.c ****             q0 = 255;
 894              		.loc 1 467 14 is_stmt 0 view .LVU352
 895 030a FF28     		cmp	r0, #255
 896 030c 00D9     		bls	.L37
 468:Src/maze_solve.c ****           }
 897              		.loc 1 468 16 view .LVU353
 898 030e FF20     		movs	r0, #255
 899              	.LVL121:
 900              	.L37:
 471:Src/maze_solve.c **** 
 901              		.loc 1 471 11 is_stmt 1 view .LVU354
 471:Src/maze_solve.c **** 
 902              		.loc 1 471 13 is_stmt 0 view .LVU355
 903 0310 C0B2     		uxtb	r0, r0
 904              	.LVL122:
 471:Src/maze_solve.c **** 
 905              		.loc 1 471 13 view .LVU356
 906 0312 CEE7     		b	.L36
 907              	.L119:
 478:Src/maze_solve.c ****           if ((unsigned int)q0 > 255U) {
 908              		.loc 1 478 11 is_stmt 1 view .LVU357
 478:Src/maze_solve.c ****           if ((unsigned int)q0 > 255U) {
 909              		.loc 1 478 24 is_stmt 0 view .LVU358
 910 0314 0134     		adds	r4, r4, #1
 911              	.LVL123:
 479:Src/maze_solve.c ****             q0 = 255;
 912              		.loc 1 479 11 is_stmt 1 view .LVU359
 479:Src/maze_solve.c ****             q0 = 255;
 913              		.loc 1 479 14 is_stmt 0 view .LVU360
 914 0316 FF2C     		cmp	r4, #255
 915 0318 00D9     		bls	.L39
 480:Src/maze_solve.c ****           }
 916              		.loc 1 480 16 view .LVU361
 917 031a FF24     		movs	r4, #255
 918              	.LVL124:
 919              	.L39:
ARM GAS  C:\Temp\ccX6Vjzt.s 			page 32


 483:Src/maze_solve.c **** 
 920              		.loc 1 483 11 is_stmt 1 view .LVU362
 483:Src/maze_solve.c **** 
 921              		.loc 1 483 13 is_stmt 0 view .LVU363
 922 031c E4B2     		uxtb	r4, r4
 923              	.LVL125:
 483:Src/maze_solve.c **** 
 924              		.loc 1 483 13 view .LVU364
 925 031e CCE7     		b	.L38
 926              	.L120:
 490:Src/maze_solve.c ****           if (qY > a) {
 927              		.loc 1 490 11 is_stmt 1 view .LVU365
 490:Src/maze_solve.c ****           if (qY > a) {
 928              		.loc 1 490 14 is_stmt 0 view .LVU366
 929 0320 451E     		subs	r5, r0, #1
 930              	.LVL126:
 491:Src/maze_solve.c ****             qY = 0U;
 931              		.loc 1 491 11 is_stmt 1 view .LVU367
 491:Src/maze_solve.c ****             qY = 0U;
 932              		.loc 1 491 14 is_stmt 0 view .LVU368
 933 0322 A842     		cmp	r0, r5
 934 0324 00D2     		bcs	.L41
 492:Src/maze_solve.c ****           }
 935              		.loc 1 492 16 view .LVU369
 936 0326 0025     		movs	r5, #0
 937              	.LVL127:
 938              	.L41:
 495:Src/maze_solve.c **** 
 939              		.loc 1 495 11 is_stmt 1 view .LVU370
 495:Src/maze_solve.c **** 
 940              		.loc 1 495 13 is_stmt 0 view .LVU371
 941 0328 E8B2     		uxtb	r0, r5
 942              	.LVL128:
 495:Src/maze_solve.c **** 
 943              		.loc 1 495 13 view .LVU372
 944 032a CAE7     		b	.L40
 945              	.LVL129:
 946              	.L121:
 502:Src/maze_solve.c ****           if (qY > k) {
 947              		.loc 1 502 11 is_stmt 1 view .LVU373
 502:Src/maze_solve.c ****           if (qY > k) {
 948              		.loc 1 502 14 is_stmt 0 view .LVU374
 949 032c 621E     		subs	r2, r4, #1
 950              	.LVL130:
 503:Src/maze_solve.c ****             qY = 0U;
 951              		.loc 1 503 11 is_stmt 1 view .LVU375
 503:Src/maze_solve.c ****             qY = 0U;
 952              		.loc 1 503 14 is_stmt 0 view .LVU376
 953 032e 9442     		cmp	r4, r2
 954 0330 00D2     		bcs	.L43
 504:Src/maze_solve.c ****           }
 955              		.loc 1 504 16 view .LVU377
 956 0332 0022     		movs	r2, #0
 957              	.LVL131:
 958              	.L43:
 507:Src/maze_solve.c **** 
 959              		.loc 1 507 11 is_stmt 1 view .LVU378
ARM GAS  C:\Temp\ccX6Vjzt.s 			page 33


 507:Src/maze_solve.c **** 
 960              		.loc 1 507 13 is_stmt 0 view .LVU379
 961 0334 D4B2     		uxtb	r4, r2
 962              	.LVL132:
 507:Src/maze_solve.c **** 
 963              		.loc 1 507 13 view .LVU380
 964 0336 C8E7     		b	.L42
 965              	.LVL133:
 966              	.L79:
 526:Src/maze_solve.c ****         }
 967              		.loc 1 526 14 view .LVU381
 968 0338 FF22     		movs	r2, #255
 969              	.LVL134:
 526:Src/maze_solve.c ****         }
 970              		.loc 1 526 14 view .LVU382
 971 033a 7FE7     		b	.L26
 972              	.LVL135:
 973              	.L114:
 539:Src/maze_solve.c ****           if ((unsigned int)q0 > 255U) {
 974              		.loc 1 539 11 is_stmt 1 view .LVU383
 539:Src/maze_solve.c ****           if ((unsigned int)q0 > 255U) {
 975              		.loc 1 539 24 is_stmt 0 view .LVU384
 976 033c 0130     		adds	r0, r0, #1
 977              	.LVL136:
 540:Src/maze_solve.c ****             q0 = 255;
 978              		.loc 1 540 11 is_stmt 1 view .LVU385
 540:Src/maze_solve.c ****             q0 = 255;
 979              		.loc 1 540 14 is_stmt 0 view .LVU386
 980 033e FF28     		cmp	r0, #255
 981 0340 00D9     		bls	.L45
 541:Src/maze_solve.c ****           }
 982              		.loc 1 541 16 view .LVU387
 983 0342 FF20     		movs	r0, #255
 984              	.LVL137:
 985              	.L45:
 544:Src/maze_solve.c **** 
 986              		.loc 1 544 11 is_stmt 1 view .LVU388
 544:Src/maze_solve.c **** 
 987              		.loc 1 544 13 is_stmt 0 view .LVU389
 988 0344 C0B2     		uxtb	r0, r0
 989              	.LVL138:
 544:Src/maze_solve.c **** 
 990              		.loc 1 544 13 view .LVU390
 991 0346 8BE7     		b	.L44
 992              	.L115:
 551:Src/maze_solve.c ****           if ((unsigned int)q0 > 255U) {
 993              		.loc 1 551 11 is_stmt 1 view .LVU391
 551:Src/maze_solve.c ****           if ((unsigned int)q0 > 255U) {
 994              		.loc 1 551 24 is_stmt 0 view .LVU392
 995 0348 0134     		adds	r4, r4, #1
 996              	.LVL139:
 552:Src/maze_solve.c ****             q0 = 255;
 997              		.loc 1 552 11 is_stmt 1 view .LVU393
 552:Src/maze_solve.c ****             q0 = 255;
 998              		.loc 1 552 14 is_stmt 0 view .LVU394
 999 034a FF2C     		cmp	r4, #255
 1000 034c 00D9     		bls	.L47
ARM GAS  C:\Temp\ccX6Vjzt.s 			page 34


 553:Src/maze_solve.c ****           }
 1001              		.loc 1 553 16 view .LVU395
 1002 034e FF24     		movs	r4, #255
 1003              	.LVL140:
 1004              	.L47:
 556:Src/maze_solve.c **** 
 1005              		.loc 1 556 11 is_stmt 1 view .LVU396
 556:Src/maze_solve.c **** 
 1006              		.loc 1 556 13 is_stmt 0 view .LVU397
 1007 0350 E4B2     		uxtb	r4, r4
 1008              	.LVL141:
 556:Src/maze_solve.c **** 
 1009              		.loc 1 556 13 view .LVU398
 1010 0352 89E7     		b	.L46
 1011              	.L116:
 563:Src/maze_solve.c ****           if (qY > a) {
 1012              		.loc 1 563 11 is_stmt 1 view .LVU399
 563:Src/maze_solve.c ****           if (qY > a) {
 1013              		.loc 1 563 14 is_stmt 0 view .LVU400
 1014 0354 451E     		subs	r5, r0, #1
 1015              	.LVL142:
 564:Src/maze_solve.c ****             qY = 0U;
 1016              		.loc 1 564 11 is_stmt 1 view .LVU401
 564:Src/maze_solve.c ****             qY = 0U;
 1017              		.loc 1 564 14 is_stmt 0 view .LVU402
 1018 0356 A842     		cmp	r0, r5
 1019 0358 00D2     		bcs	.L49
 565:Src/maze_solve.c ****           }
 1020              		.loc 1 565 16 view .LVU403
 1021 035a 0025     		movs	r5, #0
 1022              	.LVL143:
 1023              	.L49:
 568:Src/maze_solve.c **** 
 1024              		.loc 1 568 11 is_stmt 1 view .LVU404
 568:Src/maze_solve.c **** 
 1025              		.loc 1 568 13 is_stmt 0 view .LVU405
 1026 035c E8B2     		uxtb	r0, r5
 1027              	.LVL144:
 568:Src/maze_solve.c **** 
 1028              		.loc 1 568 13 view .LVU406
 1029 035e 87E7     		b	.L48
 1030              	.LVL145:
 1031              	.L117:
 575:Src/maze_solve.c ****           if (qY > k) {
 1032              		.loc 1 575 11 is_stmt 1 view .LVU407
 575:Src/maze_solve.c ****           if (qY > k) {
 1033              		.loc 1 575 14 is_stmt 0 view .LVU408
 1034 0360 621E     		subs	r2, r4, #1
 1035              	.LVL146:
 576:Src/maze_solve.c ****             qY = 0U;
 1036              		.loc 1 576 11 is_stmt 1 view .LVU409
 576:Src/maze_solve.c ****             qY = 0U;
 1037              		.loc 1 576 14 is_stmt 0 view .LVU410
 1038 0362 9442     		cmp	r4, r2
 1039 0364 00D2     		bcs	.L51
 577:Src/maze_solve.c ****           }
 1040              		.loc 1 577 16 view .LVU411
ARM GAS  C:\Temp\ccX6Vjzt.s 			page 35


 1041 0366 0022     		movs	r2, #0
 1042              	.LVL147:
 1043              	.L51:
 580:Src/maze_solve.c **** 
 1044              		.loc 1 580 11 is_stmt 1 view .LVU412
 580:Src/maze_solve.c **** 
 1045              		.loc 1 580 13 is_stmt 0 view .LVU413
 1046 0368 D4B2     		uxtb	r4, r2
 1047              	.LVL148:
 580:Src/maze_solve.c **** 
 1048              		.loc 1 580 13 view .LVU414
 1049 036a 85E7     		b	.L50
 1050              	.LVL149:
 1051              	.L78:
 599:Src/maze_solve.c ****         }
 1052              		.loc 1 599 14 view .LVU415
 1053 036c FF22     		movs	r2, #255
 1054              	.LVL150:
 599:Src/maze_solve.c ****         }
 1055              		.loc 1 599 14 view .LVU416
 1056 036e 3BE7     		b	.L25
 1057              	.LVL151:
 1058              	.L110:
 612:Src/maze_solve.c ****           if ((unsigned int)q0 > 255U) {
 1059              		.loc 1 612 11 is_stmt 1 view .LVU417
 612:Src/maze_solve.c ****           if ((unsigned int)q0 > 255U) {
 1060              		.loc 1 612 24 is_stmt 0 view .LVU418
 1061 0370 0130     		adds	r0, r0, #1
 1062              	.LVL152:
 613:Src/maze_solve.c ****             q0 = 255;
 1063              		.loc 1 613 11 is_stmt 1 view .LVU419
 613:Src/maze_solve.c ****             q0 = 255;
 1064              		.loc 1 613 14 is_stmt 0 view .LVU420
 1065 0372 FF28     		cmp	r0, #255
 1066 0374 00D9     		bls	.L53
 614:Src/maze_solve.c ****           }
 1067              		.loc 1 614 16 view .LVU421
 1068 0376 FF20     		movs	r0, #255
 1069              	.LVL153:
 1070              	.L53:
 617:Src/maze_solve.c **** 
 1071              		.loc 1 617 11 is_stmt 1 view .LVU422
 617:Src/maze_solve.c **** 
 1072              		.loc 1 617 13 is_stmt 0 view .LVU423
 1073 0378 C0B2     		uxtb	r0, r0
 1074              	.LVL154:
 617:Src/maze_solve.c **** 
 1075              		.loc 1 617 13 view .LVU424
 1076 037a 48E7     		b	.L52
 1077              	.L111:
 624:Src/maze_solve.c ****           if ((unsigned int)q0 > 255U) {
 1078              		.loc 1 624 11 is_stmt 1 view .LVU425
 624:Src/maze_solve.c ****           if ((unsigned int)q0 > 255U) {
 1079              		.loc 1 624 24 is_stmt 0 view .LVU426
 1080 037c 0134     		adds	r4, r4, #1
 1081              	.LVL155:
 625:Src/maze_solve.c ****             q0 = 255;
ARM GAS  C:\Temp\ccX6Vjzt.s 			page 36


 1082              		.loc 1 625 11 is_stmt 1 view .LVU427
 625:Src/maze_solve.c ****             q0 = 255;
 1083              		.loc 1 625 14 is_stmt 0 view .LVU428
 1084 037e FF2C     		cmp	r4, #255
 1085 0380 00D9     		bls	.L55
 626:Src/maze_solve.c ****           }
 1086              		.loc 1 626 16 view .LVU429
 1087 0382 FF24     		movs	r4, #255
 1088              	.LVL156:
 1089              	.L55:
 629:Src/maze_solve.c **** 
 1090              		.loc 1 629 11 is_stmt 1 view .LVU430
 629:Src/maze_solve.c **** 
 1091              		.loc 1 629 13 is_stmt 0 view .LVU431
 1092 0384 E4B2     		uxtb	r4, r4
 1093              	.LVL157:
 629:Src/maze_solve.c **** 
 1094              		.loc 1 629 13 view .LVU432
 1095 0386 47E7     		b	.L54
 1096              	.L112:
 636:Src/maze_solve.c ****           if (qY > a) {
 1097              		.loc 1 636 11 is_stmt 1 view .LVU433
 636:Src/maze_solve.c ****           if (qY > a) {
 1098              		.loc 1 636 14 is_stmt 0 view .LVU434
 1099 0388 451E     		subs	r5, r0, #1
 1100              	.LVL158:
 637:Src/maze_solve.c ****             qY = 0U;
 1101              		.loc 1 637 11 is_stmt 1 view .LVU435
 637:Src/maze_solve.c ****             qY = 0U;
 1102              		.loc 1 637 14 is_stmt 0 view .LVU436
 1103 038a A842     		cmp	r0, r5
 1104 038c 00D2     		bcs	.L57
 638:Src/maze_solve.c ****           }
 1105              		.loc 1 638 16 view .LVU437
 1106 038e 0025     		movs	r5, #0
 1107              	.LVL159:
 1108              	.L57:
 641:Src/maze_solve.c **** 
 1109              		.loc 1 641 11 is_stmt 1 view .LVU438
 641:Src/maze_solve.c **** 
 1110              		.loc 1 641 13 is_stmt 0 view .LVU439
 1111 0390 E8B2     		uxtb	r0, r5
 1112              	.LVL160:
 641:Src/maze_solve.c **** 
 1113              		.loc 1 641 13 view .LVU440
 1114 0392 46E7     		b	.L56
 1115              	.LVL161:
 1116              	.L113:
 648:Src/maze_solve.c ****           if (qY > k) {
 1117              		.loc 1 648 11 is_stmt 1 view .LVU441
 648:Src/maze_solve.c ****           if (qY > k) {
 1118              		.loc 1 648 14 is_stmt 0 view .LVU442
 1119 0394 621E     		subs	r2, r4, #1
 1120              	.LVL162:
 649:Src/maze_solve.c ****             qY = 0U;
 1121              		.loc 1 649 11 is_stmt 1 view .LVU443
 649:Src/maze_solve.c ****             qY = 0U;
ARM GAS  C:\Temp\ccX6Vjzt.s 			page 37


 1122              		.loc 1 649 14 is_stmt 0 view .LVU444
 1123 0396 9442     		cmp	r4, r2
 1124 0398 00D2     		bcs	.L59
 650:Src/maze_solve.c ****           }
 1125              		.loc 1 650 16 view .LVU445
 1126 039a 0022     		movs	r2, #0
 1127              	.LVL163:
 1128              	.L59:
 653:Src/maze_solve.c **** 
 1129              		.loc 1 653 11 is_stmt 1 view .LVU446
 653:Src/maze_solve.c **** 
 1130              		.loc 1 653 13 is_stmt 0 view .LVU447
 1131 039c D4B2     		uxtb	r4, r2
 1132              	.LVL164:
 653:Src/maze_solve.c **** 
 1133              		.loc 1 653 13 view .LVU448
 1134 039e 45E7     		b	.L58
 1135              	.LVL165:
 1136              	.L62:
 231:Src/maze_solve.c ****     } else {
 1137              		.loc 1 231 14 view .LVU449
 1138 03a0 0122     		movs	r2, #1
 1139              	.LVL166:
 1140              	.L5:
 663:Src/maze_solve.c ****       }
 664:Src/maze_solve.c **** 
 665:Src/maze_solve.c ****       /* for code generation */
 666:Src/maze_solve.c ****     }
 667:Src/maze_solve.c ****   } while (exitg1 == 0);
 1141              		.loc 1 667 11 is_stmt 1 view .LVU450
 1142              		.loc 1 667 3 is_stmt 0 view .LVU451
 1143 03a2 1AB9     		cbnz	r2, .L122
 1144              	.LVL167:
 1145              	.L60:
 217:Src/maze_solve.c ****     exitg1 = 0;
 1146              		.loc 1 217 3 is_stmt 1 view .LVU452
 218:Src/maze_solve.c **** 
 1147              		.loc 1 218 5 view .LVU453
 221:Src/maze_solve.c ****     q0 = k;
 1148              		.loc 1 221 5 view .LVU454
 221:Src/maze_solve.c ****     q0 = k;
 1149              		.loc 1 221 7 is_stmt 0 view .LVU455
 1150 03a4 129A     		ldr	r2, [sp, #72]
 1151 03a6 1578     		ldrb	r5, [r2]	@ zero_extendqisi2
 222:Src/maze_solve.c ****     for (tempi = 0; tempi < q0; tempi++) {
 1152              		.loc 1 222 5 is_stmt 1 view .LVU456
 1153              	.LVL168:
 223:Src/maze_solve.c ****       if ((current_x->contents == maze_goal[tempi]) && (current_y->contents ==
 1154              		.loc 1 223 5 view .LVU457
 223:Src/maze_solve.c ****       if ((current_x->contents == maze_goal[tempi]) && (current_y->contents ==
 1155              		.loc 1 223 16 is_stmt 0 view .LVU458
 1156 03a8 0022     		movs	r2, #0
 223:Src/maze_solve.c ****       if ((current_x->contents == maze_goal[tempi]) && (current_y->contents ==
 1157              		.loc 1 223 5 view .LVU459
 1158 03aa 43E6     		b	.L2
 1159              	.LVL169:
 1160              	.L122:
ARM GAS  C:\Temp\ccX6Vjzt.s 			page 38


 668:Src/maze_solve.c **** }
 1161              		.loc 1 668 1 view .LVU460
 1162 03ac 09B0     		add	sp, sp, #36
 1163              	.LCFI2:
 1164              		.cfi_def_cfa_offset 36
 1165              		@ sp needed
 1166 03ae BDE8F08F 		pop	{r4, r5, r6, r7, r8, r9, r10, fp, pc}
 1167              		.loc 1 668 1 view .LVU461
 1168              		.cfi_endproc
 1169              	.LFE133:
 1171              		.section	.text.move_step,"ax",%progbits
 1172              		.align	1
 1173              		.syntax unified
 1174              		.thumb
 1175              		.thumb_func
 1176              		.fpu fpv4-sp-d16
 1178              	move_step:
 1179              	.LVL170:
 1180              	.LFB136:
 669:Src/maze_solve.c **** 
 670:Src/maze_solve.c **** /*
 671:Src/maze_solve.c ****  * 入力 迷路縦サイズ,迷路横サイズ,ゴール座標,迷路情報(16進数)
 672:Src/maze_solve.c ****  * 出力 等高線map,最大経路長
 673:Src/maze_solve.c ****  * Arguments    : const coder_internal_ref_4 *g_direction
 674:Src/maze_solve.c ****  *                const coder_internal_ref_2 *wall
 675:Src/maze_solve.c ****  *                unsigned char maze_row_size
 676:Src/maze_solve.c ****  *                unsigned char maze_col_size
 677:Src/maze_solve.c ****  *                const unsigned char maze_goal[18]
 678:Src/maze_solve.c ****  *                unsigned char l_goal_size
 679:Src/maze_solve.c ****  *                const unsigned char maze_wall[1024]
 680:Src/maze_solve.c ****  *                unsigned char contour_map[1024]
 681:Src/maze_solve.c ****  *                unsigned char *max_length
 682:Src/maze_solve.c ****  * Return Type  : void
 683:Src/maze_solve.c ****  */
 684:Src/maze_solve.c **** static void make_map_find(const coder_internal_ref_4 *g_direction, const
 685:Src/maze_solve.c ****   coder_internal_ref_2 *wall, unsigned char maze_row_size, unsigned char
 686:Src/maze_solve.c ****   maze_col_size, const unsigned char maze_goal[18], unsigned char l_goal_size,
 687:Src/maze_solve.c ****   const unsigned char maze_wall[1024], unsigned int contour_map[1024], unsigned
 688:Src/maze_solve.c ****   int *max_length)
 689:Src/maze_solve.c **** {
 690:Src/maze_solve.c ****   unsigned int qY;
 691:Src/maze_solve.c ****   unsigned int b_qY;
 692:Src/maze_solve.c ****   int q0;
 693:Src/maze_solve.c ****   int i2;
 694:Src/maze_solve.c ****   unsigned char change_flag;
 695:Src/maze_solve.c ****   unsigned int tempi;
 696:Src/maze_solve.c ****   bool exitg1;
 697:Src/maze_solve.c ****   int idx;
 698:Src/maze_solve.c ****   bool exitg2;
 699:Src/maze_solve.c ****   int loop_ub;
 700:Src/maze_solve.c ****   static short ii_data[1024];
 701:Src/maze_solve.c ****   int num_temp_size[1];
 702:Src/maze_solve.c ****   static unsigned short num_temp_data[1024];
 703:Src/maze_solve.c ****   int b_num_temp_size[1];
 704:Src/maze_solve.c ****   static unsigned short b_num_temp_data[1024];
 705:Src/maze_solve.c ****   unsigned short tmp_data[1024];
 706:Src/maze_solve.c ****   int tmp_size[1];
ARM GAS  C:\Temp\ccX6Vjzt.s 			page 39


 707:Src/maze_solve.c ****   unsigned short u0;
 708:Src/maze_solve.c ****   unsigned char row_data[1024];
 709:Src/maze_solve.c ****   unsigned char col_data[1024];
 710:Src/maze_solve.c ****   unsigned char k;
 711:Src/maze_solve.c ****   int i3;
 712:Src/maze_solve.c ****   int b_k;
 713:Src/maze_solve.c ****   int i4;
 714:Src/maze_solve.c ****   int i5;
 715:Src/maze_solve.c ****   int c_k;
 716:Src/maze_solve.c ****   int d_k;
 717:Src/maze_solve.c ****   int e_k;
 718:Src/maze_solve.c **** 
 719:Src/maze_solve.c ****   /*   make_map_find 壁情報から等高線MAPを生成 */
 720:Src/maze_solve.c ****   /*  迷路パラメータ設定 */
 721:Src/maze_solve.c ****   qY = maze_col_size - 1U;
 722:Src/maze_solve.c ****   if (qY > maze_col_size) {
 723:Src/maze_solve.c ****     qY = 0U;
 724:Src/maze_solve.c ****   }
 725:Src/maze_solve.c **** 
 726:Src/maze_solve.c ****   b_qY = maze_row_size - 1U;
 727:Src/maze_solve.c ****   if (b_qY > maze_row_size) {
 728:Src/maze_solve.c ****     b_qY = 0U;
 729:Src/maze_solve.c ****   }
 730:Src/maze_solve.c **** 
 731:Src/maze_solve.c ****   q0 = (int)(qY * b_qY);
 732:Src/maze_solve.c ****   if ((unsigned int)q0 > 1023U) {
 733:Src/maze_solve.c ****     q0 = 1023;
 734:Src/maze_solve.c ****   }
 735:Src/maze_solve.c **** 
 736:Src/maze_solve.c ****   qY = q0 - 1U;
 737:Src/maze_solve.c ****   if (qY > (unsigned int)q0) {
 738:Src/maze_solve.c ****     qY = 0U;
 739:Src/maze_solve.c ****   }
 740:Src/maze_solve.c **** 
 741:Src/maze_solve.c ****   *max_length = (unsigned int)qY;
 742:Src/maze_solve.c **** 
 743:Src/maze_solve.c ****   /* MAPの初期化(すべての要素にmax_lengthを入力) */
 744:Src/maze_solve.c ****   /* 32マス分mapを保持 */
 745:Src/maze_solve.c ****   for (i2 = 0; i2 < 1024; i2++) {
 746:Src/maze_solve.c ****     contour_map[i2] = (unsigned int)qY;
 747:Src/maze_solve.c ****   }
 748:Src/maze_solve.c **** 
 749:Src/maze_solve.c ****   /* ゴール座標に0を入力 */
 750:Src/maze_solve.c ****   i2 = l_goal_size;
 751:Src/maze_solve.c ****   for (q0 = 0; q0 < i2; q0++) {
 752:Src/maze_solve.c ****     contour_map[(maze_goal[q0 + 9] + ((maze_goal[q0] - 1) << 5)) - 1] = 0U;
 753:Src/maze_solve.c ****   }
 754:Src/maze_solve.c **** 
 755:Src/maze_solve.c ****   do {
 756:Src/maze_solve.c ****     change_flag = 0U;
 757:Src/maze_solve.c **** 
 758:Src/maze_solve.c ****     /* map更新確認用フラグ */
 759:Src/maze_solve.c ****     tempi = 0U;
 760:Src/maze_solve.c ****     exitg1 = false;
 761:Src/maze_solve.c ****     while ((!exitg1) && (tempi <= (unsigned int)qY)) {
 762:Src/maze_solve.c ****       /* 歩数カウントは0~max_length */
 763:Src/maze_solve.c ****       /* 歩数が確定している座標を検索 */
ARM GAS  C:\Temp\ccX6Vjzt.s 			page 40


 764:Src/maze_solve.c ****       /* 最初は0,更新され、増加したマスを次々検索していく */
 765:Src/maze_solve.c ****       idx = 0;
 766:Src/maze_solve.c ****       q0 = 0;
 767:Src/maze_solve.c ****       exitg2 = false;
 768:Src/maze_solve.c ****       while ((!exitg2) && (q0 < 1024)) {
 769:Src/maze_solve.c ****         if (contour_map[q0] == tempi) {
 770:Src/maze_solve.c ****           idx++;
 771:Src/maze_solve.c ****           ii_data[idx - 1] = (short)(q0 + 1);
 772:Src/maze_solve.c ****           if (idx >= 1024) {
 773:Src/maze_solve.c ****             exitg2 = true;
 774:Src/maze_solve.c ****           } else {
 775:Src/maze_solve.c ****             q0++;
 776:Src/maze_solve.c ****           }
 777:Src/maze_solve.c ****         } else {
 778:Src/maze_solve.c ****           q0++;
 779:Src/maze_solve.c ****         }
 780:Src/maze_solve.c ****       }
 781:Src/maze_solve.c **** 
 782:Src/maze_solve.c ****       if (1 > idx) {
 783:Src/maze_solve.c ****         loop_ub = 0;
 784:Src/maze_solve.c ****         q0 = 0;
 785:Src/maze_solve.c ****       } else {
 786:Src/maze_solve.c ****         loop_ub = idx;
 787:Src/maze_solve.c ****         q0 = idx;
 788:Src/maze_solve.c ****       }
 789:Src/maze_solve.c **** 
 790:Src/maze_solve.c ****       num_temp_size[0] = loop_ub;
 791:Src/maze_solve.c ****       for (i2 = 0; i2 < loop_ub; i2++) {
 792:Src/maze_solve.c ****         num_temp_data[i2] = (unsigned short)ii_data[i2];
 793:Src/maze_solve.c ****       }
 794:Src/maze_solve.c **** 
 795:Src/maze_solve.c ****       /* 32行なので、行番号:32で割ったあまり */
 796:Src/maze_solve.c ****       b_num_temp_size[0] = q0;
 797:Src/maze_solve.c ****       for (i2 = 0; i2 < q0; i2++) {
 798:Src/maze_solve.c ****         b_num_temp_data[i2] = (unsigned short)(num_temp_data[i2] - 1U);
 799:Src/maze_solve.c ****       }
 800:Src/maze_solve.c **** 
 801:Src/maze_solve.c ****       b_rem(b_num_temp_data, b_num_temp_size, tmp_data, tmp_size);
 802:Src/maze_solve.c ****       idx = tmp_size[0];
 803:Src/maze_solve.c ****       loop_ub = tmp_size[0];
 804:Src/maze_solve.c ****       for (i2 = 0; i2 < loop_ub; i2++) {
 805:Src/maze_solve.c ****         b_qY = tmp_data[i2] + 1U;
 806:Src/maze_solve.c ****         if (b_qY > 65535U) {
 807:Src/maze_solve.c ****           b_qY = 65535U;
 808:Src/maze_solve.c ****         }
 809:Src/maze_solve.c **** 
 810:Src/maze_solve.c ****         u0 = (unsigned short)b_qY;
 811:Src/maze_solve.c ****         if ((unsigned short)b_qY > 255) {
 812:Src/maze_solve.c ****           u0 = 255U;
 813:Src/maze_solve.c ****         }
 814:Src/maze_solve.c **** 
 815:Src/maze_solve.c ****         row_data[i2] = (unsigned char)u0;
 816:Src/maze_solve.c ****       }
 817:Src/maze_solve.c **** 
 818:Src/maze_solve.c ****       /* 列番号:32で割ったときの商 */
 819:Src/maze_solve.c ****       for (i2 = 0; i2 < q0; i2++) {
 820:Src/maze_solve.c ****         num_temp_data[i2]--;
ARM GAS  C:\Temp\ccX6Vjzt.s 			page 41


 821:Src/maze_solve.c ****       }
 822:Src/maze_solve.c **** 
 823:Src/maze_solve.c ****       idivide(num_temp_data, num_temp_size, tmp_data, tmp_size);
 824:Src/maze_solve.c ****       loop_ub = tmp_size[0];
 825:Src/maze_solve.c ****       for (i2 = 0; i2 < loop_ub; i2++) {
 826:Src/maze_solve.c ****         b_qY = tmp_data[i2] + 1U;
 827:Src/maze_solve.c ****         if (b_qY > 65535U) {
 828:Src/maze_solve.c ****           b_qY = 65535U;
 829:Src/maze_solve.c ****         }
 830:Src/maze_solve.c **** 
 831:Src/maze_solve.c ****         u0 = (unsigned short)b_qY;
 832:Src/maze_solve.c ****         if ((unsigned short)b_qY > 255) {
 833:Src/maze_solve.c ****           u0 = 255U;
 834:Src/maze_solve.c ****         }
 835:Src/maze_solve.c **** 
 836:Src/maze_solve.c ****         col_data[i2] = (unsigned char)u0;
 837:Src/maze_solve.c ****       }
 838:Src/maze_solve.c **** 
 839:Src/maze_solve.c ****       /* 見つかったマスの数 */
 840:Src/maze_solve.c ****       //ここ1024マスにしていいかも
 841:Src/maze_solve.c ****       if (idx < 0) {
 842:Src/maze_solve.c ****         idx = 0;
 843:Src/maze_solve.c ****       } else {
 844:Src/maze_solve.c ****         if (idx > 1023) {
 845:Src/maze_solve.c ****           idx = 1023;
 846:Src/maze_solve.c ****         }
 847:Src/maze_solve.c ****       }
 848:Src/maze_solve.c **** 
 849:Src/maze_solve.c ****       /* 更新マスが見つからなければ終了 */
 850:Src/maze_solve.c ****       if (idx == 0) {
 851:Src/maze_solve.c ****         exitg1 = true;
 852:Src/maze_solve.c ****       } else {
 853:Src/maze_solve.c ****         /* 検索した座標に対し、歩数mapを更新 */
 854:Src/maze_solve.c ****         i2 = idx;
 855:Src/maze_solve.c ****         for (q0 = 0; q0 < i2; q0++) {
 856:Src/maze_solve.c ****           /* 北側 */
 857:Src/maze_solve.c ****           k = g_direction->contents.North;
 858:Src/maze_solve.c ****           idx = (col_data[q0] - 1) << 5;
 859:Src/maze_solve.c ****           loop_ub = row_data[q0] + idx;
 860:Src/maze_solve.c ****           i3 = maze_wall[loop_ub - 1];
 861:Src/maze_solve.c ****           if (k <= 7) {
 862:Src/maze_solve.c ****             b_k = (unsigned char)(1 << k);
 863:Src/maze_solve.c ****           } else {
 864:Src/maze_solve.c ****             b_k = 0;
 865:Src/maze_solve.c ****           }
 866:Src/maze_solve.c **** 
 867:Src/maze_solve.c ****           if ((i3 & b_k) == wall->contents.nowall) {
 868:Src/maze_solve.c ****             /* 北側のMAPが更新されているか判断、されていなければ書き込み
 869:Src/maze_solve.c ****             i4 = (int)(row_data[q0] + 1U);
 870:Src/maze_solve.c ****             i5 = i4;
 871:Src/maze_solve.c **** 
 872:Src/maze_solve.c ****             if (contour_map[(i5 + idx) - 1] == (unsigned int)qY) {
 873:Src/maze_solve.c **** 
 874:Src/maze_solve.c ****               contour_map[(i4 + idx) - 1] = (unsigned int)(tempi + 1);
 875:Src/maze_solve.c ****               change_flag = 1U;
 876:Src/maze_solve.c **** 
 877:Src/maze_solve.c ****             }
ARM GAS  C:\Temp\ccX6Vjzt.s 			page 42


 878:Src/maze_solve.c ****           }
 879:Src/maze_solve.c **** 
 880:Src/maze_solve.c ****           /* 東側 */
 881:Src/maze_solve.c ****           k = g_direction->contents.East;
 882:Src/maze_solve.c ****           if (k <= 7) {
 883:Src/maze_solve.c ****             c_k = (unsigned char)(1 << k);
 884:Src/maze_solve.c ****           } else {
 885:Src/maze_solve.c ****             c_k = 0;
 886:Src/maze_solve.c ****           }
 887:Src/maze_solve.c **** 
 888:Src/maze_solve.c ****           if ((i3 & c_k) == wall->contents.nowall) {
 889:Src/maze_solve.c ****             /* 東側のMAPが更新されているか判断、されていなければ書き込み
 890:Src/maze_solve.c ****             idx = (int)(col_data[q0] + 1U);
 891:Src/maze_solve.c ****             i4 = idx;
 892:Src/maze_solve.c **** 
 893:Src/maze_solve.c ****             if (contour_map[(row_data[q0] + ((i4 - 1) << 5)) - 1] == (unsigned int)qY)
 894:Src/maze_solve.c ****               {
 895:Src/maze_solve.c ****               contour_map[(row_data[q0] + ((idx - 1) << 5)) - 1] = (unsigned
 896:Src/maze_solve.c ****                 char)(tempi + 1);
 897:Src/maze_solve.c ****               change_flag = 1U;
 898:Src/maze_solve.c ****             }
 899:Src/maze_solve.c ****           }
 900:Src/maze_solve.c **** 
 901:Src/maze_solve.c ****           /* 南側 */
 902:Src/maze_solve.c ****           k = g_direction->contents.South;
 903:Src/maze_solve.c ****           if (k <= 7) {
 904:Src/maze_solve.c ****             d_k = (unsigned char)(1 << k);
 905:Src/maze_solve.c ****           } else {
 906:Src/maze_solve.c ****             d_k = 0;
 907:Src/maze_solve.c ****           }
 908:Src/maze_solve.c **** 
 909:Src/maze_solve.c ****           if ((i3 & d_k) == wall->contents.nowall) {
 910:Src/maze_solve.c ****             /* 南側のMAPが更新されているか判断、されていなければ書き込み
 911:Src/maze_solve.c ****             idx = loop_ub - 2;
 912:Src/maze_solve.c ****             if (contour_map[idx] == (unsigned int)qY) {
 913:Src/maze_solve.c ****               contour_map[idx] = (unsigned int)(tempi + 1);
 914:Src/maze_solve.c ****               change_flag = 1U;
 915:Src/maze_solve.c ****             }
 916:Src/maze_solve.c ****           }
 917:Src/maze_solve.c **** 
 918:Src/maze_solve.c ****           /* 西側 */
 919:Src/maze_solve.c ****           k = g_direction->contents.West;
 920:Src/maze_solve.c ****           if (k <= 7) {
 921:Src/maze_solve.c ****             e_k = (unsigned char)(1 << k);
 922:Src/maze_solve.c ****           } else {
 923:Src/maze_solve.c ****             e_k = 0;
 924:Src/maze_solve.c ****           }
 925:Src/maze_solve.c **** 
 926:Src/maze_solve.c ****           if ((i3 & e_k) == wall->contents.nowall) {
 927:Src/maze_solve.c ****             /* 西側のMAPが更新されているか判断、されていなければ書き込み
 928:Src/maze_solve.c ****             idx = (row_data[q0] + ((col_data[q0] - 2) << 5)) - 1;
 929:Src/maze_solve.c ****             if (contour_map[idx] == (unsigned int)qY) {
 930:Src/maze_solve.c ****               contour_map[idx] = (unsigned int)(tempi + 1);
 931:Src/maze_solve.c ****               change_flag = 1U;
 932:Src/maze_solve.c ****             }
 933:Src/maze_solve.c ****           }
 934:Src/maze_solve.c ****         }
ARM GAS  C:\Temp\ccX6Vjzt.s 			page 43


 935:Src/maze_solve.c **** 
 936:Src/maze_solve.c ****         tempi++;
 937:Src/maze_solve.c ****       }
 938:Src/maze_solve.c ****     }
 939:Src/maze_solve.c **** 
 940:Src/maze_solve.c ****     /* 更新がなければ終了     */
 941:Src/maze_solve.c ****   } while (!(change_flag == 0));
 942:Src/maze_solve.c **** }
 943:Src/maze_solve.c **** 
 944:Src/maze_solve.c **** /*
 945:Src/maze_solve.c ****  * 未知壁の領域は仮想壁をおいて侵入しない。
 946:Src/maze_solve.c ****  * 入力 迷路縦サイズ,迷路横サイズ,ゴール座標,迷路情報(16進数),迷路探索
 947:Src/maze_solve.c ****  * 出力 等高線map,最大経路長
 948:Src/maze_solve.c ****  * Arguments    : const coder_internal_ref *goal_size
 949:Src/maze_solve.c ****  *                const coder_internal_ref_4 *g_direction
 950:Src/maze_solve.c ****  *                const coder_internal_ref_2 *wall
 951:Src/maze_solve.c ****  *                const coder_internal_ref_1 *search
 952:Src/maze_solve.c ****  *                unsigned char maze_row_size
 953:Src/maze_solve.c ****  *                unsigned char maze_col_size
 954:Src/maze_solve.c ****  *                const unsigned char maze_goal[18]
 955:Src/maze_solve.c ****  *                const unsigned char maze_wall[1024]
 956:Src/maze_solve.c ****  *                const unsigned char maze_wall_search[1024]
 957:Src/maze_solve.c ****  *                unsigned char contour_map[1024]
 958:Src/maze_solve.c ****  *                unsigned char *max_length
 959:Src/maze_solve.c ****  * Return Type  : void
 960:Src/maze_solve.c ****  */
 961:Src/maze_solve.c **** static void make_map_fustrun(const coder_internal_ref *goal_size, const
 962:Src/maze_solve.c ****   coder_internal_ref_4 *g_direction, const coder_internal_ref_2 *wall, const
 963:Src/maze_solve.c ****   coder_internal_ref_1 *search, unsigned char maze_row_size, unsigned char
 964:Src/maze_solve.c ****   maze_col_size, const unsigned char maze_goal[18], const unsigned char
 965:Src/maze_solve.c ****   maze_wall[1024], const unsigned char maze_wall_search[1024], unsigned char
 966:Src/maze_solve.c ****   contour_map[1024], unsigned char *max_length)
 967:Src/maze_solve.c **** {
 968:Src/maze_solve.c ****   unsigned int qY;
 969:Src/maze_solve.c ****   unsigned int b_qY;
 970:Src/maze_solve.c ****   int q0;
 971:Src/maze_solve.c ****   int i6;
 972:Src/maze_solve.c ****   unsigned char change_flag;
 973:Src/maze_solve.c ****   unsigned char tempi;
 974:Src/maze_solve.c ****   int idx;
 975:Src/maze_solve.c ****   bool exitg1;
 976:Src/maze_solve.c ****   int loop_ub;
 977:Src/maze_solve.c ****   static short ii_data[1024];
 978:Src/maze_solve.c ****   int num_temp_size[1];
 979:Src/maze_solve.c ****   static unsigned short num_temp_data[1024];
 980:Src/maze_solve.c ****   int b_num_temp_size[1];
 981:Src/maze_solve.c ****   unsigned short b_num_temp_data[1024];
 982:Src/maze_solve.c ****   unsigned short tmp_data[1024];
 983:Src/maze_solve.c ****   int tmp_size[1];
 984:Src/maze_solve.c ****   unsigned short u1;
 985:Src/maze_solve.c ****   unsigned char row_data[1024];
 986:Src/maze_solve.c ****   unsigned char k;
 987:Src/maze_solve.c ****   unsigned char col_data[1024];
 988:Src/maze_solve.c ****   int i7;
 989:Src/maze_solve.c ****   int b_k;
 990:Src/maze_solve.c ****   int c_k;
 991:Src/maze_solve.c ****   int d_k;
ARM GAS  C:\Temp\ccX6Vjzt.s 			page 44


 992:Src/maze_solve.c ****   int i8;
 993:Src/maze_solve.c ****   int e_k;
 994:Src/maze_solve.c ****   int f_k;
 995:Src/maze_solve.c ****   int g_k;
 996:Src/maze_solve.c ****   int h_k;
 997:Src/maze_solve.c ****   int i_k;
 998:Src/maze_solve.c **** 
 999:Src/maze_solve.c ****   /*  make_map_fustrun 最短走行用等高線MAPを生成 */
1000:Src/maze_solve.c ****   /* ローカル変数設定 */
1001:Src/maze_solve.c ****   /*  迷路パラメータ設定 */
1002:Src/maze_solve.c ****   qY = maze_col_size - 1U;
1003:Src/maze_solve.c ****   if (qY > maze_col_size) {
1004:Src/maze_solve.c ****     qY = 0U;
1005:Src/maze_solve.c ****   }
1006:Src/maze_solve.c **** 
1007:Src/maze_solve.c ****   b_qY = maze_row_size - 1U;
1008:Src/maze_solve.c ****   if (b_qY > maze_row_size) {
1009:Src/maze_solve.c ****     b_qY = 0U;
1010:Src/maze_solve.c ****   }
1011:Src/maze_solve.c **** 
1012:Src/maze_solve.c ****   q0 = (int)(qY * b_qY);
1013:Src/maze_solve.c ****   if ((unsigned int)q0 > 255U) {
1014:Src/maze_solve.c ****     q0 = 255;
1015:Src/maze_solve.c ****   }
1016:Src/maze_solve.c **** 
1017:Src/maze_solve.c ****   qY = q0 - 1U;
1018:Src/maze_solve.c ****   if (qY > (unsigned int)q0) {
1019:Src/maze_solve.c ****     qY = 0U;
1020:Src/maze_solve.c ****   }
1021:Src/maze_solve.c **** 
1022:Src/maze_solve.c ****   *max_length = (unsigned char)qY;
1023:Src/maze_solve.c **** 
1024:Src/maze_solve.c ****   /* MAPの初期化(すべての要素にmax_lengthを入力) */
1025:Src/maze_solve.c ****   /* MAPの初期化(すべての要素にmax_lengthを入力) */
1026:Src/maze_solve.c ****   /* 32マス分mapを保持 */
1027:Src/maze_solve.c ****   for (i6 = 0; i6 < 1024; i6++) {
1028:Src/maze_solve.c ****     contour_map[i6] = (unsigned char)qY;
1029:Src/maze_solve.c ****   }
1030:Src/maze_solve.c **** 
1031:Src/maze_solve.c ****   /* ゴール座標に0を入力 */
1032:Src/maze_solve.c ****   change_flag = goal_size->contents;
1033:Src/maze_solve.c ****   i6 = change_flag;
1034:Src/maze_solve.c ****   for (q0 = 0; q0 < i6; q0++) {
1035:Src/maze_solve.c ****     contour_map[(maze_goal[q0 + 9] + ((maze_goal[q0] - 1) << 5)) - 1] = 0U;
1036:Src/maze_solve.c ****   }
1037:Src/maze_solve.c **** 
1038:Src/maze_solve.c ****   do {
1039:Src/maze_solve.c ****     change_flag = 0U;
1040:Src/maze_solve.c **** 
1041:Src/maze_solve.c ****     /* map更新確認用フラグ */
1042:Src/maze_solve.c ****     for (tempi = 0; tempi <= *max_length; tempi++) {
1043:Src/maze_solve.c ****       /* 歩数カウントは0~max_length */
1044:Src/maze_solve.c ****       /* 歩数が確定している座標を検索 */
1045:Src/maze_solve.c ****       /* 最初は0,更新され、増加したマスを次々検索していく */
1046:Src/maze_solve.c ****       idx = 0;
1047:Src/maze_solve.c ****       q0 = 0;
1048:Src/maze_solve.c ****       exitg1 = false;
ARM GAS  C:\Temp\ccX6Vjzt.s 			page 45


1049:Src/maze_solve.c ****       while ((!exitg1) && (q0 < 1024)) {
1050:Src/maze_solve.c ****         if (contour_map[q0] == tempi) {
1051:Src/maze_solve.c ****           idx++;
1052:Src/maze_solve.c ****           ii_data[idx - 1] = (short)(q0 + 1);
1053:Src/maze_solve.c ****           if (idx >= 1024) {
1054:Src/maze_solve.c ****             exitg1 = true;
1055:Src/maze_solve.c ****           } else {
1056:Src/maze_solve.c ****             q0++;
1057:Src/maze_solve.c ****           }
1058:Src/maze_solve.c ****         } else {
1059:Src/maze_solve.c ****           q0++;
1060:Src/maze_solve.c ****         }
1061:Src/maze_solve.c ****       }
1062:Src/maze_solve.c **** 
1063:Src/maze_solve.c ****       if (1 > idx) {
1064:Src/maze_solve.c ****         loop_ub = 0;
1065:Src/maze_solve.c ****         q0 = 0;
1066:Src/maze_solve.c ****       } else {
1067:Src/maze_solve.c ****         loop_ub = idx;
1068:Src/maze_solve.c ****         q0 = idx;
1069:Src/maze_solve.c ****       }
1070:Src/maze_solve.c **** 
1071:Src/maze_solve.c ****       num_temp_size[0] = loop_ub;
1072:Src/maze_solve.c ****       for (i6 = 0; i6 < loop_ub; i6++) {
1073:Src/maze_solve.c ****         num_temp_data[i6] = (unsigned short)ii_data[i6];
1074:Src/maze_solve.c ****       }
1075:Src/maze_solve.c **** 
1076:Src/maze_solve.c ****       /* 32行なので、行番号:32で割ったあまり */
1077:Src/maze_solve.c ****       b_num_temp_size[0] = q0;
1078:Src/maze_solve.c ****       for (i6 = 0; i6 < q0; i6++) {
1079:Src/maze_solve.c ****         b_num_temp_data[i6] = (unsigned short)(num_temp_data[i6] - 1U);
1080:Src/maze_solve.c ****       }
1081:Src/maze_solve.c **** 
1082:Src/maze_solve.c ****       b_rem(b_num_temp_data, b_num_temp_size, tmp_data, tmp_size);
1083:Src/maze_solve.c ****       loop_ub = tmp_size[0];
1084:Src/maze_solve.c ****       for (i6 = 0; i6 < loop_ub; i6++) {
1085:Src/maze_solve.c ****         b_qY = tmp_data[i6] + 1U;
1086:Src/maze_solve.c ****         if (b_qY > 65535U) {
1087:Src/maze_solve.c ****           b_qY = 65535U;
1088:Src/maze_solve.c ****         }
1089:Src/maze_solve.c **** 
1090:Src/maze_solve.c ****         u1 = (unsigned short)b_qY;
1091:Src/maze_solve.c ****         if ((unsigned short)b_qY > 255) {
1092:Src/maze_solve.c ****           u1 = 255U;
1093:Src/maze_solve.c ****         }
1094:Src/maze_solve.c **** 
1095:Src/maze_solve.c ****         row_data[i6] = (unsigned char)u1;
1096:Src/maze_solve.c ****       }
1097:Src/maze_solve.c **** 
1098:Src/maze_solve.c ****       /* 列番号:32で割ったときの商 */
1099:Src/maze_solve.c ****       for (i6 = 0; i6 < q0; i6++) {
1100:Src/maze_solve.c ****         num_temp_data[i6]--;
1101:Src/maze_solve.c ****       }
1102:Src/maze_solve.c **** 
1103:Src/maze_solve.c ****       idivide(num_temp_data, num_temp_size, tmp_data, tmp_size);
1104:Src/maze_solve.c ****       q0 = tmp_size[0];
1105:Src/maze_solve.c ****       for (i6 = 0; i6 < q0; i6++) {
ARM GAS  C:\Temp\ccX6Vjzt.s 			page 46


1106:Src/maze_solve.c ****         b_qY = tmp_data[i6] + 1U;
1107:Src/maze_solve.c ****         if (b_qY > 65535U) {
1108:Src/maze_solve.c ****           b_qY = 65535U;
1109:Src/maze_solve.c ****         }
1110:Src/maze_solve.c **** 
1111:Src/maze_solve.c ****         u1 = (unsigned short)b_qY;
1112:Src/maze_solve.c ****         if ((unsigned short)b_qY > 255) {
1113:Src/maze_solve.c ****           u1 = 255U;
1114:Src/maze_solve.c ****         }
1115:Src/maze_solve.c **** 
1116:Src/maze_solve.c ****         col_data[i6] = (unsigned char)u1;
1117:Src/maze_solve.c ****       }
1118:Src/maze_solve.c **** 
1119:Src/maze_solve.c ****       /* 見つかったマスの数 */
1120:Src/maze_solve.c ****       /* 検索した座標に対し、歩数mapを更新 */
1121:Src/maze_solve.c ****       for (q0 = 0; q0 < loop_ub; q0++) {
1122:Src/maze_solve.c ****         /* 北側 */
1123:Src/maze_solve.c ****         /* 壁が無い & 探索済みであるとき */
1124:Src/maze_solve.c ****         k = g_direction->contents.North;
1125:Src/maze_solve.c ****         i6 = (unsigned short)(1 + q0) - 1;
1126:Src/maze_solve.c ****         idx = (col_data[i6] - 1) << 5;
1127:Src/maze_solve.c ****         i6 = row_data[i6] + idx;
1128:Src/maze_solve.c ****         i7 = i6 - 1;
1129:Src/maze_solve.c ****         if (k <= 7) {
1130:Src/maze_solve.c ****           b_k = (unsigned char)(1 << k);
1131:Src/maze_solve.c ****         } else {
1132:Src/maze_solve.c ****           b_k = 0;
1133:Src/maze_solve.c ****         }
1134:Src/maze_solve.c **** 
1135:Src/maze_solve.c ****         if (((maze_wall[i7] & b_k) != 0) == wall->contents.nowall) {
1136:Src/maze_solve.c ****           k = g_direction->contents.North;
1137:Src/maze_solve.c ****           if (k <= 7) {
1138:Src/maze_solve.c ****             c_k = (unsigned char)(1 << k);
1139:Src/maze_solve.c ****           } else {
1140:Src/maze_solve.c ****             c_k = 0;
1141:Src/maze_solve.c ****           }
1142:Src/maze_solve.c **** 
1143:Src/maze_solve.c ****           if (((maze_wall_search[i7] & c_k) != 0) == search->contents.known) {
1144:Src/maze_solve.c ****             /* 北側のMAPが更新されているか判断、されていなければ書き込み
1145:Src/maze_solve.c ****             i7 = (int)(row_data[(unsigned short)(1 + q0) - 1] + 1U);
1146:Src/maze_solve.c ****             i8 = i7;
1147:Src/maze_solve.c ****             if ((unsigned int)i7 > 255U) {
1148:Src/maze_solve.c ****               i8 = 255;
1149:Src/maze_solve.c ****             }
1150:Src/maze_solve.c **** 
1151:Src/maze_solve.c ****             if (contour_map[(i8 + idx) - 1] == (unsigned char)qY) {
1152:Src/maze_solve.c ****               if ((unsigned int)i7 > 255U) {
1153:Src/maze_solve.c ****                 i7 = 255;
1154:Src/maze_solve.c ****               }
1155:Src/maze_solve.c **** 
1156:Src/maze_solve.c ****               contour_map[(i7 + idx) - 1] = (unsigned char)(tempi + 1);
1157:Src/maze_solve.c ****               change_flag = 1U;
1158:Src/maze_solve.c ****             }
1159:Src/maze_solve.c ****           }
1160:Src/maze_solve.c ****         }
1161:Src/maze_solve.c **** 
1162:Src/maze_solve.c ****         /* 東側 */
ARM GAS  C:\Temp\ccX6Vjzt.s 			page 47


1163:Src/maze_solve.c ****         k = g_direction->contents.East;
1164:Src/maze_solve.c ****         if (k <= 7) {
1165:Src/maze_solve.c ****           d_k = (unsigned char)(1 << k);
1166:Src/maze_solve.c ****         } else {
1167:Src/maze_solve.c ****           d_k = 0;
1168:Src/maze_solve.c ****         }
1169:Src/maze_solve.c **** 
1170:Src/maze_solve.c ****         if (((maze_wall[(row_data[(unsigned short)(1 + q0) - 1] + ((col_data
1171:Src/maze_solve.c ****                  [(unsigned short)(1 + q0) - 1] - 1) << 5)) - 1] & d_k) != 0) ==
1172:Src/maze_solve.c ****             wall->contents.nowall) {
1173:Src/maze_solve.c ****           k = g_direction->contents.East;
1174:Src/maze_solve.c ****           if (k <= 7) {
1175:Src/maze_solve.c ****             e_k = (unsigned char)(1 << k);
1176:Src/maze_solve.c ****           } else {
1177:Src/maze_solve.c ****             e_k = 0;
1178:Src/maze_solve.c ****           }
1179:Src/maze_solve.c **** 
1180:Src/maze_solve.c ****           if (((maze_wall_search[(row_data[(unsigned short)(1 + q0) - 1] +
1181:Src/maze_solve.c ****                                   ((col_data[(unsigned short)(1 + q0) - 1] - 1) <<
1182:Src/maze_solve.c ****                   5)) - 1] & e_k) != 0) == search->contents.known) {
1183:Src/maze_solve.c ****             /* 東側のMAPが更新されているか判断、されていなければ書き込み
1184:Src/maze_solve.c ****             idx = (int)(col_data[(unsigned short)(1 + q0) - 1] + 1U);
1185:Src/maze_solve.c ****             i7 = idx;
1186:Src/maze_solve.c ****             if ((unsigned int)idx > 255U) {
1187:Src/maze_solve.c ****               i7 = 255;
1188:Src/maze_solve.c ****             }
1189:Src/maze_solve.c **** 
1190:Src/maze_solve.c ****             if (contour_map[(row_data[(unsigned short)(1 + q0) - 1] + ((i7 - 1) <<
1191:Src/maze_solve.c ****                   5)) - 1] == (unsigned char)qY) {
1192:Src/maze_solve.c ****               if ((unsigned int)idx > 255U) {
1193:Src/maze_solve.c ****                 idx = 255;
1194:Src/maze_solve.c ****               }
1195:Src/maze_solve.c **** 
1196:Src/maze_solve.c ****               contour_map[(row_data[(unsigned short)(1 + q0) - 1] + ((idx - 1) <<
1197:Src/maze_solve.c ****                 5)) - 1] = (unsigned char)(tempi + 1);
1198:Src/maze_solve.c ****               change_flag = 1U;
1199:Src/maze_solve.c ****             }
1200:Src/maze_solve.c ****           }
1201:Src/maze_solve.c ****         }
1202:Src/maze_solve.c **** 
1203:Src/maze_solve.c ****         /* 南側 */
1204:Src/maze_solve.c ****         k = g_direction->contents.South;
1205:Src/maze_solve.c ****         if (k <= 7) {
1206:Src/maze_solve.c ****           f_k = (unsigned char)(1 << k);
1207:Src/maze_solve.c ****         } else {
1208:Src/maze_solve.c ****           f_k = 0;
1209:Src/maze_solve.c ****         }
1210:Src/maze_solve.c **** 
1211:Src/maze_solve.c ****         if (((maze_wall[(row_data[(unsigned short)(1 + q0) - 1] + ((col_data
1212:Src/maze_solve.c ****                  [(unsigned short)(1 + q0) - 1] - 1) << 5)) - 1] & f_k) != 0) ==
1213:Src/maze_solve.c ****             wall->contents.nowall) {
1214:Src/maze_solve.c ****           k = g_direction->contents.South;
1215:Src/maze_solve.c ****           if (k <= 7) {
1216:Src/maze_solve.c ****             g_k = (unsigned char)(1 << k);
1217:Src/maze_solve.c ****           } else {
1218:Src/maze_solve.c ****             g_k = 0;
1219:Src/maze_solve.c ****           }
ARM GAS  C:\Temp\ccX6Vjzt.s 			page 48


1220:Src/maze_solve.c **** 
1221:Src/maze_solve.c ****           if (((maze_wall_search[(row_data[(unsigned short)(1 + q0) - 1] +
1222:Src/maze_solve.c ****                                   ((col_data[(unsigned short)(1 + q0) - 1] - 1) <<
1223:Src/maze_solve.c ****                   5)) - 1] & g_k) != 0) == search->contents.known) {
1224:Src/maze_solve.c ****             /* 南側のMAPが更新されているか判断、されていなければ書き込み
1225:Src/maze_solve.c ****             i6 -= 2;
1226:Src/maze_solve.c ****             if (contour_map[i6] == (unsigned char)qY) {
1227:Src/maze_solve.c ****               contour_map[i6] = (unsigned char)(tempi + 1);
1228:Src/maze_solve.c ****               change_flag = 1U;
1229:Src/maze_solve.c ****             }
1230:Src/maze_solve.c ****           }
1231:Src/maze_solve.c ****         }
1232:Src/maze_solve.c **** 
1233:Src/maze_solve.c ****         /* 西側 */
1234:Src/maze_solve.c ****         k = g_direction->contents.West;
1235:Src/maze_solve.c ****         if (k <= 7) {
1236:Src/maze_solve.c ****           h_k = (unsigned char)(1 << k);
1237:Src/maze_solve.c ****         } else {
1238:Src/maze_solve.c ****           h_k = 0;
1239:Src/maze_solve.c ****         }
1240:Src/maze_solve.c **** 
1241:Src/maze_solve.c ****         if (((maze_wall[(row_data[(unsigned short)(1 + q0) - 1] + ((col_data
1242:Src/maze_solve.c ****                  [(unsigned short)(1 + q0) - 1] - 1) << 5)) - 1] & h_k) != 0) ==
1243:Src/maze_solve.c ****             wall->contents.nowall) {
1244:Src/maze_solve.c ****           k = g_direction->contents.West;
1245:Src/maze_solve.c ****           if (k <= 7) {
1246:Src/maze_solve.c ****             i_k = (unsigned char)(1 << k);
1247:Src/maze_solve.c ****           } else {
1248:Src/maze_solve.c ****             i_k = 0;
1249:Src/maze_solve.c ****           }
1250:Src/maze_solve.c **** 
1251:Src/maze_solve.c ****           if (((maze_wall_search[(row_data[(unsigned short)(1 + q0) - 1] +
1252:Src/maze_solve.c ****                                   ((col_data[(unsigned short)(1 + q0) - 1] - 1) <<
1253:Src/maze_solve.c ****                   5)) - 1] & i_k) != 0) == search->contents.known) {
1254:Src/maze_solve.c ****             /* 西側のMAPが更新されているか判断、されていなければ書き込み
1255:Src/maze_solve.c ****             i6 = (row_data[(unsigned short)(1 + q0) - 1] + ((col_data[(unsigned
1256:Src/maze_solve.c ****                      short)(1 + q0) - 1] - 2) << 5)) - 1;
1257:Src/maze_solve.c ****             if (contour_map[i6] == (unsigned char)qY) {
1258:Src/maze_solve.c ****               contour_map[i6] = (unsigned char)(tempi + 1);
1259:Src/maze_solve.c ****               change_flag = 1U;
1260:Src/maze_solve.c ****             }
1261:Src/maze_solve.c ****           }
1262:Src/maze_solve.c ****         }
1263:Src/maze_solve.c ****       }
1264:Src/maze_solve.c ****     }
1265:Src/maze_solve.c **** 
1266:Src/maze_solve.c ****     /* 更新がなければ終了     */
1267:Src/maze_solve.c ****   } while (!(change_flag == 0));
1268:Src/maze_solve.c **** }
1269:Src/maze_solve.c **** 
1270:Src/maze_solve.c **** /*
1271:Src/maze_solve.c ****  * 入力 現在位置x,y,現在方向
1272:Src/maze_solve.c ****  * 出力 現在位置x,y
1273:Src/maze_solve.c ****  * Arguments    : const coder_internal_ref_4 *g_direction
1274:Src/maze_solve.c ****  *                unsigned char *current_x
1275:Src/maze_solve.c ****  *                unsigned char *current_y
1276:Src/maze_solve.c ****  *                unsigned char current_dir
ARM GAS  C:\Temp\ccX6Vjzt.s 			page 49


1277:Src/maze_solve.c ****  * Return Type  : void
1278:Src/maze_solve.c ****  */
1279:Src/maze_solve.c **** static void move_step(const coder_internal_ref_4 *g_direction, unsigned char
1280:Src/maze_solve.c ****                       *current_x, unsigned char *current_y, unsigned char
1281:Src/maze_solve.c ****                       current_dir)
1282:Src/maze_solve.c **** {
 1181              		.loc 1 1282 1 is_stmt 1 view -0
 1182              		.cfi_startproc
 1183              		@ args = 0, pretend = 0, frame = 0
 1184              		@ frame_needed = 0, uses_anonymous_args = 0
 1185              		@ link register save eliminated.
 1186              		.loc 1 1282 1 is_stmt 0 view .LVU463
 1187 0000 30B4     		push	{r4, r5}
 1188              	.LCFI3:
 1189              		.cfi_def_cfa_offset 8
 1190              		.cfi_offset 4, -8
 1191              		.cfi_offset 5, -4
1283:Src/maze_solve.c ****   int q0;
 1192              		.loc 1 1283 3 is_stmt 1 view .LVU464
1284:Src/maze_solve.c ****   unsigned int qY;
 1193              		.loc 1 1284 3 view .LVU465
1285:Src/maze_solve.c **** 
1286:Src/maze_solve.c ****   /*  move_step 一マス前進する関数 */
1287:Src/maze_solve.c ****   /* 北に一マス */
1288:Src/maze_solve.c ****   if (current_dir == g_direction->contents.North) {
 1194              		.loc 1 1288 3 view .LVU466
 1195              		.loc 1 1288 43 is_stmt 0 view .LVU467
 1196 0002 0478     		ldrb	r4, [r0]	@ zero_extendqisi2
 1197              		.loc 1 1288 6 view .LVU468
 1198 0004 9C42     		cmp	r4, r3
 1199 0006 0AD0     		beq	.L137
 1200              	.L124:
1289:Src/maze_solve.c ****     q0 = (int)(*current_y + 1U);
1290:Src/maze_solve.c ****     if ((unsigned int)q0 > 255U) {
1291:Src/maze_solve.c ****       q0 = 255;
1292:Src/maze_solve.c ****     }
1293:Src/maze_solve.c **** 
1294:Src/maze_solve.c ****     *current_y = (unsigned char)q0;
1295:Src/maze_solve.c **** 
1296:Src/maze_solve.c ****     /* disp("north_step") */
1297:Src/maze_solve.c ****   }
1298:Src/maze_solve.c **** 
1299:Src/maze_solve.c ****   /* 東に一マス */
1300:Src/maze_solve.c ****   if (current_dir == g_direction->contents.East) {
 1201              		.loc 1 1300 3 is_stmt 1 view .LVU469
 1202              		.loc 1 1300 43 is_stmt 0 view .LVU470
 1203 0008 4478     		ldrb	r4, [r0, #1]	@ zero_extendqisi2
 1204              		.loc 1 1300 6 view .LVU471
 1205 000a 9C42     		cmp	r4, r3
 1206 000c 0ED0     		beq	.L138
 1207              	.L126:
1301:Src/maze_solve.c ****     q0 = (int)(*current_x + 1U);
1302:Src/maze_solve.c ****     if ((unsigned int)q0 > 255U) {
1303:Src/maze_solve.c ****       q0 = 255;
1304:Src/maze_solve.c ****     }
1305:Src/maze_solve.c **** 
1306:Src/maze_solve.c ****     *current_x = (unsigned char)q0;
ARM GAS  C:\Temp\ccX6Vjzt.s 			page 50


1307:Src/maze_solve.c **** 
1308:Src/maze_solve.c ****     /* disp("east_step") */
1309:Src/maze_solve.c ****   }
1310:Src/maze_solve.c **** 
1311:Src/maze_solve.c ****   /* 南に一マス */
1312:Src/maze_solve.c ****   if (current_dir == g_direction->contents.South) {
 1208              		.loc 1 1312 3 is_stmt 1 view .LVU472
 1209              		.loc 1 1312 43 is_stmt 0 view .LVU473
 1210 000e 8478     		ldrb	r4, [r0, #2]	@ zero_extendqisi2
 1211              		.loc 1 1312 6 view .LVU474
 1212 0010 9C42     		cmp	r4, r3
 1213 0012 12D0     		beq	.L139
 1214              	.L128:
1313:Src/maze_solve.c ****     q0 = *current_y;
1314:Src/maze_solve.c ****     qY = q0 - 1U;
1315:Src/maze_solve.c ****     if (qY > (unsigned int)q0) {
1316:Src/maze_solve.c ****       qY = 0U;
1317:Src/maze_solve.c ****     }
1318:Src/maze_solve.c **** 
1319:Src/maze_solve.c ****     *current_y = (unsigned char)qY;
1320:Src/maze_solve.c **** 
1321:Src/maze_solve.c ****     /* disp("south_step") */
1322:Src/maze_solve.c ****   }
1323:Src/maze_solve.c **** 
1324:Src/maze_solve.c ****   /* 西に一マス */
1325:Src/maze_solve.c ****   if (current_dir == g_direction->contents.West) {
 1215              		.loc 1 1325 3 is_stmt 1 view .LVU475
 1216              		.loc 1 1325 43 is_stmt 0 view .LVU476
 1217 0014 C278     		ldrb	r2, [r0, #3]	@ zero_extendqisi2
 1218              	.LVL171:
 1219              		.loc 1 1325 6 view .LVU477
 1220 0016 9A42     		cmp	r2, r3
 1221 0018 16D0     		beq	.L140
 1222              	.LVL172:
 1223              	.L123:
1326:Src/maze_solve.c ****     q0 = *current_x;
1327:Src/maze_solve.c ****     qY = q0 - 1U;
1328:Src/maze_solve.c ****     if (qY > (unsigned int)q0) {
1329:Src/maze_solve.c ****       qY = 0U;
1330:Src/maze_solve.c ****     }
1331:Src/maze_solve.c **** 
1332:Src/maze_solve.c ****     *current_x = (unsigned char)qY;
1333:Src/maze_solve.c **** 
1334:Src/maze_solve.c ****     /* disp("west_step") */
1335:Src/maze_solve.c ****   }
1336:Src/maze_solve.c **** }
 1224              		.loc 1 1336 1 view .LVU478
 1225 001a 30BC     		pop	{r4, r5}
 1226              	.LCFI4:
 1227              		.cfi_remember_state
 1228              		.cfi_restore 5
 1229              		.cfi_restore 4
 1230              		.cfi_def_cfa_offset 0
 1231 001c 7047     		bx	lr
 1232              	.LVL173:
 1233              	.L137:
 1234              	.LCFI5:
ARM GAS  C:\Temp\ccX6Vjzt.s 			page 51


 1235              		.cfi_restore_state
1289:Src/maze_solve.c ****     if ((unsigned int)q0 > 255U) {
 1236              		.loc 1 1289 5 is_stmt 1 view .LVU479
1289:Src/maze_solve.c ****     if ((unsigned int)q0 > 255U) {
 1237              		.loc 1 1289 16 is_stmt 0 view .LVU480
 1238 001e 1478     		ldrb	r4, [r2]	@ zero_extendqisi2
1289:Src/maze_solve.c ****     if ((unsigned int)q0 > 255U) {
 1239              		.loc 1 1289 27 view .LVU481
 1240 0020 0134     		adds	r4, r4, #1
 1241              	.LVL174:
1290:Src/maze_solve.c ****       q0 = 255;
 1242              		.loc 1 1290 5 is_stmt 1 view .LVU482
1290:Src/maze_solve.c ****       q0 = 255;
 1243              		.loc 1 1290 8 is_stmt 0 view .LVU483
 1244 0022 FF2C     		cmp	r4, #255
 1245 0024 00D9     		bls	.L125
1291:Src/maze_solve.c ****     }
 1246              		.loc 1 1291 10 view .LVU484
 1247 0026 FF24     		movs	r4, #255
 1248              	.LVL175:
 1249              	.L125:
1294:Src/maze_solve.c **** 
 1250              		.loc 1 1294 5 is_stmt 1 view .LVU485
1294:Src/maze_solve.c **** 
 1251              		.loc 1 1294 16 is_stmt 0 view .LVU486
 1252 0028 1470     		strb	r4, [r2]
 1253 002a EDE7     		b	.L124
 1254              	.LVL176:
 1255              	.L138:
1301:Src/maze_solve.c ****     if ((unsigned int)q0 > 255U) {
 1256              		.loc 1 1301 5 is_stmt 1 view .LVU487
1301:Src/maze_solve.c ****     if ((unsigned int)q0 > 255U) {
 1257              		.loc 1 1301 16 is_stmt 0 view .LVU488
 1258 002c 0C78     		ldrb	r4, [r1]	@ zero_extendqisi2
1301:Src/maze_solve.c ****     if ((unsigned int)q0 > 255U) {
 1259              		.loc 1 1301 27 view .LVU489
 1260 002e 0134     		adds	r4, r4, #1
 1261              	.LVL177:
1302:Src/maze_solve.c ****       q0 = 255;
 1262              		.loc 1 1302 5 is_stmt 1 view .LVU490
1302:Src/maze_solve.c ****       q0 = 255;
 1263              		.loc 1 1302 8 is_stmt 0 view .LVU491
 1264 0030 FF2C     		cmp	r4, #255
 1265 0032 00D9     		bls	.L127
1303:Src/maze_solve.c ****     }
 1266              		.loc 1 1303 10 view .LVU492
 1267 0034 FF24     		movs	r4, #255
 1268              	.LVL178:
 1269              	.L127:
1306:Src/maze_solve.c **** 
 1270              		.loc 1 1306 5 is_stmt 1 view .LVU493
1306:Src/maze_solve.c **** 
 1271              		.loc 1 1306 16 is_stmt 0 view .LVU494
 1272 0036 0C70     		strb	r4, [r1]
 1273 0038 E9E7     		b	.L126
 1274              	.LVL179:
 1275              	.L139:
ARM GAS  C:\Temp\ccX6Vjzt.s 			page 52


1313:Src/maze_solve.c ****     qY = q0 - 1U;
 1276              		.loc 1 1313 5 is_stmt 1 view .LVU495
1313:Src/maze_solve.c ****     qY = q0 - 1U;
 1277              		.loc 1 1313 10 is_stmt 0 view .LVU496
 1278 003a 1578     		ldrb	r5, [r2]	@ zero_extendqisi2
 1279              	.LVL180:
1314:Src/maze_solve.c ****     if (qY > (unsigned int)q0) {
 1280              		.loc 1 1314 5 is_stmt 1 view .LVU497
1314:Src/maze_solve.c ****     if (qY > (unsigned int)q0) {
 1281              		.loc 1 1314 8 is_stmt 0 view .LVU498
 1282 003c 6C1E     		subs	r4, r5, #1
 1283              	.LVL181:
1315:Src/maze_solve.c ****       qY = 0U;
 1284              		.loc 1 1315 5 is_stmt 1 view .LVU499
1315:Src/maze_solve.c ****       qY = 0U;
 1285              		.loc 1 1315 8 is_stmt 0 view .LVU500
 1286 003e A542     		cmp	r5, r4
 1287 0040 00D2     		bcs	.L129
1316:Src/maze_solve.c ****     }
 1288              		.loc 1 1316 10 view .LVU501
 1289 0042 0024     		movs	r4, #0
 1290              	.LVL182:
 1291              	.L129:
1319:Src/maze_solve.c **** 
 1292              		.loc 1 1319 5 is_stmt 1 view .LVU502
1319:Src/maze_solve.c **** 
 1293              		.loc 1 1319 16 is_stmt 0 view .LVU503
 1294 0044 1470     		strb	r4, [r2]
 1295 0046 E5E7     		b	.L128
 1296              	.LVL183:
 1297              	.L140:
1326:Src/maze_solve.c ****     qY = q0 - 1U;
 1298              		.loc 1 1326 5 is_stmt 1 view .LVU504
1326:Src/maze_solve.c ****     qY = q0 - 1U;
 1299              		.loc 1 1326 10 is_stmt 0 view .LVU505
 1300 0048 0A78     		ldrb	r2, [r1]	@ zero_extendqisi2
 1301              	.LVL184:
1327:Src/maze_solve.c ****     if (qY > (unsigned int)q0) {
 1302              		.loc 1 1327 5 is_stmt 1 view .LVU506
1327:Src/maze_solve.c ****     if (qY > (unsigned int)q0) {
 1303              		.loc 1 1327 8 is_stmt 0 view .LVU507
 1304 004a 531E     		subs	r3, r2, #1
 1305              	.LVL185:
1328:Src/maze_solve.c ****       qY = 0U;
 1306              		.loc 1 1328 5 is_stmt 1 view .LVU508
1328:Src/maze_solve.c ****       qY = 0U;
 1307              		.loc 1 1328 8 is_stmt 0 view .LVU509
 1308 004c 9A42     		cmp	r2, r3
 1309 004e 00D2     		bcs	.L131
1329:Src/maze_solve.c ****     }
 1310              		.loc 1 1329 10 view .LVU510
 1311 0050 0023     		movs	r3, #0
 1312              	.LVL186:
 1313              	.L131:
1332:Src/maze_solve.c **** 
 1314              		.loc 1 1332 5 is_stmt 1 view .LVU511
1332:Src/maze_solve.c **** 
ARM GAS  C:\Temp\ccX6Vjzt.s 			page 53


 1315              		.loc 1 1332 16 is_stmt 0 view .LVU512
 1316 0052 0B70     		strb	r3, [r1]
 1317              		.loc 1 1336 1 view .LVU513
 1318 0054 E1E7     		b	.L123
 1319              		.cfi_endproc
 1320              	.LFE136:
 1322              		.section	.text.make_map_find,"ax",%progbits
 1323              		.align	1
 1324              		.syntax unified
 1325              		.thumb
 1326              		.thumb_func
 1327              		.fpu fpv4-sp-d16
 1329              	make_map_find:
 1330              	.LVL187:
 1331              	.LFB134:
 689:Src/maze_solve.c ****   unsigned int qY;
 1332              		.loc 1 689 1 is_stmt 1 view -0
 1333              		.cfi_startproc
 1334              		@ args = 20, pretend = 0, frame = 4128
 1335              		@ frame_needed = 0, uses_anonymous_args = 0
 689:Src/maze_solve.c ****   unsigned int qY;
 1336              		.loc 1 689 1 is_stmt 0 view .LVU515
 1337 0000 2DE9F04F 		push	{r4, r5, r6, r7, r8, r9, r10, fp, lr}
 1338              	.LCFI6:
 1339              		.cfi_def_cfa_offset 36
 1340              		.cfi_offset 4, -36
 1341              		.cfi_offset 5, -32
 1342              		.cfi_offset 6, -28
 1343              		.cfi_offset 7, -24
 1344              		.cfi_offset 8, -20
 1345              		.cfi_offset 9, -16
 1346              		.cfi_offset 10, -12
 1347              		.cfi_offset 11, -8
 1348              		.cfi_offset 14, -4
 1349 0004 ADF5815D 		sub	sp, sp, #4128
 1350              	.LCFI7:
 1351              		.cfi_def_cfa_offset 4164
 1352 0008 81B0     		sub	sp, sp, #4
 1353              	.LCFI8:
 1354              		.cfi_def_cfa_offset 4168
 1355 000a 8146     		mov	r9, r0
 1356 000c 8846     		mov	r8, r1
 1357 000e 0DF58251 		add	r1, sp, #4160
 1358              	.LVL188:
 689:Src/maze_solve.c ****   unsigned int qY;
 1359              		.loc 1 689 1 view .LVU516
 1360 0012 0831     		adds	r1, r1, #8
 1361 0014 0868     		ldr	r0, [r1]
 1362              	.LVL189:
 689:Src/maze_solve.c ****   unsigned int qY;
 1363              		.loc 1 689 1 view .LVU517
 1364 0016 0DF58251 		add	r1, sp, #4160
 1365 001a 1431     		adds	r1, r1, #20
 1366 001c 0C68     		ldr	r4, [r1]
 690:Src/maze_solve.c ****   unsigned int b_qY;
 1367              		.loc 1 690 3 is_stmt 1 view .LVU518
 691:Src/maze_solve.c ****   int q0;
ARM GAS  C:\Temp\ccX6Vjzt.s 			page 54


 1368              		.loc 1 691 3 view .LVU519
 692:Src/maze_solve.c ****   int i2;
 1369              		.loc 1 692 3 view .LVU520
 693:Src/maze_solve.c ****   unsigned char change_flag;
 1370              		.loc 1 693 3 view .LVU521
 694:Src/maze_solve.c ****   unsigned int tempi;
 1371              		.loc 1 694 3 view .LVU522
 695:Src/maze_solve.c ****   bool exitg1;
 1372              		.loc 1 695 3 view .LVU523
 696:Src/maze_solve.c ****   int idx;
 1373              		.loc 1 696 3 view .LVU524
 697:Src/maze_solve.c ****   bool exitg2;
 1374              		.loc 1 697 3 view .LVU525
 698:Src/maze_solve.c ****   int loop_ub;
 1375              		.loc 1 698 3 view .LVU526
 699:Src/maze_solve.c ****   static short ii_data[1024];
 1376              		.loc 1 699 3 view .LVU527
 700:Src/maze_solve.c ****   int num_temp_size[1];
 1377              		.loc 1 700 3 view .LVU528
 701:Src/maze_solve.c ****   static unsigned short num_temp_data[1024];
 1378              		.loc 1 701 3 view .LVU529
 702:Src/maze_solve.c ****   int b_num_temp_size[1];
 1379              		.loc 1 702 3 view .LVU530
 703:Src/maze_solve.c ****   static unsigned short b_num_temp_data[1024];
 1380              		.loc 1 703 3 view .LVU531
 704:Src/maze_solve.c ****   unsigned short tmp_data[1024];
 1381              		.loc 1 704 3 view .LVU532
 705:Src/maze_solve.c ****   int tmp_size[1];
 1382              		.loc 1 705 3 view .LVU533
 706:Src/maze_solve.c ****   unsigned short u0;
 1383              		.loc 1 706 3 view .LVU534
 707:Src/maze_solve.c ****   unsigned char row_data[1024];
 1384              		.loc 1 707 3 view .LVU535
 708:Src/maze_solve.c ****   unsigned char col_data[1024];
 1385              		.loc 1 708 3 view .LVU536
 709:Src/maze_solve.c ****   unsigned char k;
 1386              		.loc 1 709 3 view .LVU537
 710:Src/maze_solve.c ****   int i3;
 1387              		.loc 1 710 3 view .LVU538
 711:Src/maze_solve.c ****   int b_k;
 1388              		.loc 1 711 3 view .LVU539
 712:Src/maze_solve.c ****   int i4;
 1389              		.loc 1 712 3 view .LVU540
 713:Src/maze_solve.c ****   int i5;
 1390              		.loc 1 713 3 view .LVU541
 714:Src/maze_solve.c ****   int c_k;
 1391              		.loc 1 714 3 view .LVU542
 715:Src/maze_solve.c ****   int d_k;
 1392              		.loc 1 715 3 view .LVU543
 716:Src/maze_solve.c ****   int e_k;
 1393              		.loc 1 716 3 view .LVU544
 717:Src/maze_solve.c **** 
 1394              		.loc 1 717 3 view .LVU545
 721:Src/maze_solve.c ****   if (qY > maze_col_size) {
 1395              		.loc 1 721 3 view .LVU546
 721:Src/maze_solve.c ****   if (qY > maze_col_size) {
 1396              		.loc 1 721 6 is_stmt 0 view .LVU547
ARM GAS  C:\Temp\ccX6Vjzt.s 			page 55


 1397 001e 591E     		subs	r1, r3, #1
 1398              	.LVL190:
 722:Src/maze_solve.c ****     qY = 0U;
 1399              		.loc 1 722 3 is_stmt 1 view .LVU548
 722:Src/maze_solve.c ****     qY = 0U;
 1400              		.loc 1 722 6 is_stmt 0 view .LVU549
 1401 0020 8B42     		cmp	r3, r1
 1402 0022 00D2     		bcs	.L142
 723:Src/maze_solve.c ****   }
 1403              		.loc 1 723 8 view .LVU550
 1404 0024 0021     		movs	r1, #0
 1405              	.LVL191:
 1406              	.L142:
 726:Src/maze_solve.c ****   if (b_qY > maze_row_size) {
 1407              		.loc 1 726 3 is_stmt 1 view .LVU551
 726:Src/maze_solve.c ****   if (b_qY > maze_row_size) {
 1408              		.loc 1 726 8 is_stmt 0 view .LVU552
 1409 0026 531E     		subs	r3, r2, #1
 1410              	.LVL192:
 727:Src/maze_solve.c ****     b_qY = 0U;
 1411              		.loc 1 727 3 is_stmt 1 view .LVU553
 727:Src/maze_solve.c ****     b_qY = 0U;
 1412              		.loc 1 727 6 is_stmt 0 view .LVU554
 1413 0028 9A42     		cmp	r2, r3
 1414 002a 00D2     		bcs	.L143
 728:Src/maze_solve.c ****   }
 1415              		.loc 1 728 10 view .LVU555
 1416 002c 0023     		movs	r3, #0
 1417              	.LVL193:
 1418              	.L143:
 731:Src/maze_solve.c ****   if ((unsigned int)q0 > 1023U) {
 1419              		.loc 1 731 3 is_stmt 1 view .LVU556
 731:Src/maze_solve.c ****   if ((unsigned int)q0 > 1023U) {
 1420              		.loc 1 731 17 is_stmt 0 view .LVU557
 1421 002e 03FB01F3 		mul	r3, r3, r1
 1422              	.LVL194:
 732:Src/maze_solve.c ****     q0 = 1023;
 1423              		.loc 1 732 3 is_stmt 1 view .LVU558
 732:Src/maze_solve.c ****     q0 = 1023;
 1424              		.loc 1 732 6 is_stmt 0 view .LVU559
 1425 0032 B3F5806F 		cmp	r3, #1024
 1426 0036 01D3     		bcc	.L144
 733:Src/maze_solve.c ****   }
 1427              		.loc 1 733 8 view .LVU560
 1428 0038 40F2FF33 		movw	r3, #1023
 1429              	.LVL195:
 1430              	.L144:
 736:Src/maze_solve.c ****   if (qY > (unsigned int)q0) {
 1431              		.loc 1 736 3 is_stmt 1 view .LVU561
 736:Src/maze_solve.c ****   if (qY > (unsigned int)q0) {
 1432              		.loc 1 736 6 is_stmt 0 view .LVU562
 1433 003c 5E1E     		subs	r6, r3, #1
 1434              	.LVL196:
 737:Src/maze_solve.c ****     qY = 0U;
 1435              		.loc 1 737 3 is_stmt 1 view .LVU563
 737:Src/maze_solve.c ****     qY = 0U;
 1436              		.loc 1 737 6 is_stmt 0 view .LVU564
ARM GAS  C:\Temp\ccX6Vjzt.s 			page 56


 1437 003e B342     		cmp	r3, r6
 1438 0040 00D2     		bcs	.L145
 738:Src/maze_solve.c ****   }
 1439              		.loc 1 738 8 view .LVU565
 1440 0042 0026     		movs	r6, #0
 1441              	.LVL197:
 1442              	.L145:
 741:Src/maze_solve.c **** 
 1443              		.loc 1 741 3 is_stmt 1 view .LVU566
 741:Src/maze_solve.c **** 
 1444              		.loc 1 741 15 is_stmt 0 view .LVU567
 1445 0044 0DF58253 		add	r3, sp, #4160
 1446              	.LVL198:
 741:Src/maze_solve.c **** 
 1447              		.loc 1 741 15 view .LVU568
 1448 0048 1833     		adds	r3, r3, #24
 1449 004a 1B68     		ldr	r3, [r3]
 1450 004c 1E60     		str	r6, [r3]
 745:Src/maze_solve.c ****     contour_map[i2] = (unsigned int)qY;
 1451              		.loc 1 745 3 is_stmt 1 view .LVU569
 1452              	.LVL199:
 745:Src/maze_solve.c ****     contour_map[i2] = (unsigned int)qY;
 1453              		.loc 1 745 11 is_stmt 0 view .LVU570
 1454 004e 0023     		movs	r3, #0
 1455              	.LVL200:
 1456              	.L146:
 745:Src/maze_solve.c ****     contour_map[i2] = (unsigned int)qY;
 1457              		.loc 1 745 16 is_stmt 1 discriminator 1 view .LVU571
 745:Src/maze_solve.c ****     contour_map[i2] = (unsigned int)qY;
 1458              		.loc 1 745 3 is_stmt 0 discriminator 1 view .LVU572
 1459 0050 B3F5806F 		cmp	r3, #1024
 1460 0054 03DA     		bge	.L203
 746:Src/maze_solve.c ****   }
 1461              		.loc 1 746 5 is_stmt 1 discriminator 3 view .LVU573
 746:Src/maze_solve.c ****   }
 1462              		.loc 1 746 21 is_stmt 0 discriminator 3 view .LVU574
 1463 0056 44F82360 		str	r6, [r4, r3, lsl #2]
 745:Src/maze_solve.c ****     contour_map[i2] = (unsigned int)qY;
 1464              		.loc 1 745 27 is_stmt 1 discriminator 3 view .LVU575
 745:Src/maze_solve.c ****     contour_map[i2] = (unsigned int)qY;
 1465              		.loc 1 745 29 is_stmt 0 discriminator 3 view .LVU576
 1466 005a 0133     		adds	r3, r3, #1
 1467              	.LVL201:
 745:Src/maze_solve.c ****     contour_map[i2] = (unsigned int)qY;
 1468              		.loc 1 745 29 discriminator 3 view .LVU577
 1469 005c F8E7     		b	.L146
 1470              	.L203:
 750:Src/maze_solve.c ****   for (q0 = 0; q0 < i2; q0++) {
 1471              		.loc 1 750 3 is_stmt 1 view .LVU578
 750:Src/maze_solve.c ****   for (q0 = 0; q0 < i2; q0++) {
 1472              		.loc 1 750 6 is_stmt 0 view .LVU579
 1473 005e 0DF58253 		add	r3, sp, #4160
 1474              	.LVL202:
 750:Src/maze_solve.c ****   for (q0 = 0; q0 < i2; q0++) {
 1475              		.loc 1 750 6 view .LVU580
 1476 0062 0C33     		adds	r3, r3, #12
 1477 0064 1D78     		ldrb	r5, [r3]	@ zero_extendqisi2
ARM GAS  C:\Temp\ccX6Vjzt.s 			page 57


 1478              	.LVL203:
 751:Src/maze_solve.c ****     contour_map[(maze_goal[q0 + 9] + ((maze_goal[q0] - 1) << 5)) - 1] = 0U;
 1479              		.loc 1 751 3 is_stmt 1 view .LVU581
 751:Src/maze_solve.c ****     contour_map[(maze_goal[q0 + 9] + ((maze_goal[q0] - 1) << 5)) - 1] = 0U;
 1480              		.loc 1 751 11 is_stmt 0 view .LVU582
 1481 0066 0022     		movs	r2, #0
 1482              	.LVL204:
 751:Src/maze_solve.c ****     contour_map[(maze_goal[q0 + 9] + ((maze_goal[q0] - 1) << 5)) - 1] = 0U;
 1483              		.loc 1 751 3 view .LVU583
 1484 0068 0CE0     		b	.L148
 1485              	.LVL205:
 1486              	.L149:
 752:Src/maze_solve.c ****   }
 1487              		.loc 1 752 5 is_stmt 1 discriminator 3 view .LVU584
 752:Src/maze_solve.c ****   }
 1488              		.loc 1 752 27 is_stmt 0 discriminator 3 view .LVU585
 1489 006a 8318     		adds	r3, r0, r2
 1490 006c 5B7A     		ldrb	r3, [r3, #9]	@ zero_extendqisi2
 752:Src/maze_solve.c ****   }
 1491              		.loc 1 752 49 discriminator 3 view .LVU586
 1492 006e 815C     		ldrb	r1, [r0, r2]	@ zero_extendqisi2
 752:Src/maze_solve.c ****   }
 1493              		.loc 1 752 54 discriminator 3 view .LVU587
 1494 0070 0139     		subs	r1, r1, #1
 752:Src/maze_solve.c ****   }
 1495              		.loc 1 752 36 discriminator 3 view .LVU588
 1496 0072 03EB4113 		add	r3, r3, r1, lsl #5
 752:Src/maze_solve.c ****   }
 1497              		.loc 1 752 16 discriminator 3 view .LVU589
 1498 0076 03F18043 		add	r3, r3, #1073741824
 1499 007a 013B     		subs	r3, r3, #1
 752:Src/maze_solve.c ****   }
 1500              		.loc 1 752 71 discriminator 3 view .LVU590
 1501 007c 0021     		movs	r1, #0
 1502 007e 44F82310 		str	r1, [r4, r3, lsl #2]
 751:Src/maze_solve.c ****     contour_map[(maze_goal[q0 + 9] + ((maze_goal[q0] - 1) << 5)) - 1] = 0U;
 1503              		.loc 1 751 25 is_stmt 1 discriminator 3 view .LVU591
 751:Src/maze_solve.c ****     contour_map[(maze_goal[q0 + 9] + ((maze_goal[q0] - 1) << 5)) - 1] = 0U;
 1504              		.loc 1 751 27 is_stmt 0 discriminator 3 view .LVU592
 1505 0082 0132     		adds	r2, r2, #1
 1506              	.LVL206:
 1507              	.L148:
 751:Src/maze_solve.c ****     contour_map[(maze_goal[q0 + 9] + ((maze_goal[q0] - 1) << 5)) - 1] = 0U;
 1508              		.loc 1 751 16 is_stmt 1 discriminator 1 view .LVU593
 751:Src/maze_solve.c ****     contour_map[(maze_goal[q0 + 9] + ((maze_goal[q0] - 1) << 5)) - 1] = 0U;
 1509              		.loc 1 751 3 is_stmt 0 discriminator 1 view .LVU594
 1510 0084 AA42     		cmp	r2, r5
 1511 0086 F0DB     		blt	.L149
 1512              	.LVL207:
 1513              	.L184:
 755:Src/maze_solve.c ****     change_flag = 0U;
 1514              		.loc 1 755 3 is_stmt 1 view .LVU595
 756:Src/maze_solve.c **** 
 1515              		.loc 1 756 5 view .LVU596
 759:Src/maze_solve.c ****     exitg1 = false;
 1516              		.loc 1 759 5 view .LVU597
 760:Src/maze_solve.c ****     while ((!exitg1) && (tempi <= (unsigned int)qY)) {
ARM GAS  C:\Temp\ccX6Vjzt.s 			page 58


 1517              		.loc 1 760 5 view .LVU598
 761:Src/maze_solve.c ****       /* 歩数カウントは0~max_length */
 1518              		.loc 1 761 5 view .LVU599
 760:Src/maze_solve.c ****     while ((!exitg1) && (tempi <= (unsigned int)qY)) {
 1519              		.loc 1 760 12 is_stmt 0 view .LVU600
 1520 0088 0023     		movs	r3, #0
 1521 008a 0193     		str	r3, [sp, #4]
 759:Src/maze_solve.c ****     exitg1 = false;
 1522              		.loc 1 759 11 view .LVU601
 1523 008c 1F46     		mov	r7, r3
 756:Src/maze_solve.c **** 
 1524              		.loc 1 756 17 view .LVU602
 1525 008e 0393     		str	r3, [sp, #12]
 761:Src/maze_solve.c ****       /* 歩数カウントは0~max_length */
 1526              		.loc 1 761 11 view .LVU603
 1527 0090 4CE1     		b	.L150
 1528              	.LVL208:
 1529              	.L151:
 778:Src/maze_solve.c ****         }
 1530              		.loc 1 778 11 is_stmt 1 view .LVU604
 778:Src/maze_solve.c ****         }
 1531              		.loc 1 778 13 is_stmt 0 view .LVU605
 1532 0092 0133     		adds	r3, r3, #1
 1533              	.LVL209:
 1534              	.L183:
 768:Src/maze_solve.c ****         if (contour_map[q0] == tempi) {
 1535              		.loc 1 768 13 is_stmt 1 view .LVU606
 1536 0094 A9B9     		cbnz	r1, .L153
 768:Src/maze_solve.c ****         if (contour_map[q0] == tempi) {
 1537              		.loc 1 768 24 is_stmt 0 discriminator 1 view .LVU607
 1538 0096 B3F5806F 		cmp	r3, #1024
 1539 009a 12DA     		bge	.L153
 769:Src/maze_solve.c ****           idx++;
 1540              		.loc 1 769 9 is_stmt 1 view .LVU608
 769:Src/maze_solve.c ****           idx++;
 1541              		.loc 1 769 24 is_stmt 0 view .LVU609
 1542 009c 54F82320 		ldr	r2, [r4, r3, lsl #2]
 769:Src/maze_solve.c ****           idx++;
 1543              		.loc 1 769 12 view .LVU610
 1544 00a0 BA42     		cmp	r2, r7
 1545 00a2 F6D1     		bne	.L151
 770:Src/maze_solve.c ****           ii_data[idx - 1] = (short)(q0 + 1);
 1546              		.loc 1 770 11 is_stmt 1 view .LVU611
 770:Src/maze_solve.c ****           ii_data[idx - 1] = (short)(q0 + 1);
 1547              		.loc 1 770 14 is_stmt 0 view .LVU612
 1548 00a4 0AF10100 		add	r0, r10, #1
 1549              	.LVL210:
 771:Src/maze_solve.c ****           if (idx >= 1024) {
 1550              		.loc 1 771 11 is_stmt 1 view .LVU613
 771:Src/maze_solve.c ****           if (idx >= 1024) {
 1551              		.loc 1 771 41 is_stmt 0 view .LVU614
 1552 00a8 5A1C     		adds	r2, r3, #1
 771:Src/maze_solve.c ****           if (idx >= 1024) {
 1553              		.loc 1 771 28 view .LVU615
 1554 00aa A94D     		ldr	r5, .L214
 1555 00ac 25F81A20 		strh	r2, [r5, r10, lsl #1]	@ movhi
 772:Src/maze_solve.c ****             exitg2 = true;
ARM GAS  C:\Temp\ccX6Vjzt.s 			page 59


 1556              		.loc 1 772 11 is_stmt 1 view .LVU616
 772:Src/maze_solve.c ****             exitg2 = true;
 1557              		.loc 1 772 14 is_stmt 0 view .LVU617
 1558 00b0 B0F5806F 		cmp	r0, #1024
 1559 00b4 02DA     		bge	.L189
 775:Src/maze_solve.c ****           }
 1560              		.loc 1 775 13 is_stmt 1 view .LVU618
 775:Src/maze_solve.c ****           }
 1561              		.loc 1 775 15 is_stmt 0 view .LVU619
 1562 00b6 1346     		mov	r3, r2
 1563              	.LVL211:
 770:Src/maze_solve.c ****           ii_data[idx - 1] = (short)(q0 + 1);
 1564              		.loc 1 770 14 view .LVU620
 1565 00b8 8246     		mov	r10, r0
 1566 00ba EBE7     		b	.L183
 1567              	.LVL212:
 1568              	.L189:
 770:Src/maze_solve.c ****           ii_data[idx - 1] = (short)(q0 + 1);
 1569              		.loc 1 770 14 view .LVU621
 1570 00bc 8246     		mov	r10, r0
 773:Src/maze_solve.c ****           } else {
 1571              		.loc 1 773 20 view .LVU622
 1572 00be 0121     		movs	r1, #1
 1573              	.LVL213:
 773:Src/maze_solve.c ****           } else {
 1574              		.loc 1 773 20 view .LVU623
 1575 00c0 E8E7     		b	.L183
 1576              	.LVL214:
 1577              	.L153:
 782:Src/maze_solve.c ****         loop_ub = 0;
 1578              		.loc 1 782 7 is_stmt 1 view .LVU624
 782:Src/maze_solve.c ****         loop_ub = 0;
 1579              		.loc 1 782 10 is_stmt 0 view .LVU625
 1580 00c2 BAF1000F 		cmp	r10, #0
 1581 00c6 06DD     		ble	.L204
 1582              	.LVL215:
 1583              	.L155:
 790:Src/maze_solve.c ****       for (i2 = 0; i2 < loop_ub; i2++) {
 1584              		.loc 1 790 7 is_stmt 1 view .LVU626
 790:Src/maze_solve.c ****       for (i2 = 0; i2 < loop_ub; i2++) {
 1585              		.loc 1 790 24 is_stmt 0 view .LVU627
 1586 00c8 0DF58053 		add	r3, sp, #4096
 1587 00cc 1C33     		adds	r3, r3, #28
 1588 00ce C3F800A0 		str	r10, [r3]
 791:Src/maze_solve.c ****         num_temp_data[i2] = (unsigned short)ii_data[i2];
 1589              		.loc 1 791 7 is_stmt 1 view .LVU628
 1590              	.LVL216:
 791:Src/maze_solve.c ****         num_temp_data[i2] = (unsigned short)ii_data[i2];
 1591              		.loc 1 791 15 is_stmt 0 view .LVU629
 1592 00d2 0023     		movs	r3, #0
 791:Src/maze_solve.c ****         num_temp_data[i2] = (unsigned short)ii_data[i2];
 1593              		.loc 1 791 7 view .LVU630
 1594 00d4 09E0     		b	.L156
 1595              	.LVL217:
 1596              	.L204:
 784:Src/maze_solve.c ****       } else {
 1597              		.loc 1 784 12 view .LVU631
ARM GAS  C:\Temp\ccX6Vjzt.s 			page 60


 1598 00d6 4FF0000A 		mov	r10, #0
 1599              	.LVL218:
 784:Src/maze_solve.c ****       } else {
 1600              		.loc 1 784 12 view .LVU632
 1601 00da F5E7     		b	.L155
 1602              	.LVL219:
 1603              	.L157:
 792:Src/maze_solve.c ****       }
 1604              		.loc 1 792 9 is_stmt 1 discriminator 3 view .LVU633
 792:Src/maze_solve.c ****       }
 1605              		.loc 1 792 52 is_stmt 0 discriminator 3 view .LVU634
 1606 00dc 9C4A     		ldr	r2, .L214
 1607 00de 32F91310 		ldrsh	r1, [r2, r3, lsl #1]
 792:Src/maze_solve.c ****       }
 1608              		.loc 1 792 27 discriminator 3 view .LVU635
 1609 00e2 9C4A     		ldr	r2, .L214+4
 1610 00e4 22F81310 		strh	r1, [r2, r3, lsl #1]	@ movhi
 791:Src/maze_solve.c ****         num_temp_data[i2] = (unsigned short)ii_data[i2];
 1611              		.loc 1 791 34 is_stmt 1 discriminator 3 view .LVU636
 791:Src/maze_solve.c ****         num_temp_data[i2] = (unsigned short)ii_data[i2];
 1612              		.loc 1 791 36 is_stmt 0 discriminator 3 view .LVU637
 1613 00e8 0133     		adds	r3, r3, #1
 1614              	.LVL220:
 1615              	.L156:
 791:Src/maze_solve.c ****         num_temp_data[i2] = (unsigned short)ii_data[i2];
 1616              		.loc 1 791 20 is_stmt 1 discriminator 1 view .LVU638
 791:Src/maze_solve.c ****         num_temp_data[i2] = (unsigned short)ii_data[i2];
 1617              		.loc 1 791 7 is_stmt 0 discriminator 1 view .LVU639
 1618 00ea 9A45     		cmp	r10, r3
 1619 00ec F6DC     		bgt	.L157
 796:Src/maze_solve.c ****       for (i2 = 0; i2 < q0; i2++) {
 1620              		.loc 1 796 7 is_stmt 1 view .LVU640
 796:Src/maze_solve.c ****       for (i2 = 0; i2 < q0; i2++) {
 1621              		.loc 1 796 26 is_stmt 0 view .LVU641
 1622 00ee 0DF58053 		add	r3, sp, #4096
 1623              	.LVL221:
 796:Src/maze_solve.c ****       for (i2 = 0; i2 < q0; i2++) {
 1624              		.loc 1 796 26 view .LVU642
 1625 00f2 1833     		adds	r3, r3, #24
 1626 00f4 C3F800A0 		str	r10, [r3]
 797:Src/maze_solve.c ****         b_num_temp_data[i2] = (unsigned short)(num_temp_data[i2] - 1U);
 1627              		.loc 1 797 7 is_stmt 1 view .LVU643
 1628              	.LVL222:
 797:Src/maze_solve.c ****         b_num_temp_data[i2] = (unsigned short)(num_temp_data[i2] - 1U);
 1629              		.loc 1 797 15 is_stmt 0 view .LVU644
 1630 00f8 0023     		movs	r3, #0
 1631              	.LVL223:
 1632              	.L158:
 797:Src/maze_solve.c ****         b_num_temp_data[i2] = (unsigned short)(num_temp_data[i2] - 1U);
 1633              		.loc 1 797 20 is_stmt 1 discriminator 1 view .LVU645
 797:Src/maze_solve.c ****         b_num_temp_data[i2] = (unsigned short)(num_temp_data[i2] - 1U);
 1634              		.loc 1 797 7 is_stmt 0 discriminator 1 view .LVU646
 1635 00fa 9A45     		cmp	r10, r3
 1636 00fc 08DD     		ble	.L205
 798:Src/maze_solve.c ****       }
 1637              		.loc 1 798 9 is_stmt 1 discriminator 3 view .LVU647
 798:Src/maze_solve.c ****       }
ARM GAS  C:\Temp\ccX6Vjzt.s 			page 61


 1638              		.loc 1 798 61 is_stmt 0 discriminator 3 view .LVU648
 1639 00fe 954A     		ldr	r2, .L214+4
 1640 0100 32F81320 		ldrh	r2, [r2, r3, lsl #1]
 798:Src/maze_solve.c ****       }
 1641              		.loc 1 798 31 discriminator 3 view .LVU649
 1642 0104 013A     		subs	r2, r2, #1
 798:Src/maze_solve.c ****       }
 1643              		.loc 1 798 29 discriminator 3 view .LVU650
 1644 0106 9449     		ldr	r1, .L214+8
 1645 0108 21F81320 		strh	r2, [r1, r3, lsl #1]	@ movhi
 797:Src/maze_solve.c ****         b_num_temp_data[i2] = (unsigned short)(num_temp_data[i2] - 1U);
 1646              		.loc 1 797 29 is_stmt 1 discriminator 3 view .LVU651
 797:Src/maze_solve.c ****         b_num_temp_data[i2] = (unsigned short)(num_temp_data[i2] - 1U);
 1647              		.loc 1 797 31 is_stmt 0 discriminator 3 view .LVU652
 1648 010c 0133     		adds	r3, r3, #1
 1649              	.LVL224:
 797:Src/maze_solve.c ****         b_num_temp_data[i2] = (unsigned short)(num_temp_data[i2] - 1U);
 1650              		.loc 1 797 31 discriminator 3 view .LVU653
 1651 010e F4E7     		b	.L158
 1652              	.L205:
 801:Src/maze_solve.c ****       idx = tmp_size[0];
 1653              		.loc 1 801 7 is_stmt 1 view .LVU654
 1654 0110 0DF61403 		addw	r3, sp, #2068
 1655              	.LVL225:
 801:Src/maze_solve.c ****       idx = tmp_size[0];
 1656              		.loc 1 801 7 is_stmt 0 view .LVU655
 1657 0114 0DF61802 		addw	r2, sp, #2072
 1658 0118 0DF58051 		add	r1, sp, #4096
 1659 011c 1831     		adds	r1, r1, #24
 1660 011e 8E48     		ldr	r0, .L214+8
 1661 0120 FFF7FEFF 		bl	b_rem
 1662              	.LVL226:
 802:Src/maze_solve.c ****       loop_ub = tmp_size[0];
 1663              		.loc 1 802 7 is_stmt 1 view .LVU656
 802:Src/maze_solve.c ****       loop_ub = tmp_size[0];
 1664              		.loc 1 802 11 is_stmt 0 view .LVU657
 1665 0124 DDF81458 		ldr	r5, [sp, #2068]
 1666              	.LVL227:
 803:Src/maze_solve.c ****       for (i2 = 0; i2 < loop_ub; i2++) {
 1667              		.loc 1 803 7 is_stmt 1 view .LVU658
 804:Src/maze_solve.c ****         b_qY = tmp_data[i2] + 1U;
 1668              		.loc 1 804 7 view .LVU659
 804:Src/maze_solve.c ****         b_qY = tmp_data[i2] + 1U;
 1669              		.loc 1 804 15 is_stmt 0 view .LVU660
 1670 0128 0022     		movs	r2, #0
 804:Src/maze_solve.c ****         b_qY = tmp_data[i2] + 1U;
 1671              		.loc 1 804 7 view .LVU661
 1672 012a 03E0     		b	.L160
 1673              	.LVL228:
 1674              	.L162:
 815:Src/maze_solve.c ****       }
 1675              		.loc 1 815 9 is_stmt 1 discriminator 2 view .LVU662
 815:Src/maze_solve.c ****       }
 1676              		.loc 1 815 22 is_stmt 0 discriminator 2 view .LVU663
 1677 012c 0DF21441 		addw	r1, sp, #1044
 1678 0130 8B54     		strb	r3, [r1, r2]
 804:Src/maze_solve.c ****         b_qY = tmp_data[i2] + 1U;
ARM GAS  C:\Temp\ccX6Vjzt.s 			page 62


 1679              		.loc 1 804 34 is_stmt 1 discriminator 2 view .LVU664
 804:Src/maze_solve.c ****         b_qY = tmp_data[i2] + 1U;
 1680              		.loc 1 804 36 is_stmt 0 discriminator 2 view .LVU665
 1681 0132 0132     		adds	r2, r2, #1
 1682              	.LVL229:
 1683              	.L160:
 804:Src/maze_solve.c ****         b_qY = tmp_data[i2] + 1U;
 1684              		.loc 1 804 20 is_stmt 1 discriminator 1 view .LVU666
 804:Src/maze_solve.c ****         b_qY = tmp_data[i2] + 1U;
 1685              		.loc 1 804 7 is_stmt 0 discriminator 1 view .LVU667
 1686 0134 AA42     		cmp	r2, r5
 1687 0136 0EDA     		bge	.L206
 805:Src/maze_solve.c ****         if (b_qY > 65535U) {
 1688              		.loc 1 805 9 is_stmt 1 view .LVU668
 805:Src/maze_solve.c ****         if (b_qY > 65535U) {
 1689              		.loc 1 805 24 is_stmt 0 view .LVU669
 1690 0138 0DF61803 		addw	r3, sp, #2072
 1691 013c 33F81230 		ldrh	r3, [r3, r2, lsl #1]
 805:Src/maze_solve.c ****         if (b_qY > 65535U) {
 1692              		.loc 1 805 14 view .LVU670
 1693 0140 0133     		adds	r3, r3, #1
 1694              	.LVL230:
 806:Src/maze_solve.c ****           b_qY = 65535U;
 1695              		.loc 1 806 9 is_stmt 1 view .LVU671
 806:Src/maze_solve.c ****           b_qY = 65535U;
 1696              		.loc 1 806 12 is_stmt 0 view .LVU672
 1697 0142 B3F5803F 		cmp	r3, #65536
 1698 0146 01D3     		bcc	.L161
 807:Src/maze_solve.c ****         }
 1699              		.loc 1 807 16 view .LVU673
 1700 0148 4FF6FF73 		movw	r3, #65535
 1701              	.LVL231:
 1702              	.L161:
 810:Src/maze_solve.c ****         if ((unsigned short)b_qY > 255) {
 1703              		.loc 1 810 9 is_stmt 1 view .LVU674
 810:Src/maze_solve.c ****         if ((unsigned short)b_qY > 255) {
 1704              		.loc 1 810 12 is_stmt 0 view .LVU675
 1705 014c 9BB2     		uxth	r3, r3
 1706              	.LVL232:
 811:Src/maze_solve.c ****           u0 = 255U;
 1707              		.loc 1 811 9 is_stmt 1 view .LVU676
 811:Src/maze_solve.c ****           u0 = 255U;
 1708              		.loc 1 811 12 is_stmt 0 view .LVU677
 1709 014e FF2B     		cmp	r3, #255
 1710 0150 ECD9     		bls	.L162
 812:Src/maze_solve.c ****         }
 1711              		.loc 1 812 14 view .LVU678
 1712 0152 FF23     		movs	r3, #255
 1713              	.LVL233:
 812:Src/maze_solve.c ****         }
 1714              		.loc 1 812 14 view .LVU679
 1715 0154 EAE7     		b	.L162
 1716              	.L206:
 819:Src/maze_solve.c ****         num_temp_data[i2]--;
 1717              		.loc 1 819 15 view .LVU680
 1718 0156 0023     		movs	r3, #0
 1719              	.LVL234:
ARM GAS  C:\Temp\ccX6Vjzt.s 			page 63


 1720              	.L164:
 819:Src/maze_solve.c ****         num_temp_data[i2]--;
 1721              		.loc 1 819 20 is_stmt 1 discriminator 1 view .LVU681
 819:Src/maze_solve.c ****         num_temp_data[i2]--;
 1722              		.loc 1 819 7 is_stmt 0 discriminator 1 view .LVU682
 1723 0158 9A45     		cmp	r10, r3
 1724 015a 07DD     		ble	.L207
 820:Src/maze_solve.c ****       }
 1725              		.loc 1 820 9 is_stmt 1 discriminator 3 view .LVU683
 820:Src/maze_solve.c ****       }
 1726              		.loc 1 820 22 is_stmt 0 discriminator 3 view .LVU684
 1727 015c 7D49     		ldr	r1, .L214+4
 1728 015e 31F81320 		ldrh	r2, [r1, r3, lsl #1]
 820:Src/maze_solve.c ****       }
 1729              		.loc 1 820 26 discriminator 3 view .LVU685
 1730 0162 013A     		subs	r2, r2, #1
 1731 0164 21F81320 		strh	r2, [r1, r3, lsl #1]	@ movhi
 819:Src/maze_solve.c ****         num_temp_data[i2]--;
 1732              		.loc 1 819 29 is_stmt 1 discriminator 3 view .LVU686
 819:Src/maze_solve.c ****         num_temp_data[i2]--;
 1733              		.loc 1 819 31 is_stmt 0 discriminator 3 view .LVU687
 1734 0168 0133     		adds	r3, r3, #1
 1735              	.LVL235:
 819:Src/maze_solve.c ****         num_temp_data[i2]--;
 1736              		.loc 1 819 31 discriminator 3 view .LVU688
 1737 016a F5E7     		b	.L164
 1738              	.L207:
 823:Src/maze_solve.c ****       loop_ub = tmp_size[0];
 1739              		.loc 1 823 7 is_stmt 1 view .LVU689
 1740 016c 0DF61403 		addw	r3, sp, #2068
 1741              	.LVL236:
 823:Src/maze_solve.c ****       loop_ub = tmp_size[0];
 1742              		.loc 1 823 7 is_stmt 0 view .LVU690
 1743 0170 0DF61802 		addw	r2, sp, #2072
 1744 0174 0DF58051 		add	r1, sp, #4096
 1745 0178 1C31     		adds	r1, r1, #28
 1746 017a 7648     		ldr	r0, .L214+4
 1747 017c FFF7FEFF 		bl	idivide
 1748              	.LVL237:
 824:Src/maze_solve.c ****       for (i2 = 0; i2 < loop_ub; i2++) {
 1749              		.loc 1 824 7 is_stmt 1 view .LVU691
 824:Src/maze_solve.c ****       for (i2 = 0; i2 < loop_ub; i2++) {
 1750              		.loc 1 824 15 is_stmt 0 view .LVU692
 1751 0180 DDF81408 		ldr	r0, [sp, #2068]
 1752              	.LVL238:
 825:Src/maze_solve.c ****         b_qY = tmp_data[i2] + 1U;
 1753              		.loc 1 825 7 is_stmt 1 view .LVU693
 825:Src/maze_solve.c ****         b_qY = tmp_data[i2] + 1U;
 1754              		.loc 1 825 15 is_stmt 0 view .LVU694
 1755 0184 0022     		movs	r2, #0
 825:Src/maze_solve.c ****         b_qY = tmp_data[i2] + 1U;
 1756              		.loc 1 825 7 view .LVU695
 1757 0186 02E0     		b	.L166
 1758              	.LVL239:
 1759              	.L168:
 836:Src/maze_solve.c ****       }
 1760              		.loc 1 836 9 is_stmt 1 discriminator 2 view .LVU696
ARM GAS  C:\Temp\ccX6Vjzt.s 			page 64


 836:Src/maze_solve.c ****       }
 1761              		.loc 1 836 22 is_stmt 0 discriminator 2 view .LVU697
 1762 0188 05A9     		add	r1, sp, #20
 1763 018a 8B54     		strb	r3, [r1, r2]
 825:Src/maze_solve.c ****         b_qY = tmp_data[i2] + 1U;
 1764              		.loc 1 825 34 is_stmt 1 discriminator 2 view .LVU698
 825:Src/maze_solve.c ****         b_qY = tmp_data[i2] + 1U;
 1765              		.loc 1 825 36 is_stmt 0 discriminator 2 view .LVU699
 1766 018c 0132     		adds	r2, r2, #1
 1767              	.LVL240:
 1768              	.L166:
 825:Src/maze_solve.c ****         b_qY = tmp_data[i2] + 1U;
 1769              		.loc 1 825 20 is_stmt 1 discriminator 1 view .LVU700
 825:Src/maze_solve.c ****         b_qY = tmp_data[i2] + 1U;
 1770              		.loc 1 825 7 is_stmt 0 discriminator 1 view .LVU701
 1771 018e 8242     		cmp	r2, r0
 1772 0190 0EDA     		bge	.L208
 826:Src/maze_solve.c ****         if (b_qY > 65535U) {
 1773              		.loc 1 826 9 is_stmt 1 view .LVU702
 826:Src/maze_solve.c ****         if (b_qY > 65535U) {
 1774              		.loc 1 826 24 is_stmt 0 view .LVU703
 1775 0192 0DF61803 		addw	r3, sp, #2072
 1776 0196 33F81230 		ldrh	r3, [r3, r2, lsl #1]
 826:Src/maze_solve.c ****         if (b_qY > 65535U) {
 1777              		.loc 1 826 14 view .LVU704
 1778 019a 0133     		adds	r3, r3, #1
 1779              	.LVL241:
 827:Src/maze_solve.c ****           b_qY = 65535U;
 1780              		.loc 1 827 9 is_stmt 1 view .LVU705
 827:Src/maze_solve.c ****           b_qY = 65535U;
 1781              		.loc 1 827 12 is_stmt 0 view .LVU706
 1782 019c B3F5803F 		cmp	r3, #65536
 1783 01a0 01D3     		bcc	.L167
 828:Src/maze_solve.c ****         }
 1784              		.loc 1 828 16 view .LVU707
 1785 01a2 4FF6FF73 		movw	r3, #65535
 1786              	.LVL242:
 1787              	.L167:
 831:Src/maze_solve.c ****         if ((unsigned short)b_qY > 255) {
 1788              		.loc 1 831 9 is_stmt 1 view .LVU708
 831:Src/maze_solve.c ****         if ((unsigned short)b_qY > 255) {
 1789              		.loc 1 831 12 is_stmt 0 view .LVU709
 1790 01a6 9BB2     		uxth	r3, r3
 1791              	.LVL243:
 832:Src/maze_solve.c ****           u0 = 255U;
 1792              		.loc 1 832 9 is_stmt 1 view .LVU710
 832:Src/maze_solve.c ****           u0 = 255U;
 1793              		.loc 1 832 12 is_stmt 0 view .LVU711
 1794 01a8 FF2B     		cmp	r3, #255
 1795 01aa EDD9     		bls	.L168
 833:Src/maze_solve.c ****         }
 1796              		.loc 1 833 14 view .LVU712
 1797 01ac FF23     		movs	r3, #255
 1798              	.LVL244:
 833:Src/maze_solve.c ****         }
 1799              		.loc 1 833 14 view .LVU713
 1800 01ae EBE7     		b	.L168
ARM GAS  C:\Temp\ccX6Vjzt.s 			page 65


 1801              	.L208:
 841:Src/maze_solve.c ****         idx = 0;
 1802              		.loc 1 841 7 is_stmt 1 view .LVU714
 841:Src/maze_solve.c ****         idx = 0;
 1803              		.loc 1 841 10 is_stmt 0 view .LVU715
 1804 01b0 002D     		cmp	r5, #0
 1805 01b2 C0F2B980 		blt	.L194
 844:Src/maze_solve.c ****           idx = 1023;
 1806              		.loc 1 844 9 is_stmt 1 view .LVU716
 844:Src/maze_solve.c ****           idx = 1023;
 1807              		.loc 1 844 12 is_stmt 0 view .LVU717
 1808 01b6 B5F5806F 		cmp	r5, #1024
 1809 01ba 80F2AD80 		bge	.L195
 850:Src/maze_solve.c ****         exitg1 = true;
 1810              		.loc 1 850 7 is_stmt 1 view .LVU718
 850:Src/maze_solve.c ****         exitg1 = true;
 1811              		.loc 1 850 10 is_stmt 0 view .LVU719
 1812 01be 002D     		cmp	r5, #0
 1813 01c0 40F0AC80 		bne	.L171
 851:Src/maze_solve.c ****       } else {
 1814              		.loc 1 851 16 view .LVU720
 1815 01c4 0123     		movs	r3, #1
 1816 01c6 0193     		str	r3, [sp, #4]
 1817              	.LVL245:
 851:Src/maze_solve.c ****       } else {
 1818              		.loc 1 851 16 view .LVU721
 1819 01c8 B0E0     		b	.L150
 1820              	.LVL246:
 1821              	.L197:
 864:Src/maze_solve.c ****           }
 1822              		.loc 1 864 17 view .LVU722
 1823 01ca 4FF0000E 		mov	lr, #0
 1824              	.L172:
 1825              	.LVL247:
 867:Src/maze_solve.c ****             /* 北側のMAPが更新されているか判断、されていなければ書き込み
 1826              		.loc 1 867 11 is_stmt 1 view .LVU723
 867:Src/maze_solve.c ****             /* 北側のMAPが更新されているか判断、されていなければ書き込み
 1827              		.loc 1 867 19 is_stmt 0 view .LVU724
 1828 01ce 0EEA010E 		and	lr, lr, r1
 1829              	.LVL248:
 867:Src/maze_solve.c ****             /* 北側のMAPが更新されているか判断、されていなければ書き込み
 1830              		.loc 1 867 43 view .LVU725
 1831 01d2 98F800B0 		ldrb	fp, [r8]	@ zero_extendqisi2
 1832              	.LVL249:
 867:Src/maze_solve.c ****             /* 北側のMAPが更新されているか判断、されていなければ書き込み
 1833              		.loc 1 867 14 view .LVU726
 1834 01d6 DE45     		cmp	lr, fp
 1835 01d8 0BD0     		beq	.L209
 1836              	.LVL250:
 1837              	.L173:
 881:Src/maze_solve.c ****           if (k <= 7) {
 1838              		.loc 1 881 11 is_stmt 1 view .LVU727
 881:Src/maze_solve.c ****           if (k <= 7) {
 1839              		.loc 1 881 13 is_stmt 0 view .LVU728
 1840 01da 99F801A0 		ldrb	r10, [r9, #1]	@ zero_extendqisi2
 1841              	.LVL251:
 882:Src/maze_solve.c ****             c_k = (unsigned char)(1 << k);
ARM GAS  C:\Temp\ccX6Vjzt.s 			page 66


 1842              		.loc 1 882 11 is_stmt 1 view .LVU729
 882:Src/maze_solve.c ****             c_k = (unsigned char)(1 << k);
 1843              		.loc 1 882 14 is_stmt 0 view .LVU730
 1844 01de BAF1070F 		cmp	r10, #7
 1845 01e2 19D8     		bhi	.L198
 883:Src/maze_solve.c ****           } else {
 1846              		.loc 1 883 13 is_stmt 1 view .LVU731
 883:Src/maze_solve.c ****           } else {
 1847              		.loc 1 883 37 is_stmt 0 view .LVU732
 1848 01e4 4FF0010E 		mov	lr, #1
 1849 01e8 0EFA0AFE 		lsl	lr, lr, r10
 1850 01ec 5FFA8EFE 		uxtb	lr, lr
 1851              	.LVL252:
 883:Src/maze_solve.c ****           } else {
 1852              		.loc 1 883 37 view .LVU733
 1853 01f0 14E0     		b	.L174
 1854              	.LVL253:
 1855              	.L209:
 869:Src/maze_solve.c ****             i5 = i4;
 1856              		.loc 1 869 13 is_stmt 1 view .LVU734
 869:Src/maze_solve.c ****             i5 = i4;
 1857              		.loc 1 869 37 is_stmt 0 view .LVU735
 1858 01f2 00F1010E 		add	lr, r0, #1
 1859              	.LVL254:
 870:Src/maze_solve.c **** 
 1860              		.loc 1 870 13 is_stmt 1 view .LVU736
 872:Src/maze_solve.c **** 
 1861              		.loc 1 872 13 view .LVU737
 872:Src/maze_solve.c **** 
 1862              		.loc 1 872 33 is_stmt 0 view .LVU738
 1863 01f6 F244     		add	r10, r10, lr
 1864              	.LVL255:
 872:Src/maze_solve.c **** 
 1865              		.loc 1 872 28 view .LVU739
 1866 01f8 0AF1804A 		add	r10, r10, #1073741824
 1867 01fc 0AF1FF3A 		add	r10, r10, #-1
 872:Src/maze_solve.c **** 
 1868              		.loc 1 872 16 view .LVU740
 1869 0200 54F82A70 		ldr	r7, [r4, r10, lsl #2]
 1870 0204 B742     		cmp	r7, r6
 1871 0206 E8D1     		bne	.L173
 874:Src/maze_solve.c ****               change_flag = 1U;
 1872              		.loc 1 874 15 is_stmt 1 view .LVU741
 874:Src/maze_solve.c ****               change_flag = 1U;
 1873              		.loc 1 874 45 is_stmt 0 view .LVU742
 1874 0208 029F     		ldr	r7, [sp, #8]
 1875 020a 07F1010E 		add	lr, r7, #1
 1876              	.LVL256:
 874:Src/maze_solve.c ****               change_flag = 1U;
 1877              		.loc 1 874 43 view .LVU743
 1878 020e 44F82AE0 		str	lr, [r4, r10, lsl #2]
 1879              	.LVL257:
 875:Src/maze_solve.c **** 
 1880              		.loc 1 875 15 is_stmt 1 view .LVU744
 875:Src/maze_solve.c **** 
 1881              		.loc 1 875 27 is_stmt 0 view .LVU745
 1882 0212 0127     		movs	r7, #1
ARM GAS  C:\Temp\ccX6Vjzt.s 			page 67


 1883 0214 0397     		str	r7, [sp, #12]
 1884 0216 E0E7     		b	.L173
 1885              	.LVL258:
 1886              	.L198:
 885:Src/maze_solve.c ****           }
 1887              		.loc 1 885 17 view .LVU746
 1888 0218 4FF0000E 		mov	lr, #0
 1889              	.L174:
 1890              	.LVL259:
 888:Src/maze_solve.c ****             /* 東側のMAPが更新されているか判断、されていなければ書き込み
 1891              		.loc 1 888 11 is_stmt 1 view .LVU747
 888:Src/maze_solve.c ****             /* 東側のMAPが更新されているか判断、されていなければ書き込み
 1892              		.loc 1 888 19 is_stmt 0 view .LVU748
 1893 021c 0EEA010E 		and	lr, lr, r1
 1894              	.LVL260:
 888:Src/maze_solve.c ****             /* 東側のMAPが更新されているか判断、されていなければ書き込み
 1895              		.loc 1 888 43 view .LVU749
 1896 0220 98F800A0 		ldrb	r10, [r8]	@ zero_extendqisi2
 1897              	.LVL261:
 888:Src/maze_solve.c ****             /* 東側のMAPが更新されているか判断、されていなければ書き込み
 1898              		.loc 1 888 14 view .LVU750
 1899 0224 D645     		cmp	lr, r10
 1900 0226 0BD0     		beq	.L210
 1901              	.LVL262:
 1902              	.L175:
 902:Src/maze_solve.c ****           if (k <= 7) {
 1903              		.loc 1 902 11 is_stmt 1 view .LVU751
 902:Src/maze_solve.c ****           if (k <= 7) {
 1904              		.loc 1 902 13 is_stmt 0 view .LVU752
 1905 0228 99F802A0 		ldrb	r10, [r9, #2]	@ zero_extendqisi2
 1906              	.LVL263:
 903:Src/maze_solve.c ****             d_k = (unsigned char)(1 << k);
 1907              		.loc 1 903 11 is_stmt 1 view .LVU753
 903:Src/maze_solve.c ****             d_k = (unsigned char)(1 << k);
 1908              		.loc 1 903 14 is_stmt 0 view .LVU754
 1909 022c BAF1070F 		cmp	r10, #7
 1910 0230 1AD8     		bhi	.L199
 904:Src/maze_solve.c ****           } else {
 1911              		.loc 1 904 13 is_stmt 1 view .LVU755
 904:Src/maze_solve.c ****           } else {
 1912              		.loc 1 904 37 is_stmt 0 view .LVU756
 1913 0232 4FF0010E 		mov	lr, #1
 1914 0236 0EFA0AFE 		lsl	lr, lr, r10
 1915 023a 5FFA8EFE 		uxtb	lr, lr
 1916              	.LVL264:
 904:Src/maze_solve.c ****           } else {
 1917              		.loc 1 904 37 view .LVU757
 1918 023e 15E0     		b	.L176
 1919              	.LVL265:
 1920              	.L210:
 890:Src/maze_solve.c ****             i4 = idx;
 1921              		.loc 1 890 13 is_stmt 1 view .LVU758
 891:Src/maze_solve.c **** 
 1922              		.loc 1 891 13 view .LVU759
 893:Src/maze_solve.c ****               {
 1923              		.loc 1 893 13 view .LVU760
 893:Src/maze_solve.c ****               {
ARM GAS  C:\Temp\ccX6Vjzt.s 			page 68


 1924              		.loc 1 893 43 is_stmt 0 view .LVU761
 1925 0240 00EB4C1E 		add	lr, r0, ip, lsl #5
 893:Src/maze_solve.c ****               {
 1926              		.loc 1 893 28 view .LVU762
 1927 0244 0EF1804E 		add	lr, lr, #1073741824
 1928 0248 0EF1FF3E 		add	lr, lr, #-1
 893:Src/maze_solve.c ****               {
 1929              		.loc 1 893 16 view .LVU763
 1930 024c 54F82E70 		ldr	r7, [r4, lr, lsl #2]
 1931 0250 B742     		cmp	r7, r6
 1932 0252 E9D1     		bne	.L175
 895:Src/maze_solve.c ****                 char)(tempi + 1);
 1933              		.loc 1 895 15 is_stmt 1 view .LVU764
 895:Src/maze_solve.c ****                 char)(tempi + 1);
 1934              		.loc 1 895 68 is_stmt 0 view .LVU765
 1935 0254 029F     		ldr	r7, [sp, #8]
 1936 0256 07F1010A 		add	r10, r7, #1
 1937 025a 5FFA8AFA 		uxtb	r10, r10
 895:Src/maze_solve.c ****                 char)(tempi + 1);
 1938              		.loc 1 895 66 view .LVU766
 1939 025e 44F82EA0 		str	r10, [r4, lr, lsl #2]
 1940              	.LVL266:
 897:Src/maze_solve.c ****             }
 1941              		.loc 1 897 15 is_stmt 1 view .LVU767
 897:Src/maze_solve.c ****             }
 1942              		.loc 1 897 27 is_stmt 0 view .LVU768
 1943 0262 0127     		movs	r7, #1
 1944 0264 0397     		str	r7, [sp, #12]
 1945 0266 DFE7     		b	.L175
 1946              	.LVL267:
 1947              	.L199:
 906:Src/maze_solve.c ****           }
 1948              		.loc 1 906 17 view .LVU769
 1949 0268 4FF0000E 		mov	lr, #0
 1950              	.L176:
 1951              	.LVL268:
 909:Src/maze_solve.c ****             /* 南側のMAPが更新されているか判断、されていなければ書き込み
 1952              		.loc 1 909 11 is_stmt 1 view .LVU770
 909:Src/maze_solve.c ****             /* 南側のMAPが更新されているか判断、されていなければ書き込み
 1953              		.loc 1 909 19 is_stmt 0 view .LVU771
 1954 026c 0EEA010E 		and	lr, lr, r1
 1955              	.LVL269:
 909:Src/maze_solve.c ****             /* 南側のMAPが更新されているか判断、されていなければ書き込み
 1956              		.loc 1 909 43 view .LVU772
 1957 0270 98F800A0 		ldrb	r10, [r8]	@ zero_extendqisi2
 1958              	.LVL270:
 909:Src/maze_solve.c ****             /* 南側のMAPが更新されているか判断、されていなければ書き込み
 1959              		.loc 1 909 14 view .LVU773
 1960 0274 D645     		cmp	lr, r10
 1961 0276 09D0     		beq	.L211
 1962              	.LVL271:
 1963              	.L177:
 919:Src/maze_solve.c ****           if (k <= 7) {
 1964              		.loc 1 919 11 is_stmt 1 view .LVU774
 919:Src/maze_solve.c ****           if (k <= 7) {
 1965              		.loc 1 919 13 is_stmt 0 view .LVU775
 1966 0278 99F803E0 		ldrb	lr, [r9, #3]	@ zero_extendqisi2
ARM GAS  C:\Temp\ccX6Vjzt.s 			page 69


 1967              	.LVL272:
 920:Src/maze_solve.c ****             e_k = (unsigned char)(1 << k);
 1968              		.loc 1 920 11 is_stmt 1 view .LVU776
 920:Src/maze_solve.c ****             e_k = (unsigned char)(1 << k);
 1969              		.loc 1 920 14 is_stmt 0 view .LVU777
 1970 027c BEF1070F 		cmp	lr, #7
 1971 0280 11D8     		bhi	.L200
 921:Src/maze_solve.c ****           } else {
 1972              		.loc 1 921 13 is_stmt 1 view .LVU778
 921:Src/maze_solve.c ****           } else {
 1973              		.loc 1 921 37 is_stmt 0 view .LVU779
 1974 0282 0123     		movs	r3, #1
 1975 0284 03FA0EF3 		lsl	r3, r3, lr
 1976 0288 DBB2     		uxtb	r3, r3
 1977              	.LVL273:
 921:Src/maze_solve.c ****           } else {
 1978              		.loc 1 921 37 view .LVU780
 1979 028a 0DE0     		b	.L178
 1980              	.LVL274:
 1981              	.L211:
 911:Src/maze_solve.c ****             if (contour_map[idx] == (unsigned int)qY) {
 1982              		.loc 1 911 13 is_stmt 1 view .LVU781
 911:Src/maze_solve.c ****             if (contour_map[idx] == (unsigned int)qY) {
 1983              		.loc 1 911 17 is_stmt 0 view .LVU782
 1984 028c 023B     		subs	r3, r3, #2
 1985              	.LVL275:
 912:Src/maze_solve.c ****               contour_map[idx] = (unsigned int)(tempi + 1);
 1986              		.loc 1 912 13 is_stmt 1 view .LVU783
 912:Src/maze_solve.c ****               contour_map[idx] = (unsigned int)(tempi + 1);
 1987              		.loc 1 912 16 is_stmt 0 view .LVU784
 1988 028e 54F82370 		ldr	r7, [r4, r3, lsl #2]
 1989 0292 B742     		cmp	r7, r6
 1990 0294 F0D1     		bne	.L177
 913:Src/maze_solve.c ****               change_flag = 1U;
 1991              		.loc 1 913 15 is_stmt 1 view .LVU785
 913:Src/maze_solve.c ****               change_flag = 1U;
 1992              		.loc 1 913 34 is_stmt 0 view .LVU786
 1993 0296 029F     		ldr	r7, [sp, #8]
 1994 0298 07F1010E 		add	lr, r7, #1
 913:Src/maze_solve.c ****               change_flag = 1U;
 1995              		.loc 1 913 32 view .LVU787
 1996 029c 44F823E0 		str	lr, [r4, r3, lsl #2]
 1997              	.LVL276:
 914:Src/maze_solve.c ****             }
 1998              		.loc 1 914 15 is_stmt 1 view .LVU788
 914:Src/maze_solve.c ****             }
 1999              		.loc 1 914 27 is_stmt 0 view .LVU789
 2000 02a0 0123     		movs	r3, #1
 2001              	.LVL277:
 914:Src/maze_solve.c ****             }
 2002              		.loc 1 914 27 view .LVU790
 2003 02a2 0393     		str	r3, [sp, #12]
 2004 02a4 E8E7     		b	.L177
 2005              	.LVL278:
 2006              	.L200:
 923:Src/maze_solve.c ****           }
 2007              		.loc 1 923 17 view .LVU791
ARM GAS  C:\Temp\ccX6Vjzt.s 			page 70


 2008 02a6 0023     		movs	r3, #0
 2009              	.L178:
 2010              	.LVL279:
 926:Src/maze_solve.c ****             /* 西側のMAPが更新されているか判断、されていなければ書き込み
 2011              		.loc 1 926 11 is_stmt 1 view .LVU792
 926:Src/maze_solve.c ****             /* 西側のMAPが更新されているか判断、されていなければ書き込み
 2012              		.loc 1 926 19 is_stmt 0 view .LVU793
 2013 02a8 1940     		ands	r1, r1, r3
 2014              	.LVL280:
 926:Src/maze_solve.c ****             /* 西側のMAPが更新されているか判断、されていなければ書き込み
 2015              		.loc 1 926 43 view .LVU794
 2016 02aa 98F80030 		ldrb	r3, [r8]	@ zero_extendqisi2
 2017              	.LVL281:
 926:Src/maze_solve.c ****             /* 西側のMAPが更新されているか判断、されていなければ書き込み
 2018              		.loc 1 926 14 view .LVU795
 2019 02ae 9942     		cmp	r1, r3
 2020 02b0 22D0     		beq	.L212
 2021              	.LVL282:
 2022              	.L179:
 855:Src/maze_solve.c ****           /* 北側 */
 2023              		.loc 1 855 31 is_stmt 1 discriminator 2 view .LVU796
 855:Src/maze_solve.c ****           /* 北側 */
 2024              		.loc 1 855 33 is_stmt 0 discriminator 2 view .LVU797
 2025 02b2 0132     		adds	r2, r2, #1
 2026              	.LVL283:
 2027              	.L180:
 855:Src/maze_solve.c ****           /* 北側 */
 2028              		.loc 1 855 22 is_stmt 1 discriminator 1 view .LVU798
 855:Src/maze_solve.c ****           /* 北側 */
 2029              		.loc 1 855 9 is_stmt 0 discriminator 1 view .LVU799
 2030 02b4 AA42     		cmp	r2, r5
 2031 02b6 34DA     		bge	.L213
 857:Src/maze_solve.c ****           idx = (col_data[q0] - 1) << 5;
 2032              		.loc 1 857 11 is_stmt 1 view .LVU800
 857:Src/maze_solve.c ****           idx = (col_data[q0] - 1) << 5;
 2033              		.loc 1 857 13 is_stmt 0 view .LVU801
 2034 02b8 99F800B0 		ldrb	fp, [r9]	@ zero_extendqisi2
 2035              	.LVL284:
 858:Src/maze_solve.c ****           loop_ub = row_data[q0] + idx;
 2036              		.loc 1 858 11 is_stmt 1 view .LVU802
 858:Src/maze_solve.c ****           loop_ub = row_data[q0] + idx;
 2037              		.loc 1 858 26 is_stmt 0 view .LVU803
 2038 02bc 05AB     		add	r3, sp, #20
 2039 02be 13F802C0 		ldrb	ip, [r3, r2]	@ zero_extendqisi2
 858:Src/maze_solve.c ****           loop_ub = row_data[q0] + idx;
 2040              		.loc 1 858 31 view .LVU804
 2041 02c2 0CF1FF33 		add	r3, ip, #-1
 858:Src/maze_solve.c ****           loop_ub = row_data[q0] + idx;
 2042              		.loc 1 858 15 view .LVU805
 2043 02c6 4FEA431A 		lsl	r10, r3, #5
 2044              	.LVL285:
 859:Src/maze_solve.c ****           i3 = maze_wall[loop_ub - 1];
 2045              		.loc 1 859 11 is_stmt 1 view .LVU806
 859:Src/maze_solve.c ****           i3 = maze_wall[loop_ub - 1];
 2046              		.loc 1 859 29 is_stmt 0 view .LVU807
 2047 02ca 0DF21441 		addw	r1, sp, #1044
 2048 02ce 885C     		ldrb	r0, [r1, r2]	@ zero_extendqisi2
ARM GAS  C:\Temp\ccX6Vjzt.s 			page 71


 859:Src/maze_solve.c ****           i3 = maze_wall[loop_ub - 1];
 2049              		.loc 1 859 19 view .LVU808
 2050 02d0 00EB4313 		add	r3, r0, r3, lsl #5
 2051              	.LVL286:
 860:Src/maze_solve.c ****           if (k <= 7) {
 2052              		.loc 1 860 11 is_stmt 1 view .LVU809
 860:Src/maze_solve.c ****           if (k <= 7) {
 2053              		.loc 1 860 25 is_stmt 0 view .LVU810
 2054 02d4 0DF58251 		add	r1, sp, #4160
 2055 02d8 1031     		adds	r1, r1, #16
 2056 02da 0968     		ldr	r1, [r1]
 2057 02dc 1944     		add	r1, r1, r3
 2058 02de 11F8011C 		ldrb	r1, [r1, #-1]	@ zero_extendqisi2
 2059              	.LVL287:
 861:Src/maze_solve.c ****             b_k = (unsigned char)(1 << k);
 2060              		.loc 1 861 11 is_stmt 1 view .LVU811
 861:Src/maze_solve.c ****             b_k = (unsigned char)(1 << k);
 2061              		.loc 1 861 14 is_stmt 0 view .LVU812
 2062 02e2 BBF1070F 		cmp	fp, #7
 2063 02e6 3FF670AF 		bhi	.L197
 862:Src/maze_solve.c ****           } else {
 2064              		.loc 1 862 13 is_stmt 1 view .LVU813
 862:Src/maze_solve.c ****           } else {
 2065              		.loc 1 862 37 is_stmt 0 view .LVU814
 2066 02ea 4FF0010E 		mov	lr, #1
 2067 02ee 0EFA0BFE 		lsl	lr, lr, fp
 2068 02f2 5FFA8EFE 		uxtb	lr, lr
 2069              	.LVL288:
 862:Src/maze_solve.c ****           } else {
 2070              		.loc 1 862 37 view .LVU815
 2071 02f6 6AE7     		b	.L172
 2072              	.LVL289:
 2073              	.L212:
 928:Src/maze_solve.c ****             if (contour_map[idx] == (unsigned int)qY) {
 2074              		.loc 1 928 13 is_stmt 1 view .LVU816
 928:Src/maze_solve.c ****             if (contour_map[idx] == (unsigned int)qY) {
 2075              		.loc 1 928 50 is_stmt 0 view .LVU817
 2076 02f8 ACF1020C 		sub	ip, ip, #2
 2077              	.LVL290:
 928:Src/maze_solve.c ****             if (contour_map[idx] == (unsigned int)qY) {
 2078              		.loc 1 928 33 view .LVU818
 2079 02fc 00EB4C10 		add	r0, r0, ip, lsl #5
 2080              	.LVL291:
 928:Src/maze_solve.c ****             if (contour_map[idx] == (unsigned int)qY) {
 2081              		.loc 1 928 17 view .LVU819
 2082 0300 0138     		subs	r0, r0, #1
 2083              	.LVL292:
 929:Src/maze_solve.c ****               contour_map[idx] = (unsigned int)(tempi + 1);
 2084              		.loc 1 929 13 is_stmt 1 view .LVU820
 929:Src/maze_solve.c ****               contour_map[idx] = (unsigned int)(tempi + 1);
 2085              		.loc 1 929 28 is_stmt 0 view .LVU821
 2086 0302 54F82030 		ldr	r3, [r4, r0, lsl #2]
 929:Src/maze_solve.c ****               contour_map[idx] = (unsigned int)(tempi + 1);
 2087              		.loc 1 929 16 view .LVU822
 2088 0306 B342     		cmp	r3, r6
 2089 0308 D3D1     		bne	.L179
 930:Src/maze_solve.c ****               change_flag = 1U;
ARM GAS  C:\Temp\ccX6Vjzt.s 			page 72


 2090              		.loc 1 930 15 is_stmt 1 view .LVU823
 930:Src/maze_solve.c ****               change_flag = 1U;
 2091              		.loc 1 930 34 is_stmt 0 view .LVU824
 2092 030a 029B     		ldr	r3, [sp, #8]
 2093 030c 0133     		adds	r3, r3, #1
 930:Src/maze_solve.c ****               change_flag = 1U;
 2094              		.loc 1 930 32 view .LVU825
 2095 030e 44F82030 		str	r3, [r4, r0, lsl #2]
 931:Src/maze_solve.c ****             }
 2096              		.loc 1 931 15 is_stmt 1 view .LVU826
 2097              	.LVL293:
 931:Src/maze_solve.c ****             }
 2098              		.loc 1 931 27 is_stmt 0 view .LVU827
 2099 0312 0123     		movs	r3, #1
 2100 0314 0393     		str	r3, [sp, #12]
 2101 0316 CCE7     		b	.L179
 2102              	.LVL294:
 2103              	.L195:
 845:Src/maze_solve.c ****         }
 2104              		.loc 1 845 15 view .LVU828
 2105 0318 40F2FF35 		movw	r5, #1023
 2106              	.LVL295:
 2107              	.L171:
 845:Src/maze_solve.c ****         }
 2108              		.loc 1 845 15 discriminator 1 view .LVU829
 2109 031c 0022     		movs	r2, #0
 2110              	.LVL296:
 845:Src/maze_solve.c ****         }
 2111              		.loc 1 845 15 discriminator 1 view .LVU830
 2112 031e 0297     		str	r7, [sp, #8]
 2113 0320 C8E7     		b	.L180
 2114              	.LVL297:
 2115              	.L213:
 845:Src/maze_solve.c ****         }
 2116              		.loc 1 845 15 discriminator 1 view .LVU831
 2117 0322 029F     		ldr	r7, [sp, #8]
 936:Src/maze_solve.c ****       }
 2118              		.loc 1 936 9 is_stmt 1 view .LVU832
 936:Src/maze_solve.c ****       }
 2119              		.loc 1 936 14 is_stmt 0 view .LVU833
 2120 0324 0137     		adds	r7, r7, #1
 2121              	.LVL298:
 936:Src/maze_solve.c ****       }
 2122              		.loc 1 936 14 view .LVU834
 2123 0326 01E0     		b	.L150
 2124              	.LVL299:
 2125              	.L194:
 851:Src/maze_solve.c ****       } else {
 2126              		.loc 1 851 16 view .LVU835
 2127 0328 0123     		movs	r3, #1
 2128 032a 0193     		str	r3, [sp, #4]
 2129              	.LVL300:
 2130              	.L150:
 761:Src/maze_solve.c ****       /* 歩数カウントは0~max_length */
 2131              		.loc 1 761 11 is_stmt 1 view .LVU836
 2132 032c 019B     		ldr	r3, [sp, #4]
 2133 032e 33B9     		cbnz	r3, .L182
ARM GAS  C:\Temp\ccX6Vjzt.s 			page 73


 761:Src/maze_solve.c ****       /* 歩数カウントは0~max_length */
 2134              		.loc 1 761 22 is_stmt 0 discriminator 1 view .LVU837
 2135 0330 BE42     		cmp	r6, r7
 2136 0332 04D3     		bcc	.L182
 767:Src/maze_solve.c ****       while ((!exitg2) && (q0 < 1024)) {
 2137              		.loc 1 767 14 view .LVU838
 2138 0334 0199     		ldr	r1, [sp, #4]
 765:Src/maze_solve.c ****       q0 = 0;
 2139              		.loc 1 765 11 view .LVU839
 2140 0336 4FF0000A 		mov	r10, #0
 766:Src/maze_solve.c ****       exitg2 = false;
 2141              		.loc 1 766 10 view .LVU840
 2142 033a 5346     		mov	r3, r10
 2143 033c AAE6     		b	.L183
 2144              	.L182:
 941:Src/maze_solve.c **** }
 2145              		.loc 1 941 11 is_stmt 1 view .LVU841
 941:Src/maze_solve.c **** }
 2146              		.loc 1 941 3 is_stmt 0 view .LVU842
 2147 033e 039B     		ldr	r3, [sp, #12]
 2148 0340 002B     		cmp	r3, #0
 2149 0342 7FF4A1AE 		bne	.L184
 942:Src/maze_solve.c **** 
 2150              		.loc 1 942 1 view .LVU843
 2151 0346 0DF5815D 		add	sp, sp, #4128
 2152 034a 01B0     		add	sp, sp, #4
 2153              	.LCFI9:
 2154              		.cfi_def_cfa_offset 36
 2155              		@ sp needed
 2156 034c BDE8F08F 		pop	{r4, r5, r6, r7, r8, r9, r10, fp, pc}
 2157              	.LVL301:
 2158              	.L215:
 942:Src/maze_solve.c **** 
 2159              		.loc 1 942 1 view .LVU844
 2160              		.align	2
 2161              	.L214:
 2162 0350 00000000 		.word	.LANCHOR0
 2163 0354 00000000 		.word	.LANCHOR1
 2164 0358 00000000 		.word	.LANCHOR2
 2165              		.cfi_endproc
 2166              	.LFE134:
 2168              		.section	.text.search_adachi,"ax",%progbits
 2169              		.align	1
 2170              		.syntax unified
 2171              		.thumb
 2172              		.thumb_func
 2173              		.fpu fpv4-sp-d16
 2175              	search_adachi:
 2176              	.LVL302:
 2177              	.LFB137:
1337:Src/maze_solve.c **** 
1338:Src/maze_solve.c **** /*
1339:Src/maze_solve.c ****  * 入力　現在位置x,y,現在方向,迷路行方向サイズ,迷路列方向サイズ,迷路
1340:Src/maze_solve.c ****  * 出力  現在位置x,y,現在方向,壁情報,探索情報
1341:Src/maze_solve.c ****  * Arguments    : const coder_internal_ref_2 *wall
1342:Src/maze_solve.c ****  *                const coder_internal_ref_1 *search
1343:Src/maze_solve.c ****  *                const coder_internal_ref_4 *g_direction
ARM GAS  C:\Temp\ccX6Vjzt.s 			page 74


1344:Src/maze_solve.c ****  *                const coder_internal_ref_3 *l_direction
1345:Src/maze_solve.c ****  *                unsigned char *current_x
1346:Src/maze_solve.c ****  *                unsigned char *current_y
1347:Src/maze_solve.c ****  *                unsigned char *current_dir
1348:Src/maze_solve.c ****  *                unsigned char maze_row_size
1349:Src/maze_solve.c ****  *                unsigned char maze_col_size
1350:Src/maze_solve.c ****  *                unsigned char maze_wall[1024]
1351:Src/maze_solve.c ****  *                unsigned char maze_wall_search[1024]
1352:Src/maze_solve.c ****  *                const unsigned char maze_goal[18]
1353:Src/maze_solve.c ****  *                unsigned char l_goal_size
1354:Src/maze_solve.c ****  * Return Type  : void
1355:Src/maze_solve.c ****  */
1356:Src/maze_solve.c **** static void search_adachi(const coder_internal_ref_2 *wall, const
1357:Src/maze_solve.c ****   coder_internal_ref_1 *search, const coder_internal_ref_4 *g_direction, const
1358:Src/maze_solve.c ****   coder_internal_ref_3 *l_direction, unsigned char *current_x, unsigned char
1359:Src/maze_solve.c ****   *current_y, unsigned char *current_dir, unsigned char maze_row_size, unsigned
1360:Src/maze_solve.c ****   char maze_col_size, unsigned char maze_wall[1024], unsigned char
1361:Src/maze_solve.c ****   maze_wall_search[1024], const unsigned char maze_goal[18], unsigned char
1362:Src/maze_solve.c ****   l_goal_size)
1363:Src/maze_solve.c **** {
 2178              		.loc 1 1363 1 is_stmt 1 view -0
 2179              		.cfi_startproc
 2180              		@ args = 36, pretend = 0, frame = 4144
 2181              		@ frame_needed = 0, uses_anonymous_args = 0
 2182              		.loc 1 1363 1 is_stmt 0 view .LVU846
 2183 0000 2DE9F04F 		push	{r4, r5, r6, r7, r8, r9, r10, fp, lr}
 2184              	.LCFI10:
 2185              		.cfi_def_cfa_offset 36
 2186              		.cfi_offset 4, -36
 2187              		.cfi_offset 5, -32
 2188              		.cfi_offset 6, -28
 2189              		.cfi_offset 7, -24
 2190              		.cfi_offset 8, -20
 2191              		.cfi_offset 9, -16
 2192              		.cfi_offset 10, -12
 2193              		.cfi_offset 11, -8
 2194              		.cfi_offset 14, -4
 2195 0004 ADF5825D 		sub	sp, sp, #4160
 2196              	.LCFI11:
 2197              		.cfi_def_cfa_offset 4196
 2198 0008 83B0     		sub	sp, sp, #12
 2199              	.LCFI12:
 2200              		.cfi_def_cfa_offset 4208
 2201 000a 0890     		str	r0, [sp, #32]
 2202 000c 0B91     		str	r1, [sp, #44]
 2203 000e 1446     		mov	r4, r2
 2204 0010 0C93     		str	r3, [sp, #48]
 2205 0012 0DF58353 		add	r3, sp, #4192
 2206              	.LVL303:
 2207              		.loc 1 1363 1 view .LVU847
 2208 0016 1033     		adds	r3, r3, #16
 2209 0018 1D68     		ldr	r5, [r3]
 2210 001a 0DF58353 		add	r3, sp, #4192
 2211 001e 1433     		adds	r3, r3, #20
 2212 0020 D3F80090 		ldr	r9, [r3]
 2213 0024 0DF58353 		add	r3, sp, #4192
 2214 0028 1833     		adds	r3, r3, #24
ARM GAS  C:\Temp\ccX6Vjzt.s 			page 75


 2215 002a D3F800A0 		ldr	r10, [r3]
 2216 002e 0DF58353 		add	r3, sp, #4192
 2217 0032 1C33     		adds	r3, r3, #28
 2218 0034 1B78     		ldrb	r3, [r3]	@ zero_extendqisi2
 2219 0036 0993     		str	r3, [sp, #36]
 2220 0038 0DF58453 		add	r3, sp, #4224
 2221              	.LVL304:
 2222              		.loc 1 1363 1 view .LVU848
 2223 003c 1B78     		ldrb	r3, [r3]	@ zero_extendqisi2
 2224              	.LVL305:
 2225              		.loc 1 1363 1 view .LVU849
 2226 003e 0A93     		str	r3, [sp, #40]
 2227 0040 0DF58453 		add	r3, sp, #4224
 2228              	.LVL306:
 2229              		.loc 1 1363 1 view .LVU850
 2230 0044 0433     		adds	r3, r3, #4
 2231              	.LVL307:
 2232              		.loc 1 1363 1 view .LVU851
 2233 0046 D3F80080 		ldr	r8, [r3]
 2234 004a 0DF58453 		add	r3, sp, #4224
 2235              	.LVL308:
 2236              		.loc 1 1363 1 view .LVU852
 2237 004e 0833     		adds	r3, r3, #8
 2238              	.LVL309:
 2239              		.loc 1 1363 1 view .LVU853
 2240 0050 D3F800B0 		ldr	fp, [r3]
 2241 0054 0DF58453 		add	r3, sp, #4224
 2242              	.LVL310:
 2243              		.loc 1 1363 1 view .LVU854
 2244 0058 0C33     		adds	r3, r3, #12
 2245              	.LVL311:
 2246              		.loc 1 1363 1 view .LVU855
 2247 005a 1E68     		ldr	r6, [r3]
 2248 005c 0DF58453 		add	r3, sp, #4224
 2249              	.LVL312:
 2250              		.loc 1 1363 1 view .LVU856
 2251 0060 1033     		adds	r3, r3, #16
 2252              	.LVL313:
 2253              		.loc 1 1363 1 view .LVU857
 2254 0062 1B78     		ldrb	r3, [r3]	@ zero_extendqisi2
 2255              	.LVL314:
 2256              		.loc 1 1363 1 view .LVU858
 2257 0064 0D93     		str	r3, [sp, #52]
1364:Src/maze_solve.c ****   unsigned char goal_flag;
 2258              		.loc 1 1364 3 is_stmt 1 view .LVU859
1365:Src/maze_solve.c ****   int i9;
 2259              		.loc 1 1365 3 view .LVU860
1366:Src/maze_solve.c ****   int exitg1;
 2260              		.loc 1 1366 3 view .LVU861
1367:Src/maze_solve.c ****   unsigned char wall_write[4];
 2261              		.loc 1 1367 3 view .LVU862
1368:Src/maze_solve.c ****   unsigned char serch_write[4];
 2262              		.loc 1 1368 3 view .LVU863
1369:Src/maze_solve.c ****   int i10;
 2263              		.loc 1 1369 3 view .LVU864
1370:Src/maze_solve.c ****   unsigned char k;
 2264              		.loc 1 1370 3 view .LVU865
ARM GAS  C:\Temp\ccX6Vjzt.s 			page 76


1371:Src/maze_solve.c ****   int b_k;
 2265              		.loc 1 1371 3 view .LVU866
1372:Src/maze_solve.c **** static  int i11;
 2266              		.loc 1 1372 1 view .LVU867
1373:Src/maze_solve.c **** static  int i12;
 2267              		.loc 1 1373 1 view .LVU868
1374:Src/maze_solve.c ****   int c_k;
 2268              		.loc 1 1374 3 view .LVU869
1375:Src/maze_solve.c ****   int d_k;
 2269              		.loc 1 1375 3 view .LVU870
1376:Src/maze_solve.c ****   int e_k;
 2270              		.loc 1 1376 3 view .LVU871
1377:Src/maze_solve.c ****   int f_k;
 2271              		.loc 1 1377 3 view .LVU872
1378:Src/maze_solve.c ****   int g_k;
 2272              		.loc 1 1378 3 view .LVU873
1379:Src/maze_solve.c ****   int h_k;
 2273              		.loc 1 1379 3 view .LVU874
1380:Src/maze_solve.c ****   int i_k;
 2274              		.loc 1 1380 3 view .LVU875
1381:Src/maze_solve.c ****   unsigned int qY;
 2275              		.loc 1 1381 3 view .LVU876
1382:Src/maze_solve.c ****   int j_k;
 2276              		.loc 1 1382 3 view .LVU877
1383:Src/maze_solve.c ****   int q0;
 2277              		.loc 1 1383 3 view .LVU878
1384:Src/maze_solve.c ****   int k_k;
 2278              		.loc 1 1384 3 view .LVU879
1385:Src/maze_solve.c ****   int i13;
 2279              		.loc 1 1385 3 view .LVU880
1386:Src/maze_solve.c ****   int l_k;
 2280              		.loc 1 1386 3 view .LVU881
1387:Src/maze_solve.c ****   int i14;
 2281              		.loc 1 1387 3 view .LVU882
1388:Src/maze_solve.c ****   int m_k;
 2282              		.loc 1 1388 3 view .LVU883
1389:Src/maze_solve.c ****   unsigned int cmap[1024];
 2283              		.loc 1 1389 3 view .LVU884
1390:Src/maze_solve.c ****   unsigned int little;
 2284              		.loc 1 1390 3 view .LVU885
1391:Src/maze_solve.c ****   int n_k;
 2285              		.loc 1 1391 3 view .LVU886
1392:Src/maze_solve.c ****   unsigned int b_qY;
 2286              		.loc 1 1392 3 view .LVU887
1393:Src/maze_solve.c ****   unsigned char next_dir;
 2287              		.loc 1 1393 3 view .LVU888
1394:Src/maze_solve.c ****   int o_k;
 2288              		.loc 1 1394 3 view .LVU889
1395:Src/maze_solve.c ****   int p_k;
 2289              		.loc 1 1395 3 view .LVU890
1396:Src/maze_solve.c ****   int q_k;
 2290              		.loc 1 1396 3 view .LVU891
1397:Src/maze_solve.c ****   int r_k;
 2291              		.loc 1 1397 3 view .LVU892
1398:Src/maze_solve.c ****   int s_k;
 2292              		.loc 1 1398 3 view .LVU893
1399:Src/maze_solve.c ****   int t_k;
ARM GAS  C:\Temp\ccX6Vjzt.s 			page 77


 2293              		.loc 1 1399 3 view .LVU894
1400:Src/maze_solve.c ****   int u_k;
 2294              		.loc 1 1400 3 view .LVU895
1401:Src/maze_solve.c ****   unsigned char varargin_3;
 2295              		.loc 1 1401 3 view .LVU896
1402:Src/maze_solve.c ****   unsigned char varargin_4;
 2296              		.loc 1 1402 3 view .LVU897
1403:Src/maze_solve.c **** 
1404:Src/maze_solve.c ****   /*  search_adachi 足立法での探索 */
1405:Src/maze_solve.c ****   /* local変数宣言 */
1406:Src/maze_solve.c ****   goal_flag = 0U;
 2297              		.loc 1 1406 3 view .LVU898
 2298              	.LVL315:
1407:Src/maze_solve.c **** 
1408:Src/maze_solve.c ****   /* 探索開始時x */
1409:Src/maze_solve.c ****   /* 探索開始時y */
1410:Src/maze_solve.c ****   /* for C gen */
1411:Src/maze_solve.c ****   i9 = l_goal_size;
 2299              		.loc 1 1411 3 view .LVU899
 2300              		.loc 1 1411 6 is_stmt 0 view .LVU900
 2301 0066 1F46     		mov	r7, r3
 2302              	.LVL316:
1406:Src/maze_solve.c **** 
 2303              		.loc 1 1406 13 view .LVU901
 2304 0068 0023     		movs	r3, #0
 2305              	.LVL317:
1406:Src/maze_solve.c **** 
 2306              		.loc 1 1406 13 view .LVU902
 2307 006a 0693     		str	r3, [sp, #24]
 2308 006c 0797     		str	r7, [sp, #28]
 2309 006e 00F037BC 		b	.L217
 2310              	.LVL318:
 2311              	.L441:
1412:Src/maze_solve.c ****   do {
1413:Src/maze_solve.c ****     exitg1 = 0;
1414:Src/maze_solve.c **** 
1415:Src/maze_solve.c ****     /* 壁情報取得 */
1416:Src/maze_solve.c ****       if (goal_after_flg == other)//ゴール直後は壁情報を更新しない。
1417:Src/maze_solve.c ****       {
1418:Src/maze_solve.c ****       /* matlab上では画像から取得した壁情報を参照する。 */
1419:Src/maze_solve.c ****       /* 入力:画像から得た迷路情報,迷路行方向壁枚数,迷路列方向壁枚数,  
1420:Src/maze_solve.c ****       /*      現在地座標x,y,現在進行方向,迷路壁情報,迷路壁探索情報          
1421:Src/maze_solve.c ****       /* 出力:迷路壁情報,迷路壁探索情報  */
1422:Src/maze_solve.c ****       /*   wall_set 壁情報取得 */
1423:Src/maze_solve.c ****       /* グローバル変数(matlabでは迷路データを、Cでは壁センサ値を参照) */
1424:Src/maze_solve.c ****       /* for matlab */
1425:Src/maze_solve.c ****       /* for C gen */
1426:Src/maze_solve.c ****       /* 壁センサAD値格納変数 */
1427:Src/maze_solve.c ****       /* 壁センサ閾値 */
1428:Src/maze_solve.c ****       /* ローカル変数宣言 */
1429:Src/maze_solve.c ****       /* 壁情報書き込み用バッファ(N,E,S,W) */
1430:Src/maze_solve.c ****       wall_write[0] = 0U;
 2312              		.loc 1 1430 7 is_stmt 1 view .LVU903
 2313              		.loc 1 1430 21 is_stmt 0 view .LVU904
 2314 0072 0020     		movs	r0, #0
 2315 0074 0DF58253 		add	r3, sp, #4160
 2316 0078 0433     		adds	r3, r3, #4
ARM GAS  C:\Temp\ccX6Vjzt.s 			page 78


 2317 007a 1870     		strb	r0, [r3]
1431:Src/maze_solve.c ****       serch_write[0] = 0U;
 2318              		.loc 1 1431 7 is_stmt 1 view .LVU905
 2319              		.loc 1 1431 22 is_stmt 0 view .LVU906
 2320 007c 0DF58253 		add	r3, sp, #4160
 2321 0080 1870     		strb	r0, [r3]
1432:Src/maze_solve.c ****       wall_write[1] = 0U;
 2322              		.loc 1 1432 7 is_stmt 1 view .LVU907
 2323              		.loc 1 1432 21 is_stmt 0 view .LVU908
 2324 0082 0DF58253 		add	r3, sp, #4160
 2325 0086 0533     		adds	r3, r3, #5
 2326 0088 1870     		strb	r0, [r3]
1433:Src/maze_solve.c ****       serch_write[1] = 0U;
 2327              		.loc 1 1433 7 is_stmt 1 view .LVU909
 2328              		.loc 1 1433 22 is_stmt 0 view .LVU910
 2329 008a 0DF58253 		add	r3, sp, #4160
 2330 008e 0133     		adds	r3, r3, #1
 2331 0090 1870     		strb	r0, [r3]
1434:Src/maze_solve.c ****       wall_write[2] = 0U;
 2332              		.loc 1 1434 7 is_stmt 1 view .LVU911
 2333              		.loc 1 1434 21 is_stmt 0 view .LVU912
 2334 0092 0DF58253 		add	r3, sp, #4160
 2335 0096 0633     		adds	r3, r3, #6
 2336 0098 1870     		strb	r0, [r3]
1435:Src/maze_solve.c ****       serch_write[2] = 0U;
 2337              		.loc 1 1435 7 is_stmt 1 view .LVU913
 2338              		.loc 1 1435 22 is_stmt 0 view .LVU914
 2339 009a 0DF58253 		add	r3, sp, #4160
 2340 009e 0233     		adds	r3, r3, #2
 2341 00a0 1870     		strb	r0, [r3]
1436:Src/maze_solve.c ****       wall_write[3] = 0U;
 2342              		.loc 1 1436 7 is_stmt 1 view .LVU915
 2343              		.loc 1 1436 21 is_stmt 0 view .LVU916
 2344 00a2 0DF58253 		add	r3, sp, #4160
 2345 00a6 0733     		adds	r3, r3, #7
 2346 00a8 1870     		strb	r0, [r3]
1437:Src/maze_solve.c ****       serch_write[3] = 0U;
 2347              		.loc 1 1437 7 is_stmt 1 view .LVU917
 2348              		.loc 1 1437 22 is_stmt 0 view .LVU918
 2349 00aa 0DF58253 		add	r3, sp, #4160
 2350 00ae 0333     		adds	r3, r3, #3
 2351 00b0 1870     		strb	r0, [r3]
1438:Src/maze_solve.c **** 
1439:Src/maze_solve.c ****       /* 探索情報書き込み用バッファ(N,E,S,W) */
1440:Src/maze_solve.c ****       /* マウスの方向に基づく壁情報取得 */
1441:Src/maze_solve.c ****       /* マウスの方向と絶対方向の差=マウスの方向となることを利用し、 *
1442:Src/maze_solve.c ****       /* 絶対角度と整合をとる。 */
1443:Src/maze_solve.c ****       /*  実機はここをセンサ値に対応させる  */
1444:Src/maze_solve.c ****       wall_sensor_front = (Sensor_GetValue(0) + Sensor_GetValue(3))/2;
 2352              		.loc 1 1444 7 is_stmt 1 view .LVU919
 2353              		.loc 1 1444 28 is_stmt 0 view .LVU920
 2354 00b2 FFF7FEFF 		bl	Sensor_GetValue
 2355              	.LVL319:
 2356 00b6 0746     		mov	r7, r0
 2357              		.loc 1 1444 49 view .LVU921
 2358 00b8 0320     		movs	r0, #3
 2359 00ba FFF7FEFF 		bl	Sensor_GetValue
ARM GAS  C:\Temp\ccX6Vjzt.s 			page 79


 2360              	.LVL320:
 2361              		.loc 1 1444 47 view .LVU922
 2362 00be 3B46     		mov	r3, r7
 2363 00c0 0344     		add	r3, r3, r0
 2364              		.loc 1 1444 68 view .LVU923
 2365 00c2 03EBD373 		add	r3, r3, r3, lsr #31
 2366 00c6 5B10     		asrs	r3, r3, #1
 2367              		.loc 1 1444 25 view .LVU924
 2368 00c8 CE4F     		ldr	r7, .L454
 2369 00ca 3B80     		strh	r3, [r7]	@ movhi
1445:Src/maze_solve.c ****       wall_sensor_right =  Sensor_GetValue(2);
 2370              		.loc 1 1445 7 is_stmt 1 view .LVU925
 2371              		.loc 1 1445 28 is_stmt 0 view .LVU926
 2372 00cc 0220     		movs	r0, #2
 2373 00ce FFF7FEFF 		bl	Sensor_GetValue
 2374              	.LVL321:
 2375              		.loc 1 1445 25 view .LVU927
 2376 00d2 CD4B     		ldr	r3, .L454+4
 2377 00d4 1880     		strh	r0, [r3]	@ movhi
1446:Src/maze_solve.c ****       wall_sensor_left =  Sensor_GetValue(1);
 2378              		.loc 1 1446 7 is_stmt 1 view .LVU928
 2379              		.loc 1 1446 27 is_stmt 0 view .LVU929
 2380 00d6 0120     		movs	r0, #1
 2381 00d8 FFF7FEFF 		bl	Sensor_GetValue
 2382              	.LVL322:
 2383              		.loc 1 1446 24 view .LVU930
 2384 00dc CB4B     		ldr	r3, .L454+8
 2385 00de 1880     		strh	r0, [r3]	@ movhi
1447:Src/maze_solve.c ****       /* センサ値取得(要手直し) */
1448:Src/maze_solve.c ****       /* ここまで */
1449:Src/maze_solve.c ****       /* 前方の壁判定 */
1450:Src/maze_solve.c ****       /* for Cgen */
1451:Src/maze_solve.c ****       /* センサ値をもとに、壁の有無を判定 */
1452:Src/maze_solve.c **** 
1453:Src/maze_solve.c **** 
1454:Src/maze_solve.c ****       if (wall_sensor_front > wall_sensor_front_th) {
 2386              		.loc 1 1454 7 is_stmt 1 view .LVU931
 2387              		.loc 1 1454 29 is_stmt 0 view .LVU932
 2388 00e0 B7F90020 		ldrsh	r2, [r7]
 2389 00e4 CA4B     		ldr	r3, .L454+12
 2390 00e6 B3F90030 		ldrsh	r3, [r3]
 2391              		.loc 1 1454 10 view .LVU933
 2392 00ea 9A42     		cmp	r2, r3
 2393 00ec 00F33A82 		bgt	.L436
 2394              	.L219:
1455:Src/maze_solve.c ****         /* 壁情報取得 */
1456:Src/maze_solve.c ****         wall_write[*current_dir % 4] = wall->contents.wall;
1457:Src/maze_solve.c ****         set_front_wall_flg();//前壁補正フラグを立てる
1458:Src/maze_solve.c ****       }
1459:Src/maze_solve.c **** 
1460:Src/maze_solve.c ****       /* 探索情報取更新 */
1461:Src/maze_solve.c ****       serch_write[*current_dir % 4] = search->contents.known;
 2395              		.loc 1 1461 7 is_stmt 1 view .LVU934
 2396              		.loc 1 1461 19 is_stmt 0 view .LVU935
 2397 00f0 9AF80030 		ldrb	r3, [r10]	@ zero_extendqisi2
 2398              		.loc 1 1461 32 view .LVU936
 2399 00f4 03F00302 		and	r2, r3, #3
ARM GAS  C:\Temp\ccX6Vjzt.s 			page 80


 2400              		.loc 1 1461 55 view .LVU937
 2401 00f8 0B99     		ldr	r1, [sp, #44]
 2402 00fa 4978     		ldrb	r1, [r1, #1]	@ zero_extendqisi2
 2403              		.loc 1 1461 37 view .LVU938
 2404 00fc 0DF58250 		add	r0, sp, #4160
 2405 0100 0830     		adds	r0, r0, #8
 2406 0102 0244     		add	r2, r2, r0
 2407 0104 02F8081C 		strb	r1, [r2, #-8]
1462:Src/maze_solve.c **** 
1463:Src/maze_solve.c ****       /* 右壁判定 */
1464:Src/maze_solve.c ****       /* for Cgen */
1465:Src/maze_solve.c ****       /* センサ値をもとに、壁の有無を判定 */
1466:Src/maze_solve.c ****       if (wall_sensor_right > wall_sensor_right_th) {
 2408              		.loc 1 1466 7 is_stmt 1 view .LVU939
 2409              		.loc 1 1466 29 is_stmt 0 view .LVU940
 2410 0108 BF4A     		ldr	r2, .L454+4
 2411 010a B2F90010 		ldrsh	r1, [r2]
 2412 010e C14A     		ldr	r2, .L454+16
 2413 0110 B2F90020 		ldrsh	r2, [r2]
 2414              		.loc 1 1466 10 view .LVU941
 2415 0114 9142     		cmp	r1, r2
 2416 0116 14DD     		ble	.L220
1467:Src/maze_solve.c ****         /* 壁情報取得 */
1468:Src/maze_solve.c ****         i10 = (int)(*current_dir + 1U);
 2417              		.loc 1 1468 9 is_stmt 1 view .LVU942
 2418              		.loc 1 1468 34 is_stmt 0 view .LVU943
 2419 0118 0133     		adds	r3, r3, #1
 2420              	.LVL323:
1469:Src/maze_solve.c ****         if ((unsigned int)i10 > 255U) {
 2421              		.loc 1 1469 9 is_stmt 1 view .LVU944
 2422              		.loc 1 1469 12 is_stmt 0 view .LVU945
 2423 011a FF2B     		cmp	r3, #255
 2424 011c 00D9     		bls	.L221
1470:Src/maze_solve.c ****           i10 = 255;
 2425              		.loc 1 1470 15 view .LVU946
 2426 011e FF23     		movs	r3, #255
 2427              	.LVL324:
 2428              	.L221:
1471:Src/maze_solve.c ****         }
1472:Src/maze_solve.c **** 
1473:Src/maze_solve.c ****         wall_write[i10 % 4] = wall->contents.wall;
 2429              		.loc 1 1473 9 is_stmt 1 view .LVU947
 2430              		.loc 1 1473 24 is_stmt 0 view .LVU948
 2431 0120 5A42     		rsbs	r2, r3, #0
 2432 0122 03F00303 		and	r3, r3, #3
 2433              	.LVL325:
 2434              		.loc 1 1473 24 view .LVU949
 2435 0126 02F00302 		and	r2, r2, #3
 2436 012a 58BF     		it	pl
 2437 012c 5342     		rsbpl	r3, r2, #0
 2438              		.loc 1 1473 45 view .LVU950
 2439 012e 089A     		ldr	r2, [sp, #32]
 2440 0130 5278     		ldrb	r2, [r2, #1]	@ zero_extendqisi2
 2441              		.loc 1 1473 29 view .LVU951
 2442 0132 0DF58251 		add	r1, sp, #4160
 2443 0136 0831     		adds	r1, r1, #8
 2444 0138 0B44     		add	r3, r3, r1
ARM GAS  C:\Temp\ccX6Vjzt.s 			page 81


 2445 013a 03F8042C 		strb	r2, [r3, #-4]
1474:Src/maze_solve.c ****         set_rigth_wall_flg(); //前壁補正フラグを立てる
 2446              		.loc 1 1474 9 is_stmt 1 view .LVU952
 2447 013e FFF7FEFF 		bl	set_rigth_wall_flg
 2448              	.LVL326:
 2449              	.L220:
1475:Src/maze_solve.c ****       }
1476:Src/maze_solve.c **** 
1477:Src/maze_solve.c ****       /* 探索情報取更新 */
1478:Src/maze_solve.c ****       i10 = (int)(*current_dir + 1U);
 2450              		.loc 1 1478 7 view .LVU953
 2451              		.loc 1 1478 19 is_stmt 0 view .LVU954
 2452 0142 9AF80020 		ldrb	r2, [r10]	@ zero_extendqisi2
 2453              		.loc 1 1478 32 view .LVU955
 2454 0146 531C     		adds	r3, r2, #1
 2455              	.LVL327:
1479:Src/maze_solve.c ****       if ((unsigned int)i10 > 255U) {
 2456              		.loc 1 1479 7 is_stmt 1 view .LVU956
 2457              		.loc 1 1479 10 is_stmt 0 view .LVU957
 2458 0148 FF2B     		cmp	r3, #255
 2459 014a 00D9     		bls	.L222
1480:Src/maze_solve.c ****         i10 = 255;
 2460              		.loc 1 1480 13 view .LVU958
 2461 014c FF23     		movs	r3, #255
 2462              	.LVL328:
 2463              	.L222:
1481:Src/maze_solve.c ****       }
1482:Src/maze_solve.c **** 
1483:Src/maze_solve.c ****       serch_write[i10 % 4] = search->contents.known;
 2464              		.loc 1 1483 7 is_stmt 1 view .LVU959
 2465              		.loc 1 1483 23 is_stmt 0 view .LVU960
 2466 014e 5942     		rsbs	r1, r3, #0
 2467 0150 03F00303 		and	r3, r3, #3
 2468              	.LVL329:
 2469              		.loc 1 1483 23 view .LVU961
 2470 0154 01F00301 		and	r1, r1, #3
 2471 0158 58BF     		it	pl
 2472 015a 4B42     		rsbpl	r3, r1, #0
 2473              		.loc 1 1483 46 view .LVU962
 2474 015c 0B99     		ldr	r1, [sp, #44]
 2475 015e 4978     		ldrb	r1, [r1, #1]	@ zero_extendqisi2
 2476              		.loc 1 1483 28 view .LVU963
 2477 0160 0DF58250 		add	r0, sp, #4160
 2478 0164 0830     		adds	r0, r0, #8
 2479 0166 0344     		add	r3, r3, r0
 2480 0168 03F8081C 		strb	r1, [r3, #-8]
1484:Src/maze_solve.c **** 
1485:Src/maze_solve.c ****       /* 後方は情報を得ることができないので処理しない。 */
1486:Src/maze_solve.c ****       /* 左壁判定 */
1487:Src/maze_solve.c ****       /* for Cgen */
1488:Src/maze_solve.c ****       /* センサ値をもとに、壁の有無を判定 */
1489:Src/maze_solve.c ****       if (wall_sensor_left > wall_sensor_left_th) {
 2481              		.loc 1 1489 7 is_stmt 1 view .LVU964
 2482              		.loc 1 1489 28 is_stmt 0 view .LVU965
 2483 016c A74B     		ldr	r3, .L454+8
 2484 016e B3F90010 		ldrsh	r1, [r3]
 2485 0172 A94B     		ldr	r3, .L454+20
ARM GAS  C:\Temp\ccX6Vjzt.s 			page 82


 2486 0174 B3F90030 		ldrsh	r3, [r3]
 2487              		.loc 1 1489 10 view .LVU966
 2488 0178 9942     		cmp	r1, r3
 2489 017a 14DD     		ble	.L223
1490:Src/maze_solve.c ****         /* 壁情報取得 */
1491:Src/maze_solve.c ****         i10 = (int)(*current_dir + 3U);
 2490              		.loc 1 1491 9 is_stmt 1 view .LVU967
 2491              		.loc 1 1491 34 is_stmt 0 view .LVU968
 2492 017c D31C     		adds	r3, r2, #3
 2493              	.LVL330:
1492:Src/maze_solve.c ****         if ((unsigned int)i10 > 255U) {
 2494              		.loc 1 1492 9 is_stmt 1 view .LVU969
 2495              		.loc 1 1492 12 is_stmt 0 view .LVU970
 2496 017e FF2B     		cmp	r3, #255
 2497 0180 00D9     		bls	.L224
1493:Src/maze_solve.c ****           i10 = 255;
 2498              		.loc 1 1493 15 view .LVU971
 2499 0182 FF23     		movs	r3, #255
 2500              	.LVL331:
 2501              	.L224:
1494:Src/maze_solve.c ****         }
1495:Src/maze_solve.c **** 
1496:Src/maze_solve.c ****         wall_write[i10 % 4] = wall->contents.wall;
 2502              		.loc 1 1496 9 is_stmt 1 view .LVU972
 2503              		.loc 1 1496 24 is_stmt 0 view .LVU973
 2504 0184 5A42     		rsbs	r2, r3, #0
 2505 0186 03F00303 		and	r3, r3, #3
 2506              	.LVL332:
 2507              		.loc 1 1496 24 view .LVU974
 2508 018a 02F00302 		and	r2, r2, #3
 2509 018e 58BF     		it	pl
 2510 0190 5342     		rsbpl	r3, r2, #0
 2511              		.loc 1 1496 45 view .LVU975
 2512 0192 089A     		ldr	r2, [sp, #32]
 2513 0194 5278     		ldrb	r2, [r2, #1]	@ zero_extendqisi2
 2514              		.loc 1 1496 29 view .LVU976
 2515 0196 0DF58251 		add	r1, sp, #4160
 2516 019a 0831     		adds	r1, r1, #8
 2517 019c 0B44     		add	r3, r3, r1
 2518 019e 03F8042C 		strb	r2, [r3, #-4]
1497:Src/maze_solve.c ****         set_left_wall_flg(); //前壁補正フラグを立てる
 2519              		.loc 1 1497 9 is_stmt 1 view .LVU977
 2520 01a2 FFF7FEFF 		bl	set_left_wall_flg
 2521              	.LVL333:
 2522              	.L223:
1498:Src/maze_solve.c **** 
1499:Src/maze_solve.c ****       }
1500:Src/maze_solve.c **** 
1501:Src/maze_solve.c ****       /* 探索情報取更新 */
1502:Src/maze_solve.c ****       i10 = (int)(*current_dir + 3U);
 2523              		.loc 1 1502 7 view .LVU978
 2524              		.loc 1 1502 19 is_stmt 0 view .LVU979
 2525 01a6 9AF80030 		ldrb	r3, [r10]	@ zero_extendqisi2
 2526              		.loc 1 1502 32 view .LVU980
 2527 01aa 0333     		adds	r3, r3, #3
 2528              	.LVL334:
1503:Src/maze_solve.c ****       if ((unsigned int)i10 > 255U) {
ARM GAS  C:\Temp\ccX6Vjzt.s 			page 83


 2529              		.loc 1 1503 7 is_stmt 1 view .LVU981
 2530              		.loc 1 1503 10 is_stmt 0 view .LVU982
 2531 01ac FF2B     		cmp	r3, #255
 2532 01ae 00D9     		bls	.L225
1504:Src/maze_solve.c ****         i10 = 255;
 2533              		.loc 1 1504 13 view .LVU983
 2534 01b0 FF23     		movs	r3, #255
 2535              	.LVL335:
 2536              	.L225:
1505:Src/maze_solve.c ****       }
1506:Src/maze_solve.c ****       
1507:Src/maze_solve.c ****       serch_write[i10 % 4] = search->contents.known;
 2537              		.loc 1 1507 7 is_stmt 1 view .LVU984
 2538              		.loc 1 1507 23 is_stmt 0 view .LVU985
 2539 01b2 5A42     		rsbs	r2, r3, #0
 2540 01b4 03F00303 		and	r3, r3, #3
 2541              	.LVL336:
 2542              		.loc 1 1507 23 view .LVU986
 2543 01b8 02F00302 		and	r2, r2, #3
 2544 01bc 58BF     		it	pl
 2545 01be 5342     		rsbpl	r3, r2, #0
 2546              		.loc 1 1507 46 view .LVU987
 2547 01c0 0B9A     		ldr	r2, [sp, #44]
 2548 01c2 5278     		ldrb	r2, [r2, #1]	@ zero_extendqisi2
 2549              		.loc 1 1507 28 view .LVU988
 2550 01c4 0DF58251 		add	r1, sp, #4160
 2551 01c8 0831     		adds	r1, r1, #8
 2552 01ca 0B44     		add	r3, r3, r1
 2553 01cc 03F8082C 		strb	r2, [r3, #-8]
1508:Src/maze_solve.c **** 
1509:Src/maze_solve.c ****       /* ここまで */
1510:Src/maze_solve.c ****       /* 壁情報,探索情報を入力 */
1511:Src/maze_solve.c ****       /* 北側 */
1512:Src/maze_solve.c ****       k = g_direction->contents.North;
 2554              		.loc 1 1512 7 is_stmt 1 view .LVU989
 2555              		.loc 1 1512 9 is_stmt 0 view .LVU990
 2556 01d0 2278     		ldrb	r2, [r4]	@ zero_extendqisi2
 2557              	.LVL337:
1513:Src/maze_solve.c ****       i10 = (int)(g_direction->contents.North + 1U);
 2558              		.loc 1 1513 7 is_stmt 1 view .LVU991
 2559              		.loc 1 1513 47 is_stmt 0 view .LVU992
 2560 01d2 531C     		adds	r3, r2, #1
 2561              	.LVL338:
1514:Src/maze_solve.c ****       if ((unsigned int)i10 > 255U) {
 2562              		.loc 1 1514 7 is_stmt 1 view .LVU993
 2563              		.loc 1 1514 10 is_stmt 0 view .LVU994
 2564 01d4 FF2B     		cmp	r3, #255
 2565 01d6 00D9     		bls	.L226
1515:Src/maze_solve.c ****         i10 = 255;
 2566              		.loc 1 1515 13 view .LVU995
 2567 01d8 FF23     		movs	r3, #255
 2568              	.LVL339:
 2569              	.L226:
1516:Src/maze_solve.c ****       }
1517:Src/maze_solve.c **** 
1518:Src/maze_solve.c ****       if (k <= 7) {
 2570              		.loc 1 1518 7 is_stmt 1 view .LVU996
ARM GAS  C:\Temp\ccX6Vjzt.s 			page 84


 2571              		.loc 1 1518 10 is_stmt 0 view .LVU997
 2572 01da 072A     		cmp	r2, #7
 2573 01dc 00F2D181 		bhi	.L345
1519:Src/maze_solve.c ****         b_k = (unsigned char)(1 << k);
 2574              		.loc 1 1519 9 is_stmt 1 view .LVU998
 2575              		.loc 1 1519 33 is_stmt 0 view .LVU999
 2576 01e0 0121     		movs	r1, #1
 2577 01e2 9140     		lsls	r1, r1, r2
 2578 01e4 C9B2     		uxtb	r1, r1
 2579              	.LVL340:
 2580              	.L227:
1520:Src/maze_solve.c ****       } else {
1521:Src/maze_solve.c ****         b_k = 0;
1522:Src/maze_solve.c ****       }
1523:Src/maze_solve.c **** 
1524:Src/maze_solve.c ****       i10 = (int)((unsigned int)b_k * wall_write[i10 - 1]);
 2581              		.loc 1 1524 7 is_stmt 1 view .LVU1000
 2582              		.loc 1 1524 54 is_stmt 0 view .LVU1001
 2583 01e6 013B     		subs	r3, r3, #1
 2584              	.LVL341:
 2585              		.loc 1 1524 49 view .LVU1002
 2586 01e8 0DF58252 		add	r2, sp, #4160
 2587              	.LVL342:
 2588              		.loc 1 1524 49 view .LVU1003
 2589 01ec 0832     		adds	r2, r2, #8
 2590 01ee 1344     		add	r3, r3, r2
 2591              	.LVL343:
 2592              		.loc 1 1524 49 view .LVU1004
 2593 01f0 13F8043C 		ldrb	r3, [r3, #-4]	@ zero_extendqisi2
 2594              		.loc 1 1524 37 view .LVU1005
 2595 01f4 01FB03F1 		mul	r1, r1, r3
 2596              	.LVL344:
1525:Src/maze_solve.c ****       if ((unsigned int)i10 > 255U) {
 2597              		.loc 1 1525 7 is_stmt 1 view .LVU1006
 2598              		.loc 1 1525 10 is_stmt 0 view .LVU1007
 2599 01f8 FF29     		cmp	r1, #255
 2600 01fa 00D9     		bls	.L228
1526:Src/maze_solve.c ****         i10 = 255;
 2601              		.loc 1 1526 13 view .LVU1008
 2602 01fc FF21     		movs	r1, #255
 2603              	.LVL345:
 2604              	.L228:
1527:Src/maze_solve.c ****       }
1528:Src/maze_solve.c **** 
1529:Src/maze_solve.c ****       i11 = (*current_x - 1) << 5;
 2605              		.loc 1 1529 7 is_stmt 1 view .LVU1009
 2606              		.loc 1 1529 14 is_stmt 0 view .LVU1010
 2607 01fe 2A78     		ldrb	r2, [r5]	@ zero_extendqisi2
 2608              		.loc 1 1529 25 view .LVU1011
 2609 0200 013A     		subs	r2, r2, #1
 2610              		.loc 1 1529 30 view .LVU1012
 2611 0202 5201     		lsls	r2, r2, #5
 2612              		.loc 1 1529 11 view .LVU1013
 2613 0204 854B     		ldr	r3, .L454+24
 2614 0206 1A60     		str	r2, [r3]
1530:Src/maze_solve.c ****       i12 = (*current_y + i11) - 1;
 2615              		.loc 1 1530 7 is_stmt 1 view .LVU1014
ARM GAS  C:\Temp\ccX6Vjzt.s 			page 85


 2616              		.loc 1 1530 14 is_stmt 0 view .LVU1015
 2617 0208 99F80030 		ldrb	r3, [r9]	@ zero_extendqisi2
 2618              		.loc 1 1530 25 view .LVU1016
 2619 020c 1344     		add	r3, r3, r2
 2620              		.loc 1 1530 32 view .LVU1017
 2621 020e 013B     		subs	r3, r3, #1
 2622              		.loc 1 1530 11 view .LVU1018
 2623 0210 8348     		ldr	r0, .L454+28
 2624 0212 0360     		str	r3, [r0]
1531:Src/maze_solve.c ****       maze_wall[i12] |= (unsigned char)i10;
 2625              		.loc 1 1531 7 is_stmt 1 view .LVU1019
 2626              		.loc 1 1531 25 is_stmt 0 view .LVU1020
 2627 0214 C9B2     		uxtb	r1, r1
 2628              	.LVL346:
 2629              		.loc 1 1531 22 view .LVU1021
 2630 0216 18F80300 		ldrb	r0, [r8, r3]	@ zero_extendqisi2
 2631 021a 0143     		orrs	r1, r1, r0
 2632 021c 08F80310 		strb	r1, [r8, r3]
 2633              	.LVL347:
1532:Src/maze_solve.c ****       k = g_direction->contents.North;
 2634              		.loc 1 1532 7 is_stmt 1 view .LVU1022
 2635              		.loc 1 1532 9 is_stmt 0 view .LVU1023
 2636 0220 2178     		ldrb	r1, [r4]	@ zero_extendqisi2
 2637              	.LVL348:
1533:Src/maze_solve.c ****       i10 = (int)(g_direction->contents.North + 1U);
 2638              		.loc 1 1533 7 is_stmt 1 view .LVU1024
 2639              		.loc 1 1533 47 is_stmt 0 view .LVU1025
 2640 0222 481C     		adds	r0, r1, #1
 2641              	.LVL349:
1534:Src/maze_solve.c ****       if ((unsigned int)i10 > 255U) {
 2642              		.loc 1 1534 7 is_stmt 1 view .LVU1026
 2643              		.loc 1 1534 10 is_stmt 0 view .LVU1027
 2644 0224 FF28     		cmp	r0, #255
 2645 0226 00D9     		bls	.L229
1535:Src/maze_solve.c ****         i10 = 255;
 2646              		.loc 1 1535 13 view .LVU1028
 2647 0228 FF20     		movs	r0, #255
 2648              	.LVL350:
 2649              	.L229:
1536:Src/maze_solve.c ****       }
1537:Src/maze_solve.c **** 
1538:Src/maze_solve.c ****       if (k <= 7) {
 2650              		.loc 1 1538 7 is_stmt 1 view .LVU1029
 2651              		.loc 1 1538 10 is_stmt 0 view .LVU1030
 2652 022a 0729     		cmp	r1, #7
 2653 022c 00F2AB81 		bhi	.L348
1539:Src/maze_solve.c ****         c_k = (unsigned char)(1 << k);
 2654              		.loc 1 1539 9 is_stmt 1 view .LVU1031
 2655              		.loc 1 1539 33 is_stmt 0 view .LVU1032
 2656 0230 4FF0010C 		mov	ip, #1
 2657 0234 0CFA01F1 		lsl	r1, ip, r1
 2658              	.LVL351:
 2659              		.loc 1 1539 33 view .LVU1033
 2660 0238 C9B2     		uxtb	r1, r1
 2661              	.LVL352:
 2662              	.L230:
1540:Src/maze_solve.c ****       } else {
ARM GAS  C:\Temp\ccX6Vjzt.s 			page 86


1541:Src/maze_solve.c ****         c_k = 0;
1542:Src/maze_solve.c ****       }
1543:Src/maze_solve.c **** 
1544:Src/maze_solve.c ****       i10 = (int)((unsigned int)c_k * serch_write[i10 - 1]);
 2663              		.loc 1 1544 7 is_stmt 1 view .LVU1034
 2664              		.loc 1 1544 55 is_stmt 0 view .LVU1035
 2665 023a 0138     		subs	r0, r0, #1
 2666              	.LVL353:
 2667              		.loc 1 1544 50 view .LVU1036
 2668 023c 0DF58257 		add	r7, sp, #4160
 2669 0240 0837     		adds	r7, r7, #8
 2670 0242 3844     		add	r0, r0, r7
 2671              	.LVL354:
 2672              		.loc 1 1544 50 view .LVU1037
 2673 0244 10F8080C 		ldrb	r0, [r0, #-8]	@ zero_extendqisi2
 2674              		.loc 1 1544 37 view .LVU1038
 2675 0248 01FB00F1 		mul	r1, r1, r0
 2676              	.LVL355:
1545:Src/maze_solve.c ****       if ((unsigned int)i10 > 255U) {
 2677              		.loc 1 1545 7 is_stmt 1 view .LVU1039
 2678              		.loc 1 1545 10 is_stmt 0 view .LVU1040
 2679 024c FF29     		cmp	r1, #255
 2680 024e 00D9     		bls	.L231
1546:Src/maze_solve.c ****         i10 = 255;
 2681              		.loc 1 1546 13 view .LVU1041
 2682 0250 FF21     		movs	r1, #255
 2683              	.LVL356:
 2684              	.L231:
1547:Src/maze_solve.c ****       }
1548:Src/maze_solve.c **** 
1549:Src/maze_solve.c ****       maze_wall_search[i12] |= (unsigned char)i10;
 2685              		.loc 1 1549 7 is_stmt 1 view .LVU1042
 2686              		.loc 1 1549 32 is_stmt 0 view .LVU1043
 2687 0252 C9B2     		uxtb	r1, r1
 2688              	.LVL357:
 2689              		.loc 1 1549 29 view .LVU1044
 2690 0254 1BF80300 		ldrb	r0, [fp, r3]	@ zero_extendqisi2
 2691 0258 0143     		orrs	r1, r1, r0
 2692 025a 0BF80310 		strb	r1, [fp, r3]
 2693              	.LVL358:
1550:Src/maze_solve.c **** 
1551:Src/maze_solve.c ****       /* 東側 */
1552:Src/maze_solve.c ****       k = g_direction->contents.East;
 2694              		.loc 1 1552 7 is_stmt 1 view .LVU1045
 2695              		.loc 1 1552 9 is_stmt 0 view .LVU1046
 2696 025e 6178     		ldrb	r1, [r4, #1]	@ zero_extendqisi2
 2697              	.LVL359:
1553:Src/maze_solve.c ****       i10 = (int)(g_direction->contents.East + 1U);
 2698              		.loc 1 1553 7 is_stmt 1 view .LVU1047
 2699              		.loc 1 1553 46 is_stmt 0 view .LVU1048
 2700 0260 481C     		adds	r0, r1, #1
 2701              	.LVL360:
1554:Src/maze_solve.c ****       if ((unsigned int)i10 > 255U) {
 2702              		.loc 1 1554 7 is_stmt 1 view .LVU1049
 2703              		.loc 1 1554 10 is_stmt 0 view .LVU1050
 2704 0262 FF28     		cmp	r0, #255
 2705 0264 00D9     		bls	.L232
ARM GAS  C:\Temp\ccX6Vjzt.s 			page 87


1555:Src/maze_solve.c ****         i10 = 255;
 2706              		.loc 1 1555 13 view .LVU1051
 2707 0266 FF20     		movs	r0, #255
 2708              	.LVL361:
 2709              	.L232:
1556:Src/maze_solve.c ****       }
1557:Src/maze_solve.c **** 
1558:Src/maze_solve.c ****       if (k <= 7) {
 2710              		.loc 1 1558 7 is_stmt 1 view .LVU1052
 2711              		.loc 1 1558 10 is_stmt 0 view .LVU1053
 2712 0268 0729     		cmp	r1, #7
 2713 026a 00F28E81 		bhi	.L351
1559:Src/maze_solve.c ****         d_k = (unsigned char)(1 << k);
 2714              		.loc 1 1559 9 is_stmt 1 view .LVU1054
 2715              		.loc 1 1559 33 is_stmt 0 view .LVU1055
 2716 026e 4FF0010C 		mov	ip, #1
 2717 0272 0CFA01F1 		lsl	r1, ip, r1
 2718              	.LVL362:
 2719              		.loc 1 1559 33 view .LVU1056
 2720 0276 C9B2     		uxtb	r1, r1
 2721              	.LVL363:
 2722              	.L233:
1560:Src/maze_solve.c ****       } else {
1561:Src/maze_solve.c ****         d_k = 0;
1562:Src/maze_solve.c ****       }
1563:Src/maze_solve.c **** 
1564:Src/maze_solve.c ****       i10 = (int)((unsigned int)d_k * wall_write[i10 - 1]);
 2723              		.loc 1 1564 7 is_stmt 1 view .LVU1057
 2724              		.loc 1 1564 54 is_stmt 0 view .LVU1058
 2725 0278 0138     		subs	r0, r0, #1
 2726              	.LVL364:
 2727              		.loc 1 1564 49 view .LVU1059
 2728 027a 0DF58257 		add	r7, sp, #4160
 2729 027e 0837     		adds	r7, r7, #8
 2730 0280 3844     		add	r0, r0, r7
 2731              	.LVL365:
 2732              		.loc 1 1564 49 view .LVU1060
 2733 0282 10F8040C 		ldrb	r0, [r0, #-4]	@ zero_extendqisi2
 2734              		.loc 1 1564 37 view .LVU1061
 2735 0286 01FB00F1 		mul	r1, r1, r0
 2736              	.LVL366:
1565:Src/maze_solve.c ****       if ((unsigned int)i10 > 255U) {
 2737              		.loc 1 1565 7 is_stmt 1 view .LVU1062
 2738              		.loc 1 1565 10 is_stmt 0 view .LVU1063
 2739 028a FF29     		cmp	r1, #255
 2740 028c 00D9     		bls	.L234
1566:Src/maze_solve.c ****         i10 = 255;
 2741              		.loc 1 1566 13 view .LVU1064
 2742 028e FF21     		movs	r1, #255
 2743              	.LVL367:
 2744              	.L234:
1567:Src/maze_solve.c ****       }
1568:Src/maze_solve.c **** 
1569:Src/maze_solve.c ****       maze_wall[i12] |= (unsigned char)i10;
 2745              		.loc 1 1569 7 is_stmt 1 view .LVU1065
 2746              		.loc 1 1569 25 is_stmt 0 view .LVU1066
 2747 0290 C9B2     		uxtb	r1, r1
ARM GAS  C:\Temp\ccX6Vjzt.s 			page 88


 2748              	.LVL368:
 2749              		.loc 1 1569 22 view .LVU1067
 2750 0292 18F80300 		ldrb	r0, [r8, r3]	@ zero_extendqisi2
 2751 0296 0143     		orrs	r1, r1, r0
 2752 0298 08F80310 		strb	r1, [r8, r3]
 2753              	.LVL369:
1570:Src/maze_solve.c ****       k = g_direction->contents.East;
 2754              		.loc 1 1570 7 is_stmt 1 view .LVU1068
 2755              		.loc 1 1570 9 is_stmt 0 view .LVU1069
 2756 029c 6178     		ldrb	r1, [r4, #1]	@ zero_extendqisi2
 2757              	.LVL370:
1571:Src/maze_solve.c ****       i10 = (int)(g_direction->contents.East + 1U);
 2758              		.loc 1 1571 7 is_stmt 1 view .LVU1070
 2759              		.loc 1 1571 46 is_stmt 0 view .LVU1071
 2760 029e 481C     		adds	r0, r1, #1
 2761              	.LVL371:
1572:Src/maze_solve.c ****       if ((unsigned int)i10 > 255U) {
 2762              		.loc 1 1572 7 is_stmt 1 view .LVU1072
 2763              		.loc 1 1572 10 is_stmt 0 view .LVU1073
 2764 02a0 FF28     		cmp	r0, #255
 2765 02a2 00D9     		bls	.L235
1573:Src/maze_solve.c ****         i10 = 255;
 2766              		.loc 1 1573 13 view .LVU1074
 2767 02a4 FF20     		movs	r0, #255
 2768              	.LVL372:
 2769              	.L235:
1574:Src/maze_solve.c ****       }
1575:Src/maze_solve.c **** 
1576:Src/maze_solve.c ****       if (k <= 7) {
 2770              		.loc 1 1576 7 is_stmt 1 view .LVU1075
 2771              		.loc 1 1576 10 is_stmt 0 view .LVU1076
 2772 02a6 0729     		cmp	r1, #7
 2773 02a8 00F27181 		bhi	.L354
1577:Src/maze_solve.c ****         e_k = (unsigned char)(1 << k);
 2774              		.loc 1 1577 9 is_stmt 1 view .LVU1077
 2775              		.loc 1 1577 33 is_stmt 0 view .LVU1078
 2776 02ac 4FF0010C 		mov	ip, #1
 2777 02b0 0CFA01F1 		lsl	r1, ip, r1
 2778              	.LVL373:
 2779              		.loc 1 1577 33 view .LVU1079
 2780 02b4 C9B2     		uxtb	r1, r1
 2781              	.LVL374:
 2782              	.L236:
1578:Src/maze_solve.c ****       } else {
1579:Src/maze_solve.c ****         e_k = 0;
1580:Src/maze_solve.c ****       }
1581:Src/maze_solve.c **** 
1582:Src/maze_solve.c ****       i10 = (int)((unsigned int)e_k * serch_write[i10 - 1]);
 2783              		.loc 1 1582 7 is_stmt 1 view .LVU1080
 2784              		.loc 1 1582 55 is_stmt 0 view .LVU1081
 2785 02b6 0138     		subs	r0, r0, #1
 2786              	.LVL375:
 2787              		.loc 1 1582 50 view .LVU1082
 2788 02b8 0DF58257 		add	r7, sp, #4160
 2789 02bc 0837     		adds	r7, r7, #8
 2790 02be 3844     		add	r0, r0, r7
 2791              	.LVL376:
ARM GAS  C:\Temp\ccX6Vjzt.s 			page 89


 2792              		.loc 1 1582 50 view .LVU1083
 2793 02c0 10F8080C 		ldrb	r0, [r0, #-8]	@ zero_extendqisi2
 2794              		.loc 1 1582 37 view .LVU1084
 2795 02c4 01FB00F1 		mul	r1, r1, r0
 2796              	.LVL377:
1583:Src/maze_solve.c ****       if ((unsigned int)i10 > 255U) {
 2797              		.loc 1 1583 7 is_stmt 1 view .LVU1085
 2798              		.loc 1 1583 10 is_stmt 0 view .LVU1086
 2799 02c8 FF29     		cmp	r1, #255
 2800 02ca 00D9     		bls	.L237
1584:Src/maze_solve.c ****         i10 = 255;
 2801              		.loc 1 1584 13 view .LVU1087
 2802 02cc FF21     		movs	r1, #255
 2803              	.LVL378:
 2804              	.L237:
1585:Src/maze_solve.c ****       }
1586:Src/maze_solve.c **** 
1587:Src/maze_solve.c ****       maze_wall_search[i12] |= (unsigned char)i10;
 2805              		.loc 1 1587 7 is_stmt 1 view .LVU1088
 2806              		.loc 1 1587 32 is_stmt 0 view .LVU1089
 2807 02ce C9B2     		uxtb	r1, r1
 2808              	.LVL379:
 2809              		.loc 1 1587 29 view .LVU1090
 2810 02d0 1BF80300 		ldrb	r0, [fp, r3]	@ zero_extendqisi2
 2811 02d4 0143     		orrs	r1, r1, r0
 2812 02d6 0BF80310 		strb	r1, [fp, r3]
 2813              	.LVL380:
1588:Src/maze_solve.c **** 
1589:Src/maze_solve.c ****       /* 南側 */
1590:Src/maze_solve.c ****       k = g_direction->contents.South;
 2814              		.loc 1 1590 7 is_stmt 1 view .LVU1091
 2815              		.loc 1 1590 9 is_stmt 0 view .LVU1092
 2816 02da A178     		ldrb	r1, [r4, #2]	@ zero_extendqisi2
 2817              	.LVL381:
1591:Src/maze_solve.c ****       i10 = (int)(g_direction->contents.South + 1U);
 2818              		.loc 1 1591 7 is_stmt 1 view .LVU1093
 2819              		.loc 1 1591 47 is_stmt 0 view .LVU1094
 2820 02dc 481C     		adds	r0, r1, #1
 2821              	.LVL382:
1592:Src/maze_solve.c ****       if ((unsigned int)i10 > 255U) {
 2822              		.loc 1 1592 7 is_stmt 1 view .LVU1095
 2823              		.loc 1 1592 10 is_stmt 0 view .LVU1096
 2824 02de FF28     		cmp	r0, #255
 2825 02e0 00D9     		bls	.L238
1593:Src/maze_solve.c ****         i10 = 255;
 2826              		.loc 1 1593 13 view .LVU1097
 2827 02e2 FF20     		movs	r0, #255
 2828              	.LVL383:
 2829              	.L238:
1594:Src/maze_solve.c ****       }
1595:Src/maze_solve.c **** 
1596:Src/maze_solve.c ****       if (k <= 7) {
 2830              		.loc 1 1596 7 is_stmt 1 view .LVU1098
 2831              		.loc 1 1596 10 is_stmt 0 view .LVU1099
 2832 02e4 0729     		cmp	r1, #7
 2833 02e6 00F25481 		bhi	.L357
1597:Src/maze_solve.c ****         f_k = (unsigned char)(1 << k);
ARM GAS  C:\Temp\ccX6Vjzt.s 			page 90


 2834              		.loc 1 1597 9 is_stmt 1 view .LVU1100
 2835              		.loc 1 1597 33 is_stmt 0 view .LVU1101
 2836 02ea 4FF0010C 		mov	ip, #1
 2837 02ee 0CFA01F1 		lsl	r1, ip, r1
 2838              	.LVL384:
 2839              		.loc 1 1597 33 view .LVU1102
 2840 02f2 C9B2     		uxtb	r1, r1
 2841              	.LVL385:
 2842              	.L239:
1598:Src/maze_solve.c ****       } else {
1599:Src/maze_solve.c ****         f_k = 0;
1600:Src/maze_solve.c ****       }
1601:Src/maze_solve.c **** 
1602:Src/maze_solve.c ****       i10 = (int)((unsigned int)f_k * wall_write[i10 - 1]);
 2843              		.loc 1 1602 7 is_stmt 1 view .LVU1103
 2844              		.loc 1 1602 54 is_stmt 0 view .LVU1104
 2845 02f4 0138     		subs	r0, r0, #1
 2846              	.LVL386:
 2847              		.loc 1 1602 49 view .LVU1105
 2848 02f6 0DF58257 		add	r7, sp, #4160
 2849 02fa 0837     		adds	r7, r7, #8
 2850 02fc 3844     		add	r0, r0, r7
 2851              	.LVL387:
 2852              		.loc 1 1602 49 view .LVU1106
 2853 02fe 10F8040C 		ldrb	r0, [r0, #-4]	@ zero_extendqisi2
 2854              		.loc 1 1602 37 view .LVU1107
 2855 0302 01FB00F1 		mul	r1, r1, r0
 2856              	.LVL388:
1603:Src/maze_solve.c ****       if ((unsigned int)i10 > 255U) {
 2857              		.loc 1 1603 7 is_stmt 1 view .LVU1108
 2858              		.loc 1 1603 10 is_stmt 0 view .LVU1109
 2859 0306 FF29     		cmp	r1, #255
 2860 0308 00D9     		bls	.L240
1604:Src/maze_solve.c ****         i10 = 255;
 2861              		.loc 1 1604 13 view .LVU1110
 2862 030a FF21     		movs	r1, #255
 2863              	.LVL389:
 2864              	.L240:
1605:Src/maze_solve.c ****       }
1606:Src/maze_solve.c **** 
1607:Src/maze_solve.c ****       maze_wall[i12] |= (unsigned char)i10;
 2865              		.loc 1 1607 7 is_stmt 1 view .LVU1111
 2866              		.loc 1 1607 25 is_stmt 0 view .LVU1112
 2867 030c C9B2     		uxtb	r1, r1
 2868              	.LVL390:
 2869              		.loc 1 1607 22 view .LVU1113
 2870 030e 18F80300 		ldrb	r0, [r8, r3]	@ zero_extendqisi2
 2871 0312 0143     		orrs	r1, r1, r0
 2872 0314 08F80310 		strb	r1, [r8, r3]
 2873              	.LVL391:
1608:Src/maze_solve.c ****       k = g_direction->contents.South;
 2874              		.loc 1 1608 7 is_stmt 1 view .LVU1114
 2875              		.loc 1 1608 9 is_stmt 0 view .LVU1115
 2876 0318 A178     		ldrb	r1, [r4, #2]	@ zero_extendqisi2
 2877              	.LVL392:
1609:Src/maze_solve.c ****       i10 = (int)(g_direction->contents.South + 1U);
 2878              		.loc 1 1609 7 is_stmt 1 view .LVU1116
ARM GAS  C:\Temp\ccX6Vjzt.s 			page 91


 2879              		.loc 1 1609 47 is_stmt 0 view .LVU1117
 2880 031a 481C     		adds	r0, r1, #1
 2881              	.LVL393:
1610:Src/maze_solve.c ****       if ((unsigned int)i10 > 255U) {
 2882              		.loc 1 1610 7 is_stmt 1 view .LVU1118
 2883              		.loc 1 1610 10 is_stmt 0 view .LVU1119
 2884 031c FF28     		cmp	r0, #255
 2885 031e 00D9     		bls	.L241
1611:Src/maze_solve.c ****         i10 = 255;
 2886              		.loc 1 1611 13 view .LVU1120
 2887 0320 FF20     		movs	r0, #255
 2888              	.LVL394:
 2889              	.L241:
1612:Src/maze_solve.c ****       }
1613:Src/maze_solve.c **** 
1614:Src/maze_solve.c ****       if (k <= 7) {
 2890              		.loc 1 1614 7 is_stmt 1 view .LVU1121
 2891              		.loc 1 1614 10 is_stmt 0 view .LVU1122
 2892 0322 0729     		cmp	r1, #7
 2893 0324 00F23781 		bhi	.L360
1615:Src/maze_solve.c ****         g_k = (unsigned char)(1 << k);
 2894              		.loc 1 1615 9 is_stmt 1 view .LVU1123
 2895              		.loc 1 1615 33 is_stmt 0 view .LVU1124
 2896 0328 4FF0010C 		mov	ip, #1
 2897 032c 0CFA01F1 		lsl	r1, ip, r1
 2898              	.LVL395:
 2899              		.loc 1 1615 33 view .LVU1125
 2900 0330 C9B2     		uxtb	r1, r1
 2901              	.LVL396:
 2902              	.L242:
1616:Src/maze_solve.c ****       } else {
1617:Src/maze_solve.c ****         g_k = 0;
1618:Src/maze_solve.c ****       }
1619:Src/maze_solve.c **** 
1620:Src/maze_solve.c ****       i10 = (int)((unsigned int)g_k * serch_write[i10 - 1]);
 2903              		.loc 1 1620 7 is_stmt 1 view .LVU1126
 2904              		.loc 1 1620 55 is_stmt 0 view .LVU1127
 2905 0332 0138     		subs	r0, r0, #1
 2906              	.LVL397:
 2907              		.loc 1 1620 50 view .LVU1128
 2908 0334 0DF58257 		add	r7, sp, #4160
 2909 0338 0837     		adds	r7, r7, #8
 2910 033a 3844     		add	r0, r0, r7
 2911              	.LVL398:
 2912              		.loc 1 1620 50 view .LVU1129
 2913 033c 10F8080C 		ldrb	r0, [r0, #-8]	@ zero_extendqisi2
 2914              		.loc 1 1620 37 view .LVU1130
 2915 0340 01FB00F1 		mul	r1, r1, r0
 2916              	.LVL399:
1621:Src/maze_solve.c ****       if ((unsigned int)i10 > 255U) {
 2917              		.loc 1 1621 7 is_stmt 1 view .LVU1131
 2918              		.loc 1 1621 10 is_stmt 0 view .LVU1132
 2919 0344 FF29     		cmp	r1, #255
 2920 0346 00D9     		bls	.L243
1622:Src/maze_solve.c ****         i10 = 255;
 2921              		.loc 1 1622 13 view .LVU1133
 2922 0348 FF21     		movs	r1, #255
ARM GAS  C:\Temp\ccX6Vjzt.s 			page 92


 2923              	.LVL400:
 2924              	.L243:
1623:Src/maze_solve.c ****       }
1624:Src/maze_solve.c **** 
1625:Src/maze_solve.c ****       maze_wall_search[i12] |= (unsigned char)i10;
 2925              		.loc 1 1625 7 is_stmt 1 view .LVU1134
 2926              		.loc 1 1625 32 is_stmt 0 view .LVU1135
 2927 034a C9B2     		uxtb	r1, r1
 2928              	.LVL401:
 2929              		.loc 1 1625 29 view .LVU1136
 2930 034c 1BF80300 		ldrb	r0, [fp, r3]	@ zero_extendqisi2
 2931 0350 0143     		orrs	r1, r1, r0
 2932 0352 0BF80310 		strb	r1, [fp, r3]
 2933              	.LVL402:
1626:Src/maze_solve.c **** 
1627:Src/maze_solve.c ****       /* 西側 */
1628:Src/maze_solve.c ****       k = g_direction->contents.West;
 2934              		.loc 1 1628 7 is_stmt 1 view .LVU1137
 2935              		.loc 1 1628 9 is_stmt 0 view .LVU1138
 2936 0356 E178     		ldrb	r1, [r4, #3]	@ zero_extendqisi2
 2937              	.LVL403:
1629:Src/maze_solve.c ****       i10 = (int)(g_direction->contents.West + 1U);
 2938              		.loc 1 1629 7 is_stmt 1 view .LVU1139
 2939              		.loc 1 1629 46 is_stmt 0 view .LVU1140
 2940 0358 481C     		adds	r0, r1, #1
 2941              	.LVL404:
1630:Src/maze_solve.c ****       if ((unsigned int)i10 > 255U) {
 2942              		.loc 1 1630 7 is_stmt 1 view .LVU1141
 2943              		.loc 1 1630 10 is_stmt 0 view .LVU1142
 2944 035a FF28     		cmp	r0, #255
 2945 035c 00D9     		bls	.L244
1631:Src/maze_solve.c ****         i10 = 255;
 2946              		.loc 1 1631 13 view .LVU1143
 2947 035e FF20     		movs	r0, #255
 2948              	.LVL405:
 2949              	.L244:
1632:Src/maze_solve.c ****       }
1633:Src/maze_solve.c **** 
1634:Src/maze_solve.c ****       if (k <= 7) {
 2950              		.loc 1 1634 7 is_stmt 1 view .LVU1144
 2951              		.loc 1 1634 10 is_stmt 0 view .LVU1145
 2952 0360 0729     		cmp	r1, #7
 2953 0362 00F21A81 		bhi	.L363
1635:Src/maze_solve.c ****         h_k = (unsigned char)(1 << k);
 2954              		.loc 1 1635 9 is_stmt 1 view .LVU1146
 2955              		.loc 1 1635 33 is_stmt 0 view .LVU1147
 2956 0366 4FF0010C 		mov	ip, #1
 2957 036a 0CFA01F1 		lsl	r1, ip, r1
 2958              	.LVL406:
 2959              		.loc 1 1635 33 view .LVU1148
 2960 036e C9B2     		uxtb	r1, r1
 2961              	.LVL407:
 2962              	.L245:
1636:Src/maze_solve.c ****       } else {
1637:Src/maze_solve.c ****         h_k = 0;
1638:Src/maze_solve.c ****       }
1639:Src/maze_solve.c **** 
ARM GAS  C:\Temp\ccX6Vjzt.s 			page 93


1640:Src/maze_solve.c ****       i10 = (int)((unsigned int)h_k * wall_write[i10 - 1]);
 2963              		.loc 1 1640 7 is_stmt 1 view .LVU1149
 2964              		.loc 1 1640 54 is_stmt 0 view .LVU1150
 2965 0370 0138     		subs	r0, r0, #1
 2966              	.LVL408:
 2967              		.loc 1 1640 49 view .LVU1151
 2968 0372 0DF58257 		add	r7, sp, #4160
 2969 0376 0837     		adds	r7, r7, #8
 2970 0378 3844     		add	r0, r0, r7
 2971              	.LVL409:
 2972              		.loc 1 1640 49 view .LVU1152
 2973 037a 10F8040C 		ldrb	r0, [r0, #-4]	@ zero_extendqisi2
 2974              		.loc 1 1640 37 view .LVU1153
 2975 037e 01FB00F1 		mul	r1, r1, r0
 2976              	.LVL410:
1641:Src/maze_solve.c ****       if ((unsigned int)i10 > 255U) {
 2977              		.loc 1 1641 7 is_stmt 1 view .LVU1154
 2978              		.loc 1 1641 10 is_stmt 0 view .LVU1155
 2979 0382 FF29     		cmp	r1, #255
 2980 0384 00D9     		bls	.L246
1642:Src/maze_solve.c ****         i10 = 255;
 2981              		.loc 1 1642 13 view .LVU1156
 2982 0386 FF21     		movs	r1, #255
 2983              	.LVL411:
 2984              	.L246:
1643:Src/maze_solve.c ****       }
1644:Src/maze_solve.c **** 
1645:Src/maze_solve.c ****       maze_wall[i12] |= (unsigned char)i10;
 2985              		.loc 1 1645 7 is_stmt 1 view .LVU1157
 2986              		.loc 1 1645 25 is_stmt 0 view .LVU1158
 2987 0388 C9B2     		uxtb	r1, r1
 2988              	.LVL412:
 2989              		.loc 1 1645 22 view .LVU1159
 2990 038a 18F80300 		ldrb	r0, [r8, r3]	@ zero_extendqisi2
 2991 038e 0143     		orrs	r1, r1, r0
 2992 0390 08F80310 		strb	r1, [r8, r3]
 2993              	.LVL413:
1646:Src/maze_solve.c ****       k = g_direction->contents.West;
 2994              		.loc 1 1646 7 is_stmt 1 view .LVU1160
 2995              		.loc 1 1646 9 is_stmt 0 view .LVU1161
 2996 0394 E178     		ldrb	r1, [r4, #3]	@ zero_extendqisi2
 2997              	.LVL414:
1647:Src/maze_solve.c ****       i10 = (int)(g_direction->contents.West + 1U);
 2998              		.loc 1 1647 7 is_stmt 1 view .LVU1162
 2999              		.loc 1 1647 46 is_stmt 0 view .LVU1163
 3000 0396 481C     		adds	r0, r1, #1
 3001              	.LVL415:
1648:Src/maze_solve.c ****       if ((unsigned int)i10 > 255U) {
 3002              		.loc 1 1648 7 is_stmt 1 view .LVU1164
 3003              		.loc 1 1648 10 is_stmt 0 view .LVU1165
 3004 0398 FF28     		cmp	r0, #255
 3005 039a 00D9     		bls	.L247
1649:Src/maze_solve.c ****         i10 = 255;
 3006              		.loc 1 1649 13 view .LVU1166
 3007 039c FF20     		movs	r0, #255
 3008              	.LVL416:
 3009              	.L247:
ARM GAS  C:\Temp\ccX6Vjzt.s 			page 94


1650:Src/maze_solve.c ****       }
1651:Src/maze_solve.c **** 
1652:Src/maze_solve.c ****       if (k <= 7) {
 3010              		.loc 1 1652 7 is_stmt 1 view .LVU1167
 3011              		.loc 1 1652 10 is_stmt 0 view .LVU1168
 3012 039e 0729     		cmp	r1, #7
 3013 03a0 00F2FD80 		bhi	.L366
1653:Src/maze_solve.c ****         i_k = (unsigned char)(1 << k);
 3014              		.loc 1 1653 9 is_stmt 1 view .LVU1169
 3015              		.loc 1 1653 33 is_stmt 0 view .LVU1170
 3016 03a4 4FF0010C 		mov	ip, #1
 3017 03a8 0CFA01F1 		lsl	r1, ip, r1
 3018              	.LVL417:
 3019              		.loc 1 1653 33 view .LVU1171
 3020 03ac C9B2     		uxtb	r1, r1
 3021              	.LVL418:
 3022              	.L248:
1654:Src/maze_solve.c ****       } else {
1655:Src/maze_solve.c ****         i_k = 0;
1656:Src/maze_solve.c ****       }
1657:Src/maze_solve.c **** 
1658:Src/maze_solve.c ****       i10 = (int)((unsigned int)i_k * serch_write[i10 - 1]);
 3023              		.loc 1 1658 7 is_stmt 1 view .LVU1172
 3024              		.loc 1 1658 55 is_stmt 0 view .LVU1173
 3025 03ae 0138     		subs	r0, r0, #1
 3026              	.LVL419:
 3027              		.loc 1 1658 50 view .LVU1174
 3028 03b0 0DF58257 		add	r7, sp, #4160
 3029 03b4 0837     		adds	r7, r7, #8
 3030 03b6 3844     		add	r0, r0, r7
 3031              	.LVL420:
 3032              		.loc 1 1658 50 view .LVU1175
 3033 03b8 10F8080C 		ldrb	r0, [r0, #-8]	@ zero_extendqisi2
 3034              		.loc 1 1658 37 view .LVU1176
 3035 03bc 01FB00F1 		mul	r1, r1, r0
 3036              	.LVL421:
1659:Src/maze_solve.c ****       if ((unsigned int)i10 > 255U) {
 3037              		.loc 1 1659 7 is_stmt 1 view .LVU1177
 3038              		.loc 1 1659 10 is_stmt 0 view .LVU1178
 3039 03c0 FF29     		cmp	r1, #255
 3040 03c2 00D9     		bls	.L249
1660:Src/maze_solve.c ****         i10 = 255;
 3041              		.loc 1 1660 13 view .LVU1179
 3042 03c4 FF21     		movs	r1, #255
 3043              	.LVL422:
 3044              	.L249:
1661:Src/maze_solve.c ****       }
1662:Src/maze_solve.c **** 
1663:Src/maze_solve.c ****       maze_wall_search[i12] |= (unsigned char)i10;
 3045              		.loc 1 1663 7 is_stmt 1 view .LVU1180
 3046              		.loc 1 1663 32 is_stmt 0 view .LVU1181
 3047 03c6 C9B2     		uxtb	r1, r1
 3048              	.LVL423:
 3049              		.loc 1 1663 29 view .LVU1182
 3050 03c8 1BF80300 		ldrb	r0, [fp, r3]	@ zero_extendqisi2
 3051 03cc 0143     		orrs	r1, r1, r0
 3052 03ce 0BF80310 		strb	r1, [fp, r3]
ARM GAS  C:\Temp\ccX6Vjzt.s 			page 95


 3053              	.LVL424:
1664:Src/maze_solve.c **** 
1665:Src/maze_solve.c ****       /* 隣り合うマスの情報にも入力 */
1666:Src/maze_solve.c ****       /* 北側のマスの南側の壁情報 */
1667:Src/maze_solve.c ****       qY = maze_row_size - 1U;
 3054              		.loc 1 1667 7 is_stmt 1 view .LVU1183
 3055              		.loc 1 1667 10 is_stmt 0 view .LVU1184
 3056 03d2 099B     		ldr	r3, [sp, #36]
 3057 03d4 591E     		subs	r1, r3, #1
 3058              	.LVL425:
1668:Src/maze_solve.c ****       if (qY > maze_row_size) {
 3059              		.loc 1 1668 7 is_stmt 1 view .LVU1185
 3060              		.loc 1 1668 10 is_stmt 0 view .LVU1186
 3061 03d6 8B42     		cmp	r3, r1
 3062 03d8 00D2     		bcs	.L250
1669:Src/maze_solve.c ****         qY = 0U;
 3063              		.loc 1 1669 12 view .LVU1187
 3064 03da 0021     		movs	r1, #0
 3065              	.LVL426:
 3066              	.L250:
1670:Src/maze_solve.c ****       }
1671:Src/maze_solve.c **** 
1672:Src/maze_solve.c ****       if (*current_y < (int)qY) {
 3067              		.loc 1 1672 7 is_stmt 1 view .LVU1188
 3068              		.loc 1 1672 11 is_stmt 0 view .LVU1189
 3069 03dc 99F80030 		ldrb	r3, [r9]	@ zero_extendqisi2
 3070              		.loc 1 1672 10 view .LVU1190
 3071 03e0 8B42     		cmp	r3, r1
 3072 03e2 57DA     		bge	.L251
1673:Src/maze_solve.c ****         k = g_direction->contents.South;
 3073              		.loc 1 1673 9 is_stmt 1 view .LVU1191
 3074              		.loc 1 1673 11 is_stmt 0 view .LVU1192
 3075 03e4 A078     		ldrb	r0, [r4, #2]	@ zero_extendqisi2
 3076              	.LVL427:
1674:Src/maze_solve.c ****         i10 = (int)(g_direction->contents.North + 1U);
 3077              		.loc 1 1674 9 is_stmt 1 view .LVU1193
 3078              		.loc 1 1674 42 is_stmt 0 view .LVU1194
 3079 03e6 2178     		ldrb	r1, [r4]	@ zero_extendqisi2
 3080              	.LVL428:
 3081              		.loc 1 1674 49 view .LVU1195
 3082 03e8 0131     		adds	r1, r1, #1
 3083              	.LVL429:
1675:Src/maze_solve.c ****         if ((unsigned int)i10 > 255U) {
 3084              		.loc 1 1675 9 is_stmt 1 view .LVU1196
 3085              		.loc 1 1675 12 is_stmt 0 view .LVU1197
 3086 03ea FF29     		cmp	r1, #255
 3087 03ec 00D9     		bls	.L252
1676:Src/maze_solve.c ****           i10 = 255;
 3088              		.loc 1 1676 15 view .LVU1198
 3089 03ee FF21     		movs	r1, #255
 3090              	.LVL430:
 3091              	.L252:
1677:Src/maze_solve.c ****         }
1678:Src/maze_solve.c **** 
1679:Src/maze_solve.c ****         if (k <= 7) {
 3092              		.loc 1 1679 9 is_stmt 1 view .LVU1199
 3093              		.loc 1 1679 12 is_stmt 0 view .LVU1200
ARM GAS  C:\Temp\ccX6Vjzt.s 			page 96


 3094 03f0 0728     		cmp	r0, #7
 3095 03f2 00F2D680 		bhi	.L370
1680:Src/maze_solve.c ****           j_k = (unsigned char)(1 << k);
 3096              		.loc 1 1680 11 is_stmt 1 view .LVU1201
 3097              		.loc 1 1680 35 is_stmt 0 view .LVU1202
 3098 03f6 4FF0010C 		mov	ip, #1
 3099 03fa 0CFA00F0 		lsl	r0, ip, r0
 3100              	.LVL431:
 3101              		.loc 1 1680 35 view .LVU1203
 3102 03fe C0B2     		uxtb	r0, r0
 3103 0400 10E0     		b	.L455
 3104              	.L456:
 3105 0402 00BF     		.align	2
 3106              	.L454:
 3107 0404 00000000 		.word	wall_sensor_front
 3108 0408 00000000 		.word	wall_sensor_right
 3109 040c 00000000 		.word	wall_sensor_left
 3110 0410 00000000 		.word	wall_sensor_front_th
 3111 0414 00000000 		.word	wall_sensor_right_th
 3112 0418 00000000 		.word	wall_sensor_left_th
 3113 041c 00000000 		.word	.LANCHOR4
 3114 0420 00000000 		.word	.LANCHOR5
 3115              	.L455:
 3116              	.LVL432:
 3117              	.L253:
1681:Src/maze_solve.c ****         } else {
1682:Src/maze_solve.c ****           j_k = 0;
1683:Src/maze_solve.c ****         }
1684:Src/maze_solve.c **** 
1685:Src/maze_solve.c ****         i10 = (int)((unsigned int)j_k * wall_write[i10 - 1]);
 3118              		.loc 1 1685 9 is_stmt 1 view .LVU1204
 3119              		.loc 1 1685 56 is_stmt 0 view .LVU1205
 3120 0424 0139     		subs	r1, r1, #1
 3121              	.LVL433:
 3122              		.loc 1 1685 51 view .LVU1206
 3123 0426 0DF58257 		add	r7, sp, #4160
 3124 042a 0837     		adds	r7, r7, #8
 3125 042c 3944     		add	r1, r1, r7
 3126              	.LVL434:
 3127              		.loc 1 1685 51 view .LVU1207
 3128 042e 11F8041C 		ldrb	r1, [r1, #-4]	@ zero_extendqisi2
 3129              		.loc 1 1685 39 view .LVU1208
 3130 0432 00FB01F1 		mul	r1, r0, r1
 3131              	.LVL435:
1686:Src/maze_solve.c ****         if ((unsigned int)i10 > 255U) {
 3132              		.loc 1 1686 9 is_stmt 1 view .LVU1209
 3133              		.loc 1 1686 12 is_stmt 0 view .LVU1210
 3134 0436 FF29     		cmp	r1, #255
 3135 0438 00D9     		bls	.L254
1687:Src/maze_solve.c ****           i10 = 255;
 3136              		.loc 1 1687 15 view .LVU1211
 3137 043a FF21     		movs	r1, #255
 3138              	.LVL436:
 3139              	.L254:
1688:Src/maze_solve.c ****         }
1689:Src/maze_solve.c **** 
1690:Src/maze_solve.c ****         q0 = (int)(*current_y + 1U);
ARM GAS  C:\Temp\ccX6Vjzt.s 			page 97


 3140              		.loc 1 1690 9 is_stmt 1 view .LVU1212
 3141              		.loc 1 1690 31 is_stmt 0 view .LVU1213
 3142 043c 0133     		adds	r3, r3, #1
 3143              	.LVL437:
1691:Src/maze_solve.c ****         i13 = q0;
 3144              		.loc 1 1691 9 is_stmt 1 view .LVU1214
1692:Src/maze_solve.c ****         if ((unsigned int)q0 > 255U) {
 3145              		.loc 1 1692 9 view .LVU1215
 3146              		.loc 1 1692 12 is_stmt 0 view .LVU1216
 3147 043e FF2B     		cmp	r3, #255
 3148 0440 00D9     		bls	.L255
 3149              	.LVL438:
1693:Src/maze_solve.c ****           i13 = 255;
 3150              		.loc 1 1693 15 view .LVU1217
 3151 0442 FF23     		movs	r3, #255
 3152              	.LVL439:
 3153              	.L255:
1694:Src/maze_solve.c ****         }
1695:Src/maze_solve.c **** 
1696:Src/maze_solve.c ****         i14 = q0;
 3154              		.loc 1 1696 9 is_stmt 1 view .LVU1218
1697:Src/maze_solve.c ****         if ((unsigned int)q0 > 255U) {
 3155              		.loc 1 1697 9 view .LVU1219
1698:Src/maze_solve.c ****           i14 = 255;
1699:Src/maze_solve.c ****         }
1700:Src/maze_solve.c **** 
1701:Src/maze_solve.c ****         maze_wall[(i13 + i11) - 1] = (unsigned char)(maze_wall[(i14 + i11) - 1] |
 3156              		.loc 1 1701 9 view .LVU1220
 3157              		.loc 1 1701 69 is_stmt 0 view .LVU1221
 3158 0444 1344     		add	r3, r3, r2
 3159              		.loc 1 1701 63 view .LVU1222
 3160 0446 013B     		subs	r3, r3, #1
 3161 0448 18F80300 		ldrb	r0, [r8, r3]	@ zero_extendqisi2
 3162              	.LVL440:
1702:Src/maze_solve.c ****           (unsigned char)i10);
 3163              		.loc 1 1702 11 view .LVU1223
 3164 044c C9B2     		uxtb	r1, r1
 3165              	.LVL441:
1701:Src/maze_solve.c ****           (unsigned char)i10);
 3166              		.loc 1 1701 38 view .LVU1224
 3167 044e 0143     		orrs	r1, r1, r0
1701:Src/maze_solve.c ****           (unsigned char)i10);
 3168              		.loc 1 1701 36 view .LVU1225
 3169 0450 08F80310 		strb	r1, [r8, r3]
 3170              	.LVL442:
1703:Src/maze_solve.c ****         k = g_direction->contents.South;
 3171              		.loc 1 1703 9 is_stmt 1 view .LVU1226
 3172              		.loc 1 1703 11 is_stmt 0 view .LVU1227
 3173 0454 A078     		ldrb	r0, [r4, #2]	@ zero_extendqisi2
 3174              	.LVL443:
1704:Src/maze_solve.c ****         i10 = (int)(g_direction->contents.North + 1U);
 3175              		.loc 1 1704 9 is_stmt 1 view .LVU1228
 3176              		.loc 1 1704 42 is_stmt 0 view .LVU1229
 3177 0456 2178     		ldrb	r1, [r4]	@ zero_extendqisi2
 3178              		.loc 1 1704 49 view .LVU1230
 3179 0458 0131     		adds	r1, r1, #1
 3180              	.LVL444:
ARM GAS  C:\Temp\ccX6Vjzt.s 			page 98


1705:Src/maze_solve.c ****         if ((unsigned int)i10 > 255U) {
 3181              		.loc 1 1705 9 is_stmt 1 view .LVU1231
 3182              		.loc 1 1705 12 is_stmt 0 view .LVU1232
 3183 045a FF29     		cmp	r1, #255
 3184 045c 00D9     		bls	.L256
1706:Src/maze_solve.c ****           i10 = 255;
 3185              		.loc 1 1706 15 view .LVU1233
 3186 045e FF21     		movs	r1, #255
 3187              	.LVL445:
 3188              	.L256:
1707:Src/maze_solve.c ****         }
1708:Src/maze_solve.c **** 
1709:Src/maze_solve.c ****         if (k <= 7) {
 3189              		.loc 1 1709 9 is_stmt 1 view .LVU1234
 3190              		.loc 1 1709 12 is_stmt 0 view .LVU1235
 3191 0460 0728     		cmp	r0, #7
 3192 0462 00F2A080 		bhi	.L374
1710:Src/maze_solve.c ****           n_k = (unsigned char)(1 << k);
 3193              		.loc 1 1710 11 is_stmt 1 view .LVU1236
 3194              		.loc 1 1710 35 is_stmt 0 view .LVU1237
 3195 0466 4FF0010C 		mov	ip, #1
 3196 046a 0CFA00F0 		lsl	r0, ip, r0
 3197              	.LVL446:
 3198              		.loc 1 1710 35 view .LVU1238
 3199 046e C0B2     		uxtb	r0, r0
 3200              	.LVL447:
 3201              	.L257:
1711:Src/maze_solve.c ****         } else {
1712:Src/maze_solve.c ****           n_k = 0;
1713:Src/maze_solve.c ****         }
1714:Src/maze_solve.c **** 
1715:Src/maze_solve.c ****         i10 = (int)((unsigned int)n_k * serch_write[i10 - 1]);
 3202              		.loc 1 1715 9 is_stmt 1 view .LVU1239
 3203              		.loc 1 1715 57 is_stmt 0 view .LVU1240
 3204 0470 0139     		subs	r1, r1, #1
 3205              	.LVL448:
 3206              		.loc 1 1715 52 view .LVU1241
 3207 0472 0DF58257 		add	r7, sp, #4160
 3208 0476 0837     		adds	r7, r7, #8
 3209 0478 3944     		add	r1, r1, r7
 3210              	.LVL449:
 3211              		.loc 1 1715 52 view .LVU1242
 3212 047a 11F8081C 		ldrb	r1, [r1, #-8]	@ zero_extendqisi2
 3213              		.loc 1 1715 39 view .LVU1243
 3214 047e 00FB01F1 		mul	r1, r0, r1
 3215              	.LVL450:
1716:Src/maze_solve.c ****         if ((unsigned int)i10 > 255U) {
 3216              		.loc 1 1716 9 is_stmt 1 view .LVU1244
 3217              		.loc 1 1716 12 is_stmt 0 view .LVU1245
 3218 0482 FF29     		cmp	r1, #255
 3219 0484 00D9     		bls	.L258
1717:Src/maze_solve.c ****           i10 = 255;
 3220              		.loc 1 1717 15 view .LVU1246
 3221 0486 FF21     		movs	r1, #255
 3222              	.LVL451:
 3223              	.L258:
1718:Src/maze_solve.c ****         }
ARM GAS  C:\Temp\ccX6Vjzt.s 			page 99


1719:Src/maze_solve.c **** 
1720:Src/maze_solve.c ****         i13 = q0;
 3224              		.loc 1 1720 9 is_stmt 1 view .LVU1247
1721:Src/maze_solve.c ****         if ((unsigned int)q0 > 255U) {
 3225              		.loc 1 1721 9 view .LVU1248
1722:Src/maze_solve.c ****           i13 = 255;
1723:Src/maze_solve.c ****           q0 = 255;
1724:Src/maze_solve.c ****         }
1725:Src/maze_solve.c **** 
1726:Src/maze_solve.c ****         maze_wall_search[(i13 + i11) - 1] = (unsigned char)(maze_wall_search[(q0 +
 3226              		.loc 1 1726 9 view .LVU1249
 3227              		.loc 1 1726 77 is_stmt 0 view .LVU1250
 3228 0488 1BF80300 		ldrb	r0, [fp, r3]	@ zero_extendqisi2
 3229              	.LVL452:
1727:Src/maze_solve.c ****           i11) - 1] | (unsigned char)i10);
 3230              		.loc 1 1727 23 view .LVU1251
 3231 048c C9B2     		uxtb	r1, r1
 3232              	.LVL453:
1726:Src/maze_solve.c ****           i11) - 1] | (unsigned char)i10);
 3233              		.loc 1 1726 45 view .LVU1252
 3234 048e 0143     		orrs	r1, r1, r0
1726:Src/maze_solve.c ****           i11) - 1] | (unsigned char)i10);
 3235              		.loc 1 1726 43 view .LVU1253
 3236 0490 0BF80310 		strb	r1, [fp, r3]
 3237              	.LVL454:
 3238              	.L251:
1728:Src/maze_solve.c ****       }
1729:Src/maze_solve.c **** 
1730:Src/maze_solve.c ****       /* 東側のマスの西側の壁情報 */
1731:Src/maze_solve.c ****       qY = maze_col_size - 1U;
 3239              		.loc 1 1731 7 is_stmt 1 view .LVU1254
 3240              		.loc 1 1731 10 is_stmt 0 view .LVU1255
 3241 0494 0A9B     		ldr	r3, [sp, #40]
 3242 0496 591E     		subs	r1, r3, #1
 3243              	.LVL455:
1732:Src/maze_solve.c ****       if (qY > maze_col_size) {
 3244              		.loc 1 1732 7 is_stmt 1 view .LVU1256
 3245              		.loc 1 1732 10 is_stmt 0 view .LVU1257
 3246 0498 8B42     		cmp	r3, r1
 3247 049a 00D2     		bcs	.L259
1733:Src/maze_solve.c ****         qY = 0U;
 3248              		.loc 1 1733 12 view .LVU1258
 3249 049c 0021     		movs	r1, #0
 3250              	.LVL456:
 3251              	.L259:
1734:Src/maze_solve.c ****       }
1735:Src/maze_solve.c **** 
1736:Src/maze_solve.c ****       if (*current_x < (int)qY) {
 3252              		.loc 1 1736 7 is_stmt 1 view .LVU1259
 3253              		.loc 1 1736 11 is_stmt 0 view .LVU1260
 3254 049e 2B78     		ldrb	r3, [r5]	@ zero_extendqisi2
 3255              		.loc 1 1736 10 view .LVU1261
 3256 04a0 8B42     		cmp	r3, r1
 3257 04a2 4DDA     		bge	.L260
1737:Src/maze_solve.c ****         k = g_direction->contents.West;
 3258              		.loc 1 1737 9 is_stmt 1 view .LVU1262
 3259              		.loc 1 1737 11 is_stmt 0 view .LVU1263
ARM GAS  C:\Temp\ccX6Vjzt.s 			page 100


 3260 04a4 E078     		ldrb	r0, [r4, #3]	@ zero_extendqisi2
 3261              	.LVL457:
1738:Src/maze_solve.c ****         i10 = (int)(g_direction->contents.East + 1U);
 3262              		.loc 1 1738 9 is_stmt 1 view .LVU1264
 3263              		.loc 1 1738 42 is_stmt 0 view .LVU1265
 3264 04a6 6178     		ldrb	r1, [r4, #1]	@ zero_extendqisi2
 3265              	.LVL458:
 3266              		.loc 1 1738 48 view .LVU1266
 3267 04a8 0131     		adds	r1, r1, #1
 3268              	.LVL459:
1739:Src/maze_solve.c ****         if ((unsigned int)i10 > 255U) {
 3269              		.loc 1 1739 9 is_stmt 1 view .LVU1267
 3270              		.loc 1 1739 12 is_stmt 0 view .LVU1268
 3271 04aa FF29     		cmp	r1, #255
 3272 04ac 00D9     		bls	.L261
1740:Src/maze_solve.c ****           i10 = 255;
 3273              		.loc 1 1740 15 view .LVU1269
 3274 04ae FF21     		movs	r1, #255
 3275              	.LVL460:
 3276              	.L261:
1741:Src/maze_solve.c ****         }
1742:Src/maze_solve.c **** 
1743:Src/maze_solve.c ****         if (k <= 7) {
 3277              		.loc 1 1743 9 is_stmt 1 view .LVU1270
 3278              		.loc 1 1743 12 is_stmt 0 view .LVU1271
 3279 04b0 0728     		cmp	r0, #7
 3280 04b2 7AD8     		bhi	.L378
1744:Src/maze_solve.c ****           k_k = (unsigned char)(1 << k);
 3281              		.loc 1 1744 11 is_stmt 1 view .LVU1272
 3282              		.loc 1 1744 35 is_stmt 0 view .LVU1273
 3283 04b4 4FF0010C 		mov	ip, #1
 3284 04b8 0CFA00F0 		lsl	r0, ip, r0
 3285              	.LVL461:
 3286              		.loc 1 1744 35 view .LVU1274
 3287 04bc C0B2     		uxtb	r0, r0
 3288              	.LVL462:
 3289              	.L262:
1745:Src/maze_solve.c ****         } else {
1746:Src/maze_solve.c ****           k_k = 0;
1747:Src/maze_solve.c ****         }
1748:Src/maze_solve.c **** 
1749:Src/maze_solve.c ****         i10 = (int)((unsigned int)k_k * wall_write[i10 - 1]);
 3290              		.loc 1 1749 9 is_stmt 1 view .LVU1275
 3291              		.loc 1 1749 56 is_stmt 0 view .LVU1276
 3292 04be 0139     		subs	r1, r1, #1
 3293              	.LVL463:
 3294              		.loc 1 1749 51 view .LVU1277
 3295 04c0 0DF58257 		add	r7, sp, #4160
 3296 04c4 0837     		adds	r7, r7, #8
 3297 04c6 3944     		add	r1, r1, r7
 3298              	.LVL464:
 3299              		.loc 1 1749 51 view .LVU1278
 3300 04c8 11F8041C 		ldrb	r1, [r1, #-4]	@ zero_extendqisi2
 3301              		.loc 1 1749 39 view .LVU1279
 3302 04cc 00FB01F1 		mul	r1, r0, r1
 3303              	.LVL465:
1750:Src/maze_solve.c ****         if ((unsigned int)i10 > 255U) {
ARM GAS  C:\Temp\ccX6Vjzt.s 			page 101


 3304              		.loc 1 1750 9 is_stmt 1 view .LVU1280
 3305              		.loc 1 1750 12 is_stmt 0 view .LVU1281
 3306 04d0 FF29     		cmp	r1, #255
 3307 04d2 00D9     		bls	.L263
1751:Src/maze_solve.c ****           i10 = 255;
 3308              		.loc 1 1751 15 view .LVU1282
 3309 04d4 FF21     		movs	r1, #255
 3310              	.LVL466:
 3311              	.L263:
1752:Src/maze_solve.c ****         }
1753:Src/maze_solve.c **** 
1754:Src/maze_solve.c ****         q0 = (int)(*current_x + 1U);
 3312              		.loc 1 1754 9 is_stmt 1 view .LVU1283
 3313              		.loc 1 1754 31 is_stmt 0 view .LVU1284
 3314 04d6 0133     		adds	r3, r3, #1
1755:Src/maze_solve.c ****         i13 = q0;
 3315              		.loc 1 1755 9 is_stmt 1 view .LVU1285
1756:Src/maze_solve.c ****         if ((unsigned int)q0 > 255U) {
 3316              		.loc 1 1756 9 view .LVU1286
 3317              		.loc 1 1756 12 is_stmt 0 view .LVU1287
 3318 04d8 FF2B     		cmp	r3, #255
 3319 04da 00D9     		bls	.L264
 3320              	.LVL467:
1757:Src/maze_solve.c ****           i13 = 255;
 3321              		.loc 1 1757 15 view .LVU1288
 3322 04dc FF23     		movs	r3, #255
 3323              	.LVL468:
 3324              	.L264:
1758:Src/maze_solve.c ****         }
1759:Src/maze_solve.c **** 
1760:Src/maze_solve.c ****         i14 = q0;
 3325              		.loc 1 1760 9 is_stmt 1 view .LVU1289
1761:Src/maze_solve.c ****         if ((unsigned int)q0 > 255U) {
 3326              		.loc 1 1761 9 view .LVU1290
1762:Src/maze_solve.c ****           i14 = 255;
1763:Src/maze_solve.c ****         }
1764:Src/maze_solve.c **** 
1765:Src/maze_solve.c ****         maze_wall[(*current_y + ((i13 - 1) << 5)) - 1] = (unsigned char)
 3327              		.loc 1 1765 9 view .LVU1291
1766:Src/maze_solve.c ****           (maze_wall[(*current_y + ((i14 - 1) << 5)) - 1] | (unsigned char)i10);
 3328              		.loc 1 1766 23 is_stmt 0 view .LVU1292
 3329 04de 99F800C0 		ldrb	ip, [r9]	@ zero_extendqisi2
 3330              		.loc 1 1766 42 view .LVU1293
 3331 04e2 013B     		subs	r3, r3, #1
 3332              		.loc 1 1766 47 view .LVU1294
 3333 04e4 5801     		lsls	r0, r3, #5
 3334              	.LVL469:
 3335              		.loc 1 1766 34 view .LVU1295
 3336 04e6 0CEB4313 		add	r3, ip, r3, lsl #5
 3337              		.loc 1 1766 21 view .LVU1296
 3338 04ea 013B     		subs	r3, r3, #1
 3339 04ec 18F803C0 		ldrb	ip, [r8, r3]	@ zero_extendqisi2
 3340              		.loc 1 1766 61 view .LVU1297
 3341 04f0 C9B2     		uxtb	r1, r1
 3342              	.LVL470:
1765:Src/maze_solve.c ****           (maze_wall[(*current_y + ((i14 - 1) << 5)) - 1] | (unsigned char)i10);
 3343              		.loc 1 1765 58 view .LVU1298
ARM GAS  C:\Temp\ccX6Vjzt.s 			page 102


 3344 04f2 4CEA0101 		orr	r1, ip, r1
1765:Src/maze_solve.c ****           (maze_wall[(*current_y + ((i14 - 1) << 5)) - 1] | (unsigned char)i10);
 3345              		.loc 1 1765 56 view .LVU1299
 3346 04f6 08F80310 		strb	r1, [r8, r3]
 3347              	.LVL471:
1767:Src/maze_solve.c ****         k = g_direction->contents.West;
 3348              		.loc 1 1767 9 is_stmt 1 view .LVU1300
 3349              		.loc 1 1767 11 is_stmt 0 view .LVU1301
 3350 04fa E378     		ldrb	r3, [r4, #3]	@ zero_extendqisi2
 3351              	.LVL472:
1768:Src/maze_solve.c ****         i10 = (int)(g_direction->contents.East + 1U);
 3352              		.loc 1 1768 9 is_stmt 1 view .LVU1302
 3353              		.loc 1 1768 42 is_stmt 0 view .LVU1303
 3354 04fc 6178     		ldrb	r1, [r4, #1]	@ zero_extendqisi2
 3355              		.loc 1 1768 48 view .LVU1304
 3356 04fe 0131     		adds	r1, r1, #1
 3357              	.LVL473:
1769:Src/maze_solve.c ****         if ((unsigned int)i10 > 255U) {
 3358              		.loc 1 1769 9 is_stmt 1 view .LVU1305
 3359              		.loc 1 1769 12 is_stmt 0 view .LVU1306
 3360 0500 FF29     		cmp	r1, #255
 3361 0502 00D9     		bls	.L265
1770:Src/maze_solve.c ****           i10 = 255;
 3362              		.loc 1 1770 15 view .LVU1307
 3363 0504 FF21     		movs	r1, #255
 3364              	.LVL474:
 3365              	.L265:
1771:Src/maze_solve.c ****         }
1772:Src/maze_solve.c **** 
1773:Src/maze_solve.c ****         if (k <= 7) {
 3366              		.loc 1 1773 9 is_stmt 1 view .LVU1308
 3367              		.loc 1 1773 12 is_stmt 0 view .LVU1309
 3368 0506 072B     		cmp	r3, #7
 3369 0508 51D8     		bhi	.L382
1774:Src/maze_solve.c ****           o_k = (unsigned char)(1 << k);
 3370              		.loc 1 1774 11 is_stmt 1 view .LVU1310
 3371              		.loc 1 1774 35 is_stmt 0 view .LVU1311
 3372 050a 4FF0010C 		mov	ip, #1
 3373 050e 0CFA03F3 		lsl	r3, ip, r3
 3374              	.LVL475:
 3375              		.loc 1 1774 35 view .LVU1312
 3376 0512 DBB2     		uxtb	r3, r3
 3377              	.LVL476:
 3378              	.L266:
1775:Src/maze_solve.c ****         } else {
1776:Src/maze_solve.c ****           o_k = 0;
1777:Src/maze_solve.c ****         }
1778:Src/maze_solve.c **** 
1779:Src/maze_solve.c ****         i10 = (int)((unsigned int)o_k * serch_write[i10 - 1]);
 3379              		.loc 1 1779 9 is_stmt 1 view .LVU1313
 3380              		.loc 1 1779 57 is_stmt 0 view .LVU1314
 3381 0514 0139     		subs	r1, r1, #1
 3382              	.LVL477:
 3383              		.loc 1 1779 52 view .LVU1315
 3384 0516 0DF58257 		add	r7, sp, #4160
 3385 051a 0837     		adds	r7, r7, #8
 3386 051c 3944     		add	r1, r1, r7
ARM GAS  C:\Temp\ccX6Vjzt.s 			page 103


 3387              	.LVL478:
 3388              		.loc 1 1779 52 view .LVU1316
 3389 051e 11F8081C 		ldrb	r1, [r1, #-8]	@ zero_extendqisi2
 3390              		.loc 1 1779 39 view .LVU1317
 3391 0522 03FB01F3 		mul	r3, r3, r1
 3392              	.LVL479:
1780:Src/maze_solve.c ****         if ((unsigned int)i10 > 255U) {
 3393              		.loc 1 1780 9 is_stmt 1 view .LVU1318
 3394              		.loc 1 1780 12 is_stmt 0 view .LVU1319
 3395 0526 FF2B     		cmp	r3, #255
 3396 0528 00D9     		bls	.L267
1781:Src/maze_solve.c ****           i10 = 255;
 3397              		.loc 1 1781 15 view .LVU1320
 3398 052a FF23     		movs	r3, #255
 3399              	.LVL480:
 3400              	.L267:
1782:Src/maze_solve.c ****         }
1783:Src/maze_solve.c **** 
1784:Src/maze_solve.c ****         i13 = q0;
 3401              		.loc 1 1784 9 is_stmt 1 view .LVU1321
1785:Src/maze_solve.c ****         if ((unsigned int)q0 > 255U) {
 3402              		.loc 1 1785 9 view .LVU1322
1786:Src/maze_solve.c ****           i13 = 255;
1787:Src/maze_solve.c ****           q0 = 255;
1788:Src/maze_solve.c ****         }
1789:Src/maze_solve.c **** 
1790:Src/maze_solve.c ****         maze_wall_search[(*current_y + ((i13 - 1) << 5)) - 1] = (unsigned char)
 3403              		.loc 1 1790 9 view .LVU1323
1791:Src/maze_solve.c ****           (maze_wall_search[(*current_y + ((q0 - 1) << 5)) - 1] | (unsigned char)
 3404              		.loc 1 1791 30 is_stmt 0 view .LVU1324
 3405 052c 99F80010 		ldrb	r1, [r9]	@ zero_extendqisi2
 3406              		.loc 1 1791 41 view .LVU1325
 3407 0530 0844     		add	r0, r0, r1
 3408              		.loc 1 1791 28 view .LVU1326
 3409 0532 0138     		subs	r0, r0, #1
 3410 0534 1BF80010 		ldrb	r1, [fp, r0]	@ zero_extendqisi2
 3411              		.loc 1 1791 67 view .LVU1327
 3412 0538 DBB2     		uxtb	r3, r3
 3413              	.LVL481:
1790:Src/maze_solve.c ****           (maze_wall_search[(*current_y + ((q0 - 1) << 5)) - 1] | (unsigned char)
 3414              		.loc 1 1790 65 view .LVU1328
 3415 053a 0B43     		orrs	r3, r3, r1
1790:Src/maze_solve.c ****           (maze_wall_search[(*current_y + ((q0 - 1) << 5)) - 1] | (unsigned char)
 3416              		.loc 1 1790 63 view .LVU1329
 3417 053c 0BF80030 		strb	r3, [fp, r0]
 3418              	.LVL482:
 3419              	.L260:
1792:Src/maze_solve.c ****           i10);
1793:Src/maze_solve.c ****       }
1794:Src/maze_solve.c **** 
1795:Src/maze_solve.c ****       /* 南側のマスの北側の壁情報 */
1796:Src/maze_solve.c ****       if (*current_y > 1) {
 3420              		.loc 1 1796 7 is_stmt 1 view .LVU1330
 3421              		.loc 1 1796 11 is_stmt 0 view .LVU1331
 3422 0540 99F80010 		ldrb	r1, [r9]	@ zero_extendqisi2
 3423              		.loc 1 1796 10 view .LVU1332
 3424 0544 0129     		cmp	r1, #1
ARM GAS  C:\Temp\ccX6Vjzt.s 			page 104


 3425 0546 74D9     		bls	.L268
1797:Src/maze_solve.c ****         k = g_direction->contents.North;
 3426              		.loc 1 1797 9 is_stmt 1 view .LVU1333
 3427              		.loc 1 1797 11 is_stmt 0 view .LVU1334
 3428 0548 2078     		ldrb	r0, [r4]	@ zero_extendqisi2
 3429              	.LVL483:
1798:Src/maze_solve.c ****         i10 = (int)(g_direction->contents.South + 1U);
 3430              		.loc 1 1798 9 is_stmt 1 view .LVU1335
 3431              		.loc 1 1798 42 is_stmt 0 view .LVU1336
 3432 054a A378     		ldrb	r3, [r4, #2]	@ zero_extendqisi2
 3433              		.loc 1 1798 49 view .LVU1337
 3434 054c 0133     		adds	r3, r3, #1
 3435              	.LVL484:
1799:Src/maze_solve.c ****         if ((unsigned int)i10 > 255U) {
 3436              		.loc 1 1799 9 is_stmt 1 view .LVU1338
 3437              		.loc 1 1799 12 is_stmt 0 view .LVU1339
 3438 054e FF2B     		cmp	r3, #255
 3439 0550 00D9     		bls	.L269
1800:Src/maze_solve.c ****           i10 = 255;
 3440              		.loc 1 1800 15 view .LVU1340
 3441 0552 FF23     		movs	r3, #255
 3442              	.LVL485:
 3443              	.L269:
1801:Src/maze_solve.c ****         }
1802:Src/maze_solve.c **** 
1803:Src/maze_solve.c ****         if (k <= 7) {
 3444              		.loc 1 1803 9 is_stmt 1 view .LVU1341
 3445              		.loc 1 1803 12 is_stmt 0 view .LVU1342
 3446 0554 0728     		cmp	r0, #7
 3447 0556 2CD8     		bhi	.L385
1804:Src/maze_solve.c ****           l_k = (unsigned char)(1 << k);
 3448              		.loc 1 1804 11 is_stmt 1 view .LVU1343
 3449              		.loc 1 1804 35 is_stmt 0 view .LVU1344
 3450 0558 4FF0010C 		mov	ip, #1
 3451 055c 0CFA00F0 		lsl	r0, ip, r0
 3452              	.LVL486:
 3453              		.loc 1 1804 35 view .LVU1345
 3454 0560 C0B2     		uxtb	r0, r0
 3455              	.LVL487:
 3456              		.loc 1 1804 35 view .LVU1346
 3457 0562 27E0     		b	.L270
 3458              	.LVL488:
 3459              	.L436:
1456:Src/maze_solve.c ****         set_front_wall_flg();//前壁補正フラグを立てる
 3460              		.loc 1 1456 9 is_stmt 1 view .LVU1347
1456:Src/maze_solve.c ****         set_front_wall_flg();//前壁補正フラグを立てる
 3461              		.loc 1 1456 20 is_stmt 0 view .LVU1348
 3462 0564 9AF80030 		ldrb	r3, [r10]	@ zero_extendqisi2
1456:Src/maze_solve.c ****         set_front_wall_flg();//前壁補正フラグを立てる
 3463              		.loc 1 1456 33 view .LVU1349
 3464 0568 03F00303 		and	r3, r3, #3
1456:Src/maze_solve.c ****         set_front_wall_flg();//前壁補正フラグを立てる
 3465              		.loc 1 1456 54 view .LVU1350
 3466 056c 089A     		ldr	r2, [sp, #32]
 3467 056e 5278     		ldrb	r2, [r2, #1]	@ zero_extendqisi2
1456:Src/maze_solve.c ****         set_front_wall_flg();//前壁補正フラグを立てる
 3468              		.loc 1 1456 38 view .LVU1351
ARM GAS  C:\Temp\ccX6Vjzt.s 			page 105


 3469 0570 0DF58251 		add	r1, sp, #4160
 3470 0574 0831     		adds	r1, r1, #8
 3471 0576 0B44     		add	r3, r3, r1
 3472 0578 03F8042C 		strb	r2, [r3, #-4]
1457:Src/maze_solve.c ****       }
 3473              		.loc 1 1457 9 is_stmt 1 view .LVU1352
 3474 057c FFF7FEFF 		bl	set_front_wall_flg
 3475              	.LVL489:
 3476 0580 B6E5     		b	.L219
 3477              	.LVL490:
 3478              	.L345:
1521:Src/maze_solve.c ****       }
 3479              		.loc 1 1521 13 is_stmt 0 view .LVU1353
 3480 0582 0021     		movs	r1, #0
 3481 0584 2FE6     		b	.L227
 3482              	.LVL491:
 3483              	.L348:
1541:Src/maze_solve.c ****       }
 3484              		.loc 1 1541 13 view .LVU1354
 3485 0586 0021     		movs	r1, #0
 3486              	.LVL492:
1541:Src/maze_solve.c ****       }
 3487              		.loc 1 1541 13 view .LVU1355
 3488 0588 57E6     		b	.L230
 3489              	.LVL493:
 3490              	.L351:
1561:Src/maze_solve.c ****       }
 3491              		.loc 1 1561 13 view .LVU1356
 3492 058a 0021     		movs	r1, #0
 3493              	.LVL494:
1561:Src/maze_solve.c ****       }
 3494              		.loc 1 1561 13 view .LVU1357
 3495 058c 74E6     		b	.L233
 3496              	.LVL495:
 3497              	.L354:
1579:Src/maze_solve.c ****       }
 3498              		.loc 1 1579 13 view .LVU1358
 3499 058e 0021     		movs	r1, #0
 3500              	.LVL496:
1579:Src/maze_solve.c ****       }
 3501              		.loc 1 1579 13 view .LVU1359
 3502 0590 91E6     		b	.L236
 3503              	.LVL497:
 3504              	.L357:
1599:Src/maze_solve.c ****       }
 3505              		.loc 1 1599 13 view .LVU1360
 3506 0592 0021     		movs	r1, #0
 3507              	.LVL498:
1599:Src/maze_solve.c ****       }
 3508              		.loc 1 1599 13 view .LVU1361
 3509 0594 AEE6     		b	.L239
 3510              	.LVL499:
 3511              	.L360:
1617:Src/maze_solve.c ****       }
 3512              		.loc 1 1617 13 view .LVU1362
 3513 0596 0021     		movs	r1, #0
 3514              	.LVL500:
ARM GAS  C:\Temp\ccX6Vjzt.s 			page 106


1617:Src/maze_solve.c ****       }
 3515              		.loc 1 1617 13 view .LVU1363
 3516 0598 CBE6     		b	.L242
 3517              	.LVL501:
 3518              	.L363:
1637:Src/maze_solve.c ****       }
 3519              		.loc 1 1637 13 view .LVU1364
 3520 059a 0021     		movs	r1, #0
 3521              	.LVL502:
1637:Src/maze_solve.c ****       }
 3522              		.loc 1 1637 13 view .LVU1365
 3523 059c E8E6     		b	.L245
 3524              	.LVL503:
 3525              	.L366:
1655:Src/maze_solve.c ****       }
 3526              		.loc 1 1655 13 view .LVU1366
 3527 059e 0021     		movs	r1, #0
 3528              	.LVL504:
1655:Src/maze_solve.c ****       }
 3529              		.loc 1 1655 13 view .LVU1367
 3530 05a0 05E7     		b	.L248
 3531              	.LVL505:
 3532              	.L370:
1682:Src/maze_solve.c ****         }
 3533              		.loc 1 1682 15 view .LVU1368
 3534 05a2 0020     		movs	r0, #0
 3535              	.LVL506:
1682:Src/maze_solve.c ****         }
 3536              		.loc 1 1682 15 view .LVU1369
 3537 05a4 3EE7     		b	.L253
 3538              	.LVL507:
 3539              	.L374:
1712:Src/maze_solve.c ****         }
 3540              		.loc 1 1712 15 view .LVU1370
 3541 05a6 0020     		movs	r0, #0
 3542              	.LVL508:
1712:Src/maze_solve.c ****         }
 3543              		.loc 1 1712 15 view .LVU1371
 3544 05a8 62E7     		b	.L257
 3545              	.LVL509:
 3546              	.L378:
1746:Src/maze_solve.c ****         }
 3547              		.loc 1 1746 15 view .LVU1372
 3548 05aa 0020     		movs	r0, #0
 3549              	.LVL510:
1746:Src/maze_solve.c ****         }
 3550              		.loc 1 1746 15 view .LVU1373
 3551 05ac 87E7     		b	.L262
 3552              	.LVL511:
 3553              	.L382:
1776:Src/maze_solve.c ****         }
 3554              		.loc 1 1776 15 view .LVU1374
 3555 05ae 0023     		movs	r3, #0
 3556              	.LVL512:
1776:Src/maze_solve.c ****         }
 3557              		.loc 1 1776 15 view .LVU1375
 3558 05b0 B0E7     		b	.L266
ARM GAS  C:\Temp\ccX6Vjzt.s 			page 107


 3559              	.LVL513:
 3560              	.L385:
1805:Src/maze_solve.c ****         } else {
1806:Src/maze_solve.c ****           l_k = 0;
 3561              		.loc 1 1806 15 view .LVU1376
 3562 05b2 0020     		movs	r0, #0
 3563              	.LVL514:
 3564              	.L270:
1807:Src/maze_solve.c ****         }
1808:Src/maze_solve.c **** 
1809:Src/maze_solve.c ****         i10 = (int)((unsigned int)l_k * wall_write[i10 - 1]);
 3565              		.loc 1 1809 9 is_stmt 1 view .LVU1377
 3566              		.loc 1 1809 56 is_stmt 0 view .LVU1378
 3567 05b4 013B     		subs	r3, r3, #1
 3568              	.LVL515:
 3569              		.loc 1 1809 51 view .LVU1379
 3570 05b6 0DF58257 		add	r7, sp, #4160
 3571 05ba 0837     		adds	r7, r7, #8
 3572 05bc 3B44     		add	r3, r3, r7
 3573              	.LVL516:
 3574              		.loc 1 1809 51 view .LVU1380
 3575 05be 13F8043C 		ldrb	r3, [r3, #-4]	@ zero_extendqisi2
 3576              		.loc 1 1809 39 view .LVU1381
 3577 05c2 00FB03F0 		mul	r0, r0, r3
 3578              	.LVL517:
1810:Src/maze_solve.c ****         if ((unsigned int)i10 > 255U) {
 3579              		.loc 1 1810 9 is_stmt 1 view .LVU1382
 3580              		.loc 1 1810 12 is_stmt 0 view .LVU1383
 3581 05c6 FF28     		cmp	r0, #255
 3582 05c8 00D9     		bls	.L271
1811:Src/maze_solve.c ****           i10 = 255;
 3583              		.loc 1 1811 15 view .LVU1384
 3584 05ca FF20     		movs	r0, #255
 3585              	.LVL518:
 3586              	.L271:
1812:Src/maze_solve.c ****         }
1813:Src/maze_solve.c **** 
1814:Src/maze_solve.c ****         q0 = *current_y;
 3587              		.loc 1 1814 9 is_stmt 1 view .LVU1385
1815:Src/maze_solve.c ****         qY = q0 - 1U;
 3588              		.loc 1 1815 9 view .LVU1386
 3589              		.loc 1 1815 12 is_stmt 0 view .LVU1387
 3590 05cc 4B1E     		subs	r3, r1, #1
 3591              	.LVL519:
1816:Src/maze_solve.c ****         if (qY > (unsigned int)q0) {
 3592              		.loc 1 1816 9 is_stmt 1 view .LVU1388
 3593              		.loc 1 1816 12 is_stmt 0 view .LVU1389
 3594 05ce 9942     		cmp	r1, r3
 3595 05d0 00D2     		bcs	.L272
1817:Src/maze_solve.c ****           qY = 0U;
 3596              		.loc 1 1817 14 view .LVU1390
 3597 05d2 0023     		movs	r3, #0
 3598              	.LVL520:
 3599              	.L272:
1818:Src/maze_solve.c ****         }
1819:Src/maze_solve.c **** 
1820:Src/maze_solve.c ****         q0 = *current_y;
ARM GAS  C:\Temp\ccX6Vjzt.s 			page 108


 3600              		.loc 1 1820 9 is_stmt 1 view .LVU1391
1821:Src/maze_solve.c ****         b_qY = q0 - 1U;
 3601              		.loc 1 1821 9 view .LVU1392
1822:Src/maze_solve.c ****         if (b_qY > (unsigned int)q0) {
 3602              		.loc 1 1822 9 view .LVU1393
1823:Src/maze_solve.c ****           b_qY = 0U;
1824:Src/maze_solve.c ****         }
1825:Src/maze_solve.c **** 
1826:Src/maze_solve.c ****         maze_wall[((int)qY + i11) - 1] = (unsigned char)(maze_wall[((int)b_qY +
 3603              		.loc 1 1826 9 view .LVU1394
 3604              		.loc 1 1826 79 is_stmt 0 view .LVU1395
 3605 05d4 1344     		add	r3, r3, r2
 3606              	.LVL521:
 3607              		.loc 1 1826 67 view .LVU1396
 3608 05d6 013B     		subs	r3, r3, #1
 3609 05d8 18F80310 		ldrb	r1, [r8, r3]	@ zero_extendqisi2
 3610              	.LVL522:
1827:Src/maze_solve.c ****           i11) - 1] | (unsigned char)i10);
 3611              		.loc 1 1827 23 view .LVU1397
 3612 05dc C0B2     		uxtb	r0, r0
 3613              	.LVL523:
1826:Src/maze_solve.c ****           i11) - 1] | (unsigned char)i10);
 3614              		.loc 1 1826 42 view .LVU1398
 3615 05de 0843     		orrs	r0, r0, r1
1826:Src/maze_solve.c ****           i11) - 1] | (unsigned char)i10);
 3616              		.loc 1 1826 40 view .LVU1399
 3617 05e0 08F80300 		strb	r0, [r8, r3]
 3618              	.LVL524:
1828:Src/maze_solve.c ****         k = g_direction->contents.North;
 3619              		.loc 1 1828 9 is_stmt 1 view .LVU1400
 3620              		.loc 1 1828 11 is_stmt 0 view .LVU1401
 3621 05e4 2078     		ldrb	r0, [r4]	@ zero_extendqisi2
 3622              	.LVL525:
1829:Src/maze_solve.c ****         i10 = (int)(g_direction->contents.South + 1U);
 3623              		.loc 1 1829 9 is_stmt 1 view .LVU1402
 3624              		.loc 1 1829 42 is_stmt 0 view .LVU1403
 3625 05e6 A378     		ldrb	r3, [r4, #2]	@ zero_extendqisi2
 3626              		.loc 1 1829 49 view .LVU1404
 3627 05e8 0133     		adds	r3, r3, #1
 3628              	.LVL526:
1830:Src/maze_solve.c ****         if ((unsigned int)i10 > 255U) {
 3629              		.loc 1 1830 9 is_stmt 1 view .LVU1405
 3630              		.loc 1 1830 12 is_stmt 0 view .LVU1406
 3631 05ea FF2B     		cmp	r3, #255
 3632 05ec 00D9     		bls	.L273
1831:Src/maze_solve.c ****           i10 = 255;
 3633              		.loc 1 1831 15 view .LVU1407
 3634 05ee FF23     		movs	r3, #255
 3635              	.LVL527:
 3636              	.L273:
1832:Src/maze_solve.c ****         }
1833:Src/maze_solve.c **** 
1834:Src/maze_solve.c ****         if (k <= 7) {
 3637              		.loc 1 1834 9 is_stmt 1 view .LVU1408
 3638              		.loc 1 1834 12 is_stmt 0 view .LVU1409
 3639 05f0 0728     		cmp	r0, #7
 3640 05f2 03D8     		bhi	.L389
ARM GAS  C:\Temp\ccX6Vjzt.s 			page 109


1835:Src/maze_solve.c ****           q_k = (unsigned char)(1 << k);
 3641              		.loc 1 1835 11 is_stmt 1 view .LVU1410
 3642              		.loc 1 1835 35 is_stmt 0 view .LVU1411
 3643 05f4 0121     		movs	r1, #1
 3644 05f6 8140     		lsls	r1, r1, r0
 3645 05f8 C9B2     		uxtb	r1, r1
 3646              	.LVL528:
 3647              		.loc 1 1835 35 view .LVU1412
 3648 05fa 00E0     		b	.L274
 3649              	.LVL529:
 3650              	.L389:
1836:Src/maze_solve.c ****         } else {
1837:Src/maze_solve.c ****           q_k = 0;
 3651              		.loc 1 1837 15 view .LVU1413
 3652 05fc 0021     		movs	r1, #0
 3653              	.L274:
 3654              	.LVL530:
1838:Src/maze_solve.c ****         }
1839:Src/maze_solve.c **** 
1840:Src/maze_solve.c ****         i10 = (int)((unsigned int)q_k * serch_write[i10 - 1]);
 3655              		.loc 1 1840 9 is_stmt 1 view .LVU1414
 3656              		.loc 1 1840 57 is_stmt 0 view .LVU1415
 3657 05fe 013B     		subs	r3, r3, #1
 3658              	.LVL531:
 3659              		.loc 1 1840 52 view .LVU1416
 3660 0600 0DF58250 		add	r0, sp, #4160
 3661              	.LVL532:
 3662              		.loc 1 1840 52 view .LVU1417
 3663 0604 0830     		adds	r0, r0, #8
 3664 0606 0344     		add	r3, r3, r0
 3665              	.LVL533:
 3666              		.loc 1 1840 52 view .LVU1418
 3667 0608 13F8083C 		ldrb	r3, [r3, #-8]	@ zero_extendqisi2
 3668              		.loc 1 1840 39 view .LVU1419
 3669 060c 01FB03F3 		mul	r3, r1, r3
 3670              	.LVL534:
1841:Src/maze_solve.c ****         if ((unsigned int)i10 > 255U) {
 3671              		.loc 1 1841 9 is_stmt 1 view .LVU1420
 3672              		.loc 1 1841 12 is_stmt 0 view .LVU1421
 3673 0610 FF2B     		cmp	r3, #255
 3674 0612 00D9     		bls	.L275
1842:Src/maze_solve.c ****           i10 = 255;
 3675              		.loc 1 1842 15 view .LVU1422
 3676 0614 FF23     		movs	r3, #255
 3677              	.LVL535:
 3678              	.L275:
1843:Src/maze_solve.c ****         }
1844:Src/maze_solve.c **** 
1845:Src/maze_solve.c ****         q0 = *current_y;
 3679              		.loc 1 1845 9 is_stmt 1 view .LVU1423
 3680              		.loc 1 1845 14 is_stmt 0 view .LVU1424
 3681 0616 99F80000 		ldrb	r0, [r9]	@ zero_extendqisi2
 3682              	.LVL536:
1846:Src/maze_solve.c ****         qY = q0 - 1U;
 3683              		.loc 1 1846 9 is_stmt 1 view .LVU1425
 3684              		.loc 1 1846 12 is_stmt 0 view .LVU1426
 3685 061a 411E     		subs	r1, r0, #1
ARM GAS  C:\Temp\ccX6Vjzt.s 			page 110


 3686              	.LVL537:
1847:Src/maze_solve.c ****         if (qY > (unsigned int)q0) {
 3687              		.loc 1 1847 9 is_stmt 1 view .LVU1427
 3688              		.loc 1 1847 12 is_stmt 0 view .LVU1428
 3689 061c 8842     		cmp	r0, r1
 3690 061e 00D2     		bcs	.L276
1848:Src/maze_solve.c ****           qY = 0U;
 3691              		.loc 1 1848 14 view .LVU1429
 3692 0620 0021     		movs	r1, #0
 3693              	.LVL538:
 3694              	.L276:
1849:Src/maze_solve.c ****         }
1850:Src/maze_solve.c **** 
1851:Src/maze_solve.c ****         q0 = *current_y;
 3695              		.loc 1 1851 9 is_stmt 1 view .LVU1430
1852:Src/maze_solve.c ****         b_qY = q0 - 1U;
 3696              		.loc 1 1852 9 view .LVU1431
1853:Src/maze_solve.c ****         if (b_qY > (unsigned int)q0) {
 3697              		.loc 1 1853 9 view .LVU1432
1854:Src/maze_solve.c ****           b_qY = 0U;
1855:Src/maze_solve.c ****         }
1856:Src/maze_solve.c **** 
1857:Src/maze_solve.c ****         maze_wall_search[((int)qY + i11) - 1] = (unsigned char)(maze_wall_search
 3698              		.loc 1 1857 9 view .LVU1433
1858:Src/maze_solve.c ****           [((int)b_qY + i11) - 1] | (unsigned char)i10);
 3699              		.loc 1 1858 23 is_stmt 0 view .LVU1434
 3700 0622 0A44     		add	r2, r2, r1
 3701              		.loc 1 1858 11 view .LVU1435
 3702 0624 013A     		subs	r2, r2, #1
 3703 0626 1BF80210 		ldrb	r1, [fp, r2]	@ zero_extendqisi2
 3704              	.LVL539:
 3705              		.loc 1 1858 37 view .LVU1436
 3706 062a DBB2     		uxtb	r3, r3
 3707              	.LVL540:
1857:Src/maze_solve.c ****           [((int)b_qY + i11) - 1] | (unsigned char)i10);
 3708              		.loc 1 1857 49 view .LVU1437
 3709 062c 0B43     		orrs	r3, r3, r1
1857:Src/maze_solve.c ****           [((int)b_qY + i11) - 1] | (unsigned char)i10);
 3710              		.loc 1 1857 47 view .LVU1438
 3711 062e 0BF80230 		strb	r3, [fp, r2]
 3712              	.LVL541:
 3713              	.L268:
1859:Src/maze_solve.c ****       }
1860:Src/maze_solve.c **** 
1861:Src/maze_solve.c ****       /* 西側のマスの東側の壁情報 */
1862:Src/maze_solve.c ****       if (*current_x > 1) {
 3714              		.loc 1 1862 7 is_stmt 1 view .LVU1439
 3715              		.loc 1 1862 11 is_stmt 0 view .LVU1440
 3716 0632 2978     		ldrb	r1, [r5]	@ zero_extendqisi2
 3717              		.loc 1 1862 10 view .LVU1441
 3718 0634 0129     		cmp	r1, #1
 3719 0636 40F25881 		bls	.L218
1863:Src/maze_solve.c ****         k = g_direction->contents.East;
 3720              		.loc 1 1863 9 is_stmt 1 view .LVU1442
 3721              		.loc 1 1863 11 is_stmt 0 view .LVU1443
 3722 063a 6078     		ldrb	r0, [r4, #1]	@ zero_extendqisi2
 3723              	.LVL542:
ARM GAS  C:\Temp\ccX6Vjzt.s 			page 111


1864:Src/maze_solve.c ****         i10 = (int)(g_direction->contents.West + 1U);
 3724              		.loc 1 1864 9 is_stmt 1 view .LVU1444
 3725              		.loc 1 1864 42 is_stmt 0 view .LVU1445
 3726 063c E378     		ldrb	r3, [r4, #3]	@ zero_extendqisi2
 3727              		.loc 1 1864 48 view .LVU1446
 3728 063e 0133     		adds	r3, r3, #1
 3729              	.LVL543:
1865:Src/maze_solve.c ****         if ((unsigned int)i10 > 255U) {
 3730              		.loc 1 1865 9 is_stmt 1 view .LVU1447
 3731              		.loc 1 1865 12 is_stmt 0 view .LVU1448
 3732 0640 FF2B     		cmp	r3, #255
 3733 0642 00D9     		bls	.L277
1866:Src/maze_solve.c ****           i10 = 255;
 3734              		.loc 1 1866 15 view .LVU1449
 3735 0644 FF23     		movs	r3, #255
 3736              	.LVL544:
 3737              	.L277:
1867:Src/maze_solve.c ****         }
1868:Src/maze_solve.c **** 
1869:Src/maze_solve.c ****         if (k <= 7) {
 3738              		.loc 1 1869 9 is_stmt 1 view .LVU1450
 3739              		.loc 1 1869 12 is_stmt 0 view .LVU1451
 3740 0646 0728     		cmp	r0, #7
 3741 0648 03D8     		bhi	.L393
1870:Src/maze_solve.c ****           m_k = (unsigned char)(1 << k);
 3742              		.loc 1 1870 11 is_stmt 1 view .LVU1452
 3743              		.loc 1 1870 35 is_stmt 0 view .LVU1453
 3744 064a 0122     		movs	r2, #1
 3745 064c 8240     		lsls	r2, r2, r0
 3746 064e D2B2     		uxtb	r2, r2
 3747              	.LVL545:
 3748              		.loc 1 1870 35 view .LVU1454
 3749 0650 00E0     		b	.L278
 3750              	.LVL546:
 3751              	.L393:
1871:Src/maze_solve.c ****         } else {
1872:Src/maze_solve.c ****           m_k = 0;
 3752              		.loc 1 1872 15 view .LVU1455
 3753 0652 0022     		movs	r2, #0
 3754              	.L278:
 3755              	.LVL547:
1873:Src/maze_solve.c ****         }
1874:Src/maze_solve.c **** 
1875:Src/maze_solve.c ****         i10 = (int)((unsigned int)m_k * wall_write[i10 - 1]);
 3756              		.loc 1 1875 9 is_stmt 1 view .LVU1456
 3757              		.loc 1 1875 56 is_stmt 0 view .LVU1457
 3758 0654 013B     		subs	r3, r3, #1
 3759              	.LVL548:
 3760              		.loc 1 1875 51 view .LVU1458
 3761 0656 0DF58250 		add	r0, sp, #4160
 3762              	.LVL549:
 3763              		.loc 1 1875 51 view .LVU1459
 3764 065a 0830     		adds	r0, r0, #8
 3765 065c 0344     		add	r3, r3, r0
 3766              	.LVL550:
 3767              		.loc 1 1875 51 view .LVU1460
 3768 065e 13F8043C 		ldrb	r3, [r3, #-4]	@ zero_extendqisi2
ARM GAS  C:\Temp\ccX6Vjzt.s 			page 112


 3769              		.loc 1 1875 39 view .LVU1461
 3770 0662 02FB03F2 		mul	r2, r2, r3
 3771              	.LVL551:
1876:Src/maze_solve.c ****         if ((unsigned int)i10 > 255U) {
 3772              		.loc 1 1876 9 is_stmt 1 view .LVU1462
 3773              		.loc 1 1876 12 is_stmt 0 view .LVU1463
 3774 0666 FF2A     		cmp	r2, #255
 3775 0668 00D9     		bls	.L279
1877:Src/maze_solve.c ****           i10 = 255;
 3776              		.loc 1 1877 15 view .LVU1464
 3777 066a FF22     		movs	r2, #255
 3778              	.LVL552:
 3779              	.L279:
1878:Src/maze_solve.c ****         }
1879:Src/maze_solve.c **** 
1880:Src/maze_solve.c ****         q0 = *current_x;
 3780              		.loc 1 1880 9 is_stmt 1 view .LVU1465
1881:Src/maze_solve.c ****         qY = q0 - 1U;
 3781              		.loc 1 1881 9 view .LVU1466
 3782              		.loc 1 1881 12 is_stmt 0 view .LVU1467
 3783 066c 481E     		subs	r0, r1, #1
 3784              	.LVL553:
1882:Src/maze_solve.c ****         if (qY > (unsigned int)q0) {
 3785              		.loc 1 1882 9 is_stmt 1 view .LVU1468
 3786              		.loc 1 1882 12 is_stmt 0 view .LVU1469
 3787 066e 8142     		cmp	r1, r0
 3788 0670 00D2     		bcs	.L280
1883:Src/maze_solve.c ****           qY = 0U;
 3789              		.loc 1 1883 14 view .LVU1470
 3790 0672 0020     		movs	r0, #0
 3791              	.LVL554:
 3792              	.L280:
1884:Src/maze_solve.c ****         }
1885:Src/maze_solve.c **** 
1886:Src/maze_solve.c ****         q0 = *current_x;
 3793              		.loc 1 1886 9 is_stmt 1 view .LVU1471
1887:Src/maze_solve.c ****         b_qY = q0 - 1U;
 3794              		.loc 1 1887 9 view .LVU1472
1888:Src/maze_solve.c ****         if (b_qY > (unsigned int)q0) {
 3795              		.loc 1 1888 9 view .LVU1473
1889:Src/maze_solve.c ****           b_qY = 0U;
1890:Src/maze_solve.c ****         }
1891:Src/maze_solve.c **** 
1892:Src/maze_solve.c ****         maze_wall[(*current_y + (((int)qY - 1) << 5)) - 1] = (unsigned char)
 3796              		.loc 1 1892 9 view .LVU1474
1893:Src/maze_solve.c ****           (maze_wall[(*current_y + (((int)b_qY - 1) << 5)) - 1] | (unsigned char)
 3797              		.loc 1 1893 23 is_stmt 0 view .LVU1475
 3798 0674 99F80030 		ldrb	r3, [r9]	@ zero_extendqisi2
 3799              		.loc 1 1893 48 view .LVU1476
 3800 0678 0138     		subs	r0, r0, #1
 3801              	.LVL555:
 3802              		.loc 1 1893 34 view .LVU1477
 3803 067a 03EB4013 		add	r3, r3, r0, lsl #5
 3804              		.loc 1 1893 21 view .LVU1478
 3805 067e 013B     		subs	r3, r3, #1
 3806 0680 18F80310 		ldrb	r1, [r8, r3]	@ zero_extendqisi2
 3807              	.LVL556:
ARM GAS  C:\Temp\ccX6Vjzt.s 			page 113


 3808              		.loc 1 1893 67 view .LVU1479
 3809 0684 D2B2     		uxtb	r2, r2
 3810              	.LVL557:
1892:Src/maze_solve.c ****           (maze_wall[(*current_y + (((int)b_qY - 1) << 5)) - 1] | (unsigned char)
 3811              		.loc 1 1892 62 view .LVU1480
 3812 0686 0A43     		orrs	r2, r2, r1
1892:Src/maze_solve.c ****           (maze_wall[(*current_y + (((int)b_qY - 1) << 5)) - 1] | (unsigned char)
 3813              		.loc 1 1892 60 view .LVU1481
 3814 0688 08F80320 		strb	r2, [r8, r3]
 3815              	.LVL558:
1894:Src/maze_solve.c ****           i10);
1895:Src/maze_solve.c ****         k = g_direction->contents.East;
 3816              		.loc 1 1895 9 is_stmt 1 view .LVU1482
 3817              		.loc 1 1895 11 is_stmt 0 view .LVU1483
 3818 068c 6178     		ldrb	r1, [r4, #1]	@ zero_extendqisi2
 3819              	.LVL559:
1896:Src/maze_solve.c ****         i10 = (int)(g_direction->contents.West + 1U);
 3820              		.loc 1 1896 9 is_stmt 1 view .LVU1484
 3821              		.loc 1 1896 42 is_stmt 0 view .LVU1485
 3822 068e E378     		ldrb	r3, [r4, #3]	@ zero_extendqisi2
 3823              		.loc 1 1896 48 view .LVU1486
 3824 0690 0133     		adds	r3, r3, #1
 3825              	.LVL560:
1897:Src/maze_solve.c ****         if ((unsigned int)i10 > 255U) {
 3826              		.loc 1 1897 9 is_stmt 1 view .LVU1487
 3827              		.loc 1 1897 12 is_stmt 0 view .LVU1488
 3828 0692 FF2B     		cmp	r3, #255
 3829 0694 00D9     		bls	.L281
1898:Src/maze_solve.c ****           i10 = 255;
 3830              		.loc 1 1898 15 view .LVU1489
 3831 0696 FF23     		movs	r3, #255
 3832              	.LVL561:
 3833              	.L281:
1899:Src/maze_solve.c ****         }
1900:Src/maze_solve.c **** 
1901:Src/maze_solve.c ****         if (k <= 7) {
 3834              		.loc 1 1901 9 is_stmt 1 view .LVU1490
 3835              		.loc 1 1901 12 is_stmt 0 view .LVU1491
 3836 0698 0729     		cmp	r1, #7
 3837 069a 03D8     		bhi	.L397
1902:Src/maze_solve.c ****           r_k = (unsigned char)(1 << k);
 3838              		.loc 1 1902 11 is_stmt 1 view .LVU1492
 3839              		.loc 1 1902 35 is_stmt 0 view .LVU1493
 3840 069c 0122     		movs	r2, #1
 3841 069e 8A40     		lsls	r2, r2, r1
 3842 06a0 D2B2     		uxtb	r2, r2
 3843              	.LVL562:
 3844              		.loc 1 1902 35 view .LVU1494
 3845 06a2 00E0     		b	.L282
 3846              	.LVL563:
 3847              	.L397:
1903:Src/maze_solve.c ****         } else {
1904:Src/maze_solve.c ****           r_k = 0;
 3848              		.loc 1 1904 15 view .LVU1495
 3849 06a4 0022     		movs	r2, #0
 3850              	.L282:
 3851              	.LVL564:
ARM GAS  C:\Temp\ccX6Vjzt.s 			page 114


1905:Src/maze_solve.c ****         }
1906:Src/maze_solve.c **** 
1907:Src/maze_solve.c ****         i10 = (int)((unsigned int)r_k * serch_write[i10 - 1]);
 3852              		.loc 1 1907 9 is_stmt 1 view .LVU1496
 3853              		.loc 1 1907 57 is_stmt 0 view .LVU1497
 3854 06a6 013B     		subs	r3, r3, #1
 3855              	.LVL565:
 3856              		.loc 1 1907 52 view .LVU1498
 3857 06a8 0DF58251 		add	r1, sp, #4160
 3858              	.LVL566:
 3859              		.loc 1 1907 52 view .LVU1499
 3860 06ac 0831     		adds	r1, r1, #8
 3861 06ae 0B44     		add	r3, r3, r1
 3862              	.LVL567:
 3863              		.loc 1 1907 52 view .LVU1500
 3864 06b0 13F8083C 		ldrb	r3, [r3, #-8]	@ zero_extendqisi2
 3865              		.loc 1 1907 39 view .LVU1501
 3866 06b4 02FB03F3 		mul	r3, r2, r3
 3867              	.LVL568:
1908:Src/maze_solve.c ****         if ((unsigned int)i10 > 255U) {
 3868              		.loc 1 1908 9 is_stmt 1 view .LVU1502
 3869              		.loc 1 1908 12 is_stmt 0 view .LVU1503
 3870 06b8 FF2B     		cmp	r3, #255
 3871 06ba 00D9     		bls	.L283
1909:Src/maze_solve.c ****           i10 = 255;
 3872              		.loc 1 1909 15 view .LVU1504
 3873 06bc FF23     		movs	r3, #255
 3874              	.LVL569:
 3875              	.L283:
1910:Src/maze_solve.c ****         }
1911:Src/maze_solve.c **** 
1912:Src/maze_solve.c ****         q0 = *current_x;
 3876              		.loc 1 1912 9 is_stmt 1 view .LVU1505
 3877              		.loc 1 1912 14 is_stmt 0 view .LVU1506
 3878 06be 2A78     		ldrb	r2, [r5]	@ zero_extendqisi2
 3879              	.LVL570:
1913:Src/maze_solve.c ****         qY = q0 - 1U;
 3880              		.loc 1 1913 9 is_stmt 1 view .LVU1507
 3881              		.loc 1 1913 12 is_stmt 0 view .LVU1508
 3882 06c0 511E     		subs	r1, r2, #1
 3883              	.LVL571:
1914:Src/maze_solve.c ****         if (qY > (unsigned int)q0) {
 3884              		.loc 1 1914 9 is_stmt 1 view .LVU1509
 3885              		.loc 1 1914 12 is_stmt 0 view .LVU1510
 3886 06c2 8A42     		cmp	r2, r1
 3887 06c4 00D2     		bcs	.L284
1915:Src/maze_solve.c ****           qY = 0U;
 3888              		.loc 1 1915 14 view .LVU1511
 3889 06c6 0021     		movs	r1, #0
 3890              	.LVL572:
 3891              	.L284:
1916:Src/maze_solve.c ****         }
1917:Src/maze_solve.c **** 
1918:Src/maze_solve.c ****         q0 = *current_x;
 3892              		.loc 1 1918 9 is_stmt 1 view .LVU1512
1919:Src/maze_solve.c ****         b_qY = q0 - 1U;
 3893              		.loc 1 1919 9 view .LVU1513
ARM GAS  C:\Temp\ccX6Vjzt.s 			page 115


1920:Src/maze_solve.c ****         if (b_qY > (unsigned int)q0) {
 3894              		.loc 1 1920 9 view .LVU1514
1921:Src/maze_solve.c ****           b_qY = 0U;
1922:Src/maze_solve.c ****         }
1923:Src/maze_solve.c **** 
1924:Src/maze_solve.c ****         maze_wall_search[(*current_y + (((int)qY - 1) << 5)) - 1] = (unsigned char)
 3895              		.loc 1 1924 9 view .LVU1515
1925:Src/maze_solve.c ****           (maze_wall_search[(*current_y + (((int)b_qY - 1) << 5)) - 1] | (unsigned
 3896              		.loc 1 1925 30 is_stmt 0 view .LVU1516
 3897 06c8 99F80020 		ldrb	r2, [r9]	@ zero_extendqisi2
 3898              	.LVL573:
 3899              		.loc 1 1925 55 view .LVU1517
 3900 06cc 0139     		subs	r1, r1, #1
 3901              	.LVL574:
 3902              		.loc 1 1925 41 view .LVU1518
 3903 06ce 02EB4112 		add	r2, r2, r1, lsl #5
 3904              		.loc 1 1925 28 view .LVU1519
 3905 06d2 013A     		subs	r2, r2, #1
 3906 06d4 1BF80210 		ldrb	r1, [fp, r2]	@ zero_extendqisi2
 3907              	.LVL575:
 3908              		.loc 1 1925 74 view .LVU1520
 3909 06d8 DBB2     		uxtb	r3, r3
 3910              	.LVL576:
1924:Src/maze_solve.c ****           (maze_wall_search[(*current_y + (((int)b_qY - 1) << 5)) - 1] | (unsigned
 3911              		.loc 1 1924 69 view .LVU1521
 3912 06da 0B43     		orrs	r3, r3, r1
1924:Src/maze_solve.c ****           (maze_wall_search[(*current_y + (((int)b_qY - 1) << 5)) - 1] | (unsigned
 3913              		.loc 1 1924 67 view .LVU1522
 3914 06dc 0BF80230 		strb	r3, [fp, r2]
 3915              	.LVL577:
1924:Src/maze_solve.c ****           (maze_wall_search[(*current_y + (((int)b_qY - 1) << 5)) - 1] | (unsigned
 3916              		.loc 1 1924 67 view .LVU1523
 3917 06e0 03E1     		b	.L218
 3918              	.LVL578:
 3919              	.L286:
1926:Src/maze_solve.c ****             char)i10);
1927:Src/maze_solve.c ****       }
1928:Src/maze_solve.c ****   }
1929:Src/maze_solve.c ****   goal_after_flg = other; //ゴール直後フラグを直後以外に
1930:Src/maze_solve.c **** 
1931:Src/maze_solve.c ****     /* 現在位置がゴールか判定 */
1932:Src/maze_solve.c ****     for (q0 = 0; q0 < i9; q0++) {
 3920              		.loc 1 1932 27 is_stmt 1 discriminator 2 view .LVU1524
 3921              		.loc 1 1932 29 is_stmt 0 discriminator 2 view .LVU1525
 3922 06e2 0133     		adds	r3, r3, #1
 3923              	.LVL579:
 3924              	.L285:
 3925              		.loc 1 1932 18 is_stmt 1 discriminator 1 view .LVU1526
 3926              		.loc 1 1932 5 is_stmt 0 discriminator 1 view .LVU1527
 3927 06e4 BB42     		cmp	r3, r7
 3928 06e6 0CDA     		bge	.L437
1933:Src/maze_solve.c ****       if ((*current_x == maze_goal[q0]) && (*current_y == maze_goal[q0 + 9])) {
 3929              		.loc 1 1933 7 is_stmt 1 view .LVU1528
 3930              		.loc 1 1933 12 is_stmt 0 view .LVU1529
 3931 06e8 2978     		ldrb	r1, [r5]	@ zero_extendqisi2
 3932              		.loc 1 1933 35 view .LVU1530
 3933 06ea F25C     		ldrb	r2, [r6, r3]	@ zero_extendqisi2
ARM GAS  C:\Temp\ccX6Vjzt.s 			page 116


 3934              		.loc 1 1933 10 view .LVU1531
 3935 06ec 9142     		cmp	r1, r2
 3936 06ee F8D1     		bne	.L286
 3937              		.loc 1 1933 45 discriminator 1 view .LVU1532
 3938 06f0 99F80010 		ldrb	r1, [r9]	@ zero_extendqisi2
 3939              		.loc 1 1933 68 discriminator 1 view .LVU1533
 3940 06f4 F218     		adds	r2, r6, r3
 3941 06f6 527A     		ldrb	r2, [r2, #9]	@ zero_extendqisi2
 3942              		.loc 1 1933 41 discriminator 1 view .LVU1534
 3943 06f8 9142     		cmp	r1, r2
 3944 06fa F2D1     		bne	.L286
1934:Src/maze_solve.c ****         goal_flag = 1U;
 3945              		.loc 1 1934 19 view .LVU1535
 3946 06fc 0122     		movs	r2, #1
 3947 06fe 0692     		str	r2, [sp, #24]
 3948              	.LVL580:
 3949              		.loc 1 1934 19 view .LVU1536
 3950 0700 EFE7     		b	.L286
 3951              	.LVL581:
 3952              	.L437:
 3953              		.loc 1 1934 19 view .LVU1537
 3954 0702 0797     		str	r7, [sp, #28]
1935:Src/maze_solve.c ****       }
1936:Src/maze_solve.c ****     }
1937:Src/maze_solve.c **** 
1938:Src/maze_solve.c ****     if (goal_flag == 1) {
 3955              		.loc 1 1938 5 is_stmt 1 view .LVU1538
 3956              		.loc 1 1938 8 is_stmt 0 view .LVU1539
 3957 0704 069B     		ldr	r3, [sp, #24]
 3958              	.LVL582:
 3959              		.loc 1 1938 8 view .LVU1540
 3960 0706 002B     		cmp	r3, #0
 3961 0708 2DD1     		bne	.L438
1939:Src/maze_solve.c ****       exitg1 = 1;
1940:Src/maze_solve.c ****       half_deceleration();
1941:Src/maze_solve.c **** 
1942:Src/maze_solve.c ****       //ゴール時LEDを一回点滅
1943:Src/maze_solve.c ****       Sensor_StopADC();
1944:Src/maze_solve.c ****       HAL_GPIO_WritePin(GPIOA,LED2_Pin|LED3_Pin|LED4_Pin|LED5_Pin, GPIO_PIN_SET);
1945:Src/maze_solve.c ****       HAL_Delay(700);
1946:Src/maze_solve.c ****       HAL_GPIO_WritePin(GPIOA,LED2_Pin|LED3_Pin|LED4_Pin|LED5_Pin, GPIO_PIN_RESET);
1947:Src/maze_solve.c ****       HAL_Delay(300);
1948:Src/maze_solve.c ****       Sensor_Initialize();
1949:Src/maze_solve.c **** 
1950:Src/maze_solve.c **** 
1951:Src/maze_solve.c ****     } else {
1952:Src/maze_solve.c ****       /*  等高線MAP生成 */
1953:Src/maze_solve.c ****       /*  [contour_map,max_length] = make_map2(maze_row_size,maze_col_size,maze_goal,maze_wall); */
1954:Src/maze_solve.c ****       make_map_find(g_direction, wall, maze_row_size, maze_col_size, maze_goal,
 3962              		.loc 1 1954 7 is_stmt 1 view .LVU1541
 3963 070a 0FAB     		add	r3, sp, #60
 3964 070c 0493     		str	r3, [sp, #16]
 3965 070e 10AB     		add	r3, sp, #64
 3966 0710 0393     		str	r3, [sp, #12]
 3967 0712 CDF80880 		str	r8, [sp, #8]
 3968 0716 0D9B     		ldr	r3, [sp, #52]
 3969 0718 0193     		str	r3, [sp, #4]
ARM GAS  C:\Temp\ccX6Vjzt.s 			page 117


 3970 071a 0096     		str	r6, [sp]
 3971 071c 0A9B     		ldr	r3, [sp, #40]
 3972 071e 099A     		ldr	r2, [sp, #36]
 3973 0720 0899     		ldr	r1, [sp, #32]
 3974 0722 2046     		mov	r0, r4
 3975 0724 FFF7FEFF 		bl	make_map_find
 3976              	.LVL583:
1955:Src/maze_solve.c ****                     l_goal_size, maze_wall, cmap, &little);
1956:Src/maze_solve.c **** 
1957:Src/maze_solve.c ****       /*  進行方向選定 */
1958:Src/maze_solve.c ****       /* 優先順位　北⇒東⇒南⇒西 */
1959:Src/maze_solve.c ****       /*  入力 現在地x,y,壁情報,等高線map,最大経路長 */
1960:Src/maze_solve.c ****       /*  出力 次の進行方角 */
1961:Src/maze_solve.c ****       /*  get_nextdir2 等高線mapから次に向かう方向を選択 */
1962:Src/maze_solve.c ****       /* 出力の初期化 */
1963:Src/maze_solve.c ****       next_dir = 0U;
 3977              		.loc 1 1963 7 view .LVU1542
1964:Src/maze_solve.c **** 
1965:Src/maze_solve.c ****       /*             %%進行方向選定 */
1966:Src/maze_solve.c ****       /* 優先順位　北⇒東⇒南⇒西 */
1967:Src/maze_solve.c ****       /* 北側の壁のありなし判定 */
1968:Src/maze_solve.c ****       k = g_direction->contents.North;
 3978              		.loc 1 1968 7 view .LVU1543
 3979              		.loc 1 1968 9 is_stmt 0 view .LVU1544
 3980 0728 2278     		ldrb	r2, [r4]	@ zero_extendqisi2
 3981              	.LVL584:
1969:Src/maze_solve.c ****       if (k <= 7) {
 3982              		.loc 1 1969 7 is_stmt 1 view .LVU1545
 3983              		.loc 1 1969 10 is_stmt 0 view .LVU1546
 3984 072a 072A     		cmp	r2, #7
 3985 072c 3BD8     		bhi	.L401
1970:Src/maze_solve.c ****         p_k = (unsigned char)(1 << k);
 3986              		.loc 1 1970 9 is_stmt 1 view .LVU1547
 3987              		.loc 1 1970 33 is_stmt 0 view .LVU1548
 3988 072e 0123     		movs	r3, #1
 3989 0730 9340     		lsls	r3, r3, r2
 3990 0732 DBB2     		uxtb	r3, r3
 3991              	.LVL585:
 3992              	.L289:
1971:Src/maze_solve.c ****       } else {
1972:Src/maze_solve.c ****         p_k = 0;
1973:Src/maze_solve.c ****       }
1974:Src/maze_solve.c **** 
1975:Src/maze_solve.c ****       if ((maze_wall[i12] & p_k) == 0) {
 3993              		.loc 1 1975 7 is_stmt 1 view .LVU1549
 3994              		.loc 1 1975 21 is_stmt 0 view .LVU1550
 3995 0734 AF4A     		ldr	r2, .L457
 3996              	.LVL586:
 3997              		.loc 1 1975 21 view .LVU1551
 3998 0736 1268     		ldr	r2, [r2]
 3999 0738 18F80220 		ldrb	r2, [r8, r2]	@ zero_extendqisi2
 4000              		.loc 1 1975 10 view .LVU1552
 4001 073c 1A42     		tst	r2, r3
 4002 073e 34D1     		bne	.L402
1976:Src/maze_solve.c ****         /* 北側の等高線mapが閾値より低ければ、 */
1977:Src/maze_solve.c ****         i10 = (int)(*current_y + 1U);
 4003              		.loc 1 1977 9 is_stmt 1 view .LVU1553
ARM GAS  C:\Temp\ccX6Vjzt.s 			page 118


 4004              		.loc 1 1977 21 is_stmt 0 view .LVU1554
 4005 0740 99F80030 		ldrb	r3, [r9]	@ zero_extendqisi2
 4006              	.LVL587:
 4007              		.loc 1 1977 32 view .LVU1555
 4008 0744 0133     		adds	r3, r3, #1
1978:Src/maze_solve.c ****         if ((unsigned int)i10 > 255U) {
 4009              		.loc 1 1978 9 is_stmt 1 view .LVU1556
 4010              		.loc 1 1978 12 is_stmt 0 view .LVU1557
 4011 0746 FF2B     		cmp	r3, #255
 4012 0748 00D9     		bls	.L291
 4013              	.LVL588:
1979:Src/maze_solve.c ****           i10 = 255;
 4014              		.loc 1 1979 15 view .LVU1558
 4015 074a FF23     		movs	r3, #255
 4016              	.LVL589:
 4017              	.L291:
1980:Src/maze_solve.c ****         }
1981:Src/maze_solve.c **** 
1982:Src/maze_solve.c ****         if (cmap[(i10 + i11) - 1] < little) {
 4018              		.loc 1 1982 9 is_stmt 1 view .LVU1559
 4019              		.loc 1 1982 23 is_stmt 0 view .LVU1560
 4020 074c AA4A     		ldr	r2, .L457+4
 4021 074e 1268     		ldr	r2, [r2]
 4022 0750 1344     		add	r3, r3, r2
 4023              		.loc 1 1982 30 view .LVU1561
 4024 0752 013B     		subs	r3, r3, #1
 4025              		.loc 1 1982 17 view .LVU1562
 4026 0754 10AA     		add	r2, sp, #64
 4027 0756 52F82330 		ldr	r3, [r2, r3, lsl #2]
 4028              		.loc 1 1982 35 view .LVU1563
 4029 075a 0F9A     		ldr	r2, [sp, #60]
 4030              		.loc 1 1982 12 view .LVU1564
 4031 075c 9342     		cmp	r3, r2
 4032 075e 2FD2     		bcs	.L404
1983:Src/maze_solve.c ****           /* 閾値を北側の等高map値に変更 */
1984:Src/maze_solve.c ****           i10 = (int)(*current_y + 1U);
 4033              		.loc 1 1984 11 is_stmt 1 view .LVU1565
1985:Src/maze_solve.c ****           if ((unsigned int)i10 > 255U) {
 4034              		.loc 1 1985 11 view .LVU1566
1986:Src/maze_solve.c ****             i10 = 255;
1987:Src/maze_solve.c ****           }
1988:Src/maze_solve.c **** 
1989:Src/maze_solve.c ****           little = cmap[(i10 + i11) - 1];
 4035              		.loc 1 1989 11 view .LVU1567
 4036              		.loc 1 1989 18 is_stmt 0 view .LVU1568
 4037 0760 0F93     		str	r3, [sp, #60]
 4038              	.LVL590:
1990:Src/maze_solve.c **** 
1991:Src/maze_solve.c ****           /* 北側を進行方向に変更y */
1992:Src/maze_solve.c ****           next_dir = g_direction->contents.North;
 4039              		.loc 1 1992 11 is_stmt 1 view .LVU1569
 4040              		.loc 1 1992 20 is_stmt 0 view .LVU1570
 4041 0762 2278     		ldrb	r2, [r4]	@ zero_extendqisi2
 4042              	.LVL591:
 4043              		.loc 1 1992 20 view .LVU1571
 4044 0764 22E0     		b	.L290
 4045              	.LVL592:
ARM GAS  C:\Temp\ccX6Vjzt.s 			page 119


 4046              	.L438:
1939:Src/maze_solve.c ****       half_deceleration();
 4047              		.loc 1 1939 7 is_stmt 1 view .LVU1572
1940:Src/maze_solve.c **** 
 4048              		.loc 1 1940 7 view .LVU1573
 4049 0766 FFF7FEFF 		bl	half_deceleration
 4050              	.LVL593:
1943:Src/maze_solve.c ****       HAL_GPIO_WritePin(GPIOA,LED2_Pin|LED3_Pin|LED4_Pin|LED5_Pin, GPIO_PIN_SET);
 4051              		.loc 1 1943 7 view .LVU1574
 4052 076a FFF7FEFF 		bl	Sensor_StopADC
 4053              	.LVL594:
1944:Src/maze_solve.c ****       HAL_Delay(700);
 4054              		.loc 1 1944 7 view .LVU1575
 4055 076e A34C     		ldr	r4, .L457+8
 4056              	.LVL595:
1944:Src/maze_solve.c ****       HAL_Delay(700);
 4057              		.loc 1 1944 7 is_stmt 0 view .LVU1576
 4058 0770 0122     		movs	r2, #1
 4059 0772 4FF46451 		mov	r1, #14592
 4060 0776 2046     		mov	r0, r4
 4061 0778 FFF7FEFF 		bl	HAL_GPIO_WritePin
 4062              	.LVL596:
1945:Src/maze_solve.c ****       HAL_GPIO_WritePin(GPIOA,LED2_Pin|LED3_Pin|LED4_Pin|LED5_Pin, GPIO_PIN_RESET);
 4063              		.loc 1 1945 7 is_stmt 1 view .LVU1577
 4064 077c 4FF42F70 		mov	r0, #700
 4065 0780 FFF7FEFF 		bl	HAL_Delay
 4066              	.LVL597:
1946:Src/maze_solve.c ****       HAL_Delay(300);
 4067              		.loc 1 1946 7 view .LVU1578
 4068 0784 0022     		movs	r2, #0
 4069 0786 4FF46451 		mov	r1, #14592
 4070 078a 2046     		mov	r0, r4
 4071 078c FFF7FEFF 		bl	HAL_GPIO_WritePin
 4072              	.LVL598:
1947:Src/maze_solve.c ****       Sensor_Initialize();
 4073              		.loc 1 1947 7 view .LVU1579
 4074 0790 4FF49670 		mov	r0, #300
 4075 0794 FFF7FEFF 		bl	HAL_Delay
 4076              	.LVL599:
1948:Src/maze_solve.c **** 
 4077              		.loc 1 1948 7 view .LVU1580
 4078 0798 FFF7FEFF 		bl	Sensor_Initialize
 4079              	.LVL600:
1993:Src/maze_solve.c ****         }
1994:Src/maze_solve.c ****       }
1995:Src/maze_solve.c **** 
1996:Src/maze_solve.c ****       /* 東側 */
1997:Src/maze_solve.c ****       k = g_direction->contents.East;
1998:Src/maze_solve.c ****       if (k <= 7) {
1999:Src/maze_solve.c ****         s_k = (unsigned char)(1 << k);
2000:Src/maze_solve.c ****       } else {
2001:Src/maze_solve.c ****         s_k = 0;
2002:Src/maze_solve.c ****       }
2003:Src/maze_solve.c **** 
2004:Src/maze_solve.c ****       if ((maze_wall[(*current_y + ((*current_x - 1) << 5)) - 1] & s_k) == 0) {
2005:Src/maze_solve.c ****         i10 = (int)(*current_x + 1U);
2006:Src/maze_solve.c ****         if ((unsigned int)i10 > 255U) {
ARM GAS  C:\Temp\ccX6Vjzt.s 			page 120


2007:Src/maze_solve.c ****           i10 = 255;
2008:Src/maze_solve.c ****         }
2009:Src/maze_solve.c **** 
2010:Src/maze_solve.c ****         if (cmap[(*current_y + ((i10 - 1) << 5)) - 1] < little) {
2011:Src/maze_solve.c ****           i10 = (int)(*current_x + 1U);
2012:Src/maze_solve.c ****           if ((unsigned int)i10 > 255U) {
2013:Src/maze_solve.c ****             i10 = 255;
2014:Src/maze_solve.c ****           }
2015:Src/maze_solve.c **** 
2016:Src/maze_solve.c ****           little = cmap[(*current_y + ((i10 - 1) << 5)) - 1];
2017:Src/maze_solve.c ****           next_dir = g_direction->contents.East;
2018:Src/maze_solve.c ****         }
2019:Src/maze_solve.c ****       }
2020:Src/maze_solve.c **** 
2021:Src/maze_solve.c ****       /* 南側 */
2022:Src/maze_solve.c ****       k = g_direction->contents.South;
2023:Src/maze_solve.c ****       if (k <= 7) {
2024:Src/maze_solve.c ****         t_k = (unsigned char)(1 << k);
2025:Src/maze_solve.c ****       } else {
2026:Src/maze_solve.c ****         t_k = 0;
2027:Src/maze_solve.c ****       }
2028:Src/maze_solve.c **** 
2029:Src/maze_solve.c ****       if ((maze_wall[(*current_y + ((*current_x - 1) << 5)) - 1] & t_k) == 0) {
2030:Src/maze_solve.c ****         q0 = *current_y;
2031:Src/maze_solve.c ****         qY = q0 - 1U;
2032:Src/maze_solve.c ****         if (qY > (unsigned int)q0) {
2033:Src/maze_solve.c ****           qY = 0U;
2034:Src/maze_solve.c ****         }
2035:Src/maze_solve.c **** 
2036:Src/maze_solve.c ****         if (cmap[((int)qY + i11) - 1] < little) {
2037:Src/maze_solve.c ****           q0 = *current_y;
2038:Src/maze_solve.c ****           qY = q0 - 1U;
2039:Src/maze_solve.c ****           if (qY > (unsigned int)q0) {
2040:Src/maze_solve.c ****             qY = 0U;
2041:Src/maze_solve.c ****           }
2042:Src/maze_solve.c **** 
2043:Src/maze_solve.c ****           little = cmap[((int)qY + i11) - 1];
2044:Src/maze_solve.c ****           next_dir = g_direction->contents.South;
2045:Src/maze_solve.c ****         }
2046:Src/maze_solve.c ****       }
2047:Src/maze_solve.c **** 
2048:Src/maze_solve.c ****       /* 西側 */
2049:Src/maze_solve.c ****       k = g_direction->contents.West;
2050:Src/maze_solve.c ****       if (k <= 7) {
2051:Src/maze_solve.c ****         u_k = (unsigned char)(1 << k);
2052:Src/maze_solve.c ****       } else {
2053:Src/maze_solve.c ****         u_k = 0;
2054:Src/maze_solve.c ****       }
2055:Src/maze_solve.c **** 
2056:Src/maze_solve.c ****       if ((maze_wall[(*current_y + ((*current_x - 1) << 5)) - 1] & u_k) == 0) {
2057:Src/maze_solve.c ****         q0 = *current_x;
2058:Src/maze_solve.c ****         qY = q0 - 1U;
2059:Src/maze_solve.c ****         if (qY > (unsigned int)q0) {
2060:Src/maze_solve.c ****           qY = 0U;
2061:Src/maze_solve.c ****         }
2062:Src/maze_solve.c **** 
2063:Src/maze_solve.c ****         if (cmap[(*current_y + (((int)qY - 1) << 5)) - 1] < little) {
ARM GAS  C:\Temp\ccX6Vjzt.s 			page 121


2064:Src/maze_solve.c ****           /*  little = contour_map(current_y,current_x-1); */
2065:Src/maze_solve.c ****           next_dir = g_direction->contents.West;
2066:Src/maze_solve.c ****         }
2067:Src/maze_solve.c ****       }
2068:Src/maze_solve.c **** 
2069:Src/maze_solve.c ****       /*  現在方向と進行方向に応じた処理 */
2070:Src/maze_solve.c ****       q0 = (int)(4U + next_dir);
2071:Src/maze_solve.c ****       if ((unsigned int)q0 > 255U) {
2072:Src/maze_solve.c ****         q0 = 255;
2073:Src/maze_solve.c ****       }
2074:Src/maze_solve.c **** 
2075:Src/maze_solve.c ****       qY = (unsigned int)q0 - *current_dir;
2076:Src/maze_solve.c ****       if (qY > (unsigned int)q0) {
2077:Src/maze_solve.c ****         qY = 0U;
2078:Src/maze_solve.c ****       }
2079:Src/maze_solve.c **** 
2080:Src/maze_solve.c ****       k = (unsigned char)((int)qY % 4);
2081:Src/maze_solve.c ****       next_dir = l_direction->contents.front;
2082:Src/maze_solve.c ****       little = l_direction->contents.right;
2083:Src/maze_solve.c ****       varargin_3 = l_direction->contents.back;
2084:Src/maze_solve.c ****       varargin_4 = l_direction->contents.left;
2085:Src/maze_solve.c ****       if (next_dir == k) {
2086:Src/maze_solve.c ****         q0 = 0;
2087:Src/maze_solve.c ****       } else if (little == k) {
2088:Src/maze_solve.c ****         q0 = 1;
2089:Src/maze_solve.c ****       } else if (varargin_3 == k) {
2090:Src/maze_solve.c ****         q0 = 2;
2091:Src/maze_solve.c ****       } else if (varargin_4 == k) {
2092:Src/maze_solve.c ****         q0 = 3;
2093:Src/maze_solve.c ****       } else {
2094:Src/maze_solve.c ****         q0 = -1;
2095:Src/maze_solve.c ****       }
2096:Src/maze_solve.c **** 
2097:Src/maze_solve.c ****       switch (q0) {
2098:Src/maze_solve.c ****        case 0:	//前進時
2099:Src/maze_solve.c ****     	move_front();
2100:Src/maze_solve.c ****         /* 入力 現在位置x,y,現在方向 */
2101:Src/maze_solve.c ****         /* 出力 現在位置x,y */
2102:Src/maze_solve.c ****         /*  move_step 一マス前進する関数 */
2103:Src/maze_solve.c ****         /* 北に一マス */
2104:Src/maze_solve.c ****         if (*current_dir == g_direction->contents.North) {
2105:Src/maze_solve.c ****           i10 = (int)(*current_y + 1U);
2106:Src/maze_solve.c ****           if ((unsigned int)i10 > 255U) {
2107:Src/maze_solve.c ****             i10 = 255;
2108:Src/maze_solve.c ****           }
2109:Src/maze_solve.c **** 
2110:Src/maze_solve.c ****           *current_y = (unsigned char)i10;
2111:Src/maze_solve.c **** 
2112:Src/maze_solve.c ****           /* disp("north_step") */
2113:Src/maze_solve.c ****         }
2114:Src/maze_solve.c **** 
2115:Src/maze_solve.c ****         /* 東に一マス */
2116:Src/maze_solve.c ****         if (*current_dir == g_direction->contents.East) {
2117:Src/maze_solve.c ****           i10 = (int)(*current_x + 1U);
2118:Src/maze_solve.c ****           if ((unsigned int)i10 > 255U) {
2119:Src/maze_solve.c ****             i10 = 255;
2120:Src/maze_solve.c ****           }
ARM GAS  C:\Temp\ccX6Vjzt.s 			page 122


2121:Src/maze_solve.c **** 
2122:Src/maze_solve.c ****           *current_x = (unsigned char)i10;
2123:Src/maze_solve.c **** 
2124:Src/maze_solve.c ****           /* disp("east_step") */
2125:Src/maze_solve.c ****         }
2126:Src/maze_solve.c **** 
2127:Src/maze_solve.c ****         /* 南に一マス */
2128:Src/maze_solve.c ****         if (*current_dir == g_direction->contents.South) {
2129:Src/maze_solve.c ****           qY = *current_y - 1U;
2130:Src/maze_solve.c ****           if (qY > *current_y) {
2131:Src/maze_solve.c ****             qY = 0U;
2132:Src/maze_solve.c ****           }
2133:Src/maze_solve.c **** 
2134:Src/maze_solve.c ****           *current_y = (unsigned char)qY;
2135:Src/maze_solve.c **** 
2136:Src/maze_solve.c ****           /* disp("south_step") */
2137:Src/maze_solve.c ****         }
2138:Src/maze_solve.c **** 
2139:Src/maze_solve.c ****         /* 西に一マス */
2140:Src/maze_solve.c ****         if (*current_dir == g_direction->contents.West) {
2141:Src/maze_solve.c ****           qY = *current_x - 1U;
2142:Src/maze_solve.c ****           if (qY > *current_x) {
2143:Src/maze_solve.c ****             qY = 0U;
2144:Src/maze_solve.c ****           }
2145:Src/maze_solve.c **** 
2146:Src/maze_solve.c ****           *current_x = (unsigned char)qY;
2147:Src/maze_solve.c **** 
2148:Src/maze_solve.c ****           /* disp("west_step") */
2149:Src/maze_solve.c ****         }
2150:Src/maze_solve.c **** 
2151:Src/maze_solve.c ****         /* disp("front") */
2152:Src/maze_solve.c ****         break;
2153:Src/maze_solve.c **** 
2154:Src/maze_solve.c ****        case 1: //右折時
2155:Src/maze_solve.c ****     	move_right();
2156:Src/maze_solve.c ****         /* 入力 現在方向 */
2157:Src/maze_solve.c ****         /* 出力 現在方向 */
2158:Src/maze_solve.c ****         /*  turn_clk_90deg 時計周りに90度ターンする関数  */
2159:Src/maze_solve.c ****         i10 = (int)(4U + *current_dir);
2160:Src/maze_solve.c ****         if ((unsigned int)i10 > 255U) {
2161:Src/maze_solve.c ****           i10 = 255;
2162:Src/maze_solve.c ****         }
2163:Src/maze_solve.c **** 
2164:Src/maze_solve.c ****         i10++;
2165:Src/maze_solve.c ****         if ((unsigned int)i10 > 255U) {
2166:Src/maze_solve.c ****           i10 = 255;
2167:Src/maze_solve.c ****         }
2168:Src/maze_solve.c **** 
2169:Src/maze_solve.c ****         *current_dir = (unsigned char)(i10 % 4);
2170:Src/maze_solve.c **** 
2171:Src/maze_solve.c ****         /* 入力 現在位置x,y,現在方向 */
2172:Src/maze_solve.c ****         /* 出力 現在位置x,y */
2173:Src/maze_solve.c ****         /*  move_step 一マス前進する関数 */
2174:Src/maze_solve.c ****         /* 北に一マス */
2175:Src/maze_solve.c ****         if (*current_dir == g_direction->contents.North) {
2176:Src/maze_solve.c ****           i10 = (int)(*current_y + 1U);
2177:Src/maze_solve.c ****           if ((unsigned int)i10 > 255U) {
ARM GAS  C:\Temp\ccX6Vjzt.s 			page 123


2178:Src/maze_solve.c ****             i10 = 255;
2179:Src/maze_solve.c ****           }
2180:Src/maze_solve.c **** 
2181:Src/maze_solve.c ****           *current_y = (unsigned char)i10;
2182:Src/maze_solve.c **** 
2183:Src/maze_solve.c ****           /* disp("north_step") */
2184:Src/maze_solve.c ****         }
2185:Src/maze_solve.c **** 
2186:Src/maze_solve.c ****         /* 東に一マス */
2187:Src/maze_solve.c ****         if (*current_dir == g_direction->contents.East) {
2188:Src/maze_solve.c ****           i10 = (int)(*current_x + 1U);
2189:Src/maze_solve.c ****           if ((unsigned int)i10 > 255U) {
2190:Src/maze_solve.c ****             i10 = 255;
2191:Src/maze_solve.c ****           }
2192:Src/maze_solve.c **** 
2193:Src/maze_solve.c ****           *current_x = (unsigned char)i10;
2194:Src/maze_solve.c **** 
2195:Src/maze_solve.c ****           /* disp("east_step") */
2196:Src/maze_solve.c ****         }
2197:Src/maze_solve.c **** 
2198:Src/maze_solve.c ****         /* 南に一マス */
2199:Src/maze_solve.c ****         if (*current_dir == g_direction->contents.South) {
2200:Src/maze_solve.c ****           qY = *current_y - 1U;
2201:Src/maze_solve.c ****           if (qY > *current_y) {
2202:Src/maze_solve.c ****             qY = 0U;
2203:Src/maze_solve.c ****           }
2204:Src/maze_solve.c **** 
2205:Src/maze_solve.c ****           *current_y = (unsigned char)qY;
2206:Src/maze_solve.c **** 
2207:Src/maze_solve.c ****           /* disp("south_step") */
2208:Src/maze_solve.c ****         }
2209:Src/maze_solve.c **** 
2210:Src/maze_solve.c ****         /* 西に一マス */
2211:Src/maze_solve.c ****         if (*current_dir == g_direction->contents.West) {
2212:Src/maze_solve.c ****           qY = *current_x - 1U;
2213:Src/maze_solve.c ****           if (qY > *current_x) {
2214:Src/maze_solve.c ****             qY = 0U;
2215:Src/maze_solve.c ****           }
2216:Src/maze_solve.c **** 
2217:Src/maze_solve.c ****           *current_x = (unsigned char)qY;
2218:Src/maze_solve.c **** 
2219:Src/maze_solve.c ****           /* disp("west_step") */
2220:Src/maze_solve.c ****         }
2221:Src/maze_solve.c **** 
2222:Src/maze_solve.c ****         /* disp("right") */
2223:Src/maze_solve.c ****         break;
2224:Src/maze_solve.c **** 
2225:Src/maze_solve.c ****        case 2:	//バック
2226:Src/maze_solve.c ****     	move_back();
2227:Src/maze_solve.c ****         /* 入力 現在方向 */
2228:Src/maze_solve.c ****         /* 出力 現在方向 */
2229:Src/maze_solve.c ****         /*  turn_180deg 180度ターンする関数 */
2230:Src/maze_solve.c ****         i10 = (int)(4U + *current_dir);
2231:Src/maze_solve.c ****         if ((unsigned int)i10 > 255U) {
2232:Src/maze_solve.c ****           i10 = 255;
2233:Src/maze_solve.c ****         }
2234:Src/maze_solve.c **** 
ARM GAS  C:\Temp\ccX6Vjzt.s 			page 124


2235:Src/maze_solve.c ****         *current_dir = (unsigned char)((i10 - 2) % 4);
2236:Src/maze_solve.c **** 
2237:Src/maze_solve.c ****         /* 入力 現在位置x,y,現在方向 */
2238:Src/maze_solve.c ****         /* 出力 現在位置x,y */
2239:Src/maze_solve.c ****         /*  move_step 一マス前進する関数 */
2240:Src/maze_solve.c ****         /* 北に一マス */
2241:Src/maze_solve.c ****         if (*current_dir == g_direction->contents.North) {
2242:Src/maze_solve.c ****           i10 = (int)(*current_y + 1U);
2243:Src/maze_solve.c ****           if ((unsigned int)i10 > 255U) {
2244:Src/maze_solve.c ****             i10 = 255;
2245:Src/maze_solve.c ****           }
2246:Src/maze_solve.c **** 
2247:Src/maze_solve.c ****           *current_y = (unsigned char)i10;
2248:Src/maze_solve.c **** 
2249:Src/maze_solve.c ****           /* disp("north_step") */
2250:Src/maze_solve.c ****         }
2251:Src/maze_solve.c **** 
2252:Src/maze_solve.c ****         /* 東に一マス */
2253:Src/maze_solve.c ****         if (*current_dir == g_direction->contents.East) {
2254:Src/maze_solve.c ****           i10 = (int)(*current_x + 1U);
2255:Src/maze_solve.c ****           if ((unsigned int)i10 > 255U) {
2256:Src/maze_solve.c ****             i10 = 255;
2257:Src/maze_solve.c ****           }
2258:Src/maze_solve.c **** 
2259:Src/maze_solve.c ****           *current_x = (unsigned char)i10;
2260:Src/maze_solve.c **** 
2261:Src/maze_solve.c ****           /* disp("east_step") */
2262:Src/maze_solve.c ****         }
2263:Src/maze_solve.c **** 
2264:Src/maze_solve.c ****         /* 南に一マス */
2265:Src/maze_solve.c ****         if (*current_dir == g_direction->contents.South) {
2266:Src/maze_solve.c ****           qY = *current_y - 1U;
2267:Src/maze_solve.c ****           if (qY > *current_y) {
2268:Src/maze_solve.c ****             qY = 0U;
2269:Src/maze_solve.c ****           }
2270:Src/maze_solve.c **** 
2271:Src/maze_solve.c ****           *current_y = (unsigned char)qY;
2272:Src/maze_solve.c **** 
2273:Src/maze_solve.c ****           /* disp("south_step") */
2274:Src/maze_solve.c ****         }
2275:Src/maze_solve.c **** 
2276:Src/maze_solve.c ****         /* 西に一マス */
2277:Src/maze_solve.c ****         if (*current_dir == g_direction->contents.West) {
2278:Src/maze_solve.c ****           qY = *current_x - 1U;
2279:Src/maze_solve.c ****           if (qY > *current_x) {
2280:Src/maze_solve.c ****             qY = 0U;
2281:Src/maze_solve.c ****           }
2282:Src/maze_solve.c **** 
2283:Src/maze_solve.c ****           *current_x = (unsigned char)qY;
2284:Src/maze_solve.c **** 
2285:Src/maze_solve.c ****           /* disp("west_step") */
2286:Src/maze_solve.c ****         }
2287:Src/maze_solve.c **** 
2288:Src/maze_solve.c ****         /* disp("back") */
2289:Src/maze_solve.c ****         break;
2290:Src/maze_solve.c **** 
2291:Src/maze_solve.c ****        case 3://左折時
ARM GAS  C:\Temp\ccX6Vjzt.s 			page 125


2292:Src/maze_solve.c ****     	move_left();
2293:Src/maze_solve.c ****         /* 入力　現在方向 */
2294:Src/maze_solve.c ****         /* 出力　現在方向 */
2295:Src/maze_solve.c ****         /*  turn_conclk_90deg 反時計周りに90度回る関数  */
2296:Src/maze_solve.c ****         i10 = (int)(4U + *current_dir);
2297:Src/maze_solve.c ****         if ((unsigned int)i10 > 255U) {
2298:Src/maze_solve.c ****           i10 = 255;
2299:Src/maze_solve.c ****         }
2300:Src/maze_solve.c **** 
2301:Src/maze_solve.c ****         *current_dir = (unsigned char)((i10 - 1) % 4);
2302:Src/maze_solve.c **** 
2303:Src/maze_solve.c ****         /* 入力 現在位置x,y,現在方向 */
2304:Src/maze_solve.c ****         /* 出力 現在位置x,y */
2305:Src/maze_solve.c ****         /*  move_step 一マス前進する関数 */
2306:Src/maze_solve.c ****         /* 北に一マス */
2307:Src/maze_solve.c ****         if (*current_dir == g_direction->contents.North) {
2308:Src/maze_solve.c ****           i10 = (int)(*current_y + 1U);
2309:Src/maze_solve.c ****           if ((unsigned int)i10 > 255U) {
2310:Src/maze_solve.c ****             i10 = 255;
2311:Src/maze_solve.c ****           }
2312:Src/maze_solve.c **** 
2313:Src/maze_solve.c ****           *current_y = (unsigned char)i10;
2314:Src/maze_solve.c **** 
2315:Src/maze_solve.c ****           /* disp("north_step") */
2316:Src/maze_solve.c ****         }
2317:Src/maze_solve.c **** 
2318:Src/maze_solve.c ****         /* 東に一マス */
2319:Src/maze_solve.c ****         if (*current_dir == g_direction->contents.East) {
2320:Src/maze_solve.c ****           i10 = (int)(*current_x + 1U);
2321:Src/maze_solve.c ****           if ((unsigned int)i10 > 255U) {
2322:Src/maze_solve.c ****             i10 = 255;
2323:Src/maze_solve.c ****           }
2324:Src/maze_solve.c **** 
2325:Src/maze_solve.c ****           *current_x = (unsigned char)i10;
2326:Src/maze_solve.c **** 
2327:Src/maze_solve.c ****           /* disp("east_step") */
2328:Src/maze_solve.c ****         }
2329:Src/maze_solve.c **** 
2330:Src/maze_solve.c ****         /* 南に一マス */
2331:Src/maze_solve.c ****         if (*current_dir == g_direction->contents.South) {
2332:Src/maze_solve.c ****           qY = *current_y - 1U;
2333:Src/maze_solve.c ****           if (qY > *current_y) {
2334:Src/maze_solve.c ****             qY = 0U;
2335:Src/maze_solve.c ****           }
2336:Src/maze_solve.c **** 
2337:Src/maze_solve.c ****           *current_y = (unsigned char)qY;
2338:Src/maze_solve.c **** 
2339:Src/maze_solve.c ****           /* disp("south_step") */
2340:Src/maze_solve.c ****         }
2341:Src/maze_solve.c **** 
2342:Src/maze_solve.c ****         /* 西に一マス */
2343:Src/maze_solve.c ****         if (*current_dir == g_direction->contents.West) {
2344:Src/maze_solve.c ****           qY = *current_x - 1U;
2345:Src/maze_solve.c ****           if (qY > *current_x) {
2346:Src/maze_solve.c ****             qY = 0U;
2347:Src/maze_solve.c ****           }
2348:Src/maze_solve.c **** 
ARM GAS  C:\Temp\ccX6Vjzt.s 			page 126


2349:Src/maze_solve.c ****           *current_x = (unsigned char)qY;
2350:Src/maze_solve.c **** 
2351:Src/maze_solve.c ****           /* disp("west_step") */
2352:Src/maze_solve.c ****         }
2353:Src/maze_solve.c **** 
2354:Src/maze_solve.c ****         /* disp("left") */
2355:Src/maze_solve.c ****         break;
2356:Src/maze_solve.c ****         
2357:Src/maze_solve.c **** 
2358:Src/maze_solve.c ****       }
2359:Src/maze_solve.c **** 
2360:Src/maze_solve.c ****       /* for code generation */
2361:Src/maze_solve.c ****     }
2362:Src/maze_solve.c ****   } while (exitg1 == 0);
 4080              		.loc 1 2362 11 view .LVU1581
2363:Src/maze_solve.c **** 
2364:Src/maze_solve.c ****   /* for code generation */
2365:Src/maze_solve.c **** }
 4081              		.loc 1 2365 1 is_stmt 0 view .LVU1582
 4082 079c 0DF5825D 		add	sp, sp, #4160
 4083 07a0 03B0     		add	sp, sp, #12
 4084              	.LCFI13:
 4085              		.cfi_remember_state
 4086              		.cfi_def_cfa_offset 36
 4087              		@ sp needed
 4088 07a2 BDE8F08F 		pop	{r4, r5, r6, r7, r8, r9, r10, fp, pc}
 4089              	.LVL601:
 4090              	.L401:
 4091              	.LCFI14:
 4092              		.cfi_restore_state
1972:Src/maze_solve.c ****       }
 4093              		.loc 1 1972 13 view .LVU1583
 4094 07a6 0023     		movs	r3, #0
 4095 07a8 C4E7     		b	.L289
 4096              	.LVL602:
 4097              	.L402:
1963:Src/maze_solve.c **** 
 4098              		.loc 1 1963 16 view .LVU1584
 4099 07aa 069A     		ldr	r2, [sp, #24]
 4100              	.LVL603:
 4101              	.L290:
1997:Src/maze_solve.c ****       if (k <= 7) {
 4102              		.loc 1 1997 7 is_stmt 1 view .LVU1585
1997:Src/maze_solve.c ****       if (k <= 7) {
 4103              		.loc 1 1997 9 is_stmt 0 view .LVU1586
 4104 07ac 6378     		ldrb	r3, [r4, #1]	@ zero_extendqisi2
 4105              	.LVL604:
1998:Src/maze_solve.c ****         s_k = (unsigned char)(1 << k);
 4106              		.loc 1 1998 7 is_stmt 1 view .LVU1587
1998:Src/maze_solve.c ****         s_k = (unsigned char)(1 << k);
 4107              		.loc 1 1998 10 is_stmt 0 view .LVU1588
 4108 07ae 072B     		cmp	r3, #7
 4109 07b0 08D8     		bhi	.L405
1999:Src/maze_solve.c ****       } else {
 4110              		.loc 1 1999 9 is_stmt 1 view .LVU1589
1999:Src/maze_solve.c ****       } else {
 4111              		.loc 1 1999 33 is_stmt 0 view .LVU1590
ARM GAS  C:\Temp\ccX6Vjzt.s 			page 127


 4112 07b2 4FF0010C 		mov	ip, #1
 4113 07b6 0CFA03FC 		lsl	ip, ip, r3
 4114 07ba 5FFA8CFC 		uxtb	ip, ip
 4115              	.LVL605:
1999:Src/maze_solve.c ****       } else {
 4116              		.loc 1 1999 33 view .LVU1591
 4117 07be 03E0     		b	.L292
 4118              	.LVL606:
 4119              	.L404:
1963:Src/maze_solve.c **** 
 4120              		.loc 1 1963 16 view .LVU1592
 4121 07c0 069A     		ldr	r2, [sp, #24]
 4122 07c2 F3E7     		b	.L290
 4123              	.LVL607:
 4124              	.L405:
2001:Src/maze_solve.c ****       }
 4125              		.loc 1 2001 13 view .LVU1593
 4126 07c4 4FF0000C 		mov	ip, #0
 4127              	.L292:
 4128              	.LVL608:
2004:Src/maze_solve.c ****         i10 = (int)(*current_x + 1U);
 4129              		.loc 1 2004 7 is_stmt 1 view .LVU1594
2004:Src/maze_solve.c ****         i10 = (int)(*current_x + 1U);
 4130              		.loc 1 2004 23 is_stmt 0 view .LVU1595
 4131 07c8 99F80000 		ldrb	r0, [r9]	@ zero_extendqisi2
2004:Src/maze_solve.c ****         i10 = (int)(*current_x + 1U);
 4132              		.loc 1 2004 38 view .LVU1596
 4133 07cc 2978     		ldrb	r1, [r5]	@ zero_extendqisi2
2004:Src/maze_solve.c ****         i10 = (int)(*current_x + 1U);
 4134              		.loc 1 2004 49 view .LVU1597
 4135 07ce 4B1E     		subs	r3, r1, #1
 4136              	.LVL609:
2004:Src/maze_solve.c ****         i10 = (int)(*current_x + 1U);
 4137              		.loc 1 2004 34 view .LVU1598
 4138 07d0 00EB4313 		add	r3, r0, r3, lsl #5
2004:Src/maze_solve.c ****         i10 = (int)(*current_x + 1U);
 4139              		.loc 1 2004 21 view .LVU1599
 4140 07d4 4344     		add	r3, r3, r8
 4141 07d6 13F8013C 		ldrb	r3, [r3, #-1]	@ zero_extendqisi2
2004:Src/maze_solve.c ****         i10 = (int)(*current_x + 1U);
 4142              		.loc 1 2004 10 view .LVU1600
 4143 07da 13EA0C0F 		tst	r3, ip
 4144 07de 0FD1     		bne	.L293
2005:Src/maze_solve.c ****         if ((unsigned int)i10 > 255U) {
 4145              		.loc 1 2005 9 is_stmt 1 view .LVU1601
2005:Src/maze_solve.c ****         if ((unsigned int)i10 > 255U) {
 4146              		.loc 1 2005 32 is_stmt 0 view .LVU1602
 4147 07e0 0131     		adds	r1, r1, #1
2006:Src/maze_solve.c ****           i10 = 255;
 4148              		.loc 1 2006 9 is_stmt 1 view .LVU1603
2006:Src/maze_solve.c ****           i10 = 255;
 4149              		.loc 1 2006 12 is_stmt 0 view .LVU1604
 4150 07e2 FF29     		cmp	r1, #255
 4151 07e4 00D9     		bls	.L294
 4152              	.LVL610:
2007:Src/maze_solve.c ****         }
 4153              		.loc 1 2007 15 view .LVU1605
ARM GAS  C:\Temp\ccX6Vjzt.s 			page 128


 4154 07e6 FF21     		movs	r1, #255
 4155              	.LVL611:
 4156              	.L294:
2010:Src/maze_solve.c ****           i10 = (int)(*current_x + 1U);
 4157              		.loc 1 2010 9 is_stmt 1 view .LVU1606
2010:Src/maze_solve.c ****           i10 = (int)(*current_x + 1U);
 4158              		.loc 1 2010 38 is_stmt 0 view .LVU1607
 4159 07e8 0139     		subs	r1, r1, #1
2010:Src/maze_solve.c ****           i10 = (int)(*current_x + 1U);
 4160              		.loc 1 2010 30 view .LVU1608
 4161 07ea 00EB4111 		add	r1, r0, r1, lsl #5
2010:Src/maze_solve.c ****           i10 = (int)(*current_x + 1U);
 4162              		.loc 1 2010 50 view .LVU1609
 4163 07ee 0139     		subs	r1, r1, #1
2010:Src/maze_solve.c ****           i10 = (int)(*current_x + 1U);
 4164              		.loc 1 2010 17 view .LVU1610
 4165 07f0 10AB     		add	r3, sp, #64
 4166 07f2 53F82130 		ldr	r3, [r3, r1, lsl #2]
2010:Src/maze_solve.c ****           i10 = (int)(*current_x + 1U);
 4167              		.loc 1 2010 55 view .LVU1611
 4168 07f6 0F99     		ldr	r1, [sp, #60]
2010:Src/maze_solve.c ****           i10 = (int)(*current_x + 1U);
 4169              		.loc 1 2010 12 view .LVU1612
 4170 07f8 8B42     		cmp	r3, r1
 4171 07fa 01D2     		bcs	.L293
2011:Src/maze_solve.c ****           if ((unsigned int)i10 > 255U) {
 4172              		.loc 1 2011 11 is_stmt 1 view .LVU1613
2012:Src/maze_solve.c ****             i10 = 255;
 4173              		.loc 1 2012 11 view .LVU1614
2016:Src/maze_solve.c ****           next_dir = g_direction->contents.East;
 4174              		.loc 1 2016 11 view .LVU1615
2016:Src/maze_solve.c ****           next_dir = g_direction->contents.East;
 4175              		.loc 1 2016 18 is_stmt 0 view .LVU1616
 4176 07fc 0F93     		str	r3, [sp, #60]
 4177              	.LVL612:
2017:Src/maze_solve.c ****         }
 4178              		.loc 1 2017 11 is_stmt 1 view .LVU1617
2017:Src/maze_solve.c ****         }
 4179              		.loc 1 2017 20 is_stmt 0 view .LVU1618
 4180 07fe 6278     		ldrb	r2, [r4, #1]	@ zero_extendqisi2
 4181              	.LVL613:
 4182              	.L293:
2022:Src/maze_solve.c ****       if (k <= 7) {
 4183              		.loc 1 2022 7 is_stmt 1 view .LVU1619
2022:Src/maze_solve.c ****       if (k <= 7) {
 4184              		.loc 1 2022 9 is_stmt 0 view .LVU1620
 4185 0800 A378     		ldrb	r3, [r4, #2]	@ zero_extendqisi2
 4186              	.LVL614:
2023:Src/maze_solve.c ****         t_k = (unsigned char)(1 << k);
 4187              		.loc 1 2023 7 is_stmt 1 view .LVU1621
2023:Src/maze_solve.c ****         t_k = (unsigned char)(1 << k);
 4188              		.loc 1 2023 10 is_stmt 0 view .LVU1622
 4189 0802 072B     		cmp	r3, #7
 4190 0804 03D8     		bhi	.L407
2024:Src/maze_solve.c ****       } else {
 4191              		.loc 1 2024 9 is_stmt 1 view .LVU1623
2024:Src/maze_solve.c ****       } else {
ARM GAS  C:\Temp\ccX6Vjzt.s 			page 129


 4192              		.loc 1 2024 33 is_stmt 0 view .LVU1624
 4193 0806 0121     		movs	r1, #1
 4194 0808 9940     		lsls	r1, r1, r3
 4195 080a C9B2     		uxtb	r1, r1
 4196              	.LVL615:
2024:Src/maze_solve.c ****       } else {
 4197              		.loc 1 2024 33 view .LVU1625
 4198 080c 00E0     		b	.L295
 4199              	.LVL616:
 4200              	.L407:
2026:Src/maze_solve.c ****       }
 4201              		.loc 1 2026 13 view .LVU1626
 4202 080e 0021     		movs	r1, #0
 4203              	.L295:
 4204              	.LVL617:
2029:Src/maze_solve.c ****         q0 = *current_y;
 4205              		.loc 1 2029 7 is_stmt 1 view .LVU1627
2029:Src/maze_solve.c ****         q0 = *current_y;
 4206              		.loc 1 2029 23 is_stmt 0 view .LVU1628
 4207 0810 99F80000 		ldrb	r0, [r9]	@ zero_extendqisi2
2029:Src/maze_solve.c ****         q0 = *current_y;
 4208              		.loc 1 2029 38 view .LVU1629
 4209 0814 2B78     		ldrb	r3, [r5]	@ zero_extendqisi2
 4210              	.LVL618:
2029:Src/maze_solve.c ****         q0 = *current_y;
 4211              		.loc 1 2029 49 view .LVU1630
 4212 0816 013B     		subs	r3, r3, #1
2029:Src/maze_solve.c ****         q0 = *current_y;
 4213              		.loc 1 2029 34 view .LVU1631
 4214 0818 00EB4313 		add	r3, r0, r3, lsl #5
2029:Src/maze_solve.c ****         q0 = *current_y;
 4215              		.loc 1 2029 21 view .LVU1632
 4216 081c 4344     		add	r3, r3, r8
 4217 081e 13F8013C 		ldrb	r3, [r3, #-1]	@ zero_extendqisi2
2029:Src/maze_solve.c ****         q0 = *current_y;
 4218              		.loc 1 2029 10 view .LVU1633
 4219 0822 0B42     		tst	r3, r1
 4220 0824 0FD1     		bne	.L296
2030:Src/maze_solve.c ****         qY = q0 - 1U;
 4221              		.loc 1 2030 9 is_stmt 1 view .LVU1634
 4222              	.LVL619:
2031:Src/maze_solve.c ****         if (qY > (unsigned int)q0) {
 4223              		.loc 1 2031 9 view .LVU1635
2031:Src/maze_solve.c ****         if (qY > (unsigned int)q0) {
 4224              		.loc 1 2031 12 is_stmt 0 view .LVU1636
 4225 0826 431E     		subs	r3, r0, #1
 4226              	.LVL620:
2032:Src/maze_solve.c ****           qY = 0U;
 4227              		.loc 1 2032 9 is_stmt 1 view .LVU1637
2032:Src/maze_solve.c ****           qY = 0U;
 4228              		.loc 1 2032 12 is_stmt 0 view .LVU1638
 4229 0828 9842     		cmp	r0, r3
 4230 082a 00D2     		bcs	.L297
 4231              	.LVL621:
2033:Src/maze_solve.c ****         }
 4232              		.loc 1 2033 14 view .LVU1639
 4233 082c 0023     		movs	r3, #0
ARM GAS  C:\Temp\ccX6Vjzt.s 			page 130


 4234              	.LVL622:
 4235              	.L297:
2036:Src/maze_solve.c ****           q0 = *current_y;
 4236              		.loc 1 2036 9 is_stmt 1 view .LVU1640
2036:Src/maze_solve.c ****           q0 = *current_y;
 4237              		.loc 1 2036 27 is_stmt 0 view .LVU1641
 4238 082e 7249     		ldr	r1, .L457+4
 4239              	.LVL623:
2036:Src/maze_solve.c ****           q0 = *current_y;
 4240              		.loc 1 2036 27 view .LVU1642
 4241 0830 0968     		ldr	r1, [r1]
 4242 0832 0B44     		add	r3, r3, r1
2036:Src/maze_solve.c ****           q0 = *current_y;
 4243              		.loc 1 2036 34 view .LVU1643
 4244 0834 013B     		subs	r3, r3, #1
2036:Src/maze_solve.c ****           q0 = *current_y;
 4245              		.loc 1 2036 17 view .LVU1644
 4246 0836 10A9     		add	r1, sp, #64
 4247 0838 51F82330 		ldr	r3, [r1, r3, lsl #2]
2036:Src/maze_solve.c ****           q0 = *current_y;
 4248              		.loc 1 2036 39 view .LVU1645
 4249 083c 0F99     		ldr	r1, [sp, #60]
2036:Src/maze_solve.c ****           q0 = *current_y;
 4250              		.loc 1 2036 12 view .LVU1646
 4251 083e 8B42     		cmp	r3, r1
 4252 0840 01D2     		bcs	.L296
2037:Src/maze_solve.c ****           qY = q0 - 1U;
 4253              		.loc 1 2037 11 is_stmt 1 view .LVU1647
2038:Src/maze_solve.c ****           if (qY > (unsigned int)q0) {
 4254              		.loc 1 2038 11 view .LVU1648
2039:Src/maze_solve.c ****             qY = 0U;
 4255              		.loc 1 2039 11 view .LVU1649
2043:Src/maze_solve.c ****           next_dir = g_direction->contents.South;
 4256              		.loc 1 2043 11 view .LVU1650
2043:Src/maze_solve.c ****           next_dir = g_direction->contents.South;
 4257              		.loc 1 2043 18 is_stmt 0 view .LVU1651
 4258 0842 0F93     		str	r3, [sp, #60]
 4259              	.LVL624:
2044:Src/maze_solve.c ****         }
 4260              		.loc 1 2044 11 is_stmt 1 view .LVU1652
2044:Src/maze_solve.c ****         }
 4261              		.loc 1 2044 20 is_stmt 0 view .LVU1653
 4262 0844 A278     		ldrb	r2, [r4, #2]	@ zero_extendqisi2
 4263              	.LVL625:
 4264              	.L296:
2049:Src/maze_solve.c ****       if (k <= 7) {
 4265              		.loc 1 2049 7 is_stmt 1 view .LVU1654
2049:Src/maze_solve.c ****       if (k <= 7) {
 4266              		.loc 1 2049 9 is_stmt 0 view .LVU1655
 4267 0846 94F803E0 		ldrb	lr, [r4, #3]	@ zero_extendqisi2
 4268              	.LVL626:
2050:Src/maze_solve.c ****         u_k = (unsigned char)(1 << k);
 4269              		.loc 1 2050 7 is_stmt 1 view .LVU1656
2050:Src/maze_solve.c ****         u_k = (unsigned char)(1 << k);
 4270              		.loc 1 2050 10 is_stmt 0 view .LVU1657
 4271 084a BEF1070F 		cmp	lr, #7
 4272 084e 04D8     		bhi	.L409
ARM GAS  C:\Temp\ccX6Vjzt.s 			page 131


2051:Src/maze_solve.c ****       } else {
 4273              		.loc 1 2051 9 is_stmt 1 view .LVU1658
2051:Src/maze_solve.c ****       } else {
 4274              		.loc 1 2051 33 is_stmt 0 view .LVU1659
 4275 0850 0120     		movs	r0, #1
 4276 0852 00FA0EF0 		lsl	r0, r0, lr
 4277 0856 C0B2     		uxtb	r0, r0
 4278              	.LVL627:
2051:Src/maze_solve.c ****       } else {
 4279              		.loc 1 2051 33 view .LVU1660
 4280 0858 00E0     		b	.L298
 4281              	.LVL628:
 4282              	.L409:
2053:Src/maze_solve.c ****       }
 4283              		.loc 1 2053 13 view .LVU1661
 4284 085a 0020     		movs	r0, #0
 4285              	.L298:
 4286              	.LVL629:
2056:Src/maze_solve.c ****         q0 = *current_x;
 4287              		.loc 1 2056 7 is_stmt 1 view .LVU1662
2056:Src/maze_solve.c ****         q0 = *current_x;
 4288              		.loc 1 2056 23 is_stmt 0 view .LVU1663
 4289 085c 99F80010 		ldrb	r1, [r9]	@ zero_extendqisi2
2056:Src/maze_solve.c ****         q0 = *current_x;
 4290              		.loc 1 2056 38 view .LVU1664
 4291 0860 95F800C0 		ldrb	ip, [r5]	@ zero_extendqisi2
 4292              	.LVL630:
2056:Src/maze_solve.c ****         q0 = *current_x;
 4293              		.loc 1 2056 49 view .LVU1665
 4294 0864 0CF1FF33 		add	r3, ip, #-1
2056:Src/maze_solve.c ****         q0 = *current_x;
 4295              		.loc 1 2056 34 view .LVU1666
 4296 0868 01EB4313 		add	r3, r1, r3, lsl #5
2056:Src/maze_solve.c ****         q0 = *current_x;
 4297              		.loc 1 2056 21 view .LVU1667
 4298 086c 4344     		add	r3, r3, r8
 4299 086e 13F8013C 		ldrb	r3, [r3, #-1]	@ zero_extendqisi2
2056:Src/maze_solve.c ****         q0 = *current_x;
 4300              		.loc 1 2056 10 view .LVU1668
 4301 0872 0342     		tst	r3, r0
 4302 0874 0FD1     		bne	.L299
2057:Src/maze_solve.c ****         qY = q0 - 1U;
 4303              		.loc 1 2057 9 is_stmt 1 view .LVU1669
 4304              	.LVL631:
2058:Src/maze_solve.c ****         if (qY > (unsigned int)q0) {
 4305              		.loc 1 2058 9 view .LVU1670
2058:Src/maze_solve.c ****         if (qY > (unsigned int)q0) {
 4306              		.loc 1 2058 12 is_stmt 0 view .LVU1671
 4307 0876 0CF1FF33 		add	r3, ip, #-1
 4308              	.LVL632:
2059:Src/maze_solve.c ****           qY = 0U;
 4309              		.loc 1 2059 9 is_stmt 1 view .LVU1672
2059:Src/maze_solve.c ****           qY = 0U;
 4310              		.loc 1 2059 12 is_stmt 0 view .LVU1673
 4311 087a 9C45     		cmp	ip, r3
 4312 087c 00D2     		bcs	.L300
2060:Src/maze_solve.c ****         }
ARM GAS  C:\Temp\ccX6Vjzt.s 			page 132


 4313              		.loc 1 2060 14 view .LVU1674
 4314 087e 0023     		movs	r3, #0
 4315              	.LVL633:
 4316              	.L300:
2063:Src/maze_solve.c ****           /*  little = contour_map(current_y,current_x-1); */
 4317              		.loc 1 2063 9 is_stmt 1 view .LVU1675
2063:Src/maze_solve.c ****           /*  little = contour_map(current_y,current_x-1); */
 4318              		.loc 1 2063 42 is_stmt 0 view .LVU1676
 4319 0880 013B     		subs	r3, r3, #1
 4320              	.LVL634:
2063:Src/maze_solve.c ****           /*  little = contour_map(current_y,current_x-1); */
 4321              		.loc 1 2063 30 view .LVU1677
 4322 0882 01EB4311 		add	r1, r1, r3, lsl #5
2063:Src/maze_solve.c ****           /*  little = contour_map(current_y,current_x-1); */
 4323              		.loc 1 2063 54 view .LVU1678
 4324 0886 0139     		subs	r1, r1, #1
2063:Src/maze_solve.c ****           /*  little = contour_map(current_y,current_x-1); */
 4325              		.loc 1 2063 17 view .LVU1679
 4326 0888 10AB     		add	r3, sp, #64
 4327              	.LVL635:
2063:Src/maze_solve.c ****           /*  little = contour_map(current_y,current_x-1); */
 4328              		.loc 1 2063 17 view .LVU1680
 4329 088a 53F82110 		ldr	r1, [r3, r1, lsl #2]
2063:Src/maze_solve.c ****           /*  little = contour_map(current_y,current_x-1); */
 4330              		.loc 1 2063 59 view .LVU1681
 4331 088e 0F9B     		ldr	r3, [sp, #60]
2063:Src/maze_solve.c ****           /*  little = contour_map(current_y,current_x-1); */
 4332              		.loc 1 2063 12 view .LVU1682
 4333 0890 9942     		cmp	r1, r3
 4334 0892 00D2     		bcs	.L299
2065:Src/maze_solve.c ****         }
 4335              		.loc 1 2065 20 view .LVU1683
 4336 0894 7246     		mov	r2, lr
 4337              	.LVL636:
 4338              	.L299:
2070:Src/maze_solve.c ****       if ((unsigned int)q0 > 255U) {
 4339              		.loc 1 2070 7 is_stmt 1 view .LVU1684
2070:Src/maze_solve.c ****       if ((unsigned int)q0 > 255U) {
 4340              		.loc 1 2070 21 is_stmt 0 view .LVU1685
 4341 0896 0432     		adds	r2, r2, #4
 4342              	.LVL637:
2071:Src/maze_solve.c ****         q0 = 255;
 4343              		.loc 1 2071 7 is_stmt 1 view .LVU1686
2071:Src/maze_solve.c ****         q0 = 255;
 4344              		.loc 1 2071 10 is_stmt 0 view .LVU1687
 4345 0898 FF2A     		cmp	r2, #255
 4346 089a 00D9     		bls	.L301
2072:Src/maze_solve.c ****       }
 4347              		.loc 1 2072 12 view .LVU1688
 4348 089c FF22     		movs	r2, #255
 4349              	.LVL638:
 4350              	.L301:
2075:Src/maze_solve.c ****       if (qY > (unsigned int)q0) {
 4351              		.loc 1 2075 7 is_stmt 1 view .LVU1689
2075:Src/maze_solve.c ****       if (qY > (unsigned int)q0) {
 4352              		.loc 1 2075 31 is_stmt 0 view .LVU1690
 4353 089e 9AF80030 		ldrb	r3, [r10]	@ zero_extendqisi2
ARM GAS  C:\Temp\ccX6Vjzt.s 			page 133


2075:Src/maze_solve.c ****       if (qY > (unsigned int)q0) {
 4354              		.loc 1 2075 10 view .LVU1691
 4355 08a2 D31A     		subs	r3, r2, r3
 4356              	.LVL639:
2076:Src/maze_solve.c ****         qY = 0U;
 4357              		.loc 1 2076 7 is_stmt 1 view .LVU1692
2076:Src/maze_solve.c ****         qY = 0U;
 4358              		.loc 1 2076 10 is_stmt 0 view .LVU1693
 4359 08a4 9A42     		cmp	r2, r3
 4360 08a6 00D2     		bcs	.L302
2077:Src/maze_solve.c ****       }
 4361              		.loc 1 2077 12 view .LVU1694
 4362 08a8 0023     		movs	r3, #0
 4363              	.LVL640:
 4364              	.L302:
2080:Src/maze_solve.c ****       next_dir = l_direction->contents.front;
 4365              		.loc 1 2080 7 is_stmt 1 view .LVU1695
2080:Src/maze_solve.c ****       next_dir = l_direction->contents.front;
 4366              		.loc 1 2080 35 is_stmt 0 view .LVU1696
 4367 08aa 5A42     		rsbs	r2, r3, #0
 4368              	.LVL641:
2080:Src/maze_solve.c ****       next_dir = l_direction->contents.front;
 4369              		.loc 1 2080 35 view .LVU1697
 4370 08ac 03F00303 		and	r3, r3, #3
 4371              	.LVL642:
2080:Src/maze_solve.c ****       next_dir = l_direction->contents.front;
 4372              		.loc 1 2080 35 view .LVU1698
 4373 08b0 02F00302 		and	r2, r2, #3
 4374 08b4 58BF     		it	pl
 4375 08b6 5342     		rsbpl	r3, r2, #0
2080:Src/maze_solve.c ****       next_dir = l_direction->contents.front;
 4376              		.loc 1 2080 9 view .LVU1699
 4377 08b8 DAB2     		uxtb	r2, r3
 4378              	.LVL643:
2081:Src/maze_solve.c ****       little = l_direction->contents.right;
 4379              		.loc 1 2081 7 is_stmt 1 view .LVU1700
2081:Src/maze_solve.c ****       little = l_direction->contents.right;
 4380              		.loc 1 2081 16 is_stmt 0 view .LVU1701
 4381 08ba 0C98     		ldr	r0, [sp, #48]
 4382              	.LVL644:
2081:Src/maze_solve.c ****       little = l_direction->contents.right;
 4383              		.loc 1 2081 16 view .LVU1702
 4384 08bc 90F800E0 		ldrb	lr, [r0]	@ zero_extendqisi2
 4385              	.LVL645:
2082:Src/maze_solve.c ****       varargin_3 = l_direction->contents.back;
 4386              		.loc 1 2082 7 is_stmt 1 view .LVU1703
2082:Src/maze_solve.c ****       varargin_3 = l_direction->contents.back;
 4387              		.loc 1 2082 37 is_stmt 0 view .LVU1704
 4388 08c0 4178     		ldrb	r1, [r0, #1]	@ zero_extendqisi2
2082:Src/maze_solve.c ****       varargin_3 = l_direction->contents.back;
 4389              		.loc 1 2082 14 view .LVU1705
 4390 08c2 0F91     		str	r1, [sp, #60]
2083:Src/maze_solve.c ****       varargin_4 = l_direction->contents.left;
 4391              		.loc 1 2083 7 is_stmt 1 view .LVU1706
2083:Src/maze_solve.c ****       varargin_4 = l_direction->contents.left;
 4392              		.loc 1 2083 18 is_stmt 0 view .LVU1707
 4393 08c4 0746     		mov	r7, r0
ARM GAS  C:\Temp\ccX6Vjzt.s 			page 134


 4394 08c6 8078     		ldrb	r0, [r0, #2]	@ zero_extendqisi2
 4395              	.LVL646:
2084:Src/maze_solve.c ****       if (next_dir == k) {
 4396              		.loc 1 2084 7 is_stmt 1 view .LVU1708
2084:Src/maze_solve.c ****       if (next_dir == k) {
 4397              		.loc 1 2084 18 is_stmt 0 view .LVU1709
 4398 08c8 97F803C0 		ldrb	ip, [r7, #3]	@ zero_extendqisi2
 4399              	.LVL647:
2085:Src/maze_solve.c ****         q0 = 0;
 4400              		.loc 1 2085 7 is_stmt 1 view .LVU1710
2085:Src/maze_solve.c ****         q0 = 0;
 4401              		.loc 1 2085 10 is_stmt 0 view .LVU1711
 4402 08cc 7245     		cmp	r2, lr
 4403 08ce 11D0     		beq	.L439
2087:Src/maze_solve.c ****         q0 = 1;
 4404              		.loc 1 2087 14 is_stmt 1 view .LVU1712
2087:Src/maze_solve.c ****         q0 = 1;
 4405              		.loc 1 2087 25 is_stmt 0 view .LVU1713
 4406 08d0 DBB2     		uxtb	r3, r3
2087:Src/maze_solve.c ****         q0 = 1;
 4407              		.loc 1 2087 17 view .LVU1714
 4408 08d2 9942     		cmp	r1, r3
 4409 08d4 00F09680 		beq	.L306
2089:Src/maze_solve.c ****         q0 = 2;
 4410              		.loc 1 2089 14 is_stmt 1 view .LVU1715
2089:Src/maze_solve.c ****         q0 = 2;
 4411              		.loc 1 2089 17 is_stmt 0 view .LVU1716
 4412 08d8 8242     		cmp	r2, r0
 4413 08da 5AD0     		beq	.L307
2091:Src/maze_solve.c ****         q0 = 3;
 4414              		.loc 1 2091 14 is_stmt 1 view .LVU1717
2091:Src/maze_solve.c ****         q0 = 3;
 4415              		.loc 1 2091 17 is_stmt 0 view .LVU1718
 4416 08dc 6245     		cmp	r2, ip
 4417 08de 29D0     		beq	.L440
 4418              	.LVL648:
 4419              	.L217:
1412:Src/maze_solve.c ****     exitg1 = 0;
 4420              		.loc 1 1412 3 is_stmt 1 view .LVU1719
1413:Src/maze_solve.c **** 
 4421              		.loc 1 1413 5 view .LVU1720
1416:Src/maze_solve.c ****       {
 4422              		.loc 1 1416 7 view .LVU1721
1416:Src/maze_solve.c ****       {
 4423              		.loc 1 1416 26 is_stmt 0 view .LVU1722
 4424 08e0 474B     		ldr	r3, .L457+12
 4425 08e2 1B78     		ldrb	r3, [r3]	@ zero_extendqisi2
1416:Src/maze_solve.c ****       {
 4426              		.loc 1 1416 10 view .LVU1723
 4427 08e4 002B     		cmp	r3, #0
 4428 08e6 3FF4C4AB 		beq	.L441
 4429              	.L218:
1929:Src/maze_solve.c **** 
 4430              		.loc 1 1929 3 is_stmt 1 view .LVU1724
1929:Src/maze_solve.c **** 
 4431              		.loc 1 1929 18 is_stmt 0 view .LVU1725
 4432 08ea 0023     		movs	r3, #0
ARM GAS  C:\Temp\ccX6Vjzt.s 			page 135


 4433 08ec 444A     		ldr	r2, .L457+12
 4434 08ee 1370     		strb	r3, [r2]
1932:Src/maze_solve.c ****       if ((*current_x == maze_goal[q0]) && (*current_y == maze_goal[q0 + 9])) {
 4435              		.loc 1 1932 5 is_stmt 1 view .LVU1726
 4436              	.LVL649:
1932:Src/maze_solve.c ****       if ((*current_x == maze_goal[q0]) && (*current_y == maze_goal[q0 + 9])) {
 4437              		.loc 1 1932 5 is_stmt 0 view .LVU1727
 4438 08f0 079F     		ldr	r7, [sp, #28]
 4439 08f2 F7E6     		b	.L285
 4440              	.LVL650:
 4441              	.L439:
2097:Src/maze_solve.c ****        case 0:	//前進時
 4442              		.loc 1 2097 7 is_stmt 1 view .LVU1728
2099:Src/maze_solve.c ****         /* 入力 現在位置x,y,現在方向 */
 4443              		.loc 1 2099 6 view .LVU1729
 4444 08f4 FFF7FEFF 		bl	move_front
 4445              	.LVL651:
2104:Src/maze_solve.c ****           i10 = (int)(*current_y + 1U);
 4446              		.loc 1 2104 9 view .LVU1730
2104:Src/maze_solve.c ****           i10 = (int)(*current_y + 1U);
 4447              		.loc 1 2104 13 is_stmt 0 view .LVU1731
 4448 08f8 9AF80020 		ldrb	r2, [r10]	@ zero_extendqisi2
2104:Src/maze_solve.c ****           i10 = (int)(*current_y + 1U);
 4449              		.loc 1 2104 50 view .LVU1732
 4450 08fc 2378     		ldrb	r3, [r4]	@ zero_extendqisi2
2104:Src/maze_solve.c ****           i10 = (int)(*current_y + 1U);
 4451              		.loc 1 2104 12 view .LVU1733
 4452 08fe 9A42     		cmp	r2, r3
 4453 0900 00F0AF80 		beq	.L442
 4454              	.L305:
2116:Src/maze_solve.c ****           i10 = (int)(*current_x + 1U);
 4455              		.loc 1 2116 9 is_stmt 1 view .LVU1734
2116:Src/maze_solve.c ****           i10 = (int)(*current_x + 1U);
 4456              		.loc 1 2116 13 is_stmt 0 view .LVU1735
 4457 0904 9AF80020 		ldrb	r2, [r10]	@ zero_extendqisi2
2116:Src/maze_solve.c ****           i10 = (int)(*current_x + 1U);
 4458              		.loc 1 2116 50 view .LVU1736
 4459 0908 6378     		ldrb	r3, [r4, #1]	@ zero_extendqisi2
2116:Src/maze_solve.c ****           i10 = (int)(*current_x + 1U);
 4460              		.loc 1 2116 12 view .LVU1737
 4461 090a 9A42     		cmp	r2, r3
 4462 090c 00F0B280 		beq	.L443
 4463              	.L313:
2128:Src/maze_solve.c ****           qY = *current_y - 1U;
 4464              		.loc 1 2128 9 is_stmt 1 view .LVU1738
2128:Src/maze_solve.c ****           qY = *current_y - 1U;
 4465              		.loc 1 2128 13 is_stmt 0 view .LVU1739
 4466 0910 9AF80020 		ldrb	r2, [r10]	@ zero_extendqisi2
2128:Src/maze_solve.c ****           qY = *current_y - 1U;
 4467              		.loc 1 2128 50 view .LVU1740
 4468 0914 A378     		ldrb	r3, [r4, #2]	@ zero_extendqisi2
2128:Src/maze_solve.c ****           qY = *current_y - 1U;
 4469              		.loc 1 2128 12 view .LVU1741
 4470 0916 9A42     		cmp	r2, r3
 4471 0918 00F0B380 		beq	.L444
 4472              	.L315:
2140:Src/maze_solve.c ****           qY = *current_x - 1U;
ARM GAS  C:\Temp\ccX6Vjzt.s 			page 136


 4473              		.loc 1 2140 9 is_stmt 1 view .LVU1742
2140:Src/maze_solve.c ****           qY = *current_x - 1U;
 4474              		.loc 1 2140 13 is_stmt 0 view .LVU1743
 4475 091c 9AF80020 		ldrb	r2, [r10]	@ zero_extendqisi2
2140:Src/maze_solve.c ****           qY = *current_x - 1U;
 4476              		.loc 1 2140 50 view .LVU1744
 4477 0920 E378     		ldrb	r3, [r4, #3]	@ zero_extendqisi2
2140:Src/maze_solve.c ****           qY = *current_x - 1U;
 4478              		.loc 1 2140 12 view .LVU1745
 4479 0922 9A42     		cmp	r2, r3
 4480 0924 DCD1     		bne	.L217
2141:Src/maze_solve.c ****           if (qY > *current_x) {
 4481              		.loc 1 2141 11 is_stmt 1 view .LVU1746
2141:Src/maze_solve.c ****           if (qY > *current_x) {
 4482              		.loc 1 2141 16 is_stmt 0 view .LVU1747
 4483 0926 2A78     		ldrb	r2, [r5]	@ zero_extendqisi2
2141:Src/maze_solve.c ****           if (qY > *current_x) {
 4484              		.loc 1 2141 14 view .LVU1748
 4485 0928 531E     		subs	r3, r2, #1
 4486              	.LVL652:
2142:Src/maze_solve.c ****             qY = 0U;
 4487              		.loc 1 2142 11 is_stmt 1 view .LVU1749
2142:Src/maze_solve.c ****             qY = 0U;
 4488              		.loc 1 2142 14 is_stmt 0 view .LVU1750
 4489 092a 9A42     		cmp	r2, r3
 4490 092c 00D2     		bcs	.L317
2143:Src/maze_solve.c ****           }
 4491              		.loc 1 2143 16 view .LVU1751
 4492 092e 0023     		movs	r3, #0
 4493              	.LVL653:
 4494              	.L317:
2146:Src/maze_solve.c **** 
 4495              		.loc 1 2146 11 is_stmt 1 view .LVU1752
2146:Src/maze_solve.c **** 
 4496              		.loc 1 2146 22 is_stmt 0 view .LVU1753
 4497 0930 2B70     		strb	r3, [r5]
2362:Src/maze_solve.c **** 
 4498              		.loc 1 2362 11 is_stmt 1 view .LVU1754
 4499 0932 D5E7     		b	.L217
 4500              	.LVL654:
 4501              	.L440:
2097:Src/maze_solve.c ****        case 0:	//前進時
 4502              		.loc 1 2097 7 view .LVU1755
2292:Src/maze_solve.c ****         /* 入力　現在方向 */
 4503              		.loc 1 2292 6 view .LVU1756
 4504 0934 FFF7FEFF 		bl	move_left
 4505              	.LVL655:
2296:Src/maze_solve.c ****         if ((unsigned int)i10 > 255U) {
 4506              		.loc 1 2296 9 view .LVU1757
2296:Src/maze_solve.c ****         if ((unsigned int)i10 > 255U) {
 4507              		.loc 1 2296 26 is_stmt 0 view .LVU1758
 4508 0938 9AF80030 		ldrb	r3, [r10]	@ zero_extendqisi2
2296:Src/maze_solve.c ****         if ((unsigned int)i10 > 255U) {
 4509              		.loc 1 2296 24 view .LVU1759
 4510 093c 0433     		adds	r3, r3, #4
 4511              	.LVL656:
2297:Src/maze_solve.c ****           i10 = 255;
ARM GAS  C:\Temp\ccX6Vjzt.s 			page 137


 4512              		.loc 1 2297 9 is_stmt 1 view .LVU1760
2297:Src/maze_solve.c ****           i10 = 255;
 4513              		.loc 1 2297 12 is_stmt 0 view .LVU1761
 4514 093e FF2B     		cmp	r3, #255
 4515 0940 00F2DE80 		bhi	.L414
 4516              	.LVL657:
 4517              	.L309:
2301:Src/maze_solve.c **** 
 4518              		.loc 1 2301 9 is_stmt 1 view .LVU1762
2301:Src/maze_solve.c **** 
 4519              		.loc 1 2301 45 is_stmt 0 view .LVU1763
 4520 0944 013B     		subs	r3, r3, #1
 4521              	.LVL658:
2301:Src/maze_solve.c **** 
 4522              		.loc 1 2301 50 view .LVU1764
 4523 0946 5A42     		rsbs	r2, r3, #0
 4524 0948 03F00303 		and	r3, r3, #3
 4525              	.LVL659:
2301:Src/maze_solve.c **** 
 4526              		.loc 1 2301 50 view .LVU1765
 4527 094c 02F00302 		and	r2, r2, #3
 4528 0950 58BF     		it	pl
 4529 0952 5342     		rsbpl	r3, r2, #0
2301:Src/maze_solve.c **** 
 4530              		.loc 1 2301 24 view .LVU1766
 4531 0954 DBB2     		uxtb	r3, r3
2301:Src/maze_solve.c **** 
 4532              		.loc 1 2301 22 view .LVU1767
 4533 0956 8AF80030 		strb	r3, [r10]
2307:Src/maze_solve.c ****           i10 = (int)(*current_y + 1U);
 4534              		.loc 1 2307 9 is_stmt 1 view .LVU1768
2307:Src/maze_solve.c ****           i10 = (int)(*current_y + 1U);
 4535              		.loc 1 2307 50 is_stmt 0 view .LVU1769
 4536 095a 2278     		ldrb	r2, [r4]	@ zero_extendqisi2
2307:Src/maze_solve.c ****           i10 = (int)(*current_y + 1U);
 4537              		.loc 1 2307 12 view .LVU1770
 4538 095c 9342     		cmp	r3, r2
 4539 095e 00F0D180 		beq	.L445
 4540              	.L333:
2319:Src/maze_solve.c ****           i10 = (int)(*current_x + 1U);
 4541              		.loc 1 2319 9 is_stmt 1 view .LVU1771
2319:Src/maze_solve.c ****           i10 = (int)(*current_x + 1U);
 4542              		.loc 1 2319 13 is_stmt 0 view .LVU1772
 4543 0962 9AF80020 		ldrb	r2, [r10]	@ zero_extendqisi2
2319:Src/maze_solve.c ****           i10 = (int)(*current_x + 1U);
 4544              		.loc 1 2319 50 view .LVU1773
 4545 0966 6378     		ldrb	r3, [r4, #1]	@ zero_extendqisi2
2319:Src/maze_solve.c ****           i10 = (int)(*current_x + 1U);
 4546              		.loc 1 2319 12 view .LVU1774
 4547 0968 9A42     		cmp	r2, r3
 4548 096a 00F0D480 		beq	.L446
 4549              	.L335:
2331:Src/maze_solve.c ****           qY = *current_y - 1U;
 4550              		.loc 1 2331 9 is_stmt 1 view .LVU1775
2331:Src/maze_solve.c ****           qY = *current_y - 1U;
 4551              		.loc 1 2331 13 is_stmt 0 view .LVU1776
 4552 096e 9AF80020 		ldrb	r2, [r10]	@ zero_extendqisi2
ARM GAS  C:\Temp\ccX6Vjzt.s 			page 138


2331:Src/maze_solve.c ****           qY = *current_y - 1U;
 4553              		.loc 1 2331 50 view .LVU1777
 4554 0972 A378     		ldrb	r3, [r4, #2]	@ zero_extendqisi2
2331:Src/maze_solve.c ****           qY = *current_y - 1U;
 4555              		.loc 1 2331 12 view .LVU1778
 4556 0974 9A42     		cmp	r2, r3
 4557 0976 00F0D580 		beq	.L447
 4558              	.L337:
2343:Src/maze_solve.c ****           qY = *current_x - 1U;
 4559              		.loc 1 2343 9 is_stmt 1 view .LVU1779
2343:Src/maze_solve.c ****           qY = *current_x - 1U;
 4560              		.loc 1 2343 13 is_stmt 0 view .LVU1780
 4561 097a 9AF80020 		ldrb	r2, [r10]	@ zero_extendqisi2
2343:Src/maze_solve.c ****           qY = *current_x - 1U;
 4562              		.loc 1 2343 50 view .LVU1781
 4563 097e E378     		ldrb	r3, [r4, #3]	@ zero_extendqisi2
2343:Src/maze_solve.c ****           qY = *current_x - 1U;
 4564              		.loc 1 2343 12 view .LVU1782
 4565 0980 9A42     		cmp	r2, r3
 4566 0982 ADD1     		bne	.L217
2344:Src/maze_solve.c ****           if (qY > *current_x) {
 4567              		.loc 1 2344 11 is_stmt 1 view .LVU1783
2344:Src/maze_solve.c ****           if (qY > *current_x) {
 4568              		.loc 1 2344 16 is_stmt 0 view .LVU1784
 4569 0984 2A78     		ldrb	r2, [r5]	@ zero_extendqisi2
2344:Src/maze_solve.c ****           if (qY > *current_x) {
 4570              		.loc 1 2344 14 view .LVU1785
 4571 0986 531E     		subs	r3, r2, #1
 4572              	.LVL660:
2345:Src/maze_solve.c ****             qY = 0U;
 4573              		.loc 1 2345 11 is_stmt 1 view .LVU1786
2345:Src/maze_solve.c ****             qY = 0U;
 4574              		.loc 1 2345 14 is_stmt 0 view .LVU1787
 4575 0988 9A42     		cmp	r2, r3
 4576 098a 00D2     		bcs	.L339
2346:Src/maze_solve.c ****           }
 4577              		.loc 1 2346 16 view .LVU1788
 4578 098c 0023     		movs	r3, #0
 4579              	.LVL661:
 4580              	.L339:
2349:Src/maze_solve.c **** 
 4581              		.loc 1 2349 11 is_stmt 1 view .LVU1789
2349:Src/maze_solve.c **** 
 4582              		.loc 1 2349 22 is_stmt 0 view .LVU1790
 4583 098e 2B70     		strb	r3, [r5]
2362:Src/maze_solve.c **** 
 4584              		.loc 1 2362 11 is_stmt 1 view .LVU1791
 4585 0990 A6E7     		b	.L217
 4586              	.LVL662:
 4587              	.L307:
2097:Src/maze_solve.c ****        case 0:	//前進時
 4588              		.loc 1 2097 7 view .LVU1792
2226:Src/maze_solve.c ****         /* 入力 現在方向 */
 4589              		.loc 1 2226 6 view .LVU1793
 4590 0992 FFF7FEFF 		bl	move_back
 4591              	.LVL663:
2230:Src/maze_solve.c ****         if ((unsigned int)i10 > 255U) {
ARM GAS  C:\Temp\ccX6Vjzt.s 			page 139


 4592              		.loc 1 2230 9 view .LVU1794
2230:Src/maze_solve.c ****         if ((unsigned int)i10 > 255U) {
 4593              		.loc 1 2230 26 is_stmt 0 view .LVU1795
 4594 0996 9AF80030 		ldrb	r3, [r10]	@ zero_extendqisi2
2230:Src/maze_solve.c ****         if ((unsigned int)i10 > 255U) {
 4595              		.loc 1 2230 24 view .LVU1796
 4596 099a 0433     		adds	r3, r3, #4
 4597              	.LVL664:
2231:Src/maze_solve.c ****           i10 = 255;
 4598              		.loc 1 2231 9 is_stmt 1 view .LVU1797
2231:Src/maze_solve.c ****           i10 = 255;
 4599              		.loc 1 2231 12 is_stmt 0 view .LVU1798
 4600 099c FF2B     		cmp	r3, #255
 4601 099e 00F29480 		bhi	.L415
 4602              	.LVL665:
 4603              	.L310:
2235:Src/maze_solve.c **** 
 4604              		.loc 1 2235 9 is_stmt 1 view .LVU1799
2235:Src/maze_solve.c **** 
 4605              		.loc 1 2235 45 is_stmt 0 view .LVU1800
 4606 09a2 023B     		subs	r3, r3, #2
 4607              	.LVL666:
2235:Src/maze_solve.c **** 
 4608              		.loc 1 2235 50 view .LVU1801
 4609 09a4 5A42     		rsbs	r2, r3, #0
 4610 09a6 03F00303 		and	r3, r3, #3
 4611              	.LVL667:
2235:Src/maze_solve.c **** 
 4612              		.loc 1 2235 50 view .LVU1802
 4613 09aa 02F00302 		and	r2, r2, #3
 4614 09ae 58BF     		it	pl
 4615 09b0 5342     		rsbpl	r3, r2, #0
2235:Src/maze_solve.c **** 
 4616              		.loc 1 2235 24 view .LVU1803
 4617 09b2 DBB2     		uxtb	r3, r3
2235:Src/maze_solve.c **** 
 4618              		.loc 1 2235 22 view .LVU1804
 4619 09b4 8AF80030 		strb	r3, [r10]
2241:Src/maze_solve.c ****           i10 = (int)(*current_y + 1U);
 4620              		.loc 1 2241 9 is_stmt 1 view .LVU1805
2241:Src/maze_solve.c ****           i10 = (int)(*current_y + 1U);
 4621              		.loc 1 2241 50 is_stmt 0 view .LVU1806
 4622 09b8 2278     		ldrb	r2, [r4]	@ zero_extendqisi2
2241:Src/maze_solve.c ****           i10 = (int)(*current_y + 1U);
 4623              		.loc 1 2241 12 view .LVU1807
 4624 09ba 9342     		cmp	r3, r2
 4625 09bc 00F08780 		beq	.L448
 4626              	.L326:
2253:Src/maze_solve.c ****           i10 = (int)(*current_x + 1U);
 4627              		.loc 1 2253 9 is_stmt 1 view .LVU1808
2253:Src/maze_solve.c ****           i10 = (int)(*current_x + 1U);
 4628              		.loc 1 2253 13 is_stmt 0 view .LVU1809
 4629 09c0 9AF80020 		ldrb	r2, [r10]	@ zero_extendqisi2
2253:Src/maze_solve.c ****           i10 = (int)(*current_x + 1U);
 4630              		.loc 1 2253 50 view .LVU1810
 4631 09c4 6378     		ldrb	r3, [r4, #1]	@ zero_extendqisi2
2253:Src/maze_solve.c ****           i10 = (int)(*current_x + 1U);
ARM GAS  C:\Temp\ccX6Vjzt.s 			page 140


 4632              		.loc 1 2253 12 view .LVU1811
 4633 09c6 9A42     		cmp	r2, r3
 4634 09c8 00F08A80 		beq	.L449
 4635              	.L328:
2265:Src/maze_solve.c ****           qY = *current_y - 1U;
 4636              		.loc 1 2265 9 is_stmt 1 view .LVU1812
2265:Src/maze_solve.c ****           qY = *current_y - 1U;
 4637              		.loc 1 2265 13 is_stmt 0 view .LVU1813
 4638 09cc 9AF80020 		ldrb	r2, [r10]	@ zero_extendqisi2
2265:Src/maze_solve.c ****           qY = *current_y - 1U;
 4639              		.loc 1 2265 50 view .LVU1814
 4640 09d0 A378     		ldrb	r3, [r4, #2]	@ zero_extendqisi2
2265:Src/maze_solve.c ****           qY = *current_y - 1U;
 4641              		.loc 1 2265 12 view .LVU1815
 4642 09d2 9A42     		cmp	r2, r3
 4643 09d4 00F08B80 		beq	.L450
 4644              	.L330:
2277:Src/maze_solve.c ****           qY = *current_x - 1U;
 4645              		.loc 1 2277 9 is_stmt 1 view .LVU1816
2277:Src/maze_solve.c ****           qY = *current_x - 1U;
 4646              		.loc 1 2277 13 is_stmt 0 view .LVU1817
 4647 09d8 9AF80020 		ldrb	r2, [r10]	@ zero_extendqisi2
2277:Src/maze_solve.c ****           qY = *current_x - 1U;
 4648              		.loc 1 2277 50 view .LVU1818
 4649 09dc E378     		ldrb	r3, [r4, #3]	@ zero_extendqisi2
2277:Src/maze_solve.c ****           qY = *current_x - 1U;
 4650              		.loc 1 2277 12 view .LVU1819
 4651 09de 9A42     		cmp	r2, r3
 4652 09e0 7FF47EAF 		bne	.L217
2278:Src/maze_solve.c ****           if (qY > *current_x) {
 4653              		.loc 1 2278 11 is_stmt 1 view .LVU1820
2278:Src/maze_solve.c ****           if (qY > *current_x) {
 4654              		.loc 1 2278 16 is_stmt 0 view .LVU1821
 4655 09e4 2A78     		ldrb	r2, [r5]	@ zero_extendqisi2
2278:Src/maze_solve.c ****           if (qY > *current_x) {
 4656              		.loc 1 2278 14 view .LVU1822
 4657 09e6 531E     		subs	r3, r2, #1
 4658              	.LVL668:
2279:Src/maze_solve.c ****             qY = 0U;
 4659              		.loc 1 2279 11 is_stmt 1 view .LVU1823
2279:Src/maze_solve.c ****             qY = 0U;
 4660              		.loc 1 2279 14 is_stmt 0 view .LVU1824
 4661 09e8 9A42     		cmp	r2, r3
 4662 09ea 00D2     		bcs	.L332
2280:Src/maze_solve.c ****           }
 4663              		.loc 1 2280 16 view .LVU1825
 4664 09ec 0023     		movs	r3, #0
 4665              	.LVL669:
 4666              	.L332:
2283:Src/maze_solve.c **** 
 4667              		.loc 1 2283 11 is_stmt 1 view .LVU1826
2283:Src/maze_solve.c **** 
 4668              		.loc 1 2283 22 is_stmt 0 view .LVU1827
 4669 09ee 2B70     		strb	r3, [r5]
2362:Src/maze_solve.c **** 
 4670              		.loc 1 2362 11 is_stmt 1 view .LVU1828
 4671 09f0 76E7     		b	.L217
ARM GAS  C:\Temp\ccX6Vjzt.s 			page 141


 4672              	.L458:
 4673 09f2 00BF     		.align	2
 4674              	.L457:
 4675 09f4 00000000 		.word	.LANCHOR5
 4676 09f8 00000000 		.word	.LANCHOR4
 4677 09fc 00000240 		.word	1073872896
 4678 0a00 00000000 		.word	.LANCHOR3
 4679              	.LVL670:
 4680              	.L306:
2097:Src/maze_solve.c ****        case 0:	//前進時
 4681              		.loc 1 2097 7 view .LVU1829
2155:Src/maze_solve.c ****         /* 入力 現在方向 */
 4682              		.loc 1 2155 6 view .LVU1830
 4683 0a04 FFF7FEFF 		bl	move_right
 4684              	.LVL671:
2159:Src/maze_solve.c ****         if ((unsigned int)i10 > 255U) {
 4685              		.loc 1 2159 9 view .LVU1831
2159:Src/maze_solve.c ****         if ((unsigned int)i10 > 255U) {
 4686              		.loc 1 2159 26 is_stmt 0 view .LVU1832
 4687 0a08 9AF80030 		ldrb	r3, [r10]	@ zero_extendqisi2
2159:Src/maze_solve.c ****         if ((unsigned int)i10 > 255U) {
 4688              		.loc 1 2159 24 view .LVU1833
 4689 0a0c 0433     		adds	r3, r3, #4
 4690              	.LVL672:
2160:Src/maze_solve.c ****           i10 = 255;
 4691              		.loc 1 2160 9 is_stmt 1 view .LVU1834
2160:Src/maze_solve.c ****           i10 = 255;
 4692              		.loc 1 2160 12 is_stmt 0 view .LVU1835
 4693 0a0e FF2B     		cmp	r3, #255
 4694 0a10 40D8     		bhi	.L416
 4695              	.LVL673:
 4696              	.L311:
2164:Src/maze_solve.c ****         if ((unsigned int)i10 > 255U) {
 4697              		.loc 1 2164 9 is_stmt 1 view .LVU1836
2164:Src/maze_solve.c ****         if ((unsigned int)i10 > 255U) {
 4698              		.loc 1 2164 12 is_stmt 0 view .LVU1837
 4699 0a12 0133     		adds	r3, r3, #1
 4700              	.LVL674:
2165:Src/maze_solve.c ****           i10 = 255;
 4701              		.loc 1 2165 9 is_stmt 1 view .LVU1838
2165:Src/maze_solve.c ****           i10 = 255;
 4702              		.loc 1 2165 12 is_stmt 0 view .LVU1839
 4703 0a14 FF2B     		cmp	r3, #255
 4704 0a16 00D9     		bls	.L318
2166:Src/maze_solve.c ****         }
 4705              		.loc 1 2166 15 view .LVU1840
 4706 0a18 FF23     		movs	r3, #255
 4707              	.LVL675:
 4708              	.L318:
2169:Src/maze_solve.c **** 
 4709              		.loc 1 2169 9 is_stmt 1 view .LVU1841
2169:Src/maze_solve.c **** 
 4710              		.loc 1 2169 44 is_stmt 0 view .LVU1842
 4711 0a1a 5A42     		rsbs	r2, r3, #0
 4712 0a1c 03F00303 		and	r3, r3, #3
 4713              	.LVL676:
2169:Src/maze_solve.c **** 
ARM GAS  C:\Temp\ccX6Vjzt.s 			page 142


 4714              		.loc 1 2169 44 view .LVU1843
 4715 0a20 02F00302 		and	r2, r2, #3
 4716 0a24 58BF     		it	pl
 4717 0a26 5342     		rsbpl	r3, r2, #0
2169:Src/maze_solve.c **** 
 4718              		.loc 1 2169 24 view .LVU1844
 4719 0a28 DBB2     		uxtb	r3, r3
2169:Src/maze_solve.c **** 
 4720              		.loc 1 2169 22 view .LVU1845
 4721 0a2a 8AF80030 		strb	r3, [r10]
2175:Src/maze_solve.c ****           i10 = (int)(*current_y + 1U);
 4722              		.loc 1 2175 9 is_stmt 1 view .LVU1846
2175:Src/maze_solve.c ****           i10 = (int)(*current_y + 1U);
 4723              		.loc 1 2175 50 is_stmt 0 view .LVU1847
 4724 0a2e 2278     		ldrb	r2, [r4]	@ zero_extendqisi2
2175:Src/maze_solve.c ****           i10 = (int)(*current_y + 1U);
 4725              		.loc 1 2175 12 view .LVU1848
 4726 0a30 9342     		cmp	r3, r2
 4727 0a32 31D0     		beq	.L451
 4728              	.L319:
2187:Src/maze_solve.c ****           i10 = (int)(*current_x + 1U);
 4729              		.loc 1 2187 9 is_stmt 1 view .LVU1849
2187:Src/maze_solve.c ****           i10 = (int)(*current_x + 1U);
 4730              		.loc 1 2187 13 is_stmt 0 view .LVU1850
 4731 0a34 9AF80020 		ldrb	r2, [r10]	@ zero_extendqisi2
2187:Src/maze_solve.c ****           i10 = (int)(*current_x + 1U);
 4732              		.loc 1 2187 50 view .LVU1851
 4733 0a38 6378     		ldrb	r3, [r4, #1]	@ zero_extendqisi2
2187:Src/maze_solve.c ****           i10 = (int)(*current_x + 1U);
 4734              		.loc 1 2187 12 view .LVU1852
 4735 0a3a 9A42     		cmp	r2, r3
 4736 0a3c 35D0     		beq	.L452
 4737              	.L321:
2199:Src/maze_solve.c ****           qY = *current_y - 1U;
 4738              		.loc 1 2199 9 is_stmt 1 view .LVU1853
2199:Src/maze_solve.c ****           qY = *current_y - 1U;
 4739              		.loc 1 2199 13 is_stmt 0 view .LVU1854
 4740 0a3e 9AF80020 		ldrb	r2, [r10]	@ zero_extendqisi2
2199:Src/maze_solve.c ****           qY = *current_y - 1U;
 4741              		.loc 1 2199 50 view .LVU1855
 4742 0a42 A378     		ldrb	r3, [r4, #2]	@ zero_extendqisi2
2199:Src/maze_solve.c ****           qY = *current_y - 1U;
 4743              		.loc 1 2199 12 view .LVU1856
 4744 0a44 9A42     		cmp	r2, r3
 4745 0a46 37D0     		beq	.L453
 4746              	.L323:
2211:Src/maze_solve.c ****           qY = *current_x - 1U;
 4747              		.loc 1 2211 9 is_stmt 1 view .LVU1857
2211:Src/maze_solve.c ****           qY = *current_x - 1U;
 4748              		.loc 1 2211 13 is_stmt 0 view .LVU1858
 4749 0a48 9AF80020 		ldrb	r2, [r10]	@ zero_extendqisi2
2211:Src/maze_solve.c ****           qY = *current_x - 1U;
 4750              		.loc 1 2211 50 view .LVU1859
 4751 0a4c E378     		ldrb	r3, [r4, #3]	@ zero_extendqisi2
2211:Src/maze_solve.c ****           qY = *current_x - 1U;
 4752              		.loc 1 2211 12 view .LVU1860
 4753 0a4e 9A42     		cmp	r2, r3
ARM GAS  C:\Temp\ccX6Vjzt.s 			page 143


 4754 0a50 7FF446AF 		bne	.L217
2212:Src/maze_solve.c ****           if (qY > *current_x) {
 4755              		.loc 1 2212 11 is_stmt 1 view .LVU1861
2212:Src/maze_solve.c ****           if (qY > *current_x) {
 4756              		.loc 1 2212 16 is_stmt 0 view .LVU1862
 4757 0a54 2A78     		ldrb	r2, [r5]	@ zero_extendqisi2
2212:Src/maze_solve.c ****           if (qY > *current_x) {
 4758              		.loc 1 2212 14 view .LVU1863
 4759 0a56 531E     		subs	r3, r2, #1
 4760              	.LVL677:
2213:Src/maze_solve.c ****             qY = 0U;
 4761              		.loc 1 2213 11 is_stmt 1 view .LVU1864
2213:Src/maze_solve.c ****             qY = 0U;
 4762              		.loc 1 2213 14 is_stmt 0 view .LVU1865
 4763 0a58 9A42     		cmp	r2, r3
 4764 0a5a 00D2     		bcs	.L325
2214:Src/maze_solve.c ****           }
 4765              		.loc 1 2214 16 view .LVU1866
 4766 0a5c 0023     		movs	r3, #0
 4767              	.LVL678:
 4768              	.L325:
2217:Src/maze_solve.c **** 
 4769              		.loc 1 2217 11 is_stmt 1 view .LVU1867
2217:Src/maze_solve.c **** 
 4770              		.loc 1 2217 22 is_stmt 0 view .LVU1868
 4771 0a5e 2B70     		strb	r3, [r5]
2362:Src/maze_solve.c **** 
 4772              		.loc 1 2362 11 is_stmt 1 view .LVU1869
 4773 0a60 3EE7     		b	.L217
 4774              	.LVL679:
 4775              	.L442:
2105:Src/maze_solve.c ****           if ((unsigned int)i10 > 255U) {
 4776              		.loc 1 2105 11 view .LVU1870
2105:Src/maze_solve.c ****           if ((unsigned int)i10 > 255U) {
 4777              		.loc 1 2105 23 is_stmt 0 view .LVU1871
 4778 0a62 99F80030 		ldrb	r3, [r9]	@ zero_extendqisi2
2105:Src/maze_solve.c ****           if ((unsigned int)i10 > 255U) {
 4779              		.loc 1 2105 34 view .LVU1872
 4780 0a66 0133     		adds	r3, r3, #1
 4781              	.LVL680:
2106:Src/maze_solve.c ****             i10 = 255;
 4782              		.loc 1 2106 11 is_stmt 1 view .LVU1873
2106:Src/maze_solve.c ****             i10 = 255;
 4783              		.loc 1 2106 14 is_stmt 0 view .LVU1874
 4784 0a68 FF2B     		cmp	r3, #255
 4785 0a6a 00D9     		bls	.L312
2107:Src/maze_solve.c ****           }
 4786              		.loc 1 2107 17 view .LVU1875
 4787 0a6c FF23     		movs	r3, #255
 4788              	.LVL681:
 4789              	.L312:
2110:Src/maze_solve.c **** 
 4790              		.loc 1 2110 11 is_stmt 1 view .LVU1876
2110:Src/maze_solve.c **** 
 4791              		.loc 1 2110 22 is_stmt 0 view .LVU1877
 4792 0a6e 89F80030 		strb	r3, [r9]
 4793 0a72 47E7     		b	.L305
ARM GAS  C:\Temp\ccX6Vjzt.s 			page 144


 4794              	.LVL682:
 4795              	.L443:
2117:Src/maze_solve.c ****           if ((unsigned int)i10 > 255U) {
 4796              		.loc 1 2117 11 is_stmt 1 view .LVU1878
2117:Src/maze_solve.c ****           if ((unsigned int)i10 > 255U) {
 4797              		.loc 1 2117 23 is_stmt 0 view .LVU1879
 4798 0a74 2B78     		ldrb	r3, [r5]	@ zero_extendqisi2
2117:Src/maze_solve.c ****           if ((unsigned int)i10 > 255U) {
 4799              		.loc 1 2117 34 view .LVU1880
 4800 0a76 0133     		adds	r3, r3, #1
 4801              	.LVL683:
2118:Src/maze_solve.c ****             i10 = 255;
 4802              		.loc 1 2118 11 is_stmt 1 view .LVU1881
2118:Src/maze_solve.c ****             i10 = 255;
 4803              		.loc 1 2118 14 is_stmt 0 view .LVU1882
 4804 0a78 FF2B     		cmp	r3, #255
 4805 0a7a 00D9     		bls	.L314
2119:Src/maze_solve.c ****           }
 4806              		.loc 1 2119 17 view .LVU1883
 4807 0a7c FF23     		movs	r3, #255
 4808              	.LVL684:
 4809              	.L314:
2122:Src/maze_solve.c **** 
 4810              		.loc 1 2122 11 is_stmt 1 view .LVU1884
2122:Src/maze_solve.c **** 
 4811              		.loc 1 2122 22 is_stmt 0 view .LVU1885
 4812 0a7e 2B70     		strb	r3, [r5]
 4813 0a80 46E7     		b	.L313
 4814              	.LVL685:
 4815              	.L444:
2129:Src/maze_solve.c ****           if (qY > *current_y) {
 4816              		.loc 1 2129 11 is_stmt 1 view .LVU1886
2129:Src/maze_solve.c ****           if (qY > *current_y) {
 4817              		.loc 1 2129 16 is_stmt 0 view .LVU1887
 4818 0a82 99F80020 		ldrb	r2, [r9]	@ zero_extendqisi2
2129:Src/maze_solve.c ****           if (qY > *current_y) {
 4819              		.loc 1 2129 14 view .LVU1888
 4820 0a86 531E     		subs	r3, r2, #1
 4821              	.LVL686:
2130:Src/maze_solve.c ****             qY = 0U;
 4822              		.loc 1 2130 11 is_stmt 1 view .LVU1889
2130:Src/maze_solve.c ****             qY = 0U;
 4823              		.loc 1 2130 14 is_stmt 0 view .LVU1890
 4824 0a88 9A42     		cmp	r2, r3
 4825 0a8a 00D2     		bcs	.L316
2131:Src/maze_solve.c ****           }
 4826              		.loc 1 2131 16 view .LVU1891
 4827 0a8c 0023     		movs	r3, #0
 4828              	.LVL687:
 4829              	.L316:
2134:Src/maze_solve.c **** 
 4830              		.loc 1 2134 11 is_stmt 1 view .LVU1892
2134:Src/maze_solve.c **** 
 4831              		.loc 1 2134 22 is_stmt 0 view .LVU1893
 4832 0a8e 89F80030 		strb	r3, [r9]
 4833 0a92 43E7     		b	.L315
 4834              	.LVL688:
ARM GAS  C:\Temp\ccX6Vjzt.s 			page 145


 4835              	.L416:
2161:Src/maze_solve.c ****         }
 4836              		.loc 1 2161 15 view .LVU1894
 4837 0a94 FF23     		movs	r3, #255
 4838              	.LVL689:
2161:Src/maze_solve.c ****         }
 4839              		.loc 1 2161 15 view .LVU1895
 4840 0a96 BCE7     		b	.L311
 4841              	.LVL690:
 4842              	.L451:
2176:Src/maze_solve.c ****           if ((unsigned int)i10 > 255U) {
 4843              		.loc 1 2176 11 is_stmt 1 view .LVU1896
2176:Src/maze_solve.c ****           if ((unsigned int)i10 > 255U) {
 4844              		.loc 1 2176 23 is_stmt 0 view .LVU1897
 4845 0a98 99F80030 		ldrb	r3, [r9]	@ zero_extendqisi2
2176:Src/maze_solve.c ****           if ((unsigned int)i10 > 255U) {
 4846              		.loc 1 2176 34 view .LVU1898
 4847 0a9c 0133     		adds	r3, r3, #1
 4848              	.LVL691:
2177:Src/maze_solve.c ****             i10 = 255;
 4849              		.loc 1 2177 11 is_stmt 1 view .LVU1899
2177:Src/maze_solve.c ****             i10 = 255;
 4850              		.loc 1 2177 14 is_stmt 0 view .LVU1900
 4851 0a9e FF2B     		cmp	r3, #255
 4852 0aa0 00D9     		bls	.L320
2178:Src/maze_solve.c ****           }
 4853              		.loc 1 2178 17 view .LVU1901
 4854 0aa2 FF23     		movs	r3, #255
 4855              	.LVL692:
 4856              	.L320:
2181:Src/maze_solve.c **** 
 4857              		.loc 1 2181 11 is_stmt 1 view .LVU1902
2181:Src/maze_solve.c **** 
 4858              		.loc 1 2181 22 is_stmt 0 view .LVU1903
 4859 0aa4 89F80030 		strb	r3, [r9]
 4860 0aa8 C4E7     		b	.L319
 4861              	.LVL693:
 4862              	.L452:
2188:Src/maze_solve.c ****           if ((unsigned int)i10 > 255U) {
 4863              		.loc 1 2188 11 is_stmt 1 view .LVU1904
2188:Src/maze_solve.c ****           if ((unsigned int)i10 > 255U) {
 4864              		.loc 1 2188 23 is_stmt 0 view .LVU1905
 4865 0aaa 2B78     		ldrb	r3, [r5]	@ zero_extendqisi2
2188:Src/maze_solve.c ****           if ((unsigned int)i10 > 255U) {
 4866              		.loc 1 2188 34 view .LVU1906
 4867 0aac 0133     		adds	r3, r3, #1
 4868              	.LVL694:
2189:Src/maze_solve.c ****             i10 = 255;
 4869              		.loc 1 2189 11 is_stmt 1 view .LVU1907
2189:Src/maze_solve.c ****             i10 = 255;
 4870              		.loc 1 2189 14 is_stmt 0 view .LVU1908
 4871 0aae FF2B     		cmp	r3, #255
 4872 0ab0 00D9     		bls	.L322
2190:Src/maze_solve.c ****           }
 4873              		.loc 1 2190 17 view .LVU1909
 4874 0ab2 FF23     		movs	r3, #255
 4875              	.LVL695:
ARM GAS  C:\Temp\ccX6Vjzt.s 			page 146


 4876              	.L322:
2193:Src/maze_solve.c **** 
 4877              		.loc 1 2193 11 is_stmt 1 view .LVU1910
2193:Src/maze_solve.c **** 
 4878              		.loc 1 2193 22 is_stmt 0 view .LVU1911
 4879 0ab4 2B70     		strb	r3, [r5]
 4880 0ab6 C2E7     		b	.L321
 4881              	.LVL696:
 4882              	.L453:
2200:Src/maze_solve.c ****           if (qY > *current_y) {
 4883              		.loc 1 2200 11 is_stmt 1 view .LVU1912
2200:Src/maze_solve.c ****           if (qY > *current_y) {
 4884              		.loc 1 2200 16 is_stmt 0 view .LVU1913
 4885 0ab8 99F80020 		ldrb	r2, [r9]	@ zero_extendqisi2
2200:Src/maze_solve.c ****           if (qY > *current_y) {
 4886              		.loc 1 2200 14 view .LVU1914
 4887 0abc 531E     		subs	r3, r2, #1
 4888              	.LVL697:
2201:Src/maze_solve.c ****             qY = 0U;
 4889              		.loc 1 2201 11 is_stmt 1 view .LVU1915
2201:Src/maze_solve.c ****             qY = 0U;
 4890              		.loc 1 2201 14 is_stmt 0 view .LVU1916
 4891 0abe 9A42     		cmp	r2, r3
 4892 0ac0 00D2     		bcs	.L324
2202:Src/maze_solve.c ****           }
 4893              		.loc 1 2202 16 view .LVU1917
 4894 0ac2 0023     		movs	r3, #0
 4895              	.LVL698:
 4896              	.L324:
2205:Src/maze_solve.c **** 
 4897              		.loc 1 2205 11 is_stmt 1 view .LVU1918
2205:Src/maze_solve.c **** 
 4898              		.loc 1 2205 22 is_stmt 0 view .LVU1919
 4899 0ac4 89F80030 		strb	r3, [r9]
 4900 0ac8 BEE7     		b	.L323
 4901              	.LVL699:
 4902              	.L415:
2232:Src/maze_solve.c ****         }
 4903              		.loc 1 2232 15 view .LVU1920
 4904 0aca FF23     		movs	r3, #255
 4905              	.LVL700:
2232:Src/maze_solve.c ****         }
 4906              		.loc 1 2232 15 view .LVU1921
 4907 0acc 69E7     		b	.L310
 4908              	.LVL701:
 4909              	.L448:
2242:Src/maze_solve.c ****           if ((unsigned int)i10 > 255U) {
 4910              		.loc 1 2242 11 is_stmt 1 view .LVU1922
2242:Src/maze_solve.c ****           if ((unsigned int)i10 > 255U) {
 4911              		.loc 1 2242 23 is_stmt 0 view .LVU1923
 4912 0ace 99F80030 		ldrb	r3, [r9]	@ zero_extendqisi2
2242:Src/maze_solve.c ****           if ((unsigned int)i10 > 255U) {
 4913              		.loc 1 2242 34 view .LVU1924
 4914 0ad2 0133     		adds	r3, r3, #1
 4915              	.LVL702:
2243:Src/maze_solve.c ****             i10 = 255;
 4916              		.loc 1 2243 11 is_stmt 1 view .LVU1925
ARM GAS  C:\Temp\ccX6Vjzt.s 			page 147


2243:Src/maze_solve.c ****             i10 = 255;
 4917              		.loc 1 2243 14 is_stmt 0 view .LVU1926
 4918 0ad4 FF2B     		cmp	r3, #255
 4919 0ad6 00D9     		bls	.L327
2244:Src/maze_solve.c ****           }
 4920              		.loc 1 2244 17 view .LVU1927
 4921 0ad8 FF23     		movs	r3, #255
 4922              	.LVL703:
 4923              	.L327:
2247:Src/maze_solve.c **** 
 4924              		.loc 1 2247 11 is_stmt 1 view .LVU1928
2247:Src/maze_solve.c **** 
 4925              		.loc 1 2247 22 is_stmt 0 view .LVU1929
 4926 0ada 89F80030 		strb	r3, [r9]
 4927 0ade 6FE7     		b	.L326
 4928              	.LVL704:
 4929              	.L449:
2254:Src/maze_solve.c ****           if ((unsigned int)i10 > 255U) {
 4930              		.loc 1 2254 11 is_stmt 1 view .LVU1930
2254:Src/maze_solve.c ****           if ((unsigned int)i10 > 255U) {
 4931              		.loc 1 2254 23 is_stmt 0 view .LVU1931
 4932 0ae0 2B78     		ldrb	r3, [r5]	@ zero_extendqisi2
2254:Src/maze_solve.c ****           if ((unsigned int)i10 > 255U) {
 4933              		.loc 1 2254 34 view .LVU1932
 4934 0ae2 0133     		adds	r3, r3, #1
 4935              	.LVL705:
2255:Src/maze_solve.c ****             i10 = 255;
 4936              		.loc 1 2255 11 is_stmt 1 view .LVU1933
2255:Src/maze_solve.c ****             i10 = 255;
 4937              		.loc 1 2255 14 is_stmt 0 view .LVU1934
 4938 0ae4 FF2B     		cmp	r3, #255
 4939 0ae6 00D9     		bls	.L329
2256:Src/maze_solve.c ****           }
 4940              		.loc 1 2256 17 view .LVU1935
 4941 0ae8 FF23     		movs	r3, #255
 4942              	.LVL706:
 4943              	.L329:
2259:Src/maze_solve.c **** 
 4944              		.loc 1 2259 11 is_stmt 1 view .LVU1936
2259:Src/maze_solve.c **** 
 4945              		.loc 1 2259 22 is_stmt 0 view .LVU1937
 4946 0aea 2B70     		strb	r3, [r5]
 4947 0aec 6EE7     		b	.L328
 4948              	.LVL707:
 4949              	.L450:
2266:Src/maze_solve.c ****           if (qY > *current_y) {
 4950              		.loc 1 2266 11 is_stmt 1 view .LVU1938
2266:Src/maze_solve.c ****           if (qY > *current_y) {
 4951              		.loc 1 2266 16 is_stmt 0 view .LVU1939
 4952 0aee 99F80020 		ldrb	r2, [r9]	@ zero_extendqisi2
2266:Src/maze_solve.c ****           if (qY > *current_y) {
 4953              		.loc 1 2266 14 view .LVU1940
 4954 0af2 531E     		subs	r3, r2, #1
 4955              	.LVL708:
2267:Src/maze_solve.c ****             qY = 0U;
 4956              		.loc 1 2267 11 is_stmt 1 view .LVU1941
2267:Src/maze_solve.c ****             qY = 0U;
ARM GAS  C:\Temp\ccX6Vjzt.s 			page 148


 4957              		.loc 1 2267 14 is_stmt 0 view .LVU1942
 4958 0af4 9A42     		cmp	r2, r3
 4959 0af6 00D2     		bcs	.L331
2268:Src/maze_solve.c ****           }
 4960              		.loc 1 2268 16 view .LVU1943
 4961 0af8 0023     		movs	r3, #0
 4962              	.LVL709:
 4963              	.L331:
2271:Src/maze_solve.c **** 
 4964              		.loc 1 2271 11 is_stmt 1 view .LVU1944
2271:Src/maze_solve.c **** 
 4965              		.loc 1 2271 22 is_stmt 0 view .LVU1945
 4966 0afa 89F80030 		strb	r3, [r9]
 4967 0afe 6BE7     		b	.L330
 4968              	.LVL710:
 4969              	.L414:
2298:Src/maze_solve.c ****         }
 4970              		.loc 1 2298 15 view .LVU1946
 4971 0b00 FF23     		movs	r3, #255
 4972              	.LVL711:
2298:Src/maze_solve.c ****         }
 4973              		.loc 1 2298 15 view .LVU1947
 4974 0b02 1FE7     		b	.L309
 4975              	.LVL712:
 4976              	.L445:
2308:Src/maze_solve.c ****           if ((unsigned int)i10 > 255U) {
 4977              		.loc 1 2308 11 is_stmt 1 view .LVU1948
2308:Src/maze_solve.c ****           if ((unsigned int)i10 > 255U) {
 4978              		.loc 1 2308 23 is_stmt 0 view .LVU1949
 4979 0b04 99F80030 		ldrb	r3, [r9]	@ zero_extendqisi2
2308:Src/maze_solve.c ****           if ((unsigned int)i10 > 255U) {
 4980              		.loc 1 2308 34 view .LVU1950
 4981 0b08 0133     		adds	r3, r3, #1
 4982              	.LVL713:
2309:Src/maze_solve.c ****             i10 = 255;
 4983              		.loc 1 2309 11 is_stmt 1 view .LVU1951
2309:Src/maze_solve.c ****             i10 = 255;
 4984              		.loc 1 2309 14 is_stmt 0 view .LVU1952
 4985 0b0a FF2B     		cmp	r3, #255
 4986 0b0c 00D9     		bls	.L334
2310:Src/maze_solve.c ****           }
 4987              		.loc 1 2310 17 view .LVU1953
 4988 0b0e FF23     		movs	r3, #255
 4989              	.LVL714:
 4990              	.L334:
2313:Src/maze_solve.c **** 
 4991              		.loc 1 2313 11 is_stmt 1 view .LVU1954
2313:Src/maze_solve.c **** 
 4992              		.loc 1 2313 22 is_stmt 0 view .LVU1955
 4993 0b10 89F80030 		strb	r3, [r9]
 4994 0b14 25E7     		b	.L333
 4995              	.LVL715:
 4996              	.L446:
2320:Src/maze_solve.c ****           if ((unsigned int)i10 > 255U) {
 4997              		.loc 1 2320 11 is_stmt 1 view .LVU1956
2320:Src/maze_solve.c ****           if ((unsigned int)i10 > 255U) {
 4998              		.loc 1 2320 23 is_stmt 0 view .LVU1957
ARM GAS  C:\Temp\ccX6Vjzt.s 			page 149


 4999 0b16 2B78     		ldrb	r3, [r5]	@ zero_extendqisi2
2320:Src/maze_solve.c ****           if ((unsigned int)i10 > 255U) {
 5000              		.loc 1 2320 34 view .LVU1958
 5001 0b18 0133     		adds	r3, r3, #1
 5002              	.LVL716:
2321:Src/maze_solve.c ****             i10 = 255;
 5003              		.loc 1 2321 11 is_stmt 1 view .LVU1959
2321:Src/maze_solve.c ****             i10 = 255;
 5004              		.loc 1 2321 14 is_stmt 0 view .LVU1960
 5005 0b1a FF2B     		cmp	r3, #255
 5006 0b1c 00D9     		bls	.L336
2322:Src/maze_solve.c ****           }
 5007              		.loc 1 2322 17 view .LVU1961
 5008 0b1e FF23     		movs	r3, #255
 5009              	.LVL717:
 5010              	.L336:
2325:Src/maze_solve.c **** 
 5011              		.loc 1 2325 11 is_stmt 1 view .LVU1962
2325:Src/maze_solve.c **** 
 5012              		.loc 1 2325 22 is_stmt 0 view .LVU1963
 5013 0b20 2B70     		strb	r3, [r5]
 5014 0b22 24E7     		b	.L335
 5015              	.LVL718:
 5016              	.L447:
2332:Src/maze_solve.c ****           if (qY > *current_y) {
 5017              		.loc 1 2332 11 is_stmt 1 view .LVU1964
2332:Src/maze_solve.c ****           if (qY > *current_y) {
 5018              		.loc 1 2332 16 is_stmt 0 view .LVU1965
 5019 0b24 99F80020 		ldrb	r2, [r9]	@ zero_extendqisi2
2332:Src/maze_solve.c ****           if (qY > *current_y) {
 5020              		.loc 1 2332 14 view .LVU1966
 5021 0b28 531E     		subs	r3, r2, #1
 5022              	.LVL719:
2333:Src/maze_solve.c ****             qY = 0U;
 5023              		.loc 1 2333 11 is_stmt 1 view .LVU1967
2333:Src/maze_solve.c ****             qY = 0U;
 5024              		.loc 1 2333 14 is_stmt 0 view .LVU1968
 5025 0b2a 9A42     		cmp	r2, r3
 5026 0b2c 00D2     		bcs	.L338
2334:Src/maze_solve.c ****           }
 5027              		.loc 1 2334 16 view .LVU1969
 5028 0b2e 0023     		movs	r3, #0
 5029              	.LVL720:
 5030              	.L338:
2337:Src/maze_solve.c **** 
 5031              		.loc 1 2337 11 is_stmt 1 view .LVU1970
2337:Src/maze_solve.c **** 
 5032              		.loc 1 2337 22 is_stmt 0 view .LVU1971
 5033 0b30 89F80030 		strb	r3, [r9]
 5034 0b34 21E7     		b	.L337
 5035              		.cfi_endproc
 5036              	.LFE137:
 5038 0b36 00BF     		.section	.text.make_map_fustrun,"ax",%progbits
 5039              		.align	1
 5040              		.syntax unified
 5041              		.thumb
 5042              		.thumb_func
ARM GAS  C:\Temp\ccX6Vjzt.s 			page 150


 5043              		.fpu fpv4-sp-d16
 5045              	make_map_fustrun:
 5046              	.LVL721:
 5047              	.LFB135:
 967:Src/maze_solve.c ****   unsigned int qY;
 5048              		.loc 1 967 1 is_stmt 1 view -0
 5049              		.cfi_startproc
 5050              		@ args = 28, pretend = 0, frame = 6184
 5051              		@ frame_needed = 0, uses_anonymous_args = 0
 967:Src/maze_solve.c ****   unsigned int qY;
 5052              		.loc 1 967 1 is_stmt 0 view .LVU1973
 5053 0000 2DE9F04F 		push	{r4, r5, r6, r7, r8, r9, r10, fp, lr}
 5054              	.LCFI15:
 5055              		.cfi_def_cfa_offset 36
 5056              		.cfi_offset 4, -36
 5057              		.cfi_offset 5, -32
 5058              		.cfi_offset 6, -28
 5059              		.cfi_offset 7, -24
 5060              		.cfi_offset 8, -20
 5061              		.cfi_offset 9, -16
 5062              		.cfi_offset 10, -12
 5063              		.cfi_offset 11, -8
 5064              		.cfi_offset 14, -4
 5065 0004 ADF5C15D 		sub	sp, sp, #6176
 5066              	.LCFI16:
 5067              		.cfi_def_cfa_offset 6212
 5068 0008 83B0     		sub	sp, sp, #12
 5069              	.LCFI17:
 5070              		.cfi_def_cfa_offset 6224
 5071 000a 0D46     		mov	r5, r1
 5072 000c 1646     		mov	r6, r2
 5073 000e 0593     		str	r3, [sp, #20]
 5074 0010 0DF5C253 		add	r3, sp, #6208
 5075              	.LVL722:
 967:Src/maze_solve.c ****   unsigned int qY;
 5076              		.loc 1 967 1 view .LVU1974
 5077 0014 1033     		adds	r3, r3, #16
 5078 0016 1C78     		ldrb	r4, [r3]	@ zero_extendqisi2
 5079 0018 0DF5C253 		add	r3, sp, #6208
 5080 001c 1433     		adds	r3, r3, #20
 5081 001e 1B78     		ldrb	r3, [r3]	@ zero_extendqisi2
 5082 0020 0DF5C252 		add	r2, sp, #6208
 5083              	.LVL723:
 967:Src/maze_solve.c ****   unsigned int qY;
 5084              		.loc 1 967 1 view .LVU1975
 5085 0024 1832     		adds	r2, r2, #24
 5086 0026 1168     		ldr	r1, [r2]
 5087              	.LVL724:
 967:Src/maze_solve.c ****   unsigned int qY;
 5088              		.loc 1 967 1 view .LVU1976
 5089 0028 0DF5C252 		add	r2, sp, #6208
 5090 002c 1C32     		adds	r2, r2, #28
 5091 002e D2F80090 		ldr	r9, [r2]
 5092 0032 0DF5C352 		add	r2, sp, #6240
 5093              	.LVL725:
 967:Src/maze_solve.c ****   unsigned int qY;
 5094              		.loc 1 967 1 view .LVU1977
ARM GAS  C:\Temp\ccX6Vjzt.s 			page 151


 5095 0036 0432     		adds	r2, r2, #4
 5096              	.LVL726:
 967:Src/maze_solve.c ****   unsigned int qY;
 5097              		.loc 1 967 1 view .LVU1978
 5098 0038 D2F800B0 		ldr	fp, [r2]
 968:Src/maze_solve.c ****   unsigned int b_qY;
 5099              		.loc 1 968 3 is_stmt 1 view .LVU1979
 969:Src/maze_solve.c ****   int q0;
 5100              		.loc 1 969 3 view .LVU1980
 970:Src/maze_solve.c ****   int i6;
 5101              		.loc 1 970 3 view .LVU1981
 971:Src/maze_solve.c ****   unsigned char change_flag;
 5102              		.loc 1 971 3 view .LVU1982
 972:Src/maze_solve.c ****   unsigned char tempi;
 5103              		.loc 1 972 3 view .LVU1983
 973:Src/maze_solve.c ****   int idx;
 5104              		.loc 1 973 3 view .LVU1984
 974:Src/maze_solve.c ****   bool exitg1;
 5105              		.loc 1 974 3 view .LVU1985
 975:Src/maze_solve.c ****   int loop_ub;
 5106              		.loc 1 975 3 view .LVU1986
 976:Src/maze_solve.c ****   static short ii_data[1024];
 5107              		.loc 1 976 3 view .LVU1987
 977:Src/maze_solve.c ****   int num_temp_size[1];
 5108              		.loc 1 977 3 view .LVU1988
 978:Src/maze_solve.c ****   static unsigned short num_temp_data[1024];
 5109              		.loc 1 978 3 view .LVU1989
 979:Src/maze_solve.c ****   int b_num_temp_size[1];
 5110              		.loc 1 979 3 view .LVU1990
 980:Src/maze_solve.c ****   unsigned short b_num_temp_data[1024];
 5111              		.loc 1 980 3 view .LVU1991
 981:Src/maze_solve.c ****   unsigned short tmp_data[1024];
 5112              		.loc 1 981 3 view .LVU1992
 982:Src/maze_solve.c ****   int tmp_size[1];
 5113              		.loc 1 982 3 view .LVU1993
 983:Src/maze_solve.c ****   unsigned short u1;
 5114              		.loc 1 983 3 view .LVU1994
 984:Src/maze_solve.c ****   unsigned char row_data[1024];
 5115              		.loc 1 984 3 view .LVU1995
 985:Src/maze_solve.c ****   unsigned char k;
 5116              		.loc 1 985 3 view .LVU1996
 986:Src/maze_solve.c ****   unsigned char col_data[1024];
 5117              		.loc 1 986 3 view .LVU1997
 987:Src/maze_solve.c ****   int i7;
 5118              		.loc 1 987 3 view .LVU1998
 988:Src/maze_solve.c ****   int b_k;
 5119              		.loc 1 988 3 view .LVU1999
 989:Src/maze_solve.c ****   int c_k;
 5120              		.loc 1 989 3 view .LVU2000
 990:Src/maze_solve.c ****   int d_k;
 5121              		.loc 1 990 3 view .LVU2001
 991:Src/maze_solve.c ****   int i8;
 5122              		.loc 1 991 3 view .LVU2002
 992:Src/maze_solve.c ****   int e_k;
 5123              		.loc 1 992 3 view .LVU2003
 993:Src/maze_solve.c ****   int f_k;
 5124              		.loc 1 993 3 view .LVU2004
ARM GAS  C:\Temp\ccX6Vjzt.s 			page 152


 994:Src/maze_solve.c ****   int g_k;
 5125              		.loc 1 994 3 view .LVU2005
 995:Src/maze_solve.c ****   int h_k;
 5126              		.loc 1 995 3 view .LVU2006
 996:Src/maze_solve.c ****   int i_k;
 5127              		.loc 1 996 3 view .LVU2007
 997:Src/maze_solve.c **** 
 5128              		.loc 1 997 3 view .LVU2008
1002:Src/maze_solve.c ****   if (qY > maze_col_size) {
 5129              		.loc 1 1002 3 view .LVU2009
1002:Src/maze_solve.c ****   if (qY > maze_col_size) {
 5130              		.loc 1 1002 6 is_stmt 0 view .LVU2010
 5131 003c 5A1E     		subs	r2, r3, #1
 5132              	.LVL727:
1003:Src/maze_solve.c ****     qY = 0U;
 5133              		.loc 1 1003 3 is_stmt 1 view .LVU2011
1003:Src/maze_solve.c ****     qY = 0U;
 5134              		.loc 1 1003 6 is_stmt 0 view .LVU2012
 5135 003e 9342     		cmp	r3, r2
 5136 0040 00D2     		bcs	.L460
1004:Src/maze_solve.c ****   }
 5137              		.loc 1 1004 8 view .LVU2013
 5138 0042 0022     		movs	r2, #0
 5139              	.LVL728:
 5140              	.L460:
1007:Src/maze_solve.c ****   if (b_qY > maze_row_size) {
 5141              		.loc 1 1007 3 is_stmt 1 view .LVU2014
1007:Src/maze_solve.c ****   if (b_qY > maze_row_size) {
 5142              		.loc 1 1007 8 is_stmt 0 view .LVU2015
 5143 0044 631E     		subs	r3, r4, #1
 5144              	.LVL729:
1008:Src/maze_solve.c ****     b_qY = 0U;
 5145              		.loc 1 1008 3 is_stmt 1 view .LVU2016
1008:Src/maze_solve.c ****     b_qY = 0U;
 5146              		.loc 1 1008 6 is_stmt 0 view .LVU2017
 5147 0046 9C42     		cmp	r4, r3
 5148 0048 00D2     		bcs	.L461
1009:Src/maze_solve.c ****   }
 5149              		.loc 1 1009 10 view .LVU2018
 5150 004a 0023     		movs	r3, #0
 5151              	.LVL730:
 5152              	.L461:
1012:Src/maze_solve.c ****   if ((unsigned int)q0 > 255U) {
 5153              		.loc 1 1012 3 is_stmt 1 view .LVU2019
1012:Src/maze_solve.c ****   if ((unsigned int)q0 > 255U) {
 5154              		.loc 1 1012 17 is_stmt 0 view .LVU2020
 5155 004c 03FB02F3 		mul	r3, r3, r2
 5156              	.LVL731:
1013:Src/maze_solve.c ****     q0 = 255;
 5157              		.loc 1 1013 3 is_stmt 1 view .LVU2021
1013:Src/maze_solve.c ****     q0 = 255;
 5158              		.loc 1 1013 6 is_stmt 0 view .LVU2022
 5159 0050 FF2B     		cmp	r3, #255
 5160 0052 00D9     		bls	.L462
1014:Src/maze_solve.c ****   }
 5161              		.loc 1 1014 8 view .LVU2023
 5162 0054 FF23     		movs	r3, #255
ARM GAS  C:\Temp\ccX6Vjzt.s 			page 153


 5163              	.LVL732:
 5164              	.L462:
1017:Src/maze_solve.c ****   if (qY > (unsigned int)q0) {
 5165              		.loc 1 1017 3 is_stmt 1 view .LVU2024
1017:Src/maze_solve.c ****   if (qY > (unsigned int)q0) {
 5166              		.loc 1 1017 6 is_stmt 0 view .LVU2025
 5167 0056 5A1E     		subs	r2, r3, #1
 5168              	.LVL733:
1018:Src/maze_solve.c ****     qY = 0U;
 5169              		.loc 1 1018 3 is_stmt 1 view .LVU2026
1018:Src/maze_solve.c ****     qY = 0U;
 5170              		.loc 1 1018 6 is_stmt 0 view .LVU2027
 5171 0058 9342     		cmp	r3, r2
 5172 005a 00D2     		bcs	.L463
1019:Src/maze_solve.c ****   }
 5173              		.loc 1 1019 8 view .LVU2028
 5174 005c 0022     		movs	r2, #0
 5175              	.LVL734:
 5176              	.L463:
1022:Src/maze_solve.c **** 
 5177              		.loc 1 1022 3 is_stmt 1 view .LVU2029
1022:Src/maze_solve.c **** 
 5178              		.loc 1 1022 17 is_stmt 0 view .LVU2030
 5179 005e D3B2     		uxtb	r3, r2
 5180              	.LVL735:
1022:Src/maze_solve.c **** 
 5181              		.loc 1 1022 17 view .LVU2031
 5182 0060 0393     		str	r3, [sp, #12]
1022:Src/maze_solve.c **** 
 5183              		.loc 1 1022 15 view .LVU2032
 5184 0062 0DF5C352 		add	r2, sp, #6240
 5185              	.LVL736:
1022:Src/maze_solve.c **** 
 5186              		.loc 1 1022 15 view .LVU2033
 5187 0066 0832     		adds	r2, r2, #8
 5188              	.LVL737:
1022:Src/maze_solve.c **** 
 5189              		.loc 1 1022 15 view .LVU2034
 5190 0068 1268     		ldr	r2, [r2]
 5191              	.LVL738:
1022:Src/maze_solve.c **** 
 5192              		.loc 1 1022 15 view .LVU2035
 5193 006a 1446     		mov	r4, r2
 5194 006c 1A46     		mov	r2, r3
 5195 006e 2370     		strb	r3, [r4]
1027:Src/maze_solve.c ****     contour_map[i6] = (unsigned char)qY;
 5196              		.loc 1 1027 3 is_stmt 1 view .LVU2036
 5197              	.LVL739:
1027:Src/maze_solve.c ****     contour_map[i6] = (unsigned char)qY;
 5198              		.loc 1 1027 11 is_stmt 0 view .LVU2037
 5199 0070 0023     		movs	r3, #0
 5200              	.LVL740:
 5201              	.L464:
1027:Src/maze_solve.c ****     contour_map[i6] = (unsigned char)qY;
 5202              		.loc 1 1027 16 is_stmt 1 discriminator 1 view .LVU2038
1027:Src/maze_solve.c ****     contour_map[i6] = (unsigned char)qY;
 5203              		.loc 1 1027 3 is_stmt 0 discriminator 1 view .LVU2039
ARM GAS  C:\Temp\ccX6Vjzt.s 			page 154


 5204 0072 B3F5806F 		cmp	r3, #1024
 5205 0076 03DA     		bge	.L519
1028:Src/maze_solve.c ****   }
 5206              		.loc 1 1028 5 is_stmt 1 discriminator 3 view .LVU2040
1028:Src/maze_solve.c ****   }
 5207              		.loc 1 1028 21 is_stmt 0 discriminator 3 view .LVU2041
 5208 0078 0BF80320 		strb	r2, [fp, r3]
1027:Src/maze_solve.c ****     contour_map[i6] = (unsigned char)qY;
 5209              		.loc 1 1027 27 is_stmt 1 discriminator 3 view .LVU2042
1027:Src/maze_solve.c ****     contour_map[i6] = (unsigned char)qY;
 5210              		.loc 1 1027 29 is_stmt 0 discriminator 3 view .LVU2043
 5211 007c 0133     		adds	r3, r3, #1
 5212              	.LVL741:
1027:Src/maze_solve.c ****     contour_map[i6] = (unsigned char)qY;
 5213              		.loc 1 1027 29 discriminator 3 view .LVU2044
 5214 007e F8E7     		b	.L464
 5215              	.L519:
1032:Src/maze_solve.c ****   i6 = change_flag;
 5216              		.loc 1 1032 3 is_stmt 1 view .LVU2045
1032:Src/maze_solve.c ****   i6 = change_flag;
 5217              		.loc 1 1032 15 is_stmt 0 view .LVU2046
 5218 0080 0078     		ldrb	r0, [r0]	@ zero_extendqisi2
 5219              	.LVL742:
1033:Src/maze_solve.c ****   for (q0 = 0; q0 < i6; q0++) {
 5220              		.loc 1 1033 3 is_stmt 1 view .LVU2047
1034:Src/maze_solve.c ****     contour_map[(maze_goal[q0 + 9] + ((maze_goal[q0] - 1) << 5)) - 1] = 0U;
 5221              		.loc 1 1034 3 view .LVU2048
1034:Src/maze_solve.c ****     contour_map[(maze_goal[q0 + 9] + ((maze_goal[q0] - 1) << 5)) - 1] = 0U;
 5222              		.loc 1 1034 11 is_stmt 0 view .LVU2049
 5223 0082 0022     		movs	r2, #0
1034:Src/maze_solve.c ****     contour_map[(maze_goal[q0 + 9] + ((maze_goal[q0] - 1) << 5)) - 1] = 0U;
 5224              		.loc 1 1034 3 view .LVU2050
 5225 0084 0AE0     		b	.L466
 5226              	.LVL743:
 5227              	.L467:
1035:Src/maze_solve.c ****   }
 5228              		.loc 1 1035 5 is_stmt 1 discriminator 3 view .LVU2051
1035:Src/maze_solve.c ****   }
 5229              		.loc 1 1035 27 is_stmt 0 discriminator 3 view .LVU2052
 5230 0086 8B18     		adds	r3, r1, r2
 5231 0088 5B7A     		ldrb	r3, [r3, #9]	@ zero_extendqisi2
1035:Src/maze_solve.c ****   }
 5232              		.loc 1 1035 49 discriminator 3 view .LVU2053
 5233 008a 8C5C     		ldrb	r4, [r1, r2]	@ zero_extendqisi2
1035:Src/maze_solve.c ****   }
 5234              		.loc 1 1035 54 discriminator 3 view .LVU2054
 5235 008c 013C     		subs	r4, r4, #1
1035:Src/maze_solve.c ****   }
 5236              		.loc 1 1035 36 discriminator 3 view .LVU2055
 5237 008e 03EB4413 		add	r3, r3, r4, lsl #5
1035:Src/maze_solve.c ****   }
 5238              		.loc 1 1035 16 discriminator 3 view .LVU2056
 5239 0092 013B     		subs	r3, r3, #1
1035:Src/maze_solve.c ****   }
 5240              		.loc 1 1035 71 discriminator 3 view .LVU2057
 5241 0094 0024     		movs	r4, #0
 5242 0096 0BF80340 		strb	r4, [fp, r3]
ARM GAS  C:\Temp\ccX6Vjzt.s 			page 155


1034:Src/maze_solve.c ****     contour_map[(maze_goal[q0 + 9] + ((maze_goal[q0] - 1) << 5)) - 1] = 0U;
 5243              		.loc 1 1034 25 is_stmt 1 discriminator 3 view .LVU2058
1034:Src/maze_solve.c ****     contour_map[(maze_goal[q0 + 9] + ((maze_goal[q0] - 1) << 5)) - 1] = 0U;
 5244              		.loc 1 1034 27 is_stmt 0 discriminator 3 view .LVU2059
 5245 009a 0132     		adds	r2, r2, #1
 5246              	.LVL744:
 5247              	.L466:
1034:Src/maze_solve.c ****     contour_map[(maze_goal[q0 + 9] + ((maze_goal[q0] - 1) << 5)) - 1] = 0U;
 5248              		.loc 1 1034 16 is_stmt 1 discriminator 1 view .LVU2060
1034:Src/maze_solve.c ****     contour_map[(maze_goal[q0 + 9] + ((maze_goal[q0] - 1) << 5)) - 1] = 0U;
 5249              		.loc 1 1034 3 is_stmt 0 discriminator 1 view .LVU2061
 5250 009c 8242     		cmp	r2, r0
 5251 009e F2DB     		blt	.L467
 5252              	.LVL745:
 5253              	.L501:
1038:Src/maze_solve.c ****     change_flag = 0U;
 5254              		.loc 1 1038 3 is_stmt 1 view .LVU2062
1039:Src/maze_solve.c **** 
 5255              		.loc 1 1039 5 view .LVU2063
1042:Src/maze_solve.c ****       /* 歩数カウントは0~max_length */
 5256              		.loc 1 1042 5 view .LVU2064
1042:Src/maze_solve.c ****       /* 歩数カウントは0~max_length */
 5257              		.loc 1 1042 16 is_stmt 0 view .LVU2065
 5258 00a0 0023     		movs	r3, #0
 5259 00a2 0193     		str	r3, [sp, #4]
1039:Src/maze_solve.c **** 
 5260              		.loc 1 1039 17 view .LVU2066
 5261 00a4 0493     		str	r3, [sp, #16]
1042:Src/maze_solve.c ****       /* 歩数カウントは0~max_length */
 5262              		.loc 1 1042 5 view .LVU2067
 5263 00a6 CAE1     		b	.L468
 5264              	.LVL746:
 5265              	.L469:
1059:Src/maze_solve.c ****         }
 5266              		.loc 1 1059 11 is_stmt 1 view .LVU2068
1059:Src/maze_solve.c ****         }
 5267              		.loc 1 1059 13 is_stmt 0 view .LVU2069
 5268 00a8 0133     		adds	r3, r3, #1
 5269              	.LVL747:
 5270              	.L500:
1049:Src/maze_solve.c ****         if (contour_map[q0] == tempi) {
 5271              		.loc 1 1049 13 is_stmt 1 view .LVU2070
 5272 00aa A9B9     		cbnz	r1, .L471
1049:Src/maze_solve.c ****         if (contour_map[q0] == tempi) {
 5273              		.loc 1 1049 24 is_stmt 0 discriminator 1 view .LVU2071
 5274 00ac B3F5806F 		cmp	r3, #1024
 5275 00b0 12DA     		bge	.L471
1050:Src/maze_solve.c ****           idx++;
 5276              		.loc 1 1050 9 is_stmt 1 view .LVU2072
1050:Src/maze_solve.c ****           idx++;
 5277              		.loc 1 1050 24 is_stmt 0 view .LVU2073
 5278 00b2 1BF80320 		ldrb	r2, [fp, r3]	@ zero_extendqisi2
1050:Src/maze_solve.c ****           idx++;
 5279              		.loc 1 1050 12 view .LVU2074
 5280 00b6 0198     		ldr	r0, [sp, #4]
 5281 00b8 8242     		cmp	r2, r0
 5282 00ba F5D1     		bne	.L469
ARM GAS  C:\Temp\ccX6Vjzt.s 			page 156


1051:Src/maze_solve.c ****           ii_data[idx - 1] = (short)(q0 + 1);
 5283              		.loc 1 1051 11 is_stmt 1 view .LVU2075
1051:Src/maze_solve.c ****           ii_data[idx - 1] = (short)(q0 + 1);
 5284              		.loc 1 1051 14 is_stmt 0 view .LVU2076
 5285 00bc 781C     		adds	r0, r7, #1
 5286              	.LVL748:
1052:Src/maze_solve.c ****           if (idx >= 1024) {
 5287              		.loc 1 1052 11 is_stmt 1 view .LVU2077
1052:Src/maze_solve.c ****           if (idx >= 1024) {
 5288              		.loc 1 1052 41 is_stmt 0 view .LVU2078
 5289 00be 5A1C     		adds	r2, r3, #1
1052:Src/maze_solve.c ****           if (idx >= 1024) {
 5290              		.loc 1 1052 28 view .LVU2079
 5291 00c0 C64C     		ldr	r4, .L531
 5292 00c2 24F81720 		strh	r2, [r4, r7, lsl #1]	@ movhi
1053:Src/maze_solve.c ****             exitg1 = true;
 5293              		.loc 1 1053 11 is_stmt 1 view .LVU2080
1053:Src/maze_solve.c ****             exitg1 = true;
 5294              		.loc 1 1053 14 is_stmt 0 view .LVU2081
 5295 00c6 B0F5806F 		cmp	r0, #1024
 5296 00ca 02DA     		bge	.L506
1056:Src/maze_solve.c ****           }
 5297              		.loc 1 1056 13 is_stmt 1 view .LVU2082
1056:Src/maze_solve.c ****           }
 5298              		.loc 1 1056 15 is_stmt 0 view .LVU2083
 5299 00cc 1346     		mov	r3, r2
 5300              	.LVL749:
1051:Src/maze_solve.c ****           ii_data[idx - 1] = (short)(q0 + 1);
 5301              		.loc 1 1051 14 view .LVU2084
 5302 00ce 0746     		mov	r7, r0
 5303 00d0 EBE7     		b	.L500
 5304              	.LVL750:
 5305              	.L506:
1051:Src/maze_solve.c ****           ii_data[idx - 1] = (short)(q0 + 1);
 5306              		.loc 1 1051 14 view .LVU2085
 5307 00d2 0746     		mov	r7, r0
1054:Src/maze_solve.c ****           } else {
 5308              		.loc 1 1054 20 view .LVU2086
 5309 00d4 0121     		movs	r1, #1
 5310              	.LVL751:
1054:Src/maze_solve.c ****           } else {
 5311              		.loc 1 1054 20 view .LVU2087
 5312 00d6 E8E7     		b	.L500
 5313              	.LVL752:
 5314              	.L471:
1063:Src/maze_solve.c ****         loop_ub = 0;
 5315              		.loc 1 1063 7 is_stmt 1 view .LVU2088
1063:Src/maze_solve.c ****         loop_ub = 0;
 5316              		.loc 1 1063 10 is_stmt 0 view .LVU2089
 5317 00d8 002F     		cmp	r7, #0
 5318 00da 05DD     		ble	.L520
 5319              	.LVL753:
 5320              	.L473:
1071:Src/maze_solve.c ****       for (i6 = 0; i6 < loop_ub; i6++) {
 5321              		.loc 1 1071 7 is_stmt 1 view .LVU2090
1071:Src/maze_solve.c ****       for (i6 = 0; i6 < loop_ub; i6++) {
 5322              		.loc 1 1071 24 is_stmt 0 view .LVU2091
ARM GAS  C:\Temp\ccX6Vjzt.s 			page 157


 5323 00dc 0DF5C153 		add	r3, sp, #6176
 5324 00e0 0433     		adds	r3, r3, #4
 5325 00e2 1F60     		str	r7, [r3]
1072:Src/maze_solve.c ****         num_temp_data[i6] = (unsigned short)ii_data[i6];
 5326              		.loc 1 1072 7 is_stmt 1 view .LVU2092
 5327              	.LVL754:
1072:Src/maze_solve.c ****         num_temp_data[i6] = (unsigned short)ii_data[i6];
 5328              		.loc 1 1072 15 is_stmt 0 view .LVU2093
 5329 00e4 0023     		movs	r3, #0
1072:Src/maze_solve.c ****         num_temp_data[i6] = (unsigned short)ii_data[i6];
 5330              		.loc 1 1072 7 view .LVU2094
 5331 00e6 08E0     		b	.L474
 5332              	.LVL755:
 5333              	.L520:
1065:Src/maze_solve.c ****       } else {
 5334              		.loc 1 1065 12 view .LVU2095
 5335 00e8 0027     		movs	r7, #0
 5336              	.LVL756:
1065:Src/maze_solve.c ****       } else {
 5337              		.loc 1 1065 12 view .LVU2096
 5338 00ea F7E7     		b	.L473
 5339              	.LVL757:
 5340              	.L475:
1073:Src/maze_solve.c ****       }
 5341              		.loc 1 1073 9 is_stmt 1 discriminator 3 view .LVU2097
1073:Src/maze_solve.c ****       }
 5342              		.loc 1 1073 52 is_stmt 0 discriminator 3 view .LVU2098
 5343 00ec BB4A     		ldr	r2, .L531
 5344 00ee 32F91310 		ldrsh	r1, [r2, r3, lsl #1]
1073:Src/maze_solve.c ****       }
 5345              		.loc 1 1073 27 discriminator 3 view .LVU2099
 5346 00f2 BB4A     		ldr	r2, .L531+4
 5347 00f4 22F81310 		strh	r1, [r2, r3, lsl #1]	@ movhi
1072:Src/maze_solve.c ****         num_temp_data[i6] = (unsigned short)ii_data[i6];
 5348              		.loc 1 1072 34 is_stmt 1 discriminator 3 view .LVU2100
1072:Src/maze_solve.c ****         num_temp_data[i6] = (unsigned short)ii_data[i6];
 5349              		.loc 1 1072 36 is_stmt 0 discriminator 3 view .LVU2101
 5350 00f8 0133     		adds	r3, r3, #1
 5351              	.LVL758:
 5352              	.L474:
1072:Src/maze_solve.c ****         num_temp_data[i6] = (unsigned short)ii_data[i6];
 5353              		.loc 1 1072 20 is_stmt 1 discriminator 1 view .LVU2102
1072:Src/maze_solve.c ****         num_temp_data[i6] = (unsigned short)ii_data[i6];
 5354              		.loc 1 1072 7 is_stmt 0 discriminator 1 view .LVU2103
 5355 00fa 9F42     		cmp	r7, r3
 5356 00fc F6DC     		bgt	.L475
1077:Src/maze_solve.c ****       for (i6 = 0; i6 < q0; i6++) {
 5357              		.loc 1 1077 7 is_stmt 1 view .LVU2104
1077:Src/maze_solve.c ****       for (i6 = 0; i6 < q0; i6++) {
 5358              		.loc 1 1077 26 is_stmt 0 view .LVU2105
 5359 00fe 0DF5C153 		add	r3, sp, #6176
 5360              	.LVL759:
1077:Src/maze_solve.c ****       for (i6 = 0; i6 < q0; i6++) {
 5361              		.loc 1 1077 26 view .LVU2106
 5362 0102 1F60     		str	r7, [r3]
1078:Src/maze_solve.c ****         b_num_temp_data[i6] = (unsigned short)(num_temp_data[i6] - 1U);
 5363              		.loc 1 1078 7 is_stmt 1 view .LVU2107
ARM GAS  C:\Temp\ccX6Vjzt.s 			page 158


 5364              	.LVL760:
1078:Src/maze_solve.c ****         b_num_temp_data[i6] = (unsigned short)(num_temp_data[i6] - 1U);
 5365              		.loc 1 1078 15 is_stmt 0 view .LVU2108
 5366 0104 0023     		movs	r3, #0
 5367              	.LVL761:
 5368              	.L476:
1078:Src/maze_solve.c ****         b_num_temp_data[i6] = (unsigned short)(num_temp_data[i6] - 1U);
 5369              		.loc 1 1078 20 is_stmt 1 discriminator 1 view .LVU2109
1078:Src/maze_solve.c ****         b_num_temp_data[i6] = (unsigned short)(num_temp_data[i6] - 1U);
 5370              		.loc 1 1078 7 is_stmt 0 discriminator 1 view .LVU2110
 5371 0106 9F42     		cmp	r7, r3
 5372 0108 09DD     		ble	.L521
1079:Src/maze_solve.c ****       }
 5373              		.loc 1 1079 9 is_stmt 1 discriminator 3 view .LVU2111
1079:Src/maze_solve.c ****       }
 5374              		.loc 1 1079 61 is_stmt 0 discriminator 3 view .LVU2112
 5375 010a B54A     		ldr	r2, .L531+4
 5376 010c 32F81320 		ldrh	r2, [r2, r3, lsl #1]
1079:Src/maze_solve.c ****       }
 5377              		.loc 1 1079 31 discriminator 3 view .LVU2113
 5378 0110 013A     		subs	r2, r2, #1
1079:Src/maze_solve.c ****       }
 5379              		.loc 1 1079 29 discriminator 3 view .LVU2114
 5380 0112 0DF58151 		add	r1, sp, #4128
 5381 0116 21F81320 		strh	r2, [r1, r3, lsl #1]	@ movhi
1078:Src/maze_solve.c ****         b_num_temp_data[i6] = (unsigned short)(num_temp_data[i6] - 1U);
 5382              		.loc 1 1078 29 is_stmt 1 discriminator 3 view .LVU2115
1078:Src/maze_solve.c ****         b_num_temp_data[i6] = (unsigned short)(num_temp_data[i6] - 1U);
 5383              		.loc 1 1078 31 is_stmt 0 discriminator 3 view .LVU2116
 5384 011a 0133     		adds	r3, r3, #1
 5385              	.LVL762:
1078:Src/maze_solve.c ****         b_num_temp_data[i6] = (unsigned short)(num_temp_data[i6] - 1U);
 5386              		.loc 1 1078 31 discriminator 3 view .LVU2117
 5387 011c F3E7     		b	.L476
 5388              	.L521:
1082:Src/maze_solve.c ****       loop_ub = tmp_size[0];
 5389              		.loc 1 1082 7 is_stmt 1 view .LVU2118
 5390 011e 0DF61C03 		addw	r3, sp, #2076
 5391              	.LVL763:
1082:Src/maze_solve.c ****       loop_ub = tmp_size[0];
 5392              		.loc 1 1082 7 is_stmt 0 view .LVU2119
 5393 0122 0DF50262 		add	r2, sp, #2080
 5394 0126 0DF5C151 		add	r1, sp, #6176
 5395 012a 0DF58150 		add	r0, sp, #4128
 5396 012e FFF7FEFF 		bl	b_rem
 5397              	.LVL764:
1083:Src/maze_solve.c ****       for (i6 = 0; i6 < loop_ub; i6++) {
 5398              		.loc 1 1083 7 is_stmt 1 view .LVU2120
1083:Src/maze_solve.c ****       for (i6 = 0; i6 < loop_ub; i6++) {
 5399              		.loc 1 1083 15 is_stmt 0 view .LVU2121
 5400 0132 DDF81C48 		ldr	r4, [sp, #2076]
 5401              	.LVL765:
1084:Src/maze_solve.c ****         b_qY = tmp_data[i6] + 1U;
 5402              		.loc 1 1084 7 is_stmt 1 view .LVU2122
1084:Src/maze_solve.c ****         b_qY = tmp_data[i6] + 1U;
 5403              		.loc 1 1084 15 is_stmt 0 view .LVU2123
 5404 0136 0022     		movs	r2, #0
ARM GAS  C:\Temp\ccX6Vjzt.s 			page 159


1084:Src/maze_solve.c ****         b_qY = tmp_data[i6] + 1U;
 5405              		.loc 1 1084 7 view .LVU2124
 5406 0138 03E0     		b	.L478
 5407              	.LVL766:
 5408              	.L480:
1095:Src/maze_solve.c ****       }
 5409              		.loc 1 1095 9 is_stmt 1 discriminator 2 view .LVU2125
1095:Src/maze_solve.c ****       }
 5410              		.loc 1 1095 22 is_stmt 0 discriminator 2 view .LVU2126
 5411 013a 0DF21C41 		addw	r1, sp, #1052
 5412 013e 8B54     		strb	r3, [r1, r2]
1084:Src/maze_solve.c ****         b_qY = tmp_data[i6] + 1U;
 5413              		.loc 1 1084 34 is_stmt 1 discriminator 2 view .LVU2127
1084:Src/maze_solve.c ****         b_qY = tmp_data[i6] + 1U;
 5414              		.loc 1 1084 36 is_stmt 0 discriminator 2 view .LVU2128
 5415 0140 0132     		adds	r2, r2, #1
 5416              	.LVL767:
 5417              	.L478:
1084:Src/maze_solve.c ****         b_qY = tmp_data[i6] + 1U;
 5418              		.loc 1 1084 20 is_stmt 1 discriminator 1 view .LVU2129
1084:Src/maze_solve.c ****         b_qY = tmp_data[i6] + 1U;
 5419              		.loc 1 1084 7 is_stmt 0 discriminator 1 view .LVU2130
 5420 0142 A242     		cmp	r2, r4
 5421 0144 0EDA     		bge	.L522
1085:Src/maze_solve.c ****         if (b_qY > 65535U) {
 5422              		.loc 1 1085 9 is_stmt 1 view .LVU2131
1085:Src/maze_solve.c ****         if (b_qY > 65535U) {
 5423              		.loc 1 1085 24 is_stmt 0 view .LVU2132
 5424 0146 0DF50263 		add	r3, sp, #2080
 5425 014a 33F81230 		ldrh	r3, [r3, r2, lsl #1]
1085:Src/maze_solve.c ****         if (b_qY > 65535U) {
 5426              		.loc 1 1085 14 view .LVU2133
 5427 014e 0133     		adds	r3, r3, #1
 5428              	.LVL768:
1086:Src/maze_solve.c ****           b_qY = 65535U;
 5429              		.loc 1 1086 9 is_stmt 1 view .LVU2134
1086:Src/maze_solve.c ****           b_qY = 65535U;
 5430              		.loc 1 1086 12 is_stmt 0 view .LVU2135
 5431 0150 B3F5803F 		cmp	r3, #65536
 5432 0154 01D3     		bcc	.L479
1087:Src/maze_solve.c ****         }
 5433              		.loc 1 1087 16 view .LVU2136
 5434 0156 4FF6FF73 		movw	r3, #65535
 5435              	.LVL769:
 5436              	.L479:
1090:Src/maze_solve.c ****         if ((unsigned short)b_qY > 255) {
 5437              		.loc 1 1090 9 is_stmt 1 view .LVU2137
1090:Src/maze_solve.c ****         if ((unsigned short)b_qY > 255) {
 5438              		.loc 1 1090 12 is_stmt 0 view .LVU2138
 5439 015a 9BB2     		uxth	r3, r3
 5440              	.LVL770:
1091:Src/maze_solve.c ****           u1 = 255U;
 5441              		.loc 1 1091 9 is_stmt 1 view .LVU2139
1091:Src/maze_solve.c ****           u1 = 255U;
 5442              		.loc 1 1091 12 is_stmt 0 view .LVU2140
 5443 015c FF2B     		cmp	r3, #255
 5444 015e ECD9     		bls	.L480
ARM GAS  C:\Temp\ccX6Vjzt.s 			page 160


1092:Src/maze_solve.c ****         }
 5445              		.loc 1 1092 14 view .LVU2141
 5446 0160 FF23     		movs	r3, #255
 5447              	.LVL771:
1092:Src/maze_solve.c ****         }
 5448              		.loc 1 1092 14 view .LVU2142
 5449 0162 EAE7     		b	.L480
 5450              	.L522:
1099:Src/maze_solve.c ****         num_temp_data[i6]--;
 5451              		.loc 1 1099 15 view .LVU2143
 5452 0164 0023     		movs	r3, #0
 5453              	.LVL772:
 5454              	.L482:
1099:Src/maze_solve.c ****         num_temp_data[i6]--;
 5455              		.loc 1 1099 20 is_stmt 1 discriminator 1 view .LVU2144
1099:Src/maze_solve.c ****         num_temp_data[i6]--;
 5456              		.loc 1 1099 7 is_stmt 0 discriminator 1 view .LVU2145
 5457 0166 9F42     		cmp	r7, r3
 5458 0168 07DD     		ble	.L523
1100:Src/maze_solve.c ****       }
 5459              		.loc 1 1100 9 is_stmt 1 discriminator 3 view .LVU2146
1100:Src/maze_solve.c ****       }
 5460              		.loc 1 1100 22 is_stmt 0 discriminator 3 view .LVU2147
 5461 016a 9D49     		ldr	r1, .L531+4
 5462 016c 31F81320 		ldrh	r2, [r1, r3, lsl #1]
1100:Src/maze_solve.c ****       }
 5463              		.loc 1 1100 26 discriminator 3 view .LVU2148
 5464 0170 013A     		subs	r2, r2, #1
 5465 0172 21F81320 		strh	r2, [r1, r3, lsl #1]	@ movhi
1099:Src/maze_solve.c ****         num_temp_data[i6]--;
 5466              		.loc 1 1099 29 is_stmt 1 discriminator 3 view .LVU2149
1099:Src/maze_solve.c ****         num_temp_data[i6]--;
 5467              		.loc 1 1099 31 is_stmt 0 discriminator 3 view .LVU2150
 5468 0176 0133     		adds	r3, r3, #1
 5469              	.LVL773:
1099:Src/maze_solve.c ****         num_temp_data[i6]--;
 5470              		.loc 1 1099 31 discriminator 3 view .LVU2151
 5471 0178 F5E7     		b	.L482
 5472              	.L523:
1103:Src/maze_solve.c ****       q0 = tmp_size[0];
 5473              		.loc 1 1103 7 is_stmt 1 view .LVU2152
 5474 017a 0DF61C03 		addw	r3, sp, #2076
 5475              	.LVL774:
1103:Src/maze_solve.c ****       q0 = tmp_size[0];
 5476              		.loc 1 1103 7 is_stmt 0 view .LVU2153
 5477 017e 0DF50262 		add	r2, sp, #2080
 5478 0182 0DF5C151 		add	r1, sp, #6176
 5479 0186 0431     		adds	r1, r1, #4
 5480 0188 9548     		ldr	r0, .L531+4
 5481 018a FFF7FEFF 		bl	idivide
 5482              	.LVL775:
1104:Src/maze_solve.c ****       for (i6 = 0; i6 < q0; i6++) {
 5483              		.loc 1 1104 7 is_stmt 1 view .LVU2154
1104:Src/maze_solve.c ****       for (i6 = 0; i6 < q0; i6++) {
 5484              		.loc 1 1104 10 is_stmt 0 view .LVU2155
 5485 018e DDF81C08 		ldr	r0, [sp, #2076]
 5486              	.LVL776:
ARM GAS  C:\Temp\ccX6Vjzt.s 			page 161


1105:Src/maze_solve.c ****         b_qY = tmp_data[i6] + 1U;
 5487              		.loc 1 1105 7 is_stmt 1 view .LVU2156
1105:Src/maze_solve.c ****         b_qY = tmp_data[i6] + 1U;
 5488              		.loc 1 1105 15 is_stmt 0 view .LVU2157
 5489 0192 0022     		movs	r2, #0
1105:Src/maze_solve.c ****         b_qY = tmp_data[i6] + 1U;
 5490              		.loc 1 1105 7 view .LVU2158
 5491 0194 02E0     		b	.L484
 5492              	.LVL777:
 5493              	.L486:
1116:Src/maze_solve.c ****       }
 5494              		.loc 1 1116 9 is_stmt 1 discriminator 2 view .LVU2159
1116:Src/maze_solve.c ****       }
 5495              		.loc 1 1116 22 is_stmt 0 discriminator 2 view .LVU2160
 5496 0196 07A9     		add	r1, sp, #28
 5497 0198 8B54     		strb	r3, [r1, r2]
1105:Src/maze_solve.c ****         b_qY = tmp_data[i6] + 1U;
 5498              		.loc 1 1105 29 is_stmt 1 discriminator 2 view .LVU2161
1105:Src/maze_solve.c ****         b_qY = tmp_data[i6] + 1U;
 5499              		.loc 1 1105 31 is_stmt 0 discriminator 2 view .LVU2162
 5500 019a 0132     		adds	r2, r2, #1
 5501              	.LVL778:
 5502              	.L484:
1105:Src/maze_solve.c ****         b_qY = tmp_data[i6] + 1U;
 5503              		.loc 1 1105 20 is_stmt 1 discriminator 1 view .LVU2163
1105:Src/maze_solve.c ****         b_qY = tmp_data[i6] + 1U;
 5504              		.loc 1 1105 7 is_stmt 0 discriminator 1 view .LVU2164
 5505 019c 8242     		cmp	r2, r0
 5506 019e 0EDA     		bge	.L524
1106:Src/maze_solve.c ****         if (b_qY > 65535U) {
 5507              		.loc 1 1106 9 is_stmt 1 view .LVU2165
1106:Src/maze_solve.c ****         if (b_qY > 65535U) {
 5508              		.loc 1 1106 24 is_stmt 0 view .LVU2166
 5509 01a0 0DF50263 		add	r3, sp, #2080
 5510 01a4 33F81230 		ldrh	r3, [r3, r2, lsl #1]
1106:Src/maze_solve.c ****         if (b_qY > 65535U) {
 5511              		.loc 1 1106 14 view .LVU2167
 5512 01a8 0133     		adds	r3, r3, #1
 5513              	.LVL779:
1107:Src/maze_solve.c ****           b_qY = 65535U;
 5514              		.loc 1 1107 9 is_stmt 1 view .LVU2168
1107:Src/maze_solve.c ****           b_qY = 65535U;
 5515              		.loc 1 1107 12 is_stmt 0 view .LVU2169
 5516 01aa B3F5803F 		cmp	r3, #65536
 5517 01ae 01D3     		bcc	.L485
1108:Src/maze_solve.c ****         }
 5518              		.loc 1 1108 16 view .LVU2170
 5519 01b0 4FF6FF73 		movw	r3, #65535
 5520              	.LVL780:
 5521              	.L485:
1111:Src/maze_solve.c ****         if ((unsigned short)b_qY > 255) {
 5522              		.loc 1 1111 9 is_stmt 1 view .LVU2171
1111:Src/maze_solve.c ****         if ((unsigned short)b_qY > 255) {
 5523              		.loc 1 1111 12 is_stmt 0 view .LVU2172
 5524 01b4 9BB2     		uxth	r3, r3
 5525              	.LVL781:
1112:Src/maze_solve.c ****           u1 = 255U;
ARM GAS  C:\Temp\ccX6Vjzt.s 			page 162


 5526              		.loc 1 1112 9 is_stmt 1 view .LVU2173
1112:Src/maze_solve.c ****           u1 = 255U;
 5527              		.loc 1 1112 12 is_stmt 0 view .LVU2174
 5528 01b6 FF2B     		cmp	r3, #255
 5529 01b8 EDD9     		bls	.L486
1113:Src/maze_solve.c ****         }
 5530              		.loc 1 1113 14 view .LVU2175
 5531 01ba FF23     		movs	r3, #255
 5532              	.LVL782:
1113:Src/maze_solve.c ****         }
 5533              		.loc 1 1113 14 view .LVU2176
 5534 01bc EBE7     		b	.L486
 5535              	.L524:
1121:Src/maze_solve.c ****         /* 北側 */
 5536              		.loc 1 1121 15 view .LVU2177
 5537 01be 0021     		movs	r1, #0
 5538 01c0 0294     		str	r4, [sp, #8]
 5539 01c2 0DF5C353 		add	r3, sp, #6240
 5540              	.LVL783:
1121:Src/maze_solve.c ****         /* 北側 */
 5541              		.loc 1 1121 15 view .LVU2178
 5542 01c6 0433     		adds	r3, r3, #4
 5543              	.LVL784:
1121:Src/maze_solve.c ****         /* 北側 */
 5544              		.loc 1 1121 15 view .LVU2179
 5545 01c8 C3F800B0 		str	fp, [r3]
 5546 01cc DDF814B0 		ldr	fp, [sp, #20]
 5547 01d0 57E0     		b	.L488
 5548              	.LVL785:
 5549              	.L511:
1132:Src/maze_solve.c ****         }
 5550              		.loc 1 1132 15 view .LVU2180
 5551 01d2 0022     		movs	r2, #0
 5552              	.LVL786:
 5553              	.L489:
1135:Src/maze_solve.c ****           k = g_direction->contents.North;
 5554              		.loc 1 1135 9 is_stmt 1 view .LVU2181
1135:Src/maze_solve.c ****           k = g_direction->contents.North;
 5555              		.loc 1 1135 24 is_stmt 0 view .LVU2182
 5556 01d4 19F80CE0 		ldrb	lr, [r9, ip]	@ zero_extendqisi2
1135:Src/maze_solve.c ****           k = g_direction->contents.North;
 5557              		.loc 1 1135 36 view .LVU2183
 5558 01d8 1EEA020F 		tst	lr, r2
 5559 01dc 14BF     		ite	ne
 5560 01de 4FF00108 		movne	r8, #1
 5561 01e2 4FF00008 		moveq	r8, #0
1135:Src/maze_solve.c ****           k = g_direction->contents.North;
 5562              		.loc 1 1135 59 view .LVU2184
 5563 01e6 96F800E0 		ldrb	lr, [r6]	@ zero_extendqisi2
1135:Src/maze_solve.c ****           k = g_direction->contents.North;
 5564              		.loc 1 1135 12 view .LVU2185
 5565 01ea F045     		cmp	r8, lr
 5566 01ec 66D0     		beq	.L525
 5567              	.LVL787:
 5568              	.L490:
1163:Src/maze_solve.c ****         if (k <= 7) {
 5569              		.loc 1 1163 9 is_stmt 1 view .LVU2186
ARM GAS  C:\Temp\ccX6Vjzt.s 			page 163


1163:Src/maze_solve.c ****         if (k <= 7) {
 5570              		.loc 1 1163 11 is_stmt 0 view .LVU2187
 5571 01ee 6A78     		ldrb	r2, [r5, #1]	@ zero_extendqisi2
 5572              	.LVL788:
1164:Src/maze_solve.c ****           d_k = (unsigned char)(1 << k);
 5573              		.loc 1 1164 9 is_stmt 1 view .LVU2188
1164:Src/maze_solve.c ****           d_k = (unsigned char)(1 << k);
 5574              		.loc 1 1164 12 is_stmt 0 view .LVU2189
 5575 01f0 072A     		cmp	r2, #7
 5576 01f2 00F28F80 		bhi	.L513
1165:Src/maze_solve.c ****         } else {
 5577              		.loc 1 1165 11 is_stmt 1 view .LVU2190
1165:Src/maze_solve.c ****         } else {
 5578              		.loc 1 1165 35 is_stmt 0 view .LVU2191
 5579 01f6 4FF0010C 		mov	ip, #1
 5580 01fa 0CFA02FC 		lsl	ip, ip, r2
 5581 01fe 5FFA8CFC 		uxtb	ip, ip
 5582              	.LVL789:
 5583              	.L492:
1170:Src/maze_solve.c ****                  [(unsigned short)(1 + q0) - 1] - 1) << 5)) - 1] & d_k) != 0) ==
 5584              		.loc 1 1170 9 is_stmt 1 view .LVU2192
1170:Src/maze_solve.c ****                  [(unsigned short)(1 + q0) - 1] - 1) << 5)) - 1] & d_k) != 0) ==
 5585              		.loc 1 1170 24 is_stmt 0 view .LVU2193
 5586 0202 5A1E     		subs	r2, r3, #1
 5587              	.LVL790:
1170:Src/maze_solve.c ****                  [(unsigned short)(1 + q0) - 1] - 1) << 5)) - 1] & d_k) != 0) ==
 5588              		.loc 1 1170 24 view .LVU2194
 5589 0204 19F802E0 		ldrb	lr, [r9, r2]	@ zero_extendqisi2
1171:Src/maze_solve.c ****             wall->contents.nowall) {
 5590              		.loc 1 1171 73 view .LVU2195
 5591 0208 1EEA0C0F 		tst	lr, ip
 5592 020c 14BF     		ite	ne
 5593 020e 4FF00108 		movne	r8, #1
 5594 0212 4FF00008 		moveq	r8, #0
1172:Src/maze_solve.c ****           k = g_direction->contents.East;
 5595              		.loc 1 1172 27 view .LVU2196
 5596 0216 96F800E0 		ldrb	lr, [r6]	@ zero_extendqisi2
1170:Src/maze_solve.c ****                  [(unsigned short)(1 + q0) - 1] - 1) << 5)) - 1] & d_k) != 0) ==
 5597              		.loc 1 1170 12 view .LVU2197
 5598 021a F045     		cmp	r8, lr
 5599 021c 7DD0     		beq	.L526
 5600              	.LVL791:
 5601              	.L493:
1204:Src/maze_solve.c ****         if (k <= 7) {
 5602              		.loc 1 1204 9 is_stmt 1 view .LVU2198
1204:Src/maze_solve.c ****         if (k <= 7) {
 5603              		.loc 1 1204 11 is_stmt 0 view .LVU2199
 5604 021e 95F802C0 		ldrb	ip, [r5, #2]	@ zero_extendqisi2
 5605              	.LVL792:
1205:Src/maze_solve.c ****           f_k = (unsigned char)(1 << k);
 5606              		.loc 1 1205 9 is_stmt 1 view .LVU2200
1205:Src/maze_solve.c ****           f_k = (unsigned char)(1 << k);
 5607              		.loc 1 1205 12 is_stmt 0 view .LVU2201
 5608 0222 BCF1070F 		cmp	ip, #7
 5609 0226 00F2AC80 		bhi	.L515
1206:Src/maze_solve.c ****         } else {
 5610              		.loc 1 1206 11 is_stmt 1 view .LVU2202
ARM GAS  C:\Temp\ccX6Vjzt.s 			page 164


1206:Src/maze_solve.c ****         } else {
 5611              		.loc 1 1206 35 is_stmt 0 view .LVU2203
 5612 022a 4FF0010E 		mov	lr, #1
 5613 022e 0EFA0CFC 		lsl	ip, lr, ip
 5614              	.LVL793:
1206:Src/maze_solve.c ****         } else {
 5615              		.loc 1 1206 35 view .LVU2204
 5616 0232 5FFA8CFC 		uxtb	ip, ip
 5617              	.LVL794:
 5618              	.L495:
1211:Src/maze_solve.c ****                  [(unsigned short)(1 + q0) - 1] - 1) << 5)) - 1] & f_k) != 0) ==
 5619              		.loc 1 1211 9 is_stmt 1 view .LVU2205
1211:Src/maze_solve.c ****                  [(unsigned short)(1 + q0) - 1] - 1) << 5)) - 1] & f_k) != 0) ==
 5620              		.loc 1 1211 24 is_stmt 0 view .LVU2206
 5621 0236 19F802E0 		ldrb	lr, [r9, r2]	@ zero_extendqisi2
1212:Src/maze_solve.c ****             wall->contents.nowall) {
 5622              		.loc 1 1212 73 view .LVU2207
 5623 023a 1EEA0C0F 		tst	lr, ip
 5624 023e 14BF     		ite	ne
 5625 0240 4FF00108 		movne	r8, #1
 5626 0244 4FF00008 		moveq	r8, #0
1213:Src/maze_solve.c ****           k = g_direction->contents.South;
 5627              		.loc 1 1213 27 view .LVU2208
 5628 0248 96F800E0 		ldrb	lr, [r6]	@ zero_extendqisi2
1211:Src/maze_solve.c ****                  [(unsigned short)(1 + q0) - 1] - 1) << 5)) - 1] & f_k) != 0) ==
 5629              		.loc 1 1211 12 view .LVU2209
 5630 024c F045     		cmp	r8, lr
 5631 024e 00F09B80 		beq	.L527
 5632              	.LVL795:
 5633              	.L496:
1234:Src/maze_solve.c ****         if (k <= 7) {
 5634              		.loc 1 1234 9 is_stmt 1 view .LVU2210
1234:Src/maze_solve.c ****         if (k <= 7) {
 5635              		.loc 1 1234 11 is_stmt 0 view .LVU2211
 5636 0252 EB78     		ldrb	r3, [r5, #3]	@ zero_extendqisi2
 5637              	.LVL796:
1235:Src/maze_solve.c ****           h_k = (unsigned char)(1 << k);
 5638              		.loc 1 1235 9 is_stmt 1 view .LVU2212
1235:Src/maze_solve.c ****           h_k = (unsigned char)(1 << k);
 5639              		.loc 1 1235 12 is_stmt 0 view .LVU2213
 5640 0254 072B     		cmp	r3, #7
 5641 0256 00F2BF80 		bhi	.L516
1236:Src/maze_solve.c ****         } else {
 5642              		.loc 1 1236 11 is_stmt 1 view .LVU2214
1236:Src/maze_solve.c ****         } else {
 5643              		.loc 1 1236 35 is_stmt 0 view .LVU2215
 5644 025a 4FF0010C 		mov	ip, #1
 5645 025e 0CFA03F3 		lsl	r3, ip, r3
 5646              	.LVL797:
1236:Src/maze_solve.c ****         } else {
 5647              		.loc 1 1236 35 view .LVU2216
 5648 0262 DBB2     		uxtb	r3, r3
 5649              	.LVL798:
 5650              	.L497:
1241:Src/maze_solve.c ****                  [(unsigned short)(1 + q0) - 1] - 1) << 5)) - 1] & h_k) != 0) ==
 5651              		.loc 1 1241 9 is_stmt 1 view .LVU2217
1241:Src/maze_solve.c ****                  [(unsigned short)(1 + q0) - 1] - 1) << 5)) - 1] & h_k) != 0) ==
ARM GAS  C:\Temp\ccX6Vjzt.s 			page 165


 5652              		.loc 1 1241 24 is_stmt 0 view .LVU2218
 5653 0264 19F802C0 		ldrb	ip, [r9, r2]	@ zero_extendqisi2
1242:Src/maze_solve.c ****             wall->contents.nowall) {
 5654              		.loc 1 1242 73 view .LVU2219
 5655 0268 1CEA030F 		tst	ip, r3
 5656 026c 14BF     		ite	ne
 5657 026e 4FF0010E 		movne	lr, #1
 5658 0272 4FF0000E 		moveq	lr, #0
1243:Src/maze_solve.c ****           k = g_direction->contents.West;
 5659              		.loc 1 1243 27 view .LVU2220
 5660 0276 96F800C0 		ldrb	ip, [r6]	@ zero_extendqisi2
1241:Src/maze_solve.c ****                  [(unsigned short)(1 + q0) - 1] - 1) << 5)) - 1] & h_k) != 0) ==
 5661              		.loc 1 1241 12 view .LVU2221
 5662 027a E645     		cmp	lr, ip
 5663 027c 00F0B280 		beq	.L528
 5664              	.LVL799:
 5665              	.L498:
1121:Src/maze_solve.c ****         /* 北側 */
 5666              		.loc 1 1121 34 is_stmt 1 discriminator 2 view .LVU2222
1121:Src/maze_solve.c ****         /* 北側 */
 5667              		.loc 1 1121 36 is_stmt 0 discriminator 2 view .LVU2223
 5668 0280 0131     		adds	r1, r1, #1
 5669              	.LVL800:
 5670              	.L488:
1121:Src/maze_solve.c ****         /* 北側 */
 5671              		.loc 1 1121 20 is_stmt 1 discriminator 1 view .LVU2224
1121:Src/maze_solve.c ****         /* 北側 */
 5672              		.loc 1 1121 7 is_stmt 0 discriminator 1 view .LVU2225
 5673 0282 029B     		ldr	r3, [sp, #8]
 5674 0284 9942     		cmp	r1, r3
 5675 0286 80F2D180 		bge	.L529
1124:Src/maze_solve.c ****         i6 = (unsigned short)(1 + q0) - 1;
 5676              		.loc 1 1124 9 is_stmt 1 view .LVU2226
1124:Src/maze_solve.c ****         i6 = (unsigned short)(1 + q0) - 1;
 5677              		.loc 1 1124 11 is_stmt 0 view .LVU2227
 5678 028a 2A78     		ldrb	r2, [r5]	@ zero_extendqisi2
 5679              	.LVL801:
1125:Src/maze_solve.c ****         idx = (col_data[i6] - 1) << 5;
 5680              		.loc 1 1125 9 is_stmt 1 view .LVU2228
1125:Src/maze_solve.c ****         idx = (col_data[i6] - 1) << 5;
 5681              		.loc 1 1125 14 is_stmt 0 view .LVU2229
 5682 028c 481C     		adds	r0, r1, #1
 5683 028e 80B2     		uxth	r0, r0
1125:Src/maze_solve.c ****         idx = (col_data[i6] - 1) << 5;
 5684              		.loc 1 1125 12 view .LVU2230
 5685 0290 0138     		subs	r0, r0, #1
 5686              	.LVL802:
1126:Src/maze_solve.c ****         i6 = row_data[i6] + idx;
 5687              		.loc 1 1126 9 is_stmt 1 view .LVU2231
1126:Src/maze_solve.c ****         i6 = row_data[i6] + idx;
 5688              		.loc 1 1126 24 is_stmt 0 view .LVU2232
 5689 0292 07AB     		add	r3, sp, #28
 5690 0294 1F5C     		ldrb	r7, [r3, r0]	@ zero_extendqisi2
1126:Src/maze_solve.c ****         i6 = row_data[i6] + idx;
 5691              		.loc 1 1126 29 view .LVU2233
 5692 0296 7B1E     		subs	r3, r7, #1
1126:Src/maze_solve.c ****         i6 = row_data[i6] + idx;
ARM GAS  C:\Temp\ccX6Vjzt.s 			page 166


 5693              		.loc 1 1126 13 view .LVU2234
 5694 0298 4FEA431A 		lsl	r10, r3, #5
 5695              	.LVL803:
1127:Src/maze_solve.c ****         i7 = i6 - 1;
 5696              		.loc 1 1127 9 is_stmt 1 view .LVU2235
1127:Src/maze_solve.c ****         i7 = i6 - 1;
 5697              		.loc 1 1127 22 is_stmt 0 view .LVU2236
 5698 029c 0DF21C4C 		addw	ip, sp, #1052
 5699 02a0 1CF80000 		ldrb	r0, [ip, r0]	@ zero_extendqisi2
 5700              	.LVL804:
1127:Src/maze_solve.c ****         i7 = i6 - 1;
 5701              		.loc 1 1127 12 view .LVU2237
 5702 02a4 00EB4313 		add	r3, r0, r3, lsl #5
 5703              	.LVL805:
1128:Src/maze_solve.c ****         if (k <= 7) {
 5704              		.loc 1 1128 9 is_stmt 1 view .LVU2238
1128:Src/maze_solve.c ****         if (k <= 7) {
 5705              		.loc 1 1128 12 is_stmt 0 view .LVU2239
 5706 02a8 03F1FF3C 		add	ip, r3, #-1
 5707              	.LVL806:
1129:Src/maze_solve.c ****           b_k = (unsigned char)(1 << k);
 5708              		.loc 1 1129 9 is_stmt 1 view .LVU2240
1129:Src/maze_solve.c ****           b_k = (unsigned char)(1 << k);
 5709              		.loc 1 1129 12 is_stmt 0 view .LVU2241
 5710 02ac 072A     		cmp	r2, #7
 5711 02ae 90D8     		bhi	.L511
1130:Src/maze_solve.c ****         } else {
 5712              		.loc 1 1130 11 is_stmt 1 view .LVU2242
1130:Src/maze_solve.c ****         } else {
 5713              		.loc 1 1130 35 is_stmt 0 view .LVU2243
 5714 02b0 4FF0010E 		mov	lr, #1
 5715 02b4 0EFA02F2 		lsl	r2, lr, r2
 5716              	.LVL807:
1130:Src/maze_solve.c ****         } else {
 5717              		.loc 1 1130 35 view .LVU2244
 5718 02b8 D2B2     		uxtb	r2, r2
 5719              	.LVL808:
1130:Src/maze_solve.c ****         } else {
 5720              		.loc 1 1130 35 view .LVU2245
 5721 02ba 8BE7     		b	.L489
 5722              	.L525:
1136:Src/maze_solve.c ****           if (k <= 7) {
 5723              		.loc 1 1136 11 is_stmt 1 view .LVU2246
1137:Src/maze_solve.c ****             c_k = (unsigned char)(1 << k);
 5724              		.loc 1 1137 11 view .LVU2247
 5725              	.LVL809:
1143:Src/maze_solve.c ****             /* 北側のMAPが更新されているか判断、されていなければ書き込み
 5726              		.loc 1 1143 11 view .LVU2248
1143:Src/maze_solve.c ****             /* 北側のMAPが更新されているか判断、されていなければ書き込み
 5727              		.loc 1 1143 33 is_stmt 0 view .LVU2249
 5728 02bc 0DF5C354 		add	r4, sp, #6240
 5729              	.LVL810:
1143:Src/maze_solve.c ****             /* 北側のMAPが更新されているか判断、されていなければ書き込み
 5730              		.loc 1 1143 33 view .LVU2250
 5731 02c0 2468     		ldr	r4, [r4]
 5732              	.LVL811:
1143:Src/maze_solve.c ****             /* 北側のMAPが更新されているか判断、されていなければ書き込み
ARM GAS  C:\Temp\ccX6Vjzt.s 			page 167


 5733              		.loc 1 1143 33 view .LVU2251
 5734 02c2 14F80CC0 		ldrb	ip, [r4, ip]	@ zero_extendqisi2
 5735              	.LVL812:
1143:Src/maze_solve.c ****             /* 北側のMAPが更新されているか判断、されていなければ書き込み
 5736              		.loc 1 1143 45 view .LVU2252
 5737 02c6 1CEA020F 		tst	ip, r2
 5738 02ca 14BF     		ite	ne
 5739 02cc 4FF0010C 		movne	ip, #1
 5740 02d0 4FF0000C 		moveq	ip, #0
1143:Src/maze_solve.c ****             /* 北側のMAPが更新されているか判断、されていなければ書き込み
 5741              		.loc 1 1143 70 view .LVU2253
 5742 02d4 9BF80120 		ldrb	r2, [fp, #1]	@ zero_extendqisi2
 5743              	.LVL813:
1143:Src/maze_solve.c ****             /* 北側のMAPが更新されているか判断、されていなければ書き込み
 5744              		.loc 1 1143 14 view .LVU2254
 5745 02d8 9445     		cmp	ip, r2
 5746 02da 88D1     		bne	.L490
1145:Src/maze_solve.c ****             i8 = i7;
 5747              		.loc 1 1145 13 is_stmt 1 view .LVU2255
1145:Src/maze_solve.c ****             i8 = i7;
 5748              		.loc 1 1145 63 is_stmt 0 view .LVU2256
 5749 02dc 421C     		adds	r2, r0, #1
 5750              	.LVL814:
1146:Src/maze_solve.c ****             if ((unsigned int)i7 > 255U) {
 5751              		.loc 1 1146 13 is_stmt 1 view .LVU2257
1147:Src/maze_solve.c ****               i8 = 255;
 5752              		.loc 1 1147 13 view .LVU2258
1147:Src/maze_solve.c ****               i8 = 255;
 5753              		.loc 1 1147 16 is_stmt 0 view .LVU2259
 5754 02de FF2A     		cmp	r2, #255
 5755 02e0 00D9     		bls	.L491
 5756              	.LVL815:
1148:Src/maze_solve.c ****             }
 5757              		.loc 1 1148 18 view .LVU2260
 5758 02e2 FF22     		movs	r2, #255
 5759              	.LVL816:
 5760              	.L491:
1151:Src/maze_solve.c ****               if ((unsigned int)i7 > 255U) {
 5761              		.loc 1 1151 13 is_stmt 1 view .LVU2261
1151:Src/maze_solve.c ****               if ((unsigned int)i7 > 255U) {
 5762              		.loc 1 1151 33 is_stmt 0 view .LVU2262
 5763 02e4 9244     		add	r10, r10, r2
 5764              	.LVL817:
1151:Src/maze_solve.c ****               if ((unsigned int)i7 > 255U) {
 5765              		.loc 1 1151 28 view .LVU2263
 5766 02e6 0AF1FF3A 		add	r10, r10, #-1
 5767 02ea 0DF5C352 		add	r2, sp, #6240
 5768              	.LVL818:
1151:Src/maze_solve.c ****               if ((unsigned int)i7 > 255U) {
 5769              		.loc 1 1151 28 view .LVU2264
 5770 02ee 0432     		adds	r2, r2, #4
 5771              	.LVL819:
1151:Src/maze_solve.c ****               if ((unsigned int)i7 > 255U) {
 5772              		.loc 1 1151 28 view .LVU2265
 5773 02f0 1268     		ldr	r2, [r2]
 5774              	.LVL820:
1151:Src/maze_solve.c ****               if ((unsigned int)i7 > 255U) {
ARM GAS  C:\Temp\ccX6Vjzt.s 			page 168


 5775              		.loc 1 1151 28 view .LVU2266
 5776 02f2 12F80A20 		ldrb	r2, [r2, r10]	@ zero_extendqisi2
1151:Src/maze_solve.c ****               if ((unsigned int)i7 > 255U) {
 5777              		.loc 1 1151 16 view .LVU2267
 5778 02f6 039C     		ldr	r4, [sp, #12]
 5779 02f8 9442     		cmp	r4, r2
 5780 02fa 7FF478AF 		bne	.L490
1152:Src/maze_solve.c ****                 i7 = 255;
 5781              		.loc 1 1152 15 is_stmt 1 view .LVU2268
1156:Src/maze_solve.c ****               change_flag = 1U;
 5782              		.loc 1 1156 15 view .LVU2269
1156:Src/maze_solve.c ****               change_flag = 1U;
 5783              		.loc 1 1156 45 is_stmt 0 view .LVU2270
 5784 02fe 019A     		ldr	r2, [sp, #4]
 5785 0300 0132     		adds	r2, r2, #1
1156:Src/maze_solve.c ****               change_flag = 1U;
 5786              		.loc 1 1156 43 view .LVU2271
 5787 0302 0DF5C354 		add	r4, sp, #6240
 5788              	.LVL821:
1156:Src/maze_solve.c ****               change_flag = 1U;
 5789              		.loc 1 1156 43 view .LVU2272
 5790 0306 0434     		adds	r4, r4, #4
 5791              	.LVL822:
1156:Src/maze_solve.c ****               change_flag = 1U;
 5792              		.loc 1 1156 43 view .LVU2273
 5793 0308 2468     		ldr	r4, [r4]
 5794              	.LVL823:
1156:Src/maze_solve.c ****               change_flag = 1U;
 5795              		.loc 1 1156 43 view .LVU2274
 5796 030a 04F80A20 		strb	r2, [r4, r10]
 5797              	.LVL824:
1157:Src/maze_solve.c ****             }
 5798              		.loc 1 1157 15 is_stmt 1 view .LVU2275
1157:Src/maze_solve.c ****             }
 5799              		.loc 1 1157 27 is_stmt 0 view .LVU2276
 5800 030e 0122     		movs	r2, #1
 5801 0310 0492     		str	r2, [sp, #16]
 5802 0312 6CE7     		b	.L490
 5803              	.LVL825:
 5804              	.L513:
1167:Src/maze_solve.c ****         }
 5805              		.loc 1 1167 15 view .LVU2277
 5806 0314 4FF0000C 		mov	ip, #0
 5807 0318 73E7     		b	.L492
 5808              	.LVL826:
 5809              	.L526:
1173:Src/maze_solve.c ****           if (k <= 7) {
 5810              		.loc 1 1173 11 is_stmt 1 view .LVU2278
1174:Src/maze_solve.c ****             e_k = (unsigned char)(1 << k);
 5811              		.loc 1 1174 11 view .LVU2279
1180:Src/maze_solve.c ****                                   ((col_data[(unsigned short)(1 + q0) - 1] - 1) <<
 5812              		.loc 1 1180 11 view .LVU2280
1180:Src/maze_solve.c ****                                   ((col_data[(unsigned short)(1 + q0) - 1] - 1) <<
 5813              		.loc 1 1180 33 is_stmt 0 view .LVU2281
 5814 031a 0DF5C354 		add	r4, sp, #6240
 5815              	.LVL827:
1180:Src/maze_solve.c ****                                   ((col_data[(unsigned short)(1 + q0) - 1] - 1) <<
ARM GAS  C:\Temp\ccX6Vjzt.s 			page 169


 5816              		.loc 1 1180 33 view .LVU2282
 5817 031e 2468     		ldr	r4, [r4]
 5818              	.LVL828:
1180:Src/maze_solve.c ****                                   ((col_data[(unsigned short)(1 + q0) - 1] - 1) <<
 5819              		.loc 1 1180 33 view .LVU2283
 5820 0320 14F802E0 		ldrb	lr, [r4, r2]	@ zero_extendqisi2
1182:Src/maze_solve.c ****             /* 東側のMAPが更新されているか判断、されていなければ書き込み
 5821              		.loc 1 1182 35 view .LVU2284
 5822 0324 1EEA0C0F 		tst	lr, ip
 5823 0328 14BF     		ite	ne
 5824 032a 4FF0010E 		movne	lr, #1
 5825 032e 4FF0000E 		moveq	lr, #0
1182:Src/maze_solve.c ****             /* 東側のMAPが更新されているか判断、されていなければ書き込み
 5826              		.loc 1 1182 60 view .LVU2285
 5827 0332 9BF801C0 		ldrb	ip, [fp, #1]	@ zero_extendqisi2
 5828              	.LVL829:
1180:Src/maze_solve.c ****                                   ((col_data[(unsigned short)(1 + q0) - 1] - 1) <<
 5829              		.loc 1 1180 14 view .LVU2286
 5830 0336 E645     		cmp	lr, ip
 5831 0338 7FF471AF 		bne	.L493
1184:Src/maze_solve.c ****             i7 = idx;
 5832              		.loc 1 1184 13 is_stmt 1 view .LVU2287
1184:Src/maze_solve.c ****             i7 = idx;
 5833              		.loc 1 1184 64 is_stmt 0 view .LVU2288
 5834 033c 07F1010C 		add	ip, r7, #1
 5835              	.LVL830:
1185:Src/maze_solve.c ****             if ((unsigned int)idx > 255U) {
 5836              		.loc 1 1185 13 is_stmt 1 view .LVU2289
1186:Src/maze_solve.c ****               i7 = 255;
 5837              		.loc 1 1186 13 view .LVU2290
1186:Src/maze_solve.c ****               i7 = 255;
 5838              		.loc 1 1186 16 is_stmt 0 view .LVU2291
 5839 0340 BCF1FF0F 		cmp	ip, #255
 5840 0344 01D9     		bls	.L494
 5841              	.LVL831:
1187:Src/maze_solve.c ****             }
 5842              		.loc 1 1187 18 view .LVU2292
 5843 0346 4FF0FF0C 		mov	ip, #255
 5844              	.LVL832:
 5845              	.L494:
1190:Src/maze_solve.c ****                   5)) - 1] == (unsigned char)qY) {
 5846              		.loc 1 1190 13 is_stmt 1 view .LVU2293
1190:Src/maze_solve.c ****                   5)) - 1] == (unsigned char)qY) {
 5847              		.loc 1 1190 76 is_stmt 0 view .LVU2294
 5848 034a 0CF1FF3C 		add	ip, ip, #-1
1190:Src/maze_solve.c ****                   5)) - 1] == (unsigned char)qY) {
 5849              		.loc 1 1190 69 view .LVU2295
 5850 034e 00EB4C1C 		add	ip, r0, ip, lsl #5
1190:Src/maze_solve.c ****                   5)) - 1] == (unsigned char)qY) {
 5851              		.loc 1 1190 28 view .LVU2296
 5852 0352 0CF1FF3C 		add	ip, ip, #-1
 5853 0356 0DF5C354 		add	r4, sp, #6240
 5854              	.LVL833:
1190:Src/maze_solve.c ****                   5)) - 1] == (unsigned char)qY) {
 5855              		.loc 1 1190 28 view .LVU2297
 5856 035a 0434     		adds	r4, r4, #4
 5857              	.LVL834:
ARM GAS  C:\Temp\ccX6Vjzt.s 			page 170


1190:Src/maze_solve.c ****                   5)) - 1] == (unsigned char)qY) {
 5858              		.loc 1 1190 28 view .LVU2298
 5859 035c 2468     		ldr	r4, [r4]
 5860              	.LVL835:
1190:Src/maze_solve.c ****                   5)) - 1] == (unsigned char)qY) {
 5861              		.loc 1 1190 28 view .LVU2299
 5862 035e 14F80CE0 		ldrb	lr, [r4, ip]	@ zero_extendqisi2
1190:Src/maze_solve.c ****                   5)) - 1] == (unsigned char)qY) {
 5863              		.loc 1 1190 16 view .LVU2300
 5864 0362 039C     		ldr	r4, [sp, #12]
 5865 0364 7445     		cmp	r4, lr
 5866 0366 7FF45AAF 		bne	.L493
1192:Src/maze_solve.c ****                 idx = 255;
 5867              		.loc 1 1192 15 is_stmt 1 view .LVU2301
1196:Src/maze_solve.c ****                 5)) - 1] = (unsigned char)(tempi + 1);
 5868              		.loc 1 1196 15 view .LVU2302
1197:Src/maze_solve.c ****               change_flag = 1U;
 5869              		.loc 1 1197 28 is_stmt 0 view .LVU2303
 5870 036a 019C     		ldr	r4, [sp, #4]
 5871 036c 04F1010E 		add	lr, r4, #1
1197:Src/maze_solve.c ****               change_flag = 1U;
 5872              		.loc 1 1197 26 view .LVU2304
 5873 0370 0DF5C354 		add	r4, sp, #6240
 5874              	.LVL836:
1197:Src/maze_solve.c ****               change_flag = 1U;
 5875              		.loc 1 1197 26 view .LVU2305
 5876 0374 0434     		adds	r4, r4, #4
 5877              	.LVL837:
1197:Src/maze_solve.c ****               change_flag = 1U;
 5878              		.loc 1 1197 26 view .LVU2306
 5879 0376 2468     		ldr	r4, [r4]
 5880              	.LVL838:
1197:Src/maze_solve.c ****               change_flag = 1U;
 5881              		.loc 1 1197 26 view .LVU2307
 5882 0378 04F80CE0 		strb	lr, [r4, ip]
 5883              	.LVL839:
1198:Src/maze_solve.c ****             }
 5884              		.loc 1 1198 15 is_stmt 1 view .LVU2308
1198:Src/maze_solve.c ****             }
 5885              		.loc 1 1198 27 is_stmt 0 view .LVU2309
 5886 037c 0124     		movs	r4, #1
 5887 037e 0494     		str	r4, [sp, #16]
 5888 0380 4DE7     		b	.L493
 5889              	.LVL840:
 5890              	.L515:
1208:Src/maze_solve.c ****         }
 5891              		.loc 1 1208 15 view .LVU2310
 5892 0382 4FF0000C 		mov	ip, #0
 5893              	.LVL841:
1208:Src/maze_solve.c ****         }
 5894              		.loc 1 1208 15 view .LVU2311
 5895 0386 56E7     		b	.L495
 5896              	.LVL842:
 5897              	.L527:
1214:Src/maze_solve.c ****           if (k <= 7) {
 5898              		.loc 1 1214 11 is_stmt 1 view .LVU2312
1215:Src/maze_solve.c ****             g_k = (unsigned char)(1 << k);
ARM GAS  C:\Temp\ccX6Vjzt.s 			page 171


 5899              		.loc 1 1215 11 view .LVU2313
1221:Src/maze_solve.c ****                                   ((col_data[(unsigned short)(1 + q0) - 1] - 1) <<
 5900              		.loc 1 1221 11 view .LVU2314
1221:Src/maze_solve.c ****                                   ((col_data[(unsigned short)(1 + q0) - 1] - 1) <<
 5901              		.loc 1 1221 33 is_stmt 0 view .LVU2315
 5902 0388 0DF5C354 		add	r4, sp, #6240
 5903              	.LVL843:
1221:Src/maze_solve.c ****                                   ((col_data[(unsigned short)(1 + q0) - 1] - 1) <<
 5904              		.loc 1 1221 33 view .LVU2316
 5905 038c 2468     		ldr	r4, [r4]
 5906              	.LVL844:
1221:Src/maze_solve.c ****                                   ((col_data[(unsigned short)(1 + q0) - 1] - 1) <<
 5907              		.loc 1 1221 33 view .LVU2317
 5908 038e 14F802E0 		ldrb	lr, [r4, r2]	@ zero_extendqisi2
1223:Src/maze_solve.c ****             /* 南側のMAPが更新されているか判断、されていなければ書き込み
 5909              		.loc 1 1223 35 view .LVU2318
 5910 0392 1EEA0C0F 		tst	lr, ip
 5911 0396 14BF     		ite	ne
 5912 0398 4FF0010E 		movne	lr, #1
 5913 039c 4FF0000E 		moveq	lr, #0
1223:Src/maze_solve.c ****             /* 南側のMAPが更新されているか判断、されていなければ書き込み
 5914              		.loc 1 1223 60 view .LVU2319
 5915 03a0 9BF801C0 		ldrb	ip, [fp, #1]	@ zero_extendqisi2
 5916              	.LVL845:
1221:Src/maze_solve.c ****                                   ((col_data[(unsigned short)(1 + q0) - 1] - 1) <<
 5917              		.loc 1 1221 14 view .LVU2320
 5918 03a4 E645     		cmp	lr, ip
 5919 03a6 7FF454AF 		bne	.L496
1225:Src/maze_solve.c ****             if (contour_map[i6] == (unsigned char)qY) {
 5920              		.loc 1 1225 13 is_stmt 1 view .LVU2321
1225:Src/maze_solve.c ****             if (contour_map[i6] == (unsigned char)qY) {
 5921              		.loc 1 1225 16 is_stmt 0 view .LVU2322
 5922 03aa 023B     		subs	r3, r3, #2
 5923              	.LVL846:
1226:Src/maze_solve.c ****               contour_map[i6] = (unsigned char)(tempi + 1);
 5924              		.loc 1 1226 13 is_stmt 1 view .LVU2323
1226:Src/maze_solve.c ****               contour_map[i6] = (unsigned char)(tempi + 1);
 5925              		.loc 1 1226 28 is_stmt 0 view .LVU2324
 5926 03ac 0DF5C354 		add	r4, sp, #6240
 5927              	.LVL847:
1226:Src/maze_solve.c ****               contour_map[i6] = (unsigned char)(tempi + 1);
 5928              		.loc 1 1226 28 view .LVU2325
 5929 03b0 0434     		adds	r4, r4, #4
 5930              	.LVL848:
1226:Src/maze_solve.c ****               contour_map[i6] = (unsigned char)(tempi + 1);
 5931              		.loc 1 1226 28 view .LVU2326
 5932 03b2 2468     		ldr	r4, [r4]
 5933              	.LVL849:
1226:Src/maze_solve.c ****               contour_map[i6] = (unsigned char)(tempi + 1);
 5934              		.loc 1 1226 28 view .LVU2327
 5935 03b4 14F803C0 		ldrb	ip, [r4, r3]	@ zero_extendqisi2
1226:Src/maze_solve.c ****               contour_map[i6] = (unsigned char)(tempi + 1);
 5936              		.loc 1 1226 16 view .LVU2328
 5937 03b8 039C     		ldr	r4, [sp, #12]
 5938 03ba 6445     		cmp	r4, ip
 5939 03bc 7FF449AF 		bne	.L496
1227:Src/maze_solve.c ****               change_flag = 1U;
ARM GAS  C:\Temp\ccX6Vjzt.s 			page 172


 5940              		.loc 1 1227 15 is_stmt 1 view .LVU2329
1227:Src/maze_solve.c ****               change_flag = 1U;
 5941              		.loc 1 1227 33 is_stmt 0 view .LVU2330
 5942 03c0 019C     		ldr	r4, [sp, #4]
 5943 03c2 04F1010C 		add	ip, r4, #1
1227:Src/maze_solve.c ****               change_flag = 1U;
 5944              		.loc 1 1227 31 view .LVU2331
 5945 03c6 0DF5C354 		add	r4, sp, #6240
 5946              	.LVL850:
1227:Src/maze_solve.c ****               change_flag = 1U;
 5947              		.loc 1 1227 31 view .LVU2332
 5948 03ca 0434     		adds	r4, r4, #4
 5949              	.LVL851:
1227:Src/maze_solve.c ****               change_flag = 1U;
 5950              		.loc 1 1227 31 view .LVU2333
 5951 03cc 2468     		ldr	r4, [r4]
 5952              	.LVL852:
1227:Src/maze_solve.c ****               change_flag = 1U;
 5953              		.loc 1 1227 31 view .LVU2334
 5954 03ce 04F803C0 		strb	ip, [r4, r3]
 5955              	.LVL853:
1228:Src/maze_solve.c ****             }
 5956              		.loc 1 1228 15 is_stmt 1 view .LVU2335
1228:Src/maze_solve.c ****             }
 5957              		.loc 1 1228 27 is_stmt 0 view .LVU2336
 5958 03d2 0123     		movs	r3, #1
 5959              	.LVL854:
1228:Src/maze_solve.c ****             }
 5960              		.loc 1 1228 27 view .LVU2337
 5961 03d4 0493     		str	r3, [sp, #16]
 5962 03d6 3CE7     		b	.L496
 5963              	.LVL855:
 5964              	.L516:
1238:Src/maze_solve.c ****         }
 5965              		.loc 1 1238 15 view .LVU2338
 5966 03d8 0023     		movs	r3, #0
 5967              	.LVL856:
1238:Src/maze_solve.c ****         }
 5968              		.loc 1 1238 15 view .LVU2339
 5969 03da 43E7     		b	.L497
 5970              	.L532:
 5971              		.align	2
 5972              	.L531:
 5973 03dc 00000000 		.word	.LANCHOR6
 5974 03e0 00000000 		.word	.LANCHOR7
 5975              	.LVL857:
 5976              	.L528:
1244:Src/maze_solve.c ****           if (k <= 7) {
 5977              		.loc 1 1244 11 is_stmt 1 view .LVU2340
1245:Src/maze_solve.c ****             i_k = (unsigned char)(1 << k);
 5978              		.loc 1 1245 11 view .LVU2341
1251:Src/maze_solve.c ****                                   ((col_data[(unsigned short)(1 + q0) - 1] - 1) <<
 5979              		.loc 1 1251 11 view .LVU2342
1251:Src/maze_solve.c ****                                   ((col_data[(unsigned short)(1 + q0) - 1] - 1) <<
 5980              		.loc 1 1251 33 is_stmt 0 view .LVU2343
 5981 03e4 0DF5C354 		add	r4, sp, #6240
 5982              	.LVL858:
ARM GAS  C:\Temp\ccX6Vjzt.s 			page 173


1251:Src/maze_solve.c ****                                   ((col_data[(unsigned short)(1 + q0) - 1] - 1) <<
 5983              		.loc 1 1251 33 view .LVU2344
 5984 03e8 2468     		ldr	r4, [r4]
 5985              	.LVL859:
1251:Src/maze_solve.c ****                                   ((col_data[(unsigned short)(1 + q0) - 1] - 1) <<
 5986              		.loc 1 1251 33 view .LVU2345
 5987 03ea A25C     		ldrb	r2, [r4, r2]	@ zero_extendqisi2
1253:Src/maze_solve.c ****             /* 西側のMAPが更新されているか判断、されていなければ書き込み
 5988              		.loc 1 1253 35 view .LVU2346
 5989 03ec 1A42     		tst	r2, r3
 5990 03ee 14BF     		ite	ne
 5991 03f0 0122     		movne	r2, #1
 5992 03f2 0022     		moveq	r2, #0
1253:Src/maze_solve.c ****             /* 西側のMAPが更新されているか判断、されていなければ書き込み
 5993              		.loc 1 1253 60 view .LVU2347
 5994 03f4 9BF80130 		ldrb	r3, [fp, #1]	@ zero_extendqisi2
 5995              	.LVL860:
1251:Src/maze_solve.c ****                                   ((col_data[(unsigned short)(1 + q0) - 1] - 1) <<
 5996              		.loc 1 1251 14 view .LVU2348
 5997 03f8 9A42     		cmp	r2, r3
 5998 03fa 7FF441AF 		bne	.L498
1255:Src/maze_solve.c ****                      short)(1 + q0) - 1] - 2) << 5)) - 1;
 5999              		.loc 1 1255 13 is_stmt 1 view .LVU2349
1256:Src/maze_solve.c ****             if (contour_map[i6] == (unsigned char)qY) {
 6000              		.loc 1 1256 42 is_stmt 0 view .LVU2350
 6001 03fe 023F     		subs	r7, r7, #2
1255:Src/maze_solve.c ****                      short)(1 + q0) - 1] - 2) << 5)) - 1;
 6002              		.loc 1 1255 58 view .LVU2351
 6003 0400 00EB4710 		add	r0, r0, r7, lsl #5
1255:Src/maze_solve.c ****                      short)(1 + q0) - 1] - 2) << 5)) - 1;
 6004              		.loc 1 1255 16 view .LVU2352
 6005 0404 0138     		subs	r0, r0, #1
 6006              	.LVL861:
1257:Src/maze_solve.c ****               contour_map[i6] = (unsigned char)(tempi + 1);
 6007              		.loc 1 1257 13 is_stmt 1 view .LVU2353
1257:Src/maze_solve.c ****               contour_map[i6] = (unsigned char)(tempi + 1);
 6008              		.loc 1 1257 28 is_stmt 0 view .LVU2354
 6009 0406 0DF5C353 		add	r3, sp, #6240
 6010              	.LVL862:
1257:Src/maze_solve.c ****               contour_map[i6] = (unsigned char)(tempi + 1);
 6011              		.loc 1 1257 28 view .LVU2355
 6012 040a 0433     		adds	r3, r3, #4
 6013              	.LVL863:
1257:Src/maze_solve.c ****               contour_map[i6] = (unsigned char)(tempi + 1);
 6014              		.loc 1 1257 28 view .LVU2356
 6015 040c 1B68     		ldr	r3, [r3]
 6016              	.LVL864:
1257:Src/maze_solve.c ****               contour_map[i6] = (unsigned char)(tempi + 1);
 6017              		.loc 1 1257 28 view .LVU2357
 6018 040e 1B5C     		ldrb	r3, [r3, r0]	@ zero_extendqisi2
1257:Src/maze_solve.c ****               contour_map[i6] = (unsigned char)(tempi + 1);
 6019              		.loc 1 1257 16 view .LVU2358
 6020 0410 039A     		ldr	r2, [sp, #12]
 6021 0412 9A42     		cmp	r2, r3
 6022 0414 7FF434AF 		bne	.L498
1258:Src/maze_solve.c ****               change_flag = 1U;
 6023              		.loc 1 1258 15 is_stmt 1 view .LVU2359
ARM GAS  C:\Temp\ccX6Vjzt.s 			page 174


1258:Src/maze_solve.c ****               change_flag = 1U;
 6024              		.loc 1 1258 33 is_stmt 0 view .LVU2360
 6025 0418 019B     		ldr	r3, [sp, #4]
 6026 041a 0133     		adds	r3, r3, #1
1258:Src/maze_solve.c ****               change_flag = 1U;
 6027              		.loc 1 1258 31 view .LVU2361
 6028 041c 0DF5C352 		add	r2, sp, #6240
 6029              	.LVL865:
1258:Src/maze_solve.c ****               change_flag = 1U;
 6030              		.loc 1 1258 31 view .LVU2362
 6031 0420 0432     		adds	r2, r2, #4
 6032              	.LVL866:
1258:Src/maze_solve.c ****               change_flag = 1U;
 6033              		.loc 1 1258 31 view .LVU2363
 6034 0422 1268     		ldr	r2, [r2]
 6035              	.LVL867:
1258:Src/maze_solve.c ****               change_flag = 1U;
 6036              		.loc 1 1258 31 view .LVU2364
 6037 0424 1354     		strb	r3, [r2, r0]
 6038              	.LVL868:
1259:Src/maze_solve.c ****             }
 6039              		.loc 1 1259 15 is_stmt 1 view .LVU2365
1259:Src/maze_solve.c ****             }
 6040              		.loc 1 1259 27 is_stmt 0 view .LVU2366
 6041 0426 0123     		movs	r3, #1
 6042 0428 0493     		str	r3, [sp, #16]
 6043 042a 29E7     		b	.L498
 6044              	.LVL869:
 6045              	.L529:
1259:Src/maze_solve.c ****             }
 6046              		.loc 1 1259 27 view .LVU2367
 6047 042c 0DF5C353 		add	r3, sp, #6240
 6048              	.LVL870:
1259:Src/maze_solve.c ****             }
 6049              		.loc 1 1259 27 view .LVU2368
 6050 0430 0433     		adds	r3, r3, #4
 6051              	.LVL871:
1259:Src/maze_solve.c ****             }
 6052              		.loc 1 1259 27 view .LVU2369
 6053 0432 D3F800B0 		ldr	fp, [r3]
1042:Src/maze_solve.c ****       /* 歩数カウントは0~max_length */
 6054              		.loc 1 1042 43 is_stmt 1 discriminator 2 view .LVU2370
1042:Src/maze_solve.c ****       /* 歩数カウントは0~max_length */
 6055              		.loc 1 1042 48 is_stmt 0 discriminator 2 view .LVU2371
 6056 0436 019B     		ldr	r3, [sp, #4]
 6057              	.LVL872:
1042:Src/maze_solve.c ****       /* 歩数カウントは0~max_length */
 6058              		.loc 1 1042 48 discriminator 2 view .LVU2372
 6059 0438 0133     		adds	r3, r3, #1
 6060 043a DBB2     		uxtb	r3, r3
 6061 043c 0193     		str	r3, [sp, #4]
 6062              	.LVL873:
 6063              	.L468:
1042:Src/maze_solve.c ****       /* 歩数カウントは0~max_length */
 6064              		.loc 1 1042 21 is_stmt 1 discriminator 1 view .LVU2373
1042:Src/maze_solve.c ****       /* 歩数カウントは0~max_length */
 6065              		.loc 1 1042 30 is_stmt 0 discriminator 1 view .LVU2374
ARM GAS  C:\Temp\ccX6Vjzt.s 			page 175


 6066 043e 0DF5C353 		add	r3, sp, #6240
 6067              	.LVL874:
1042:Src/maze_solve.c ****       /* 歩数カウントは0~max_length */
 6068              		.loc 1 1042 30 discriminator 1 view .LVU2375
 6069 0442 0833     		adds	r3, r3, #8
 6070              	.LVL875:
1042:Src/maze_solve.c ****       /* 歩数カウントは0~max_length */
 6071              		.loc 1 1042 30 discriminator 1 view .LVU2376
 6072 0444 1B68     		ldr	r3, [r3]
 6073              	.LVL876:
1042:Src/maze_solve.c ****       /* 歩数カウントは0~max_length */
 6074              		.loc 1 1042 30 discriminator 1 view .LVU2377
 6075 0446 1B78     		ldrb	r3, [r3]	@ zero_extendqisi2
1042:Src/maze_solve.c ****       /* 歩数カウントは0~max_length */
 6076              		.loc 1 1042 5 discriminator 1 view .LVU2378
 6077 0448 019A     		ldr	r2, [sp, #4]
 6078 044a 9342     		cmp	r3, r2
 6079 044c 03D3     		bcc	.L530
1048:Src/maze_solve.c ****       while ((!exitg1) && (q0 < 1024)) {
 6080              		.loc 1 1048 14 view .LVU2379
 6081 044e 0021     		movs	r1, #0
1046:Src/maze_solve.c ****       q0 = 0;
 6082              		.loc 1 1046 11 view .LVU2380
 6083 0450 0F46     		mov	r7, r1
1047:Src/maze_solve.c ****       exitg1 = false;
 6084              		.loc 1 1047 10 view .LVU2381
 6085 0452 0B46     		mov	r3, r1
 6086 0454 29E6     		b	.L500
 6087              	.L530:
1267:Src/maze_solve.c **** }
 6088              		.loc 1 1267 11 is_stmt 1 view .LVU2382
1267:Src/maze_solve.c **** }
 6089              		.loc 1 1267 3 is_stmt 0 view .LVU2383
 6090 0456 049B     		ldr	r3, [sp, #16]
 6091 0458 002B     		cmp	r3, #0
 6092 045a 7FF421AE 		bne	.L501
1268:Src/maze_solve.c **** 
 6093              		.loc 1 1268 1 view .LVU2384
 6094 045e 0DF5C15D 		add	sp, sp, #6176
 6095 0462 03B0     		add	sp, sp, #12
 6096              	.LCFI18:
 6097              		.cfi_def_cfa_offset 36
 6098              		@ sp needed
 6099 0464 BDE8F08F 		pop	{r4, r5, r6, r7, r8, r9, r10, fp, pc}
1268:Src/maze_solve.c **** 
 6100              		.loc 1 1268 1 view .LVU2385
 6101              		.cfi_endproc
 6102              	.LFE135:
 6104              		.section	.text.maze_solve,"ax",%progbits
 6105              		.align	1
 6106              		.global	maze_solve
 6107              		.syntax unified
 6108              		.thumb
 6109              		.thumb_func
 6110              		.fpu fpv4-sp-d16
 6112              	maze_solve:
 6113              	.LVL877:
ARM GAS  C:\Temp\ccX6Vjzt.s 			page 176


 6114              	.LFB138:
2366:Src/maze_solve.c **** 
2367:Src/maze_solve.c **** /*
2368:Src/maze_solve.c ****  * maze_solve 実機での迷路探索関数
2369:Src/maze_solve.c ****  * 入力 迷路壁情報,迷路探索情報,迷路縦サイズ,迷路横サイズ,ゴール座標,
2370:Src/maze_solve.c ****  * 出力 壁情報,探索情報
2371:Src/maze_solve.c ****  * Arguments    : unsigned char maze_wall[1024]
2372:Src/maze_solve.c ****  *                unsigned char maze_wall_search[1024]
2373:Src/maze_solve.c ****  *                unsigned char maze_row_size
2374:Src/maze_solve.c ****  *                unsigned char maze_col_size
2375:Src/maze_solve.c ****  *                const unsigned char maze_goal[18]
2376:Src/maze_solve.c ****  *                unsigned char goal_size
2377:Src/maze_solve.c ****  *                unsigned char run_mode
2378:Src/maze_solve.c ****  * Return Type  : void
2379:Src/maze_solve.c ****  */
2380:Src/maze_solve.c **** void maze_solve(unsigned char maze_wall[1024], unsigned char maze_wall_search
2381:Src/maze_solve.c ****                 [1024], unsigned char maze_row_size, unsigned char maze_col_size,
2382:Src/maze_solve.c ****                 const unsigned char maze_goal[18], unsigned char goal_size,
2383:Src/maze_solve.c ****                 unsigned char run_mode)
2384:Src/maze_solve.c **** {
 6115              		.loc 1 2384 1 is_stmt 1 view -0
 6116              		.cfi_startproc
 6117              		@ args = 12, pretend = 0, frame = 1080
 6118              		@ frame_needed = 0, uses_anonymous_args = 0
 6119              		.loc 1 2384 1 is_stmt 0 view .LVU2387
 6120 0000 2DE9F04F 		push	{r4, r5, r6, r7, r8, r9, r10, fp, lr}
 6121              	.LCFI19:
 6122              		.cfi_def_cfa_offset 36
 6123              		.cfi_offset 4, -36
 6124              		.cfi_offset 5, -32
 6125              		.cfi_offset 6, -28
 6126              		.cfi_offset 7, -24
 6127              		.cfi_offset 8, -20
 6128              		.cfi_offset 9, -16
 6129              		.cfi_offset 10, -12
 6130              		.cfi_offset 11, -8
 6131              		.cfi_offset 14, -4
 6132 0004 ADF2644D 		subw	sp, sp, #1124
 6133              	.LCFI20:
 6134              		.cfi_def_cfa_offset 1160
 6135 0008 0746     		mov	r7, r0
 6136 000a 0D46     		mov	r5, r1
 6137 000c 9046     		mov	r8, r2
 6138 000e 9946     		mov	r9, r3
 6139 0010 DDF88844 		ldr	r4, [sp, #1160]
 6140 0014 9DF88C64 		ldrb	r6, [sp, #1164]	@ zero_extendqisi2
 6141 0018 9DF890A4 		ldrb	r10, [sp, #1168]	@ zero_extendqisi2
2385:Src/maze_solve.c ****   coder_internal_ref b_goal_size;
 6142              		.loc 1 2385 3 is_stmt 1 view .LVU2388
2386:Src/maze_solve.c ****   int N;
 6143              		.loc 1 2386 3 view .LVU2389
2387:Src/maze_solve.c ****   unsigned char new_goal[18];
 6144              		.loc 1 2387 3 view .LVU2390
2388:Src/maze_solve.c ****   coder_internal_ref_4 g_direction;
 6145              		.loc 1 2388 3 view .LVU2391
2389:Src/maze_solve.c ****   coder_internal_ref_3 l_direction;
 6146              		.loc 1 2389 3 view .LVU2392
ARM GAS  C:\Temp\ccX6Vjzt.s 			page 177


2390:Src/maze_solve.c ****   coder_internal_ref_2 wall;
 6147              		.loc 1 2390 3 view .LVU2393
2391:Src/maze_solve.c ****   coder_internal_ref_1 search;
 6148              		.loc 1 2391 3 view .LVU2394
2392:Src/maze_solve.c ****   coder_internal_ref current_x;
 6149              		.loc 1 2392 3 view .LVU2395
2393:Src/maze_solve.c ****   unsigned char contour_map[1024];
 6150              		.loc 1 2393 3 view .LVU2396
2394:Src/maze_solve.c ****   unsigned char search_flag;
 6151              		.loc 1 2394 3 view .LVU2397
2395:Src/maze_solve.c ****   coder_internal_ref current_y;
 6152              		.loc 1 2395 3 view .LVU2398
2396:Src/maze_solve.c ****   coder_internal_ref current_dir;
 6153              		.loc 1 2396 3 view .LVU2399
2397:Src/maze_solve.c ****   int exitg1;
 6154              		.loc 1 2397 3 view .LVU2400
2398:Src/maze_solve.c ****   bool exitg2;
 6155              		.loc 1 2398 3 view .LVU2401
2399:Src/maze_solve.c ****   unsigned char u2;
 6156              		.loc 1 2399 3 view .LVU2402
2400:Src/maze_solve.c ****   b_goal_size.contents = goal_size;
 6157              		.loc 1 2400 3 view .LVU2403
 6158              		.loc 1 2400 24 is_stmt 0 view .LVU2404
 6159 001c 8DF85C64 		strb	r6, [sp, #1116]
2401:Src/maze_solve.c **** 
2402:Src/maze_solve.c ****   /* ローカル変数宣言 */
2403:Src/maze_solve.c ****   for (N = 0; N < 18; N++) {
 6160              		.loc 1 2403 3 is_stmt 1 view .LVU2405
 6161              	.LVL878:
 6162              		.loc 1 2403 10 is_stmt 0 view .LVU2406
 6163 0020 0023     		movs	r3, #0
 6164              	.LVL879:
 6165              	.L534:
 6166              		.loc 1 2403 15 is_stmt 1 discriminator 1 view .LVU2407
 6167              		.loc 1 2403 3 is_stmt 0 discriminator 1 view .LVU2408
 6168 0022 112B     		cmp	r3, #17
 6169 0024 07DC     		bgt	.L546
2404:Src/maze_solve.c ****     new_goal[N] = 0U;
 6170              		.loc 1 2404 5 is_stmt 1 discriminator 3 view .LVU2409
 6171              		.loc 1 2404 17 is_stmt 0 discriminator 3 view .LVU2410
 6172 0026 0DF58C62 		add	r2, sp, #1120
 6173 002a 1A44     		add	r2, r2, r3
 6174 002c 0021     		movs	r1, #0
 6175 002e 02F8181C 		strb	r1, [r2, #-24]
2403:Src/maze_solve.c ****     new_goal[N] = 0U;
 6176              		.loc 1 2403 23 is_stmt 1 discriminator 3 view .LVU2411
2403:Src/maze_solve.c ****     new_goal[N] = 0U;
 6177              		.loc 1 2403 24 is_stmt 0 discriminator 3 view .LVU2412
 6178 0032 0133     		adds	r3, r3, #1
 6179              	.LVL880:
2403:Src/maze_solve.c ****     new_goal[N] = 0U;
 6180              		.loc 1 2403 24 discriminator 3 view .LVU2413
 6181 0034 F5E7     		b	.L534
 6182              	.L546:
2405:Src/maze_solve.c ****   }
2406:Src/maze_solve.c **** 
2407:Src/maze_solve.c ****   /* 絶対方角定義 */
ARM GAS  C:\Temp\ccX6Vjzt.s 			page 178


2408:Src/maze_solve.c ****   g_direction.contents.North = 0U;
 6183              		.loc 1 2408 3 is_stmt 1 view .LVU2414
 6184              		.loc 1 2408 30 is_stmt 0 view .LVU2415
 6185 0036 0022     		movs	r2, #0
 6186 0038 8DF84424 		strb	r2, [sp, #1092]
2409:Src/maze_solve.c ****   g_direction.contents.East = 1U;
 6187              		.loc 1 2409 3 is_stmt 1 view .LVU2416
 6188              		.loc 1 2409 29 is_stmt 0 view .LVU2417
 6189 003c 0123     		movs	r3, #1
 6190              	.LVL881:
 6191              		.loc 1 2409 29 view .LVU2418
 6192 003e 8DF84534 		strb	r3, [sp, #1093]
2410:Src/maze_solve.c ****   g_direction.contents.South = 2U;
 6193              		.loc 1 2410 3 is_stmt 1 view .LVU2419
 6194              		.loc 1 2410 30 is_stmt 0 view .LVU2420
 6195 0042 0220     		movs	r0, #2
 6196              	.LVL882:
 6197              		.loc 1 2410 30 view .LVU2421
 6198 0044 8DF84604 		strb	r0, [sp, #1094]
2411:Src/maze_solve.c ****   g_direction.contents.West = 3U;
 6199              		.loc 1 2411 3 is_stmt 1 view .LVU2422
 6200              		.loc 1 2411 29 is_stmt 0 view .LVU2423
 6201 0048 0321     		movs	r1, #3
 6202 004a 8DF84714 		strb	r1, [sp, #1095]
2412:Src/maze_solve.c **** 
2413:Src/maze_solve.c ****   /* マウス方向定義 */
2414:Src/maze_solve.c ****   l_direction.contents.front = 0U;
 6203              		.loc 1 2414 3 is_stmt 1 view .LVU2424
 6204              		.loc 1 2414 30 is_stmt 0 view .LVU2425
 6205 004e 8DF84024 		strb	r2, [sp, #1088]
2415:Src/maze_solve.c ****   l_direction.contents.right = 1U;
 6206              		.loc 1 2415 3 is_stmt 1 view .LVU2426
 6207              		.loc 1 2415 30 is_stmt 0 view .LVU2427
 6208 0052 8DF84134 		strb	r3, [sp, #1089]
2416:Src/maze_solve.c ****   l_direction.contents.back = 2U;
 6209              		.loc 1 2416 3 is_stmt 1 view .LVU2428
 6210              		.loc 1 2416 29 is_stmt 0 view .LVU2429
 6211 0056 8DF84204 		strb	r0, [sp, #1090]
2417:Src/maze_solve.c ****   l_direction.contents.left = 3U;
 6212              		.loc 1 2417 3 is_stmt 1 view .LVU2430
 6213              		.loc 1 2417 29 is_stmt 0 view .LVU2431
 6214 005a 8DF84314 		strb	r1, [sp, #1091]
2418:Src/maze_solve.c **** 
2419:Src/maze_solve.c ****   /* 壁情報定義 */
2420:Src/maze_solve.c ****   wall.contents.nowall = 0U;
 6215              		.loc 1 2420 3 is_stmt 1 view .LVU2432
 6216              		.loc 1 2420 24 is_stmt 0 view .LVU2433
 6217 005e 8DF83C24 		strb	r2, [sp, #1084]
2421:Src/maze_solve.c ****   wall.contents.wall = 1U;
 6218              		.loc 1 2421 3 is_stmt 1 view .LVU2434
 6219              		.loc 1 2421 22 is_stmt 0 view .LVU2435
 6220 0062 8DF83D34 		strb	r3, [sp, #1085]
2422:Src/maze_solve.c **** 
2423:Src/maze_solve.c ****   /* 探索情報定義 */
2424:Src/maze_solve.c ****   search.contents.unknown = 0U;
 6221              		.loc 1 2424 3 is_stmt 1 view .LVU2436
 6222              		.loc 1 2424 27 is_stmt 0 view .LVU2437
ARM GAS  C:\Temp\ccX6Vjzt.s 			page 179


 6223 0066 8DF83824 		strb	r2, [sp, #1080]
2425:Src/maze_solve.c ****   search.contents.known = 1U;
 6224              		.loc 1 2425 3 is_stmt 1 view .LVU2438
 6225              		.loc 1 2425 25 is_stmt 0 view .LVU2439
 6226 006a 8DF83934 		strb	r3, [sp, #1081]
2426:Src/maze_solve.c **** 
2427:Src/maze_solve.c ****   /* 走行モード定義 */
2428:Src/maze_solve.c ****   /* 探索時 */
2429:Src/maze_solve.c ****   if (run_mode == 0) {
 6227              		.loc 1 2429 3 is_stmt 1 view .LVU2440
 6228              		.loc 1 2429 6 is_stmt 0 view .LVU2441
 6229 006e BAF1000F 		cmp	r10, #0
 6230 0072 07D0     		beq	.L547
 6231              	.L536:
2430:Src/maze_solve.c ****     /* マウスの初期位置設定 */
2431:Src/maze_solve.c ****     /* 一マス前進 */
2432:Src/maze_solve.c **** 
2433:Src/maze_solve.c **** 	start_acceleration(  );//スタート時の加速
2434:Src/maze_solve.c **** 
2435:Src/maze_solve.c ****     current_x.contents = 1U;
2436:Src/maze_solve.c ****     current_y.contents = 1U;
2437:Src/maze_solve.c ****     move_step(&g_direction, &current_x.contents, &current_y.contents, 0U);
2438:Src/maze_solve.c ****     move_front();
2439:Src/maze_solve.c **** 
2440:Src/maze_solve.c ****     /* 足立法による探索 */
2441:Src/maze_solve.c ****     current_dir.contents = g_direction.contents.North;
2442:Src/maze_solve.c ****     search_adachi(&wall, &search, &g_direction, &l_direction,
2443:Src/maze_solve.c ****                   &current_x.contents, &current_y.contents,
2444:Src/maze_solve.c ****                   &current_dir.contents, maze_row_size, maze_col_size, maze_wall,
2445:Src/maze_solve.c ****                   maze_wall_search, maze_goal, goal_size);
2446:Src/maze_solve.c **** 
2447:Src/maze_solve.c ****     HAL_Delay(1000);
2448:Src/maze_solve.c **** 
2449:Src/maze_solve.c ****     /* ゴールをすべて探索 */
2450:Src/maze_solve.c ****     do {
2451:Src/maze_solve.c ****       exitg1 = 0;
2452:Src/maze_solve.c ****       search_flag = 0U;
2453:Src/maze_solve.c ****       N = 0;
2454:Src/maze_solve.c ****       exitg2 = false;
2455:Src/maze_solve.c ****       while ((!exitg2) && (N <= goal_size - 1)) {
2456:Src/maze_solve.c ****         u2 = maze_goal[N + 9];
2457:Src/maze_solve.c ****         if (maze_wall_search[(u2 + ((maze_goal[N] - 1) << 5)) - 1] != 15) {
2458:Src/maze_solve.c ****           new_goal[0] = maze_goal[N];
2459:Src/maze_solve.c ****           new_goal[9] = u2;
2460:Src/maze_solve.c ****           search_flag = 1U;
2461:Src/maze_solve.c ****           exitg2 = true;
2462:Src/maze_solve.c ****         } else {
2463:Src/maze_solve.c ****           N++;
2464:Src/maze_solve.c ****         }
2465:Src/maze_solve.c ****       }
2466:Src/maze_solve.c **** 
2467:Src/maze_solve.c ****       if (search_flag == 1) {
2468:Src/maze_solve.c ****     	clr_run_first_flg(); //走行開始フラグのクリア
2469:Src/maze_solve.c ****       goal_after_flg = immediately_after;
2470:Src/maze_solve.c ****         search_adachi(&wall, &search, &g_direction, &l_direction,
2471:Src/maze_solve.c ****                       &current_x.contents, &current_y.contents,
2472:Src/maze_solve.c ****                       &current_dir.contents, maze_row_size, maze_col_size,
ARM GAS  C:\Temp\ccX6Vjzt.s 			page 180


2473:Src/maze_solve.c ****                       maze_wall, maze_wall_search, new_goal, 1U);
2474:Src/maze_solve.c ****       } else {
2475:Src/maze_solve.c ****         exitg1 = 1;
2476:Src/maze_solve.c ****       }
2477:Src/maze_solve.c ****     } while (exitg1 == 0);
2478:Src/maze_solve.c **** 
2479:Src/maze_solve.c ****     HAL_Delay(1000);
2480:Src/maze_solve.c ****     
2481:Src/maze_solve.c ****     /* スタートを目的地として足立法で再探索 */
2482:Src/maze_solve.c ****     new_goal[0] = 1U;
2483:Src/maze_solve.c ****     new_goal[9] = 1U;
2484:Src/maze_solve.c ****     clr_run_first_flg(); //走行開始フラグのクリア
2485:Src/maze_solve.c ****     goal_after_flg = immediately_after;
2486:Src/maze_solve.c ****     search_adachi(&wall, &search, &g_direction, &l_direction,
2487:Src/maze_solve.c ****                   &current_x.contents, &current_y.contents,
2488:Src/maze_solve.c ****                   &current_dir.contents, maze_row_size, maze_col_size, maze_wall,
2489:Src/maze_solve.c ****                   maze_wall_search, new_goal, 1U);
2490:Src/maze_solve.c **** 
2491:Src/maze_solve.c ****     fornt_wall_calibrate();
2492:Src/maze_solve.c ****     turn_conclk_180();
2493:Src/maze_solve.c ****     set_target_length(-0.5);
2494:Src/maze_solve.c ****     /* for code generation */
2495:Src/maze_solve.c ****   }
2496:Src/maze_solve.c **** 
2497:Src/maze_solve.c ****   if (run_mode == 1) {
 6232              		.loc 1 2497 3 is_stmt 1 view .LVU2442
 6233              		.loc 1 2497 6 is_stmt 0 view .LVU2443
 6234 0074 BAF1010F 		cmp	r10, #1
 6235 0078 00F0AD80 		beq	.L548
 6236              	.L533:
2498:Src/maze_solve.c ****     /* 探索情報をもとに等高線MAPを生成 */
2499:Src/maze_solve.c ****     make_map_fustrun(&b_goal_size, &g_direction, &wall, &search, maze_row_size,
2500:Src/maze_solve.c ****                      maze_col_size, maze_goal, maze_wall, maze_wall_search,
2501:Src/maze_solve.c ****                      contour_map, &search_flag);
2502:Src/maze_solve.c **** 
2503:Src/maze_solve.c ****     /* 最短距離走行 */
2504:Src/maze_solve.c ****     fust_run(&g_direction, &current_x, &current_y, &current_dir, &b_goal_size,
2505:Src/maze_solve.c ****              &wall, &l_direction, maze_wall, contour_map, maze_goal, search_flag);
2506:Src/maze_solve.c ****   }
2507:Src/maze_solve.c **** }
 6237              		.loc 1 2507 1 view .LVU2444
 6238 007c 0DF2644D 		addw	sp, sp, #1124
 6239              	.LCFI21:
 6240              		.cfi_remember_state
 6241              		.cfi_def_cfa_offset 36
 6242              		@ sp needed
 6243 0080 BDE8F08F 		pop	{r4, r5, r6, r7, r8, r9, r10, fp, pc}
 6244              	.LVL883:
 6245              	.L547:
 6246              	.LCFI22:
 6247              		.cfi_restore_state
2433:Src/maze_solve.c **** 
 6248              		.loc 1 2433 2 is_stmt 1 view .LVU2445
 6249 0084 FFF7FEFF 		bl	start_acceleration
 6250              	.LVL884:
2435:Src/maze_solve.c ****     current_y.contents = 1U;
 6251              		.loc 1 2435 5 view .LVU2446
ARM GAS  C:\Temp\ccX6Vjzt.s 			page 181


2435:Src/maze_solve.c ****     current_y.contents = 1U;
 6252              		.loc 1 2435 24 is_stmt 0 view .LVU2447
 6253 0088 0123     		movs	r3, #1
 6254 008a 8DF83434 		strb	r3, [sp, #1076]
2436:Src/maze_solve.c ****     move_step(&g_direction, &current_x.contents, &current_y.contents, 0U);
 6255              		.loc 1 2436 5 is_stmt 1 view .LVU2448
2436:Src/maze_solve.c ****     move_step(&g_direction, &current_x.contents, &current_y.contents, 0U);
 6256              		.loc 1 2436 24 is_stmt 0 view .LVU2449
 6257 008e 0DF1300B 		add	fp, sp, #48
 6258 0092 8DF83030 		strb	r3, [sp, #48]
2437:Src/maze_solve.c ****     move_front();
 6259              		.loc 1 2437 5 is_stmt 1 view .LVU2450
 6260 0096 0023     		movs	r3, #0
 6261 0098 5A46     		mov	r2, fp
 6262 009a 0DF23441 		addw	r1, sp, #1076
 6263 009e 0DF24440 		addw	r0, sp, #1092
 6264 00a2 FFF7FEFF 		bl	move_step
 6265              	.LVL885:
2438:Src/maze_solve.c **** 
 6266              		.loc 1 2438 5 view .LVU2451
 6267 00a6 FFF7FEFF 		bl	move_front
 6268              	.LVL886:
2441:Src/maze_solve.c ****     search_adachi(&wall, &search, &g_direction, &l_direction,
 6269              		.loc 1 2441 5 view .LVU2452
2441:Src/maze_solve.c ****     search_adachi(&wall, &search, &g_direction, &l_direction,
 6270              		.loc 1 2441 48 is_stmt 0 view .LVU2453
 6271 00aa 9DF84424 		ldrb	r2, [sp, #1092]	@ zero_extendqisi2
2441:Src/maze_solve.c ****     search_adachi(&wall, &search, &g_direction, &l_direction,
 6272              		.loc 1 2441 26 view .LVU2454
 6273 00ae 0BAB     		add	r3, sp, #44
 6274 00b0 8DF82C20 		strb	r2, [sp, #44]
2442:Src/maze_solve.c ****                   &current_x.contents, &current_y.contents,
 6275              		.loc 1 2442 5 is_stmt 1 view .LVU2455
 6276 00b4 0896     		str	r6, [sp, #32]
 6277 00b6 0794     		str	r4, [sp, #28]
 6278 00b8 0695     		str	r5, [sp, #24]
 6279 00ba 0597     		str	r7, [sp, #20]
 6280 00bc CDF81090 		str	r9, [sp, #16]
 6281 00c0 CDF80C80 		str	r8, [sp, #12]
 6282 00c4 0293     		str	r3, [sp, #8]
 6283 00c6 CDF804B0 		str	fp, [sp, #4]
 6284 00ca 0DF23443 		addw	r3, sp, #1076
 6285 00ce 0093     		str	r3, [sp]
 6286 00d0 0DF58863 		add	r3, sp, #1088
 6287 00d4 0DF24442 		addw	r2, sp, #1092
 6288 00d8 0DF58761 		add	r1, sp, #1080
 6289 00dc 0DF23C40 		addw	r0, sp, #1084
 6290 00e0 FFF7FEFF 		bl	search_adachi
 6291              	.LVL887:
2447:Src/maze_solve.c **** 
 6292              		.loc 1 2447 5 view .LVU2456
 6293 00e4 4FF47A70 		mov	r0, #1000
 6294 00e8 FFF7FEFF 		bl	HAL_Delay
 6295              	.LVL888:
 6296 00ec 3DE0     		b	.L543
 6297              	.LVL889:
 6298              	.L549:
ARM GAS  C:\Temp\ccX6Vjzt.s 			page 182


2458:Src/maze_solve.c ****           new_goal[9] = u2;
 6299              		.loc 1 2458 11 view .LVU2457
2458:Src/maze_solve.c ****           new_goal[9] = u2;
 6300              		.loc 1 2458 23 is_stmt 0 view .LVU2458
 6301 00ee 8DF848C4 		strb	ip, [sp, #1096]
2459:Src/maze_solve.c ****           search_flag = 1U;
 6302              		.loc 1 2459 11 is_stmt 1 view .LVU2459
2459:Src/maze_solve.c ****           search_flag = 1U;
 6303              		.loc 1 2459 23 is_stmt 0 view .LVU2460
 6304 00f2 8DF85104 		strb	r0, [sp, #1105]
2460:Src/maze_solve.c ****           exitg2 = true;
 6305              		.loc 1 2460 11 is_stmt 1 view .LVU2461
2460:Src/maze_solve.c ****           exitg2 = true;
 6306              		.loc 1 2460 23 is_stmt 0 view .LVU2462
 6307 00f6 0121     		movs	r1, #1
 6308              	.LVL890:
2460:Src/maze_solve.c ****           exitg2 = true;
 6309              		.loc 1 2460 23 view .LVU2463
 6310 00f8 8DF83310 		strb	r1, [sp, #51]
2461:Src/maze_solve.c ****         } else {
 6311              		.loc 1 2461 11 is_stmt 1 view .LVU2464
 6312              	.LVL891:
 6313              	.L537:
2455:Src/maze_solve.c ****         u2 = maze_goal[N + 9];
 6314              		.loc 1 2455 13 view .LVU2465
 6315 00fc 89B9     		cbnz	r1, .L540
2455:Src/maze_solve.c ****         u2 = maze_goal[N + 9];
 6316              		.loc 1 2455 24 is_stmt 0 discriminator 1 view .LVU2466
 6317 00fe 9642     		cmp	r6, r2
 6318 0100 0FDD     		ble	.L540
2456:Src/maze_solve.c ****         if (maze_wall_search[(u2 + ((maze_goal[N] - 1) << 5)) - 1] != 15) {
 6319              		.loc 1 2456 9 is_stmt 1 view .LVU2467
2456:Src/maze_solve.c ****         if (maze_wall_search[(u2 + ((maze_goal[N] - 1) << 5)) - 1] != 15) {
 6320              		.loc 1 2456 23 is_stmt 0 view .LVU2468
 6321 0102 02F10903 		add	r3, r2, #9
2456:Src/maze_solve.c ****         if (maze_wall_search[(u2 + ((maze_goal[N] - 1) << 5)) - 1] != 15) {
 6322              		.loc 1 2456 12 view .LVU2469
 6323 0106 E05C     		ldrb	r0, [r4, r3]	@ zero_extendqisi2
 6324              	.LVL892:
2457:Src/maze_solve.c ****           new_goal[0] = maze_goal[N];
 6325              		.loc 1 2457 9 is_stmt 1 view .LVU2470
2457:Src/maze_solve.c ****           new_goal[0] = maze_goal[N];
 6326              		.loc 1 2457 47 is_stmt 0 view .LVU2471
 6327 0108 14F802C0 		ldrb	ip, [r4, r2]	@ zero_extendqisi2
2457:Src/maze_solve.c ****           new_goal[0] = maze_goal[N];
 6328              		.loc 1 2457 51 view .LVU2472
 6329 010c 0CF1FF33 		add	r3, ip, #-1
2457:Src/maze_solve.c ****           new_goal[0] = maze_goal[N];
 6330              		.loc 1 2457 34 view .LVU2473
 6331 0110 00EB4313 		add	r3, r0, r3, lsl #5
2457:Src/maze_solve.c ****           new_goal[0] = maze_goal[N];
 6332              		.loc 1 2457 29 view .LVU2474
 6333 0114 2B44     		add	r3, r3, r5
 6334 0116 13F8013C 		ldrb	r3, [r3, #-1]	@ zero_extendqisi2
2457:Src/maze_solve.c ****           new_goal[0] = maze_goal[N];
 6335              		.loc 1 2457 12 view .LVU2475
 6336 011a 0F2B     		cmp	r3, #15
ARM GAS  C:\Temp\ccX6Vjzt.s 			page 183


 6337 011c E7D1     		bne	.L549
2463:Src/maze_solve.c ****         }
 6338              		.loc 1 2463 11 is_stmt 1 view .LVU2476
2463:Src/maze_solve.c ****         }
 6339              		.loc 1 2463 12 is_stmt 0 view .LVU2477
 6340 011e 0132     		adds	r2, r2, #1
 6341              	.LVL893:
2463:Src/maze_solve.c ****         }
 6342              		.loc 1 2463 12 view .LVU2478
 6343 0120 ECE7     		b	.L537
 6344              	.LVL894:
 6345              	.L540:
2467:Src/maze_solve.c ****     	clr_run_first_flg(); //走行開始フラグのクリア
 6346              		.loc 1 2467 7 is_stmt 1 view .LVU2479
2467:Src/maze_solve.c ****     	clr_run_first_flg(); //走行開始フラグのクリア
 6347              		.loc 1 2467 23 is_stmt 0 view .LVU2480
 6348 0122 9DF83330 		ldrb	r3, [sp, #51]	@ zero_extendqisi2
2467:Src/maze_solve.c ****     	clr_run_first_flg(); //走行開始フラグのクリア
 6349              		.loc 1 2467 10 view .LVU2481
 6350 0126 012B     		cmp	r3, #1
 6351 0128 24D1     		bne	.L542
2468:Src/maze_solve.c ****       goal_after_flg = immediately_after;
 6352              		.loc 1 2468 6 is_stmt 1 view .LVU2482
 6353 012a FFF7FEFF 		bl	clr_run_first_flg
 6354              	.LVL895:
2469:Src/maze_solve.c ****         search_adachi(&wall, &search, &g_direction, &l_direction,
 6355              		.loc 1 2469 7 view .LVU2483
2469:Src/maze_solve.c ****         search_adachi(&wall, &search, &g_direction, &l_direction,
 6356              		.loc 1 2469 22 is_stmt 0 view .LVU2484
 6357 012e 0123     		movs	r3, #1
 6358 0130 404A     		ldr	r2, .L550
 6359 0132 1370     		strb	r3, [r2]
2470:Src/maze_solve.c ****                       &current_x.contents, &current_y.contents,
 6360              		.loc 1 2470 9 is_stmt 1 view .LVU2485
 6361 0134 0893     		str	r3, [sp, #32]
 6362 0136 0DF58963 		add	r3, sp, #1096
 6363 013a 0793     		str	r3, [sp, #28]
 6364 013c 0695     		str	r5, [sp, #24]
 6365 013e 0597     		str	r7, [sp, #20]
 6366 0140 CDF81090 		str	r9, [sp, #16]
 6367 0144 CDF80C80 		str	r8, [sp, #12]
 6368 0148 0BAB     		add	r3, sp, #44
 6369 014a 0293     		str	r3, [sp, #8]
 6370 014c 0CAB     		add	r3, sp, #48
 6371 014e 0193     		str	r3, [sp, #4]
 6372 0150 0DF23443 		addw	r3, sp, #1076
 6373 0154 0093     		str	r3, [sp]
 6374 0156 0DF58863 		add	r3, sp, #1088
 6375 015a 0DF24442 		addw	r2, sp, #1092
 6376 015e 0DF58761 		add	r1, sp, #1080
 6377 0162 0DF23C40 		addw	r0, sp, #1084
 6378 0166 FFF7FEFF 		bl	search_adachi
 6379              	.LVL896:
2477:Src/maze_solve.c **** 
 6380              		.loc 1 2477 13 view .LVU2486
 6381              	.L543:
2450:Src/maze_solve.c ****       exitg1 = 0;
ARM GAS  C:\Temp\ccX6Vjzt.s 			page 184


 6382              		.loc 1 2450 5 view .LVU2487
2451:Src/maze_solve.c ****       search_flag = 0U;
 6383              		.loc 1 2451 7 view .LVU2488
2452:Src/maze_solve.c ****       N = 0;
 6384              		.loc 1 2452 7 view .LVU2489
2452:Src/maze_solve.c ****       N = 0;
 6385              		.loc 1 2452 19 is_stmt 0 view .LVU2490
 6386 016a 0022     		movs	r2, #0
 6387 016c 8DF83320 		strb	r2, [sp, #51]
2453:Src/maze_solve.c ****       exitg2 = false;
 6388              		.loc 1 2453 7 is_stmt 1 view .LVU2491
 6389              	.LVL897:
2454:Src/maze_solve.c ****       while ((!exitg2) && (N <= goal_size - 1)) {
 6390              		.loc 1 2454 7 view .LVU2492
2455:Src/maze_solve.c ****         u2 = maze_goal[N + 9];
 6391              		.loc 1 2455 7 view .LVU2493
2454:Src/maze_solve.c ****       while ((!exitg2) && (N <= goal_size - 1)) {
 6392              		.loc 1 2454 14 is_stmt 0 view .LVU2494
 6393 0170 1146     		mov	r1, r2
2455:Src/maze_solve.c ****         u2 = maze_goal[N + 9];
 6394              		.loc 1 2455 13 view .LVU2495
 6395 0172 C3E7     		b	.L537
 6396              	.LVL898:
 6397              	.L542:
2477:Src/maze_solve.c **** 
 6398              		.loc 1 2477 13 is_stmt 1 view .LVU2496
2479:Src/maze_solve.c ****     
 6399              		.loc 1 2479 5 view .LVU2497
 6400 0174 4FF47A70 		mov	r0, #1000
 6401 0178 FFF7FEFF 		bl	HAL_Delay
 6402              	.LVL899:
2482:Src/maze_solve.c ****     new_goal[9] = 1U;
 6403              		.loc 1 2482 5 view .LVU2498
2482:Src/maze_solve.c ****     new_goal[9] = 1U;
 6404              		.loc 1 2482 17 is_stmt 0 view .LVU2499
 6405 017c 0126     		movs	r6, #1
 6406 017e 8DF84864 		strb	r6, [sp, #1096]
2483:Src/maze_solve.c ****     clr_run_first_flg(); //走行開始フラグのクリア
 6407              		.loc 1 2483 5 is_stmt 1 view .LVU2500
2483:Src/maze_solve.c ****     clr_run_first_flg(); //走行開始フラグのクリア
 6408              		.loc 1 2483 17 is_stmt 0 view .LVU2501
 6409 0182 8DF85164 		strb	r6, [sp, #1105]
2484:Src/maze_solve.c ****     goal_after_flg = immediately_after;
 6410              		.loc 1 2484 5 is_stmt 1 view .LVU2502
 6411 0186 FFF7FEFF 		bl	clr_run_first_flg
 6412              	.LVL900:
2485:Src/maze_solve.c ****     search_adachi(&wall, &search, &g_direction, &l_direction,
 6413              		.loc 1 2485 5 view .LVU2503
2485:Src/maze_solve.c ****     search_adachi(&wall, &search, &g_direction, &l_direction,
 6414              		.loc 1 2485 20 is_stmt 0 view .LVU2504
 6415 018a 2A4B     		ldr	r3, .L550
 6416 018c 1E70     		strb	r6, [r3]
2486:Src/maze_solve.c ****                   &current_x.contents, &current_y.contents,
 6417              		.loc 1 2486 5 is_stmt 1 view .LVU2505
 6418 018e 0896     		str	r6, [sp, #32]
 6419 0190 0DF58963 		add	r3, sp, #1096
 6420 0194 0793     		str	r3, [sp, #28]
ARM GAS  C:\Temp\ccX6Vjzt.s 			page 185


 6421 0196 0695     		str	r5, [sp, #24]
 6422 0198 0597     		str	r7, [sp, #20]
 6423 019a CDF81090 		str	r9, [sp, #16]
 6424 019e CDF80C80 		str	r8, [sp, #12]
 6425 01a2 0BAB     		add	r3, sp, #44
 6426 01a4 0293     		str	r3, [sp, #8]
 6427 01a6 0CAB     		add	r3, sp, #48
 6428 01a8 0193     		str	r3, [sp, #4]
 6429 01aa 0DF23443 		addw	r3, sp, #1076
 6430 01ae 0093     		str	r3, [sp]
 6431 01b0 0DF58863 		add	r3, sp, #1088
 6432 01b4 0DF24442 		addw	r2, sp, #1092
 6433 01b8 0DF58761 		add	r1, sp, #1080
 6434 01bc 0DF23C40 		addw	r0, sp, #1084
 6435 01c0 FFF7FEFF 		bl	search_adachi
 6436              	.LVL901:
2491:Src/maze_solve.c ****     turn_conclk_180();
 6437              		.loc 1 2491 5 view .LVU2506
 6438 01c4 FFF7FEFF 		bl	fornt_wall_calibrate
 6439              	.LVL902:
2492:Src/maze_solve.c ****     set_target_length(-0.5);
 6440              		.loc 1 2492 5 view .LVU2507
 6441 01c8 FFF7FEFF 		bl	turn_conclk_180
 6442              	.LVL903:
2493:Src/maze_solve.c ****     /* for code generation */
 6443              		.loc 1 2493 5 view .LVU2508
 6444 01cc BEEE000A 		vmov.f32	s0, #-5.0e-1
 6445 01d0 FFF7FEFF 		bl	set_target_length
 6446              	.LVL904:
 6447 01d4 4EE7     		b	.L536
 6448              	.LVL905:
 6449              	.L548:
2499:Src/maze_solve.c ****                      maze_col_size, maze_goal, maze_wall, maze_wall_search,
 6450              		.loc 1 2499 5 view .LVU2509
 6451 01d6 0DF23C4A 		addw	r10, sp, #1084
 6452 01da 0DF1330B 		add	fp, sp, #51
 6453 01de CDF818B0 		str	fp, [sp, #24]
 6454 01e2 0DAE     		add	r6, sp, #52
 6455 01e4 0596     		str	r6, [sp, #20]
 6456 01e6 0495     		str	r5, [sp, #16]
 6457 01e8 0397     		str	r7, [sp, #12]
 6458 01ea 0294     		str	r4, [sp, #8]
 6459 01ec CDF80490 		str	r9, [sp, #4]
 6460 01f0 CDF80080 		str	r8, [sp]
 6461 01f4 0DF58763 		add	r3, sp, #1080
 6462 01f8 5246     		mov	r2, r10
 6463 01fa 0DF24441 		addw	r1, sp, #1092
 6464 01fe 0DF25C40 		addw	r0, sp, #1116
 6465 0202 FFF7FEFF 		bl	make_map_fustrun
 6466              	.LVL906:
2504:Src/maze_solve.c ****              &wall, &l_direction, maze_wall, contour_map, maze_goal, search_flag);
 6467              		.loc 1 2504 5 view .LVU2510
 6468 0206 9BF80030 		ldrb	r3, [fp]	@ zero_extendqisi2
 6469 020a 0693     		str	r3, [sp, #24]
 6470 020c 0594     		str	r4, [sp, #20]
 6471 020e 0496     		str	r6, [sp, #16]
 6472 0210 0397     		str	r7, [sp, #12]
ARM GAS  C:\Temp\ccX6Vjzt.s 			page 186


 6473 0212 0DF58863 		add	r3, sp, #1088
 6474 0216 0293     		str	r3, [sp, #8]
 6475 0218 CDF804A0 		str	r10, [sp, #4]
 6476 021c 0DF25C43 		addw	r3, sp, #1116
 6477 0220 0093     		str	r3, [sp]
 6478 0222 0BAB     		add	r3, sp, #44
 6479 0224 0CAA     		add	r2, sp, #48
 6480 0226 0DF23441 		addw	r1, sp, #1076
 6481 022a 0DF24440 		addw	r0, sp, #1092
 6482 022e FFF7FEFF 		bl	fust_run
 6483              	.LVL907:
 6484              		.loc 1 2507 1 is_stmt 0 view .LVU2511
 6485 0232 23E7     		b	.L533
 6486              	.L551:
 6487              		.align	2
 6488              	.L550:
 6489 0234 00000000 		.word	.LANCHOR3
 6490              		.cfi_endproc
 6491              	.LFE138:
 6493              		.section	.bss.b_num_temp_data.10761,"aw",%nobits
 6494              		.align	2
 6495              		.set	.LANCHOR2,. + 0
 6498              	b_num_temp_data.10761:
 6499 0000 00000000 		.space	2048
 6499      00000000 
 6499      00000000 
 6499      00000000 
 6499      00000000 
 6500              		.section	.bss.goal_after_flg,"aw",%nobits
 6501              		.set	.LANCHOR3,. + 0
 6504              	goal_after_flg:
 6505 0000 00       		.space	1
 6506              		.section	.bss.i11.10913,"aw",%nobits
 6507              		.align	2
 6508              		.set	.LANCHOR4,. + 0
 6511              	i11.10913:
 6512 0000 00000000 		.space	4
 6513              		.section	.bss.i12.10914,"aw",%nobits
 6514              		.align	2
 6515              		.set	.LANCHOR5,. + 0
 6518              	i12.10914:
 6519 0000 00000000 		.space	4
 6520              		.section	.bss.ii_data.10757,"aw",%nobits
 6521              		.align	2
 6522              		.set	.LANCHOR0,. + 0
 6525              	ii_data.10757:
 6526 0000 00000000 		.space	2048
 6526      00000000 
 6526      00000000 
 6526      00000000 
 6526      00000000 
 6527              		.section	.bss.ii_data.10829,"aw",%nobits
 6528              		.align	2
 6529              		.set	.LANCHOR6,. + 0
 6532              	ii_data.10829:
 6533 0000 00000000 		.space	2048
 6533      00000000 
ARM GAS  C:\Temp\ccX6Vjzt.s 			page 187


 6533      00000000 
 6533      00000000 
 6533      00000000 
 6534              		.section	.bss.num_temp_data.10759,"aw",%nobits
 6535              		.align	2
 6536              		.set	.LANCHOR1,. + 0
 6539              	num_temp_data.10759:
 6540 0000 00000000 		.space	2048
 6540      00000000 
 6540      00000000 
 6540      00000000 
 6540      00000000 
 6541              		.section	.bss.num_temp_data.10831,"aw",%nobits
 6542              		.align	2
 6543              		.set	.LANCHOR7,. + 0
 6546              	num_temp_data.10831:
 6547 0000 00000000 		.space	2048
 6547      00000000 
 6547      00000000 
 6547      00000000 
 6547      00000000 
 6548              		.text
 6549              	.Letext0:
 6550              		.file 2 "c:\\tools\\gcc-arm-none-eabi-9-2019-q4-major\\arm-none-eabi\\include\\machine\\_default_t
 6551              		.file 3 "c:\\tools\\gcc-arm-none-eabi-9-2019-q4-major\\arm-none-eabi\\include\\sys\\lock.h"
 6552              		.file 4 "c:\\tools\\gcc-arm-none-eabi-9-2019-q4-major\\arm-none-eabi\\include\\sys\\_types.h"
 6553              		.file 5 "c:\\tools\\gcc-arm-none-eabi-9-2019-q4-major\\lib\\gcc\\arm-none-eabi\\9.2.1\\include\\st
 6554              		.file 6 "c:\\tools\\gcc-arm-none-eabi-9-2019-q4-major\\arm-none-eabi\\include\\sys\\reent.h"
 6555              		.file 7 "c:\\tools\\gcc-arm-none-eabi-9-2019-q4-major\\arm-none-eabi\\include\\stdlib.h"
 6556              		.file 8 "c:\\tools\\gcc-arm-none-eabi-9-2019-q4-major\\arm-none-eabi\\include\\sys\\_stdint.h"
 6557              		.file 9 "c:\\tools\\gcc-arm-none-eabi-9-2019-q4-major\\arm-none-eabi\\include\\math.h"
 6558              		.file 10 "Drivers/CMSIS/Include/core_cm4.h"
 6559              		.file 11 "Drivers/CMSIS/Device/ST/STM32F4xx/Include/system_stm32f4xx.h"
 6560              		.file 12 "Drivers/CMSIS/Device/ST/STM32F4xx/Include/stm32f413xx.h"
 6561              		.file 13 "Drivers/CMSIS/Device/ST/STM32F4xx/Include/stm32f4xx.h"
 6562              		.file 14 "Drivers/STM32F4xx_HAL_Driver/Inc/stm32f4xx_hal_def.h"
 6563              		.file 15 "Drivers/STM32F4xx_HAL_Driver/Inc/stm32f4xx_hal_gpio.h"
 6564              		.file 16 "Drivers/STM32F4xx_HAL_Driver/Inc/stm32f4xx_hal_dma.h"
 6565              		.file 17 "Drivers/STM32F4xx_HAL_Driver/Inc/stm32f4xx_hal_adc.h"
 6566              		.file 18 "Drivers/STM32F4xx_HAL_Driver/Inc/stm32f4xx_hal_spi.h"
 6567              		.file 19 "Drivers/STM32F4xx_HAL_Driver/Inc/stm32f4xx_hal_tim.h"
 6568              		.file 20 "Drivers/STM32F4xx_HAL_Driver/Inc/stm32f4xx_hal_uart.h"
 6569              		.file 21 "Inc/adc.h"
 6570              		.file 22 "Inc/spi.h"
 6571              		.file 23 "Inc/tim.h"
 6572              		.file 24 "Inc/usart.h"
 6573              		.file 25 "Inc/matlab_code_gen_data.h"
 6574              		.file 26 "Inc/movement.h"
 6575              		.file 27 "Drivers/STM32F4xx_HAL_Driver/Inc/stm32f4xx_hal.h"
 6576              		.file 28 "Inc/adjust.h"
 6577              		.file 29 "Inc/target.h"
 6578              		.file 30 "Inc/ir_sensor.h"
 6579              		.file 31 "Inc/rem.h"
 6580              		.file 32 "Inc/idivide.h"
ARM GAS  C:\Temp\ccX6Vjzt.s 			page 188


DEFINED SYMBOLS
                            *ABS*:00000000 maze_solve.c
  C:\Temp\ccX6Vjzt.s:18     .text.fust_run:00000000 $t
  C:\Temp\ccX6Vjzt.s:25     .text.fust_run:00000000 fust_run
  C:\Temp\ccX6Vjzt.s:1172   .text.move_step:00000000 $t
  C:\Temp\ccX6Vjzt.s:1178   .text.move_step:00000000 move_step
  C:\Temp\ccX6Vjzt.s:1323   .text.make_map_find:00000000 $t
  C:\Temp\ccX6Vjzt.s:1329   .text.make_map_find:00000000 make_map_find
  C:\Temp\ccX6Vjzt.s:2162   .text.make_map_find:00000350 $d
  C:\Temp\ccX6Vjzt.s:2169   .text.search_adachi:00000000 $t
  C:\Temp\ccX6Vjzt.s:2175   .text.search_adachi:00000000 search_adachi
  C:\Temp\ccX6Vjzt.s:3107   .text.search_adachi:00000404 $d
  C:\Temp\ccX6Vjzt.s:3120   .text.search_adachi:00000424 $t
  C:\Temp\ccX6Vjzt.s:4675   .text.search_adachi:000009f4 $d
  C:\Temp\ccX6Vjzt.s:4683   .text.search_adachi:00000a04 $t
  C:\Temp\ccX6Vjzt.s:5039   .text.make_map_fustrun:00000000 $t
  C:\Temp\ccX6Vjzt.s:5045   .text.make_map_fustrun:00000000 make_map_fustrun
  C:\Temp\ccX6Vjzt.s:5973   .text.make_map_fustrun:000003dc $d
  C:\Temp\ccX6Vjzt.s:5981   .text.make_map_fustrun:000003e4 $t
  C:\Temp\ccX6Vjzt.s:6105   .text.maze_solve:00000000 $t
  C:\Temp\ccX6Vjzt.s:6112   .text.maze_solve:00000000 maze_solve
  C:\Temp\ccX6Vjzt.s:6489   .text.maze_solve:00000234 $d
  C:\Temp\ccX6Vjzt.s:6494   .bss.b_num_temp_data.10761:00000000 $d
  C:\Temp\ccX6Vjzt.s:6498   .bss.b_num_temp_data.10761:00000000 b_num_temp_data.10761
  C:\Temp\ccX6Vjzt.s:6504   .bss.goal_after_flg:00000000 goal_after_flg
  C:\Temp\ccX6Vjzt.s:6505   .bss.goal_after_flg:00000000 $d
  C:\Temp\ccX6Vjzt.s:6507   .bss.i11.10913:00000000 $d
  C:\Temp\ccX6Vjzt.s:6511   .bss.i11.10913:00000000 i11.10913
  C:\Temp\ccX6Vjzt.s:6514   .bss.i12.10914:00000000 $d
  C:\Temp\ccX6Vjzt.s:6518   .bss.i12.10914:00000000 i12.10914
  C:\Temp\ccX6Vjzt.s:6521   .bss.ii_data.10757:00000000 $d
  C:\Temp\ccX6Vjzt.s:6525   .bss.ii_data.10757:00000000 ii_data.10757
  C:\Temp\ccX6Vjzt.s:6528   .bss.ii_data.10829:00000000 $d
  C:\Temp\ccX6Vjzt.s:6532   .bss.ii_data.10829:00000000 ii_data.10829
  C:\Temp\ccX6Vjzt.s:6535   .bss.num_temp_data.10759:00000000 $d
  C:\Temp\ccX6Vjzt.s:6539   .bss.num_temp_data.10759:00000000 num_temp_data.10759
  C:\Temp\ccX6Vjzt.s:6542   .bss.num_temp_data.10831:00000000 $d
  C:\Temp\ccX6Vjzt.s:6546   .bss.num_temp_data.10831:00000000 num_temp_data.10831

UNDEFINED SYMBOLS
b_rem
idivide
Sensor_GetValue
set_rigth_wall_flg
set_left_wall_flg
wall_sensor_front
wall_sensor_right
wall_sensor_left
wall_sensor_front_th
wall_sensor_right_th
wall_sensor_left_th
set_front_wall_flg
half_deceleration
Sensor_StopADC
HAL_GPIO_WritePin
HAL_Delay
Sensor_Initialize
ARM GAS  C:\Temp\ccX6Vjzt.s 			page 189


move_front
move_left
move_back
move_right
start_acceleration
clr_run_first_flg
fornt_wall_calibrate
turn_conclk_180
set_target_length
