ARM GAS  C:\Temp\ccf7skLl.s 			page 1


   1              		.cpu cortex-m4
   2              		.eabi_attribute 27, 1
   3              		.eabi_attribute 28, 1
   4              		.eabi_attribute 20, 1
   5              		.eabi_attribute 21, 1
   6              		.eabi_attribute 23, 3
   7              		.eabi_attribute 24, 1
   8              		.eabi_attribute 25, 1
   9              		.eabi_attribute 26, 1
  10              		.eabi_attribute 30, 1
  11              		.eabi_attribute 34, 1
  12              		.eabi_attribute 18, 4
  13              		.file	"module_test.c"
  14              		.text
  15              	.Ltext0:
  16              		.cfi_sections	.debug_frame
  17              		.section	.text.log_init,"ax",%progbits
  18              		.align	1
  19              		.global	log_init
  20              		.arch armv7e-m
  21              		.syntax unified
  22              		.thumb
  23              		.thumb_func
  24              		.fpu fpv4-sp-d16
  26              	log_init:
  27              	.LFB133:
  28              		.file 1 "Src/module_test.c"
   1:Src/module_test.c **** /*
   2:Src/module_test.c ****  * module_test.c
   3:Src/module_test.c ****  *
   4:Src/module_test.c ****  *  Created on: Aug 13, 2019
   5:Src/module_test.c ****  *      Author: å²¡ç”° æ³°è£•
   6:Src/module_test.c ****  */
   7:Src/module_test.c **** 
   8:Src/module_test.c **** 
   9:Src/module_test.c **** #include "index.h"
  10:Src/module_test.c **** #include "module_test.h"
  11:Src/module_test.c **** #include "ir_sensor.h"
  12:Src/module_test.c **** #include "battery.h"
  13:Src/module_test.c **** #include "imu.h"
  14:Src/module_test.c **** #include "param.h"
  15:Src/module_test.c **** #include "mouse_state.h"
  16:Src/module_test.c **** #include "target.h"
  17:Src/module_test.c **** #include "exvol.h"
  18:Src/module_test.c **** #include "stm32f4xx_hal.h"
  19:Src/module_test.c **** #include "encorder.h"
  20:Src/module_test.c **** #include "interrupt.h"
  21:Src/module_test.c **** #include "adjust.h"	
  22:Src/module_test.c **** #include "maze_solve.h"
  23:Src/module_test.c **** #include "lookuptable.h"
  24:Src/module_test.c **** #include "motor.h"
  25:Src/module_test.c **** 
  26:Src/module_test.c **** 
  27:Src/module_test.c **** static uint16_t log_counter = 0 ; //ãƒ­ã‚°å–å¾—é–‹å§‹ã‹ã‚‰ã®æ™‚é–“ç›£è¦–ç”¨ã‚«ã‚¦ãƒ³ã‚¿[ms]
  28:Src/module_test.c **** 
  29:Src/module_test.c **** typedef struct {	//ãƒ‡ãƒ¼ã‚¿æ ¼ç´ç”¨æ§‹é€ ä½“ã®å®šç¾©ï¼ˆæœ€å¤§ï¼’ï¼å€‹ã¨ã™ã‚‹ã“ã¨ï¼ˆï¼”ç§’ã
  30:Src/module_test.c **** 	
ARM GAS  C:\Temp\ccf7skLl.s 			page 2


  31:Src/module_test.c **** 	
  32:Src/module_test.c **** 	#ifdef DATA_DEFAULT
  33:Src/module_test.c **** 	float	time;				//æ¸¬å®šé–‹å§‹ã‹ã‚‰ã®æ™‚é–“[m/s]
  34:Src/module_test.c **** 	float	target_d_m;			//ç›®æ¨™ç§»å‹•è·é›¢[m]
  35:Src/module_test.c **** 	float 	ideal_d_m;			//ç†æƒ³ã®ä¸¦é€²æ–¹å‘ç§»å‹•è·é›¢[m]
  36:Src/module_test.c **** 	float	real_d_m;			//ä¸¦é€²æ–¹å‘ç§»å‹•è·é›¢[m]
  37:Src/module_test.c **** 	float   target_speed_m;		//ç›®æ¨™é€Ÿåº¦[m/s]
  38:Src/module_test.c **** 	float	speed_m;			//ä¸¦é€²æ–¹å‘ã®é€Ÿåº¦[m/s]
  39:Src/module_test.c **** 	float	speed_m_ave;		//ä¸¦é€²æ–¹å‘ã®é€Ÿåº¦å¹³å‡[m/s]
  40:Src/module_test.c **** 	float   accel_m;			//ä¸¦é€²æ–¹å‘ã®åŠ é€Ÿåº¦(m/s)
  41:Src/module_test.c **** 	float	accel_m_ave;		//ä¸¦é€²æ–¹å‘ã®åŠ é€Ÿåº¦å¹³å‡(m/s)
  42:Src/module_test.c **** 	float	target_d_w;			//ç›®æ¨™è§’åº¦
  43:Src/module_test.c **** 	float	ideal_d_w;			//ç†æƒ³è§’åº¦
  44:Src/module_test.c **** 	float	real_d_w;			//å›è»¢è§’åº¦(rad)
  45:Src/module_test.c **** 	float   target_speed_w;		//ç›®æ¨™è§’é€Ÿåº¦(rad/s)
  46:Src/module_test.c **** 	float	speed_w;			//å®Ÿéš›ã®è§’é€Ÿåº¦(rad/s)
  47:Src/module_test.c **** 	float	speed_w_fil;		//å®Ÿéš›ã®è§’é€Ÿåº¦_ãƒ­ãƒ¼ãƒ‘ã‚¹(rad/s)
  48:Src/module_test.c **** 	float   duty_r;				//å³ãƒ¢ãƒ¼ã‚¿æ“ä½œé‡ï¼ˆduty)
  49:Src/module_test.c **** 	float   duty_l;				//å·¦ãƒ¢ãƒ¼ã‚¿æ“ä½œé‡(duty)
  50:Src/module_test.c **** 	float   front_sensor_r;		//å³å‰å£ã‚»ãƒ³ã‚µå€¤
  51:Src/module_test.c **** 	float   front_sensor_l;		//å·¦å‰å£ã‚»ãƒ³ã‚µå€¤
  52:Src/module_test.c **** 	float   side_sensor_r;		//å³æ¨ªå£ã‚»ãƒ³ã‚µå€¤
  53:Src/module_test.c **** 	float   side_sensor_l;		//å·¦æ¨ªå£ã‚»ãƒ³ã‚µå€¤
  54:Src/module_test.c **** 	float   front_r;			//å£ã¨ã®è·é›¢ï¼ˆå³å‰ã‚»ãƒ³ã‚µï¼‰(m)
  55:Src/module_test.c **** 	float   front_l;			//å£ã¨ã®è·é›¢ï¼ˆå·¦å‰ã‚»ãƒ³ã‚µï¼‰(m)ï¼‰
  56:Src/module_test.c **** 	float   side_r;				//å£ã¨ã®è·é›¢ï¼ˆå³å‰ã‚»ãƒ³ã‚µï¼‰(m)
  57:Src/module_test.c **** 	float   side_l;				//å£ã¨ã®è·é›¢ï¼ˆå·¦å‰ã‚»ãƒ³ã‚µï¼‰(m)ï¼‰
  58:Src/module_test.c **** 	float   side_vol;			//æ¨ªå£åˆ¶å¾¡ã§ã®é›»åœ§å‡ºåŠ›
  59:Src/module_test.c **** 	float   side_mode;			//æ¨ªå£åˆ¶å¾¡ã®ãƒ¢ãƒ¼ãƒ‰
  60:Src/module_test.c **** 	float 	V_battery;			//ãƒãƒƒãƒ†ãƒªãƒ¼é›»åœ§
  61:Src/module_test.c **** 	#endif
  62:Src/module_test.c **** 
  63:Src/module_test.c **** 	#ifdef DATA_SIDE
  64:Src/module_test.c **** 	float	time;				//æ¸¬å®šé–‹å§‹ã‹ã‚‰ã®æ™‚é–“[m/s]
  65:Src/module_test.c **** 	float	real_d_m;			//ä¸¦é€²æ–¹å‘ç§»å‹•è·é›¢[m]
  66:Src/module_test.c **** 	float	speed_m_ave;		//ä¸¦é€²æ–¹å‘ã®é€Ÿåº¦å¹³å‡[m/s]
  67:Src/module_test.c **** 	float   duty_r;				//å³ãƒ¢ãƒ¼ã‚¿æ“ä½œé‡ï¼ˆduty)
  68:Src/module_test.c **** 	float   duty_l;				//å·¦ãƒ¢ãƒ¼ã‚¿æ“ä½œé‡(duty)
  69:Src/module_test.c **** 	float   front_sensor_r;		//å³å‰å£ã‚»ãƒ³ã‚µå€¤
  70:Src/module_test.c **** 	float   front_sensor_l;		//å·¦å‰å£ã‚»ãƒ³ã‚µå€¤
  71:Src/module_test.c **** 	float   side_sensor_r;		//å³æ¨ªå£ã‚»ãƒ³ã‚µå€¤
  72:Src/module_test.c **** 	float   side_sensor_l;		//å·¦æ¨ªå£ã‚»ãƒ³ã‚µå€¤
  73:Src/module_test.c **** 	float   front_r;			//å£ã¨ã®è·é›¢ï¼ˆå³å‰ã‚»ãƒ³ã‚µï¼‰(m)
  74:Src/module_test.c **** 	float   front_l;			//å£ã¨ã®è·é›¢ï¼ˆå·¦å‰ã‚»ãƒ³ã‚µï¼‰(m)
  75:Src/module_test.c **** 	float   side_r;				//å£ã¨ã®è·é›¢ï¼ˆå³å‰ã‚»ãƒ³ã‚µï¼‰(m)
  76:Src/module_test.c **** 	float   side_l;				//å£ã¨ã®è·é›¢ï¼ˆå·¦å‰ã‚»ãƒ³ã‚µï¼‰(m)
  77:Src/module_test.c **** 	float	side_r_target;		//å³å£ç›®æ¨™è·é›¢
  78:Src/module_test.c **** 	float	side_l_target;		//å·¦å£ç›®æ¨™è·é›¢
  79:Src/module_test.c **** 	float	side_r_th;			//å³å£åˆ¶å¾¡ãƒ¢ãƒ¼ãƒ‰é–¾å€¤
  80:Src/module_test.c **** 	float	side_l_th;			//å·¦å£åˆ¶å¾¡ãƒ¢ãƒ¼ãƒ‰é–¾å€¤
  81:Src/module_test.c **** 	float   side_vol;			//æ¨ªå£åˆ¶å¾¡ã§ã®é›»åœ§å‡ºåŠ›
  82:Src/module_test.c **** 	float   side_mode;			//æ¨ªå£åˆ¶å¾¡ã®ãƒ¢ãƒ¼ãƒ‰
  83:Src/module_test.c **** 	float 	V_battery;			//ãƒãƒƒãƒ†ãƒªãƒ¼é›»åœ§
  84:Src/module_test.c **** 	#endif
  85:Src/module_test.c **** 
  86:Src/module_test.c **** 	#ifdef DATA_MAZE
  87:Src/module_test.c **** 	float	time;				//æ¸¬å®šé–‹å§‹ã‹ã‚‰ã®æ™‚é–“[m/s]
ARM GAS  C:\Temp\ccf7skLl.s 			page 3


  88:Src/module_test.c **** 	float 	ideal_d_m;			//ç†æƒ³ã®ä¸¦é€²æ–¹å‘ç§»å‹•è·é›¢[m]
  89:Src/module_test.c **** 	float	speed_m_ave;		//ä¸¦é€²æ–¹å‘ã®é€Ÿåº¦å¹³å‡[m/s]
  90:Src/module_test.c **** 	float	real_d_m;			//ä¸¦é€²æ–¹å‘ç§»å‹•è·é›¢[m]
  91:Src/module_test.c **** 	float	ideal_d_w;			//ç†æƒ³è§’åº¦
  92:Src/module_test.c **** 	float	speed_w;			//å®Ÿéš›ã®è§’é€Ÿåº¦(rad/s)
  93:Src/module_test.c **** 	float	real_d_w;			//å›è»¢è§’åº¦(rad)
  94:Src/module_test.c **** 	float   duty_r;				//å³ãƒ¢ãƒ¼ã‚¿æ“ä½œé‡ï¼ˆduty)
  95:Src/module_test.c **** 	float   duty_l;				//å·¦ãƒ¢ãƒ¼ã‚¿æ“ä½œé‡(duty)
  96:Src/module_test.c **** 	float   front_sensor_r;		//å³å‰å£ã‚»ãƒ³ã‚µå€¤
  97:Src/module_test.c **** 	float   front_sensor_l;		//å·¦å‰å£ã‚»ãƒ³ã‚µå€¤
  98:Src/module_test.c **** 	float   side_sensor_r;		//å³æ¨ªå£ã‚»ãƒ³ã‚µå€¤
  99:Src/module_test.c **** 	float   side_sensor_l;		//å·¦æ¨ªå£ã‚»ãƒ³ã‚µå€¤
 100:Src/module_test.c **** 	float	maze_x;				//ãƒã‚¦ã‚¹ã®xåº§æ¨™(ãƒã‚¹)
 101:Src/module_test.c **** 	float	maze_y;				//ãƒã‚¦ã‚¹ã®yåº§æ¨™(ãƒã‚¹)
 102:Src/module_test.c **** 	float	wall_s_front;		//å‰å£åˆ¤å®šç”¨ã‚»ãƒ³ã‚µå€¤
 103:Src/module_test.c **** 	float	wall_s_right;		//å³å£åˆ¤å®šç”¨ã‚»ãƒ³ã‚µå€¤
 104:Src/module_test.c **** 	float	wall_s_left;		//å·¦å£åˆ¤å®šç”¨ã‚»ãƒ³ã‚µå€¤
 105:Src/module_test.c **** 	float 	V_battery;			//ãƒãƒƒãƒ†ãƒªãƒ¼é›»åœ§
 106:Src/module_test.c **** 	#endif
 107:Src/module_test.c **** } log_struct;
 108:Src/module_test.c **** 
 109:Src/module_test.c **** static log_struct log_store[log_count_lim / log_count_step];  // ãƒ‡ãƒ¼ã‚¿æ ¼ç´ç”¨ã®æ§‹é€ ä½“
 110:Src/module_test.c **** 
 111:Src/module_test.c **** 
 112:Src/module_test.c **** /* ---------------------------------------------------------------
 113:Src/module_test.c **** 	ãƒ­ã‚°å–å¾—ã‚«ã‚¦ãƒ³ã‚¿åˆæœŸåŒ–é–¢æ•°
 114:Src/module_test.c **** --------------------------------------------------------------- */
 115:Src/module_test.c **** void log_init (void)
 116:Src/module_test.c **** {
  29              		.loc 1 116 1 view -0
  30              		.cfi_startproc
  31              		@ args = 0, pretend = 0, frame = 0
  32              		@ frame_needed = 0, uses_anonymous_args = 0
  33              		@ link register save eliminated.
 117:Src/module_test.c **** 	log_counter = 0; //ãƒ­ã‚°ã‚«ã‚¦ãƒ³ã‚¿ã®åˆæœŸåŒ–
  34              		.loc 1 117 2 view .LVU1
  35              		.loc 1 117 14 is_stmt 0 view .LVU2
  36 0000 014B     		ldr	r3, .L2
  37 0002 0022     		movs	r2, #0
  38 0004 1A80     		strh	r2, [r3]	@ movhi
 118:Src/module_test.c **** }
  39              		.loc 1 118 1 view .LVU3
  40 0006 7047     		bx	lr
  41              	.L3:
  42              		.align	2
  43              	.L2:
  44 0008 00000000 		.word	.LANCHOR0
  45              		.cfi_endproc
  46              	.LFE133:
  48              		.section	.text.data_get,"ax",%progbits
  49              		.align	1
  50              		.global	data_get
  51              		.syntax unified
  52              		.thumb
  53              		.thumb_func
  54              		.fpu fpv4-sp-d16
  56              	data_get:
ARM GAS  C:\Temp\ccf7skLl.s 			page 4


  57              	.LFB134:
 119:Src/module_test.c **** 
 120:Src/module_test.c **** 
 121:Src/module_test.c **** /* ---------------------------------------------------------------
 122:Src/module_test.c **** 	ãƒ­ã‚°å–å¾—ç”¨é–¢æ•°ï¼ˆ1msã‚¿ã‚¹ã‚¯ï¼‰
 123:Src/module_test.c **** --------------------------------------------------------------- */
 124:Src/module_test.c **** void data_get (void)
 125:Src/module_test.c **** {
  58              		.loc 1 125 1 is_stmt 1 view -0
  59              		.cfi_startproc
  60              		@ args = 0, pretend = 0, frame = 0
  61              		@ frame_needed = 0, uses_anonymous_args = 0
  62 0000 F8B5     		push	{r3, r4, r5, r6, r7, lr}
  63              	.LCFI0:
  64              		.cfi_def_cfa_offset 24
  65              		.cfi_offset 3, -24
  66              		.cfi_offset 4, -20
  67              		.cfi_offset 5, -16
  68              		.cfi_offset 6, -12
  69              		.cfi_offset 7, -8
  70              		.cfi_offset 14, -4
 126:Src/module_test.c **** 
 127:Src/module_test.c **** 	uint16_t i = 0;
  71              		.loc 1 127 2 view .LVU5
  72              	.LVL0:
 128:Src/module_test.c **** 	i = log_counter / log_count_step;
  73              		.loc 1 128 2 view .LVU6
  74              		.loc 1 128 4 is_stmt 0 view .LVU7
  75 0002 574B     		ldr	r3, .L8
  76 0004 1D88     		ldrh	r5, [r3]
  77              	.LVL1:
 129:Src/module_test.c **** 
 130:Src/module_test.c **** 	if(log_counter < log_count_lim)
  78              		.loc 1 130 2 is_stmt 1 view .LVU8
  79              		.loc 1 130 4 is_stmt 0 view .LVU9
  80 0006 B5F57A7F 		cmp	r5, #1000
  81 000a 00D3     		bcc	.L7
  82              	.L4:
 131:Src/module_test.c **** 	{
 132:Src/module_test.c **** 		if( (log_counter % log_count_step) == 0)
 133:Src/module_test.c **** 		{
 134:Src/module_test.c **** 			//æ¸¬å®šãƒ¢ãƒ¼ãƒ‰ï¼‘
 135:Src/module_test.c **** 			#ifdef DATA_DEFAULT
 136:Src/module_test.c **** 			log_store[i].time = (float)log_counter;
 137:Src/module_test.c **** 			log_store[i].target_d_m = (float)get_target_length();
 138:Src/module_test.c **** 			log_store[i].ideal_d_m = (float)get_ideal_length();
 139:Src/module_test.c **** 			log_store[i].real_d_m = (float)get_move_length();
 140:Src/module_test.c **** 			log_store[i].target_speed_m =  (float)get_target_move_speed();
 141:Src/module_test.c **** 			log_store[i].speed_m = (float)get_move_speed();
 142:Src/module_test.c **** 			log_store[i].speed_m_ave = (float)get_move_speed_ave();
 143:Src/module_test.c **** 			log_store[i].accel_m = (float)IMU_GetAccel_X();
 144:Src/module_test.c **** 			log_store[i].accel_m_ave = (float)get_move_accel_ave();
 145:Src/module_test.c **** 			log_store[i].target_d_w = (float)get_target_angle();
 146:Src/module_test.c **** 			log_store[i].ideal_d_w = (float)get_ideal_angle();
 147:Src/module_test.c **** 			log_store[i].real_d_w = (float)get_rotation_angle();
 148:Src/module_test.c **** 			log_store[i].target_speed_w = (float)get_target_rotation_speed();
 149:Src/module_test.c **** 			log_store[i].speed_w = (float)IMU_GetGyro_Z();
ARM GAS  C:\Temp\ccf7skLl.s 			page 5


 150:Src/module_test.c **** 			log_store[i].speed_w_fil = (float)get_rotation_speed();
 151:Src/module_test.c **** 			log_store[i].duty_r = (float)get_duty_r();
 152:Src/module_test.c **** 			log_store[i].duty_l = (float)get_duty_l();
 153:Src/module_test.c **** 			log_store[i].front_sensor_r = (float)Sensor_GetValue(3);
 154:Src/module_test.c **** 			log_store[i].front_sensor_l = (float)Sensor_GetValue(0);
 155:Src/module_test.c **** 			log_store[i].side_sensor_r = (float)Sensor_GetValue(2);
 156:Src/module_test.c **** 			log_store[i].side_sensor_l = (float)Sensor_GetValue(1);
 157:Src/module_test.c **** 			log_store[i].front_r = (float)get_frontrightwall_dis_table(Sensor_GetValue(3));
 158:Src/module_test.c **** 			log_store[i].front_l = (float)get_frontleftwall_dis_table(Sensor_GetValue(0));
 159:Src/module_test.c **** 			log_store[i].side_r = (float)get_sidewall_dis_table(Sensor_GetValue(2));
 160:Src/module_test.c **** 			log_store[i].side_l = (float)get_sidewall_dis_table(Sensor_GetValue(1));
 161:Src/module_test.c **** 			log_store[i].side_vol = (float)get_target_vol_diff_sidewall();
 162:Src/module_test.c **** 			log_store[i].side_mode = (float)get_side_wall_ctrl_mode();
 163:Src/module_test.c **** 			log_store[i].V_battery =(float) Battery_GetVoltage();
 164:Src/module_test.c **** 			#endif
 165:Src/module_test.c **** 
 166:Src/module_test.c **** 			//æ¸¬å®šãƒ¢ãƒ¼ãƒ‰ï¼’
 167:Src/module_test.c **** 			#ifdef DATA_SIDE
 168:Src/module_test.c **** 			log_store[i].time = (float)log_counter;
 169:Src/module_test.c **** 			log_store[i].real_d_m = (float)get_move_length();
 170:Src/module_test.c **** 			log_store[i].speed_m_ave = (float)get_move_speed_ave();
 171:Src/module_test.c **** 			log_store[i].duty_r = (float)get_target_duty_r();
 172:Src/module_test.c **** 			log_store[i].duty_l = (float)get_target_duty_l();
 173:Src/module_test.c **** 			log_store[i].front_sensor_r = (float)Sensor_GetValue(3);
 174:Src/module_test.c **** 			log_store[i].front_sensor_l = (float)Sensor_GetValue(0);
 175:Src/module_test.c **** 			log_store[i].side_sensor_r = (float)Sensor_GetValue(2);
 176:Src/module_test.c **** 			log_store[i].side_sensor_l = (float)Sensor_GetValue(1);
 177:Src/module_test.c **** 			log_store[i].front_r = (float)SensorValue2length(3);
 178:Src/module_test.c **** 			log_store[i].front_l = (float)SensorValue2length(0);
 179:Src/module_test.c **** 			log_store[i].side_r = (float)SensorValue2length(2);
 180:Src/module_test.c **** 			log_store[i].side_l = (float)SensorValue2length(1);
 181:Src/module_test.c **** 			log_store[i].side_r_target = (float)get_target_sensor_sr();
 182:Src/module_test.c **** 			log_store[i].side_l_target = (float)get_target_sensor_sl();
 183:Src/module_test.c **** 			log_store[i].side_r_th = (float)get_side_sensor_r_th();
 184:Src/module_test.c **** 			log_store[i].side_l_th = (float)get_side_sensor_l_th();
 185:Src/module_test.c **** 			log_store[i].side_vol = (float)get_target_vol_diff_sidewall();
 186:Src/module_test.c **** 			log_store[i].side_mode = (float)get_side_wall_ctrl_mode();
 187:Src/module_test.c **** 			log_store[i].V_battery =(float) Battery_GetVoltage();
 188:Src/module_test.c **** 			#endif
 189:Src/module_test.c **** 
 190:Src/module_test.c **** 			//æ¸¬å®šãƒ¢ãƒ¼ãƒ‰ï¼“
 191:Src/module_test.c **** 			#ifdef DATA_MAZE
 192:Src/module_test.c **** 			log_store[i].time = (float)log_counter;
 193:Src/module_test.c **** 			log_store[i].ideal_d_m = (float)get_ideal_length();
 194:Src/module_test.c **** 			log_store[i].speed_m_ave = (float)get_move_speed_ave();
 195:Src/module_test.c **** 			log_store[i].real_d_m = (float)get_move_length();
 196:Src/module_test.c **** 			log_store[i].ideal_d_w = (float)get_ideal_angle();
 197:Src/module_test.c **** 			log_store[i].speed_w = (float)get_rotation_speed();
 198:Src/module_test.c **** 			log_store[i].real_d_w = (float)get_rotation_angle();
 199:Src/module_test.c **** 			log_store[i].duty_r = (float)get_target_duty_r();
 200:Src/module_test.c **** 			log_store[i].duty_l = (float)get_target_duty_l();
 201:Src/module_test.c **** 			log_store[i].front_sensor_r = (float)Sensor_GetValue(3);
 202:Src/module_test.c **** 			log_store[i].front_sensor_l = (float)Sensor_GetValue(0);
 203:Src/module_test.c **** 			log_store[i].side_sensor_r = (float)Sensor_GetValue(2);
 204:Src/module_test.c **** 			log_store[i].side_sensor_l = (float)Sensor_GetValue(1);
 205:Src/module_test.c **** 			log_store[i].maze_x = (float)current_x.contents;		//ãƒã‚¦ã‚¹ã®xåº§æ¨™(ãƒã‚¹)
 206:Src/module_test.c **** 			log_store[i].maze_y = (float)current_y.contents;		//ãƒã‚¦ã‚¹ã®yåº§æ¨™(ãƒã‚¹)
ARM GAS  C:\Temp\ccf7skLl.s 			page 6


 207:Src/module_test.c **** 			log_store[i].wall_s_front = (float)wall_sensor_front;	//å‰å£åˆ¤å®šç”¨ã‚»ãƒ³ã‚µå€¤
 208:Src/module_test.c **** 			log_store[i].wall_s_right = (float)wall_sensor_right;	//å³å£åˆ¤å®šç”¨ã‚»ãƒ³ã‚µå€¤
 209:Src/module_test.c **** 			log_store[i].wall_s_left = (float)wall_sensor_left;		//å·¦å£åˆ¤å®šç”¨ã‚»ãƒ³ã‚µå€¤
 210:Src/module_test.c **** 			log_store[i].V_battery =(float) Battery_GetVoltage();
 211:Src/module_test.c **** 			#endif
 212:Src/module_test.c **** 		}
 213:Src/module_test.c **** 		log_counter += 1; //logã‚«ã‚¦ãƒ³ã‚¿æ›´æ–°
 214:Src/module_test.c **** 	}
 215:Src/module_test.c **** }
  83              		.loc 1 215 1 view .LVU10
  84 000c F8BD     		pop	{r3, r4, r5, r6, r7, pc}
  85              	.LVL2:
  86              	.L7:
 132:Src/module_test.c **** 		{
  87              		.loc 1 132 3 is_stmt 1 view .LVU11
 136:Src/module_test.c **** 			log_store[i].target_d_m = (float)get_target_length();
  88              		.loc 1 136 4 view .LVU12
 136:Src/module_test.c **** 			log_store[i].target_d_m = (float)get_target_length();
  89              		.loc 1 136 24 is_stmt 0 view .LVU13
  90 000e 07EE905A 		vmov	s15, r5	@ int
  91 0012 F8EE677A 		vcvt.f32.u32	s15, s15
 136:Src/module_test.c **** 			log_store[i].target_d_m = (float)get_target_length();
  92              		.loc 1 136 22 view .LVU14
  93 0016 534E     		ldr	r6, .L8+4
  94 0018 C5EBC504 		rsb	r4, r5, r5, lsl #3
  95 001c 06EB0414 		add	r4, r6, r4, lsl #4
  96 0020 C4ED007A 		vstr.32	s15, [r4]
 137:Src/module_test.c **** 			log_store[i].ideal_d_m = (float)get_ideal_length();
  97              		.loc 1 137 4 is_stmt 1 view .LVU15
 137:Src/module_test.c **** 			log_store[i].ideal_d_m = (float)get_ideal_length();
  98              		.loc 1 137 30 is_stmt 0 view .LVU16
  99 0024 FFF7FEFF 		bl	get_target_length
 100              	.LVL3:
 137:Src/module_test.c **** 			log_store[i].ideal_d_m = (float)get_ideal_length();
 101              		.loc 1 137 28 view .LVU17
 102 0028 84ED010A 		vstr.32	s0, [r4, #4]
 138:Src/module_test.c **** 			log_store[i].real_d_m = (float)get_move_length();
 103              		.loc 1 138 4 is_stmt 1 view .LVU18
 138:Src/module_test.c **** 			log_store[i].real_d_m = (float)get_move_length();
 104              		.loc 1 138 29 is_stmt 0 view .LVU19
 105 002c FFF7FEFF 		bl	get_ideal_length
 106              	.LVL4:
 138:Src/module_test.c **** 			log_store[i].real_d_m = (float)get_move_length();
 107              		.loc 1 138 27 view .LVU20
 108 0030 84ED020A 		vstr.32	s0, [r4, #8]
 139:Src/module_test.c **** 			log_store[i].target_speed_m =  (float)get_target_move_speed();
 109              		.loc 1 139 4 is_stmt 1 view .LVU21
 139:Src/module_test.c **** 			log_store[i].target_speed_m =  (float)get_target_move_speed();
 110              		.loc 1 139 28 is_stmt 0 view .LVU22
 111 0034 FFF7FEFF 		bl	get_move_length
 112              	.LVL5:
 139:Src/module_test.c **** 			log_store[i].target_speed_m =  (float)get_target_move_speed();
 113              		.loc 1 139 26 view .LVU23
 114 0038 84ED030A 		vstr.32	s0, [r4, #12]
 140:Src/module_test.c **** 			log_store[i].speed_m = (float)get_move_speed();
 115              		.loc 1 140 4 is_stmt 1 view .LVU24
 140:Src/module_test.c **** 			log_store[i].speed_m = (float)get_move_speed();
ARM GAS  C:\Temp\ccf7skLl.s 			page 7


 116              		.loc 1 140 35 is_stmt 0 view .LVU25
 117 003c FFF7FEFF 		bl	get_target_move_speed
 118              	.LVL6:
 140:Src/module_test.c **** 			log_store[i].speed_m = (float)get_move_speed();
 119              		.loc 1 140 32 view .LVU26
 120 0040 84ED040A 		vstr.32	s0, [r4, #16]
 141:Src/module_test.c **** 			log_store[i].speed_m_ave = (float)get_move_speed_ave();
 121              		.loc 1 141 4 is_stmt 1 view .LVU27
 141:Src/module_test.c **** 			log_store[i].speed_m_ave = (float)get_move_speed_ave();
 122              		.loc 1 141 27 is_stmt 0 view .LVU28
 123 0044 FFF7FEFF 		bl	get_move_speed
 124              	.LVL7:
 141:Src/module_test.c **** 			log_store[i].speed_m_ave = (float)get_move_speed_ave();
 125              		.loc 1 141 25 view .LVU29
 126 0048 84ED050A 		vstr.32	s0, [r4, #20]
 142:Src/module_test.c **** 			log_store[i].accel_m = (float)IMU_GetAccel_X();
 127              		.loc 1 142 4 is_stmt 1 view .LVU30
 142:Src/module_test.c **** 			log_store[i].accel_m = (float)IMU_GetAccel_X();
 128              		.loc 1 142 31 is_stmt 0 view .LVU31
 129 004c FFF7FEFF 		bl	get_move_speed_ave
 130              	.LVL8:
 142:Src/module_test.c **** 			log_store[i].accel_m = (float)IMU_GetAccel_X();
 131              		.loc 1 142 29 view .LVU32
 132 0050 84ED060A 		vstr.32	s0, [r4, #24]
 143:Src/module_test.c **** 			log_store[i].accel_m_ave = (float)get_move_accel_ave();
 133              		.loc 1 143 4 is_stmt 1 view .LVU33
 143:Src/module_test.c **** 			log_store[i].accel_m_ave = (float)get_move_accel_ave();
 134              		.loc 1 143 27 is_stmt 0 view .LVU34
 135 0054 FFF7FEFF 		bl	IMU_GetAccel_X
 136              	.LVL9:
 143:Src/module_test.c **** 			log_store[i].accel_m_ave = (float)get_move_accel_ave();
 137              		.loc 1 143 25 view .LVU35
 138 0058 84ED070A 		vstr.32	s0, [r4, #28]
 144:Src/module_test.c **** 			log_store[i].target_d_w = (float)get_target_angle();
 139              		.loc 1 144 4 is_stmt 1 view .LVU36
 144:Src/module_test.c **** 			log_store[i].target_d_w = (float)get_target_angle();
 140              		.loc 1 144 31 is_stmt 0 view .LVU37
 141 005c FFF7FEFF 		bl	get_move_accel_ave
 142              	.LVL10:
 144:Src/module_test.c **** 			log_store[i].target_d_w = (float)get_target_angle();
 143              		.loc 1 144 29 view .LVU38
 144 0060 84ED080A 		vstr.32	s0, [r4, #32]
 145:Src/module_test.c **** 			log_store[i].ideal_d_w = (float)get_ideal_angle();
 145              		.loc 1 145 4 is_stmt 1 view .LVU39
 145:Src/module_test.c **** 			log_store[i].ideal_d_w = (float)get_ideal_angle();
 146              		.loc 1 145 30 is_stmt 0 view .LVU40
 147 0064 FFF7FEFF 		bl	get_target_angle
 148              	.LVL11:
 145:Src/module_test.c **** 			log_store[i].ideal_d_w = (float)get_ideal_angle();
 149              		.loc 1 145 28 view .LVU41
 150 0068 84ED090A 		vstr.32	s0, [r4, #36]
 146:Src/module_test.c **** 			log_store[i].real_d_w = (float)get_rotation_angle();
 151              		.loc 1 146 4 is_stmt 1 view .LVU42
 146:Src/module_test.c **** 			log_store[i].real_d_w = (float)get_rotation_angle();
 152              		.loc 1 146 29 is_stmt 0 view .LVU43
 153 006c FFF7FEFF 		bl	get_ideal_angle
 154              	.LVL12:
ARM GAS  C:\Temp\ccf7skLl.s 			page 8


 146:Src/module_test.c **** 			log_store[i].real_d_w = (float)get_rotation_angle();
 155              		.loc 1 146 27 view .LVU44
 156 0070 84ED0A0A 		vstr.32	s0, [r4, #40]
 147:Src/module_test.c **** 			log_store[i].target_speed_w = (float)get_target_rotation_speed();
 157              		.loc 1 147 4 is_stmt 1 view .LVU45
 147:Src/module_test.c **** 			log_store[i].target_speed_w = (float)get_target_rotation_speed();
 158              		.loc 1 147 28 is_stmt 0 view .LVU46
 159 0074 FFF7FEFF 		bl	get_rotation_angle
 160              	.LVL13:
 147:Src/module_test.c **** 			log_store[i].target_speed_w = (float)get_target_rotation_speed();
 161              		.loc 1 147 26 view .LVU47
 162 0078 84ED0B0A 		vstr.32	s0, [r4, #44]
 148:Src/module_test.c **** 			log_store[i].speed_w = (float)IMU_GetGyro_Z();
 163              		.loc 1 148 4 is_stmt 1 view .LVU48
 148:Src/module_test.c **** 			log_store[i].speed_w = (float)IMU_GetGyro_Z();
 164              		.loc 1 148 34 is_stmt 0 view .LVU49
 165 007c FFF7FEFF 		bl	get_target_rotation_speed
 166              	.LVL14:
 148:Src/module_test.c **** 			log_store[i].speed_w = (float)IMU_GetGyro_Z();
 167              		.loc 1 148 32 view .LVU50
 168 0080 84ED0C0A 		vstr.32	s0, [r4, #48]
 149:Src/module_test.c **** 			log_store[i].speed_w_fil = (float)get_rotation_speed();
 169              		.loc 1 149 4 is_stmt 1 view .LVU51
 149:Src/module_test.c **** 			log_store[i].speed_w_fil = (float)get_rotation_speed();
 170              		.loc 1 149 27 is_stmt 0 view .LVU52
 171 0084 FFF7FEFF 		bl	IMU_GetGyro_Z
 172              	.LVL15:
 149:Src/module_test.c **** 			log_store[i].speed_w_fil = (float)get_rotation_speed();
 173              		.loc 1 149 25 view .LVU53
 174 0088 84ED0D0A 		vstr.32	s0, [r4, #52]
 150:Src/module_test.c **** 			log_store[i].duty_r = (float)get_duty_r();
 175              		.loc 1 150 4 is_stmt 1 view .LVU54
 150:Src/module_test.c **** 			log_store[i].duty_r = (float)get_duty_r();
 176              		.loc 1 150 31 is_stmt 0 view .LVU55
 177 008c FFF7FEFF 		bl	get_rotation_speed
 178              	.LVL16:
 150:Src/module_test.c **** 			log_store[i].duty_r = (float)get_duty_r();
 179              		.loc 1 150 29 view .LVU56
 180 0090 84ED0E0A 		vstr.32	s0, [r4, #56]
 151:Src/module_test.c **** 			log_store[i].duty_l = (float)get_duty_l();
 181              		.loc 1 151 4 is_stmt 1 view .LVU57
 151:Src/module_test.c **** 			log_store[i].duty_l = (float)get_duty_l();
 182              		.loc 1 151 33 is_stmt 0 view .LVU58
 183 0094 FFF7FEFF 		bl	get_duty_r
 184              	.LVL17:
 185 0098 07EE900A 		vmov	s15, r0	@ int
 151:Src/module_test.c **** 			log_store[i].duty_l = (float)get_duty_l();
 186              		.loc 1 151 26 view .LVU59
 187 009c F8EEE77A 		vcvt.f32.s32	s15, s15
 151:Src/module_test.c **** 			log_store[i].duty_l = (float)get_duty_l();
 188              		.loc 1 151 24 view .LVU60
 189 00a0 C4ED0F7A 		vstr.32	s15, [r4, #60]
 152:Src/module_test.c **** 			log_store[i].front_sensor_r = (float)Sensor_GetValue(3);
 190              		.loc 1 152 4 is_stmt 1 view .LVU61
 152:Src/module_test.c **** 			log_store[i].front_sensor_r = (float)Sensor_GetValue(3);
 191              		.loc 1 152 33 is_stmt 0 view .LVU62
 192 00a4 FFF7FEFF 		bl	get_duty_l
ARM GAS  C:\Temp\ccf7skLl.s 			page 9


 193              	.LVL18:
 194 00a8 07EE900A 		vmov	s15, r0	@ int
 152:Src/module_test.c **** 			log_store[i].front_sensor_r = (float)Sensor_GetValue(3);
 195              		.loc 1 152 26 view .LVU63
 196 00ac F8EEE77A 		vcvt.f32.s32	s15, s15
 152:Src/module_test.c **** 			log_store[i].front_sensor_r = (float)Sensor_GetValue(3);
 197              		.loc 1 152 24 view .LVU64
 198 00b0 C4ED107A 		vstr.32	s15, [r4, #64]
 153:Src/module_test.c **** 			log_store[i].front_sensor_l = (float)Sensor_GetValue(0);
 199              		.loc 1 153 4 is_stmt 1 view .LVU65
 153:Src/module_test.c **** 			log_store[i].front_sensor_l = (float)Sensor_GetValue(0);
 200              		.loc 1 153 41 is_stmt 0 view .LVU66
 201 00b4 0320     		movs	r0, #3
 202 00b6 FFF7FEFF 		bl	Sensor_GetValue
 203              	.LVL19:
 204 00ba 07EE900A 		vmov	s15, r0	@ int
 153:Src/module_test.c **** 			log_store[i].front_sensor_l = (float)Sensor_GetValue(0);
 205              		.loc 1 153 34 view .LVU67
 206 00be F8EEE77A 		vcvt.f32.s32	s15, s15
 153:Src/module_test.c **** 			log_store[i].front_sensor_l = (float)Sensor_GetValue(0);
 207              		.loc 1 153 32 view .LVU68
 208 00c2 C4ED117A 		vstr.32	s15, [r4, #68]
 154:Src/module_test.c **** 			log_store[i].side_sensor_r = (float)Sensor_GetValue(2);
 209              		.loc 1 154 4 is_stmt 1 view .LVU69
 154:Src/module_test.c **** 			log_store[i].side_sensor_r = (float)Sensor_GetValue(2);
 210              		.loc 1 154 41 is_stmt 0 view .LVU70
 211 00c6 0020     		movs	r0, #0
 212 00c8 FFF7FEFF 		bl	Sensor_GetValue
 213              	.LVL20:
 214 00cc 07EE900A 		vmov	s15, r0	@ int
 154:Src/module_test.c **** 			log_store[i].side_sensor_r = (float)Sensor_GetValue(2);
 215              		.loc 1 154 34 view .LVU71
 216 00d0 F8EEE77A 		vcvt.f32.s32	s15, s15
 154:Src/module_test.c **** 			log_store[i].side_sensor_r = (float)Sensor_GetValue(2);
 217              		.loc 1 154 32 view .LVU72
 218 00d4 C4ED127A 		vstr.32	s15, [r4, #72]
 155:Src/module_test.c **** 			log_store[i].side_sensor_l = (float)Sensor_GetValue(1);
 219              		.loc 1 155 4 is_stmt 1 view .LVU73
 155:Src/module_test.c **** 			log_store[i].side_sensor_l = (float)Sensor_GetValue(1);
 220              		.loc 1 155 40 is_stmt 0 view .LVU74
 221 00d8 0220     		movs	r0, #2
 222 00da FFF7FEFF 		bl	Sensor_GetValue
 223              	.LVL21:
 224 00de 07EE900A 		vmov	s15, r0	@ int
 155:Src/module_test.c **** 			log_store[i].side_sensor_l = (float)Sensor_GetValue(1);
 225              		.loc 1 155 33 view .LVU75
 226 00e2 F8EEE77A 		vcvt.f32.s32	s15, s15
 155:Src/module_test.c **** 			log_store[i].side_sensor_l = (float)Sensor_GetValue(1);
 227              		.loc 1 155 31 view .LVU76
 228 00e6 C4ED137A 		vstr.32	s15, [r4, #76]
 156:Src/module_test.c **** 			log_store[i].front_r = (float)get_frontrightwall_dis_table(Sensor_GetValue(3));
 229              		.loc 1 156 4 is_stmt 1 view .LVU77
 156:Src/module_test.c **** 			log_store[i].front_r = (float)get_frontrightwall_dis_table(Sensor_GetValue(3));
 230              		.loc 1 156 40 is_stmt 0 view .LVU78
 231 00ea 0120     		movs	r0, #1
 232 00ec FFF7FEFF 		bl	Sensor_GetValue
 233              	.LVL22:
ARM GAS  C:\Temp\ccf7skLl.s 			page 10


 234 00f0 07EE900A 		vmov	s15, r0	@ int
 156:Src/module_test.c **** 			log_store[i].front_r = (float)get_frontrightwall_dis_table(Sensor_GetValue(3));
 235              		.loc 1 156 33 view .LVU79
 236 00f4 F8EEE77A 		vcvt.f32.s32	s15, s15
 156:Src/module_test.c **** 			log_store[i].front_r = (float)get_frontrightwall_dis_table(Sensor_GetValue(3));
 237              		.loc 1 156 31 view .LVU80
 238 00f8 C4ED147A 		vstr.32	s15, [r4, #80]
 157:Src/module_test.c **** 			log_store[i].front_l = (float)get_frontleftwall_dis_table(Sensor_GetValue(0));
 239              		.loc 1 157 4 is_stmt 1 view .LVU81
 157:Src/module_test.c **** 			log_store[i].front_l = (float)get_frontleftwall_dis_table(Sensor_GetValue(0));
 240              		.loc 1 157 27 is_stmt 0 view .LVU82
 241 00fc 0320     		movs	r0, #3
 242 00fe FFF7FEFF 		bl	Sensor_GetValue
 243              	.LVL23:
 244 0102 FFF7FEFF 		bl	get_frontrightwall_dis_table
 245              	.LVL24:
 157:Src/module_test.c **** 			log_store[i].front_l = (float)get_frontleftwall_dis_table(Sensor_GetValue(0));
 246              		.loc 1 157 25 view .LVU83
 247 0106 84ED150A 		vstr.32	s0, [r4, #84]
 158:Src/module_test.c **** 			log_store[i].side_r = (float)get_sidewall_dis_table(Sensor_GetValue(2));
 248              		.loc 1 158 4 is_stmt 1 view .LVU84
 158:Src/module_test.c **** 			log_store[i].side_r = (float)get_sidewall_dis_table(Sensor_GetValue(2));
 249              		.loc 1 158 27 is_stmt 0 view .LVU85
 250 010a 0020     		movs	r0, #0
 251 010c FFF7FEFF 		bl	Sensor_GetValue
 252              	.LVL25:
 253 0110 FFF7FEFF 		bl	get_frontleftwall_dis_table
 254              	.LVL26:
 158:Src/module_test.c **** 			log_store[i].side_r = (float)get_sidewall_dis_table(Sensor_GetValue(2));
 255              		.loc 1 158 25 view .LVU86
 256 0114 84ED160A 		vstr.32	s0, [r4, #88]
 159:Src/module_test.c **** 			log_store[i].side_l = (float)get_sidewall_dis_table(Sensor_GetValue(1));
 257              		.loc 1 159 4 is_stmt 1 view .LVU87
 159:Src/module_test.c **** 			log_store[i].side_l = (float)get_sidewall_dis_table(Sensor_GetValue(1));
 258              		.loc 1 159 26 is_stmt 0 view .LVU88
 259 0118 0220     		movs	r0, #2
 260 011a FFF7FEFF 		bl	Sensor_GetValue
 261              	.LVL27:
 262 011e FFF7FEFF 		bl	get_sidewall_dis_table
 263              	.LVL28:
 159:Src/module_test.c **** 			log_store[i].side_l = (float)get_sidewall_dis_table(Sensor_GetValue(1));
 264              		.loc 1 159 24 view .LVU89
 265 0122 84ED170A 		vstr.32	s0, [r4, #92]
 160:Src/module_test.c **** 			log_store[i].side_vol = (float)get_target_vol_diff_sidewall();
 266              		.loc 1 160 4 is_stmt 1 view .LVU90
 160:Src/module_test.c **** 			log_store[i].side_vol = (float)get_target_vol_diff_sidewall();
 267              		.loc 1 160 26 is_stmt 0 view .LVU91
 268 0126 0120     		movs	r0, #1
 269 0128 FFF7FEFF 		bl	Sensor_GetValue
 270              	.LVL29:
 271 012c FFF7FEFF 		bl	get_sidewall_dis_table
 272              	.LVL30:
 160:Src/module_test.c **** 			log_store[i].side_vol = (float)get_target_vol_diff_sidewall();
 273              		.loc 1 160 24 view .LVU92
 274 0130 84ED180A 		vstr.32	s0, [r4, #96]
 161:Src/module_test.c **** 			log_store[i].side_mode = (float)get_side_wall_ctrl_mode();
 275              		.loc 1 161 4 is_stmt 1 view .LVU93
ARM GAS  C:\Temp\ccf7skLl.s 			page 11


 161:Src/module_test.c **** 			log_store[i].side_mode = (float)get_side_wall_ctrl_mode();
 276              		.loc 1 161 28 is_stmt 0 view .LVU94
 277 0134 FFF7FEFF 		bl	get_target_vol_diff_sidewall
 278              	.LVL31:
 161:Src/module_test.c **** 			log_store[i].side_mode = (float)get_side_wall_ctrl_mode();
 279              		.loc 1 161 26 view .LVU95
 280 0138 84ED190A 		vstr.32	s0, [r4, #100]
 162:Src/module_test.c **** 			log_store[i].V_battery =(float) Battery_GetVoltage();
 281              		.loc 1 162 4 is_stmt 1 view .LVU96
 162:Src/module_test.c **** 			log_store[i].V_battery =(float) Battery_GetVoltage();
 282              		.loc 1 162 36 is_stmt 0 view .LVU97
 283 013c FFF7FEFF 		bl	get_side_wall_ctrl_mode
 284              	.LVL32:
 285 0140 07EE900A 		vmov	s15, r0	@ int
 162:Src/module_test.c **** 			log_store[i].V_battery =(float) Battery_GetVoltage();
 286              		.loc 1 162 29 view .LVU98
 287 0144 F8EE677A 		vcvt.f32.u32	s15, s15
 162:Src/module_test.c **** 			log_store[i].V_battery =(float) Battery_GetVoltage();
 288              		.loc 1 162 27 view .LVU99
 289 0148 C4ED1A7A 		vstr.32	s15, [r4, #104]
 163:Src/module_test.c **** 			#endif
 290              		.loc 1 163 4 is_stmt 1 view .LVU100
 163:Src/module_test.c **** 			#endif
 291              		.loc 1 163 28 is_stmt 0 view .LVU101
 292 014c FFF7FEFF 		bl	Battery_GetVoltage
 293              	.LVL33:
 163:Src/module_test.c **** 			#endif
 294              		.loc 1 163 27 view .LVU102
 295 0150 84ED1B0A 		vstr.32	s0, [r4, #108]
 213:Src/module_test.c **** 	}
 296              		.loc 1 213 3 is_stmt 1 view .LVU103
 213:Src/module_test.c **** 	}
 297              		.loc 1 213 15 is_stmt 0 view .LVU104
 298 0154 024A     		ldr	r2, .L8
 299 0156 1388     		ldrh	r3, [r2]
 300 0158 0133     		adds	r3, r3, #1
 301 015a 1380     		strh	r3, [r2]	@ movhi
 302              		.loc 1 215 1 view .LVU105
 303 015c 56E7     		b	.L4
 304              	.L9:
 305 015e 00BF     		.align	2
 306              	.L8:
 307 0160 00000000 		.word	.LANCHOR0
 308 0164 00000000 		.word	log_store
 309              		.cfi_endproc
 310              	.LFE134:
 312              		.section	.rodata.data_read.str1.4,"aMS",%progbits,1
 313              		.align	2
 314              	.LC0:
 315 0000 54494D45 		.ascii	"TIME[ms],target_distance[m],ideal_distance[m],curre"
 315      5B6D735D 
 315      2C746172 
 315      6765745F 
 315      64697374 
 316 0033 6E745F64 		.ascii	"nt_distance[m],TARGET_SPEED_m[m/s],SPEED_m[m/s],SPE"
 316      69737461 
 316      6E63655B 
ARM GAS  C:\Temp\ccf7skLl.s 			page 12


 316      6D5D2C54 
 316      41524745 
 317 0066 45445F6D 		.ascii	"ED_m_ave[m/s],accel_m[m/s2],accel_m_ave[m/s2],targe"
 317      5F617665 
 317      5B6D2F73 
 317      5D2C6163 
 317      63656C5F 
 318 0099 745F616E 		.ascii	"t_angle[rad],ideal_angle[rad],current_angle[rad],ta"
 318      676C655B 
 318      7261645D 
 318      2C696465 
 318      616C5F61 
 319 00cc 72676574 		.ascii	"rget_speed_w[rad/s],speed_w[rad/s],speed_w_fil[rad/"
 319      5F737065 
 319      65645F77 
 319      5B726164 
 319      2F735D2C 
 320 00ff 735D2C44 		.ascii	"s],DUTY_R[%%],Duty_L[%%],front_r,front_l,side_r,sid"
 320      5554595F 
 320      525B2525 
 320      5D2C4475 
 320      74795F4C 
 321 0132 655F6C2C 		.ascii	"e_l,front_r[m],front_l[m],side_r[m],side_l[m],side_"
 321      66726F6E 
 321      745F725B 
 321      6D5D2C66 
 321      726F6E74 
 322 0165 766F6C2C 		.ascii	"vol,side_mode,V_battery[V]\015\012\000"
 322      73696465 
 322      5F6D6F64 
 322      652C565F 
 322      62617474 
 323              		.global	__aeabi_f2d
 324 0182 0000     		.align	2
 325              	.LC1:
 326 0184 25662C00 		.ascii	"%f,\000"
 327              		.align	2
 328              	.LC2:
 329 0188 256600   		.ascii	"%f\000"
 330 018b 00       		.align	2
 331              	.LC3:
 332 018c 0D00     		.ascii	"\015\000"
 333              		.section	.text.data_read,"ax",%progbits
 334              		.align	1
 335              		.global	data_read
 336              		.syntax unified
 337              		.thumb
 338              		.thumb_func
 339              		.fpu fpv4-sp-d16
 341              	data_read:
 342              	.LFB135:
 216:Src/module_test.c **** 
 217:Src/module_test.c **** /* ---------------------------------------------------------------
 218:Src/module_test.c **** 	ãƒ­ã‚°åãå‡ºã—ç”¨é–¢æ•°
 219:Src/module_test.c **** --------------------------------------------------------------- */
 220:Src/module_test.c **** void data_read(void)
 221:Src/module_test.c **** {
ARM GAS  C:\Temp\ccf7skLl.s 			page 13


 343              		.loc 1 221 1 is_stmt 1 view -0
 344              		.cfi_startproc
 345              		@ args = 0, pretend = 0, frame = 0
 346              		@ frame_needed = 0, uses_anonymous_args = 0
 347 0000 2DE9F041 		push	{r4, r5, r6, r7, r8, lr}
 348              	.LCFI1:
 349              		.cfi_def_cfa_offset 24
 350              		.cfi_offset 4, -24
 351              		.cfi_offset 5, -20
 352              		.cfi_offset 6, -16
 353              		.cfi_offset 7, -12
 354              		.cfi_offset 8, -8
 355              		.cfi_offset 14, -4
 222:Src/module_test.c **** 
 223:Src/module_test.c **** 	uint16_t i = 0;
 356              		.loc 1 223 2 view .LVU107
 357              	.LVL34:
 224:Src/module_test.c **** 	uint16_t j = 0;
 358              		.loc 1 224 2 view .LVU108
 225:Src/module_test.c **** 
 226:Src/module_test.c **** 	j =  log_count_lim / log_count_step - 1 ;
 359              		.loc 1 226 2 view .LVU109
 227:Src/module_test.c **** 
 228:Src/module_test.c **** 	//printfã§ä¸€è¡Œã¥ã¤æ›¸ãå‡ºã—ã¦ã„ãã€‚
 229:Src/module_test.c **** 	//ä¸€è¡Œç›®ã¯ãƒ‘ãƒ©ãƒ¡ãƒ¼ã‚¿å
 230:Src/module_test.c **** 	#ifdef DATA_DEFAULT
 231:Src/module_test.c **** 	printf ("TIME[ms],target_distance[m],ideal_distance[m],current_distance[m],TARGET_SPEED_m[m/s],SPE
 360              		.loc 1 231 2 view .LVU110
 361 0004 7A48     		ldr	r0, .L15
 362 0006 FFF7FEFF 		bl	printf
 363              	.LVL35:
 232:Src/module_test.c **** 			"accel_m[m/s2],accel_m_ave[m/s2],target_angle[rad],ideal_angle[rad],current_angle[rad],target_sp
 233:Src/module_test.c **** 			"speed_w[rad/s],speed_w_fil[rad/s],DUTY_R[%%],Duty_L[%%],front_r,front_l,side_r,side_l,front_r[m
 234:Src/module_test.c **** 	#endif
 235:Src/module_test.c **** 
 236:Src/module_test.c **** 	#ifdef DATA_SIDE
 237:Src/module_test.c **** 	printf ("TIME[ms],current_distance[m],SPEED_m_ave[m/s],"
 238:Src/module_test.c **** 			"DUTY_R[%%],Duty_L[%%],front_r,front_l,side_r,side_l,"
 239:Src/module_test.c **** 			"front_r[m],front_l[m],side_r[m],side_l[m],side_r_target[m],side_l_target[m],"
 240:Src/module_test.c **** 			"side_r_th,side_l_th,side_vol[V],side_mode,V_battery[V]\r\n");	//ãƒ‘ãƒ©ãƒ¡ãƒ¼ã‚¿åã‚’è¨˜è¿°
 241:Src/module_test.c **** 	#endif
 242:Src/module_test.c **** 
 243:Src/module_test.c **** 	#ifdef DATA_MAZE
 244:Src/module_test.c **** 	printf ("TIME[ms],ideal_distance[m],current_distance[m],SPEED_m_ave[m/s],"
 245:Src/module_test.c **** 			"ideal_angle[rad],speed_w[rad/s],current_angle[rad],"
 246:Src/module_test.c **** 			"DUTY_R[%%],Duty_L[%%],front_r,front_l,side_r,side_l,"
 247:Src/module_test.c **** 			"maze_x,maze_y,wall_jud_front,wall_jud_right,wall_jud_left,"
 248:Src/module_test.c **** 			"V_battery[V]\r\n");	//ãƒ‘ãƒ©ãƒ¡ãƒ¼ã‚¿åã‚’è¨˜è¿°
 249:Src/module_test.c **** 	#endif
 250:Src/module_test.c **** 
 251:Src/module_test.c **** 	for(i = 0; i <= j ; i++)
 364              		.loc 1 251 2 view .LVU111
 365              		.loc 1 251 8 is_stmt 0 view .LVU112
 366 000a 0026     		movs	r6, #0
 367              	.LVL36:
 368              	.L11:
 369              		.loc 1 251 13 is_stmt 1 discriminator 1 view .LVU113
ARM GAS  C:\Temp\ccf7skLl.s 			page 14


 370              		.loc 1 251 2 is_stmt 0 discriminator 1 view .LVU114
 371 000c B6F57A7F 		cmp	r6, #1000
 372 0010 80F0EC80 		bcs	.L14
 252:Src/module_test.c **** 	{
 253:Src/module_test.c **** 		#ifdef DATA_DEFAULT
 254:Src/module_test.c **** 		printf("%f,",log_store[i].time);
 373              		.loc 1 254 3 is_stmt 1 discriminator 3 view .LVU115
 374              		.loc 1 254 28 is_stmt 0 discriminator 3 view .LVU116
 375 0014 774F     		ldr	r7, .L15+4
 376 0016 C6EBC604 		rsb	r4, r6, r6, lsl #3
 377 001a 07EB0414 		add	r4, r7, r4, lsl #4
 378              		.loc 1 254 3 discriminator 3 view .LVU117
 379 001e 2068     		ldr	r0, [r4]	@ float
 380 0020 FFF7FEFF 		bl	__aeabi_f2d
 381              	.LVL37:
 382 0024 0246     		mov	r2, r0
 383 0026 0B46     		mov	r3, r1
 384 0028 734D     		ldr	r5, .L15+8
 385 002a 2846     		mov	r0, r5
 386 002c FFF7FEFF 		bl	printf
 387              	.LVL38:
 255:Src/module_test.c **** 		printf("%f,",log_store[i].target_d_m);
 388              		.loc 1 255 3 is_stmt 1 discriminator 3 view .LVU118
 389 0030 6068     		ldr	r0, [r4, #4]	@ float
 390 0032 FFF7FEFF 		bl	__aeabi_f2d
 391              	.LVL39:
 392 0036 0246     		mov	r2, r0
 393 0038 0B46     		mov	r3, r1
 394 003a 2846     		mov	r0, r5
 395 003c FFF7FEFF 		bl	printf
 396              	.LVL40:
 256:Src/module_test.c **** 		printf("%f,",log_store[i].ideal_d_m);
 397              		.loc 1 256 3 discriminator 3 view .LVU119
 398 0040 A068     		ldr	r0, [r4, #8]	@ float
 399 0042 FFF7FEFF 		bl	__aeabi_f2d
 400              	.LVL41:
 401 0046 0246     		mov	r2, r0
 402 0048 0B46     		mov	r3, r1
 403 004a 2846     		mov	r0, r5
 404 004c FFF7FEFF 		bl	printf
 405              	.LVL42:
 257:Src/module_test.c **** 		printf("%f,",log_store[i].real_d_m);
 406              		.loc 1 257 3 discriminator 3 view .LVU120
 407 0050 E068     		ldr	r0, [r4, #12]	@ float
 408 0052 FFF7FEFF 		bl	__aeabi_f2d
 409              	.LVL43:
 410 0056 0246     		mov	r2, r0
 411 0058 0B46     		mov	r3, r1
 412 005a 2846     		mov	r0, r5
 413 005c FFF7FEFF 		bl	printf
 414              	.LVL44:
 258:Src/module_test.c **** 		printf("%f,",log_store[i].target_speed_m);
 415              		.loc 1 258 3 discriminator 3 view .LVU121
 416 0060 2069     		ldr	r0, [r4, #16]	@ float
 417 0062 FFF7FEFF 		bl	__aeabi_f2d
 418              	.LVL45:
 419 0066 0246     		mov	r2, r0
ARM GAS  C:\Temp\ccf7skLl.s 			page 15


 420 0068 0B46     		mov	r3, r1
 421 006a 2846     		mov	r0, r5
 422 006c FFF7FEFF 		bl	printf
 423              	.LVL46:
 259:Src/module_test.c **** 		printf("%f,",log_store[i].speed_m);
 424              		.loc 1 259 3 discriminator 3 view .LVU122
 425 0070 6069     		ldr	r0, [r4, #20]	@ float
 426 0072 FFF7FEFF 		bl	__aeabi_f2d
 427              	.LVL47:
 428 0076 0246     		mov	r2, r0
 429 0078 0B46     		mov	r3, r1
 430 007a 2846     		mov	r0, r5
 431 007c FFF7FEFF 		bl	printf
 432              	.LVL48:
 260:Src/module_test.c **** 		printf("%f,",log_store[i].speed_m_ave);
 433              		.loc 1 260 3 discriminator 3 view .LVU123
 434 0080 A069     		ldr	r0, [r4, #24]	@ float
 435 0082 FFF7FEFF 		bl	__aeabi_f2d
 436              	.LVL49:
 437 0086 0246     		mov	r2, r0
 438 0088 0B46     		mov	r3, r1
 439 008a 2846     		mov	r0, r5
 440 008c FFF7FEFF 		bl	printf
 441              	.LVL50:
 261:Src/module_test.c **** 		printf("%f,",log_store[i].accel_m);
 442              		.loc 1 261 3 discriminator 3 view .LVU124
 443 0090 E069     		ldr	r0, [r4, #28]	@ float
 444 0092 FFF7FEFF 		bl	__aeabi_f2d
 445              	.LVL51:
 446 0096 0246     		mov	r2, r0
 447 0098 0B46     		mov	r3, r1
 448 009a 2846     		mov	r0, r5
 449 009c FFF7FEFF 		bl	printf
 450              	.LVL52:
 262:Src/module_test.c **** 		printf("%f,",log_store[i].accel_m_ave);
 451              		.loc 1 262 3 discriminator 3 view .LVU125
 452 00a0 206A     		ldr	r0, [r4, #32]	@ float
 453 00a2 FFF7FEFF 		bl	__aeabi_f2d
 454              	.LVL53:
 455 00a6 0246     		mov	r2, r0
 456 00a8 0B46     		mov	r3, r1
 457 00aa 2846     		mov	r0, r5
 458 00ac FFF7FEFF 		bl	printf
 459              	.LVL54:
 263:Src/module_test.c **** 		printf("%f,",log_store[i].target_d_w);
 460              		.loc 1 263 3 discriminator 3 view .LVU126
 461 00b0 606A     		ldr	r0, [r4, #36]	@ float
 462 00b2 FFF7FEFF 		bl	__aeabi_f2d
 463              	.LVL55:
 464 00b6 0246     		mov	r2, r0
 465 00b8 0B46     		mov	r3, r1
 466 00ba 2846     		mov	r0, r5
 467 00bc FFF7FEFF 		bl	printf
 468              	.LVL56:
 264:Src/module_test.c **** 		printf("%f,",log_store[i].ideal_d_w);
 469              		.loc 1 264 3 discriminator 3 view .LVU127
 470 00c0 A06A     		ldr	r0, [r4, #40]	@ float
ARM GAS  C:\Temp\ccf7skLl.s 			page 16


 471 00c2 FFF7FEFF 		bl	__aeabi_f2d
 472              	.LVL57:
 473 00c6 0246     		mov	r2, r0
 474 00c8 0B46     		mov	r3, r1
 475 00ca 2846     		mov	r0, r5
 476 00cc FFF7FEFF 		bl	printf
 477              	.LVL58:
 265:Src/module_test.c **** 		printf("%f,",log_store[i].real_d_w);
 478              		.loc 1 265 3 discriminator 3 view .LVU128
 479 00d0 E06A     		ldr	r0, [r4, #44]	@ float
 480 00d2 FFF7FEFF 		bl	__aeabi_f2d
 481              	.LVL59:
 482 00d6 0246     		mov	r2, r0
 483 00d8 0B46     		mov	r3, r1
 484 00da 2846     		mov	r0, r5
 485 00dc FFF7FEFF 		bl	printf
 486              	.LVL60:
 266:Src/module_test.c **** 		printf("%f,",log_store[i].target_speed_w);
 487              		.loc 1 266 3 discriminator 3 view .LVU129
 488 00e0 206B     		ldr	r0, [r4, #48]	@ float
 489 00e2 FFF7FEFF 		bl	__aeabi_f2d
 490              	.LVL61:
 491 00e6 0246     		mov	r2, r0
 492 00e8 0B46     		mov	r3, r1
 493 00ea 2846     		mov	r0, r5
 494 00ec FFF7FEFF 		bl	printf
 495              	.LVL62:
 267:Src/module_test.c **** 		printf("%f,",log_store[i].speed_w);
 496              		.loc 1 267 3 discriminator 3 view .LVU130
 497 00f0 606B     		ldr	r0, [r4, #52]	@ float
 498 00f2 FFF7FEFF 		bl	__aeabi_f2d
 499              	.LVL63:
 500 00f6 0246     		mov	r2, r0
 501 00f8 0B46     		mov	r3, r1
 502 00fa 2846     		mov	r0, r5
 503 00fc FFF7FEFF 		bl	printf
 504              	.LVL64:
 268:Src/module_test.c **** 		printf("%f,",log_store[i].speed_w_fil);
 505              		.loc 1 268 3 discriminator 3 view .LVU131
 506 0100 A06B     		ldr	r0, [r4, #56]	@ float
 507 0102 FFF7FEFF 		bl	__aeabi_f2d
 508              	.LVL65:
 509 0106 0246     		mov	r2, r0
 510 0108 0B46     		mov	r3, r1
 511 010a 2846     		mov	r0, r5
 512 010c FFF7FEFF 		bl	printf
 513              	.LVL66:
 269:Src/module_test.c **** 		printf("%f,",log_store[i].duty_r);
 514              		.loc 1 269 3 discriminator 3 view .LVU132
 515 0110 E06B     		ldr	r0, [r4, #60]	@ float
 516 0112 FFF7FEFF 		bl	__aeabi_f2d
 517              	.LVL67:
 518 0116 0246     		mov	r2, r0
 519 0118 0B46     		mov	r3, r1
 520 011a 2846     		mov	r0, r5
 521 011c FFF7FEFF 		bl	printf
 522              	.LVL68:
ARM GAS  C:\Temp\ccf7skLl.s 			page 17


 270:Src/module_test.c **** 		printf("%f,",log_store[i].duty_l);
 523              		.loc 1 270 3 discriminator 3 view .LVU133
 524 0120 206C     		ldr	r0, [r4, #64]	@ float
 525 0122 FFF7FEFF 		bl	__aeabi_f2d
 526              	.LVL69:
 527 0126 0246     		mov	r2, r0
 528 0128 0B46     		mov	r3, r1
 529 012a 2846     		mov	r0, r5
 530 012c FFF7FEFF 		bl	printf
 531              	.LVL70:
 271:Src/module_test.c **** 		printf("%f,",log_store[i].front_sensor_r);
 532              		.loc 1 271 3 discriminator 3 view .LVU134
 533 0130 606C     		ldr	r0, [r4, #68]	@ float
 534 0132 FFF7FEFF 		bl	__aeabi_f2d
 535              	.LVL71:
 536 0136 0246     		mov	r2, r0
 537 0138 0B46     		mov	r3, r1
 538 013a 2846     		mov	r0, r5
 539 013c FFF7FEFF 		bl	printf
 540              	.LVL72:
 272:Src/module_test.c **** 		printf("%f,",log_store[i].front_sensor_l);
 541              		.loc 1 272 3 discriminator 3 view .LVU135
 542 0140 A06C     		ldr	r0, [r4, #72]	@ float
 543 0142 FFF7FEFF 		bl	__aeabi_f2d
 544              	.LVL73:
 545 0146 0246     		mov	r2, r0
 546 0148 0B46     		mov	r3, r1
 547 014a 2846     		mov	r0, r5
 548 014c FFF7FEFF 		bl	printf
 549              	.LVL74:
 273:Src/module_test.c **** 		printf("%f,",log_store[i].side_sensor_r);
 550              		.loc 1 273 3 discriminator 3 view .LVU136
 551 0150 E06C     		ldr	r0, [r4, #76]	@ float
 552 0152 FFF7FEFF 		bl	__aeabi_f2d
 553              	.LVL75:
 554 0156 0246     		mov	r2, r0
 555 0158 0B46     		mov	r3, r1
 556 015a 2846     		mov	r0, r5
 557 015c FFF7FEFF 		bl	printf
 558              	.LVL76:
 274:Src/module_test.c **** 		printf("%f,",log_store[i].side_sensor_l);
 559              		.loc 1 274 3 discriminator 3 view .LVU137
 560 0160 206D     		ldr	r0, [r4, #80]	@ float
 561 0162 FFF7FEFF 		bl	__aeabi_f2d
 562              	.LVL77:
 563 0166 0246     		mov	r2, r0
 564 0168 0B46     		mov	r3, r1
 565 016a 2846     		mov	r0, r5
 566 016c FFF7FEFF 		bl	printf
 567              	.LVL78:
 275:Src/module_test.c **** 		printf("%f,",log_store[i].front_r);
 568              		.loc 1 275 3 discriminator 3 view .LVU138
 569 0170 606D     		ldr	r0, [r4, #84]	@ float
 570 0172 FFF7FEFF 		bl	__aeabi_f2d
 571              	.LVL79:
 572 0176 0246     		mov	r2, r0
 573 0178 0B46     		mov	r3, r1
ARM GAS  C:\Temp\ccf7skLl.s 			page 18


 574 017a 2846     		mov	r0, r5
 575 017c FFF7FEFF 		bl	printf
 576              	.LVL80:
 276:Src/module_test.c **** 		printf("%f,",log_store[i].front_l);
 577              		.loc 1 276 3 discriminator 3 view .LVU139
 578 0180 A06D     		ldr	r0, [r4, #88]	@ float
 579 0182 FFF7FEFF 		bl	__aeabi_f2d
 580              	.LVL81:
 581 0186 0246     		mov	r2, r0
 582 0188 0B46     		mov	r3, r1
 583 018a 2846     		mov	r0, r5
 584 018c FFF7FEFF 		bl	printf
 585              	.LVL82:
 277:Src/module_test.c **** 		printf("%f,",log_store[i].side_r);
 586              		.loc 1 277 3 discriminator 3 view .LVU140
 587 0190 E06D     		ldr	r0, [r4, #92]	@ float
 588 0192 FFF7FEFF 		bl	__aeabi_f2d
 589              	.LVL83:
 590 0196 0246     		mov	r2, r0
 591 0198 0B46     		mov	r3, r1
 592 019a 2846     		mov	r0, r5
 593 019c FFF7FEFF 		bl	printf
 594              	.LVL84:
 278:Src/module_test.c **** 		printf("%f,",log_store[i].side_l);
 595              		.loc 1 278 3 discriminator 3 view .LVU141
 596 01a0 206E     		ldr	r0, [r4, #96]	@ float
 597 01a2 FFF7FEFF 		bl	__aeabi_f2d
 598              	.LVL85:
 599 01a6 0246     		mov	r2, r0
 600 01a8 0B46     		mov	r3, r1
 601 01aa 2846     		mov	r0, r5
 602 01ac FFF7FEFF 		bl	printf
 603              	.LVL86:
 279:Src/module_test.c **** 		printf("%f,",log_store[i].side_vol);
 604              		.loc 1 279 3 discriminator 3 view .LVU142
 605 01b0 606E     		ldr	r0, [r4, #100]	@ float
 606 01b2 FFF7FEFF 		bl	__aeabi_f2d
 607              	.LVL87:
 608 01b6 0246     		mov	r2, r0
 609 01b8 0B46     		mov	r3, r1
 610 01ba 2846     		mov	r0, r5
 611 01bc FFF7FEFF 		bl	printf
 612              	.LVL88:
 280:Src/module_test.c **** 		printf("%f,",log_store[i].side_mode);
 613              		.loc 1 280 3 discriminator 3 view .LVU143
 614 01c0 A06E     		ldr	r0, [r4, #104]	@ float
 615 01c2 FFF7FEFF 		bl	__aeabi_f2d
 616              	.LVL89:
 617 01c6 0246     		mov	r2, r0
 618 01c8 0B46     		mov	r3, r1
 619 01ca 2846     		mov	r0, r5
 620 01cc FFF7FEFF 		bl	printf
 621              	.LVL90:
 281:Src/module_test.c **** 		printf("%f",log_store[i].V_battery);			//æœ€å¾Œã¯ã‚«ãƒ³ãƒãªã—
 622              		.loc 1 281 3 discriminator 3 view .LVU144
 623 01d0 E06E     		ldr	r0, [r4, #108]	@ float
 624 01d2 FFF7FEFF 		bl	__aeabi_f2d
ARM GAS  C:\Temp\ccf7skLl.s 			page 19


 625              	.LVL91:
 626 01d6 0246     		mov	r2, r0
 627 01d8 0B46     		mov	r3, r1
 628 01da 0848     		ldr	r0, .L15+12
 629 01dc FFF7FEFF 		bl	printf
 630              	.LVL92:
 282:Src/module_test.c **** 		printf("\r\n"); //m æ”¹è¡Œ
 631              		.loc 1 282 3 discriminator 3 view .LVU145
 632 01e0 0748     		ldr	r0, .L15+16
 633 01e2 FFF7FEFF 		bl	puts
 634              	.LVL93:
 251:Src/module_test.c **** 	{
 635              		.loc 1 251 22 discriminator 3 view .LVU146
 251:Src/module_test.c **** 	{
 636              		.loc 1 251 23 is_stmt 0 discriminator 3 view .LVU147
 637 01e6 0136     		adds	r6, r6, #1
 638              	.LVL94:
 251:Src/module_test.c **** 	{
 639              		.loc 1 251 23 discriminator 3 view .LVU148
 640 01e8 B6B2     		uxth	r6, r6
 641              	.LVL95:
 251:Src/module_test.c **** 	{
 642              		.loc 1 251 23 discriminator 3 view .LVU149
 643 01ea 0FE7     		b	.L11
 644              	.L14:
 283:Src/module_test.c **** 		#endif
 284:Src/module_test.c **** 
 285:Src/module_test.c **** 		#ifdef DATA_SIDE
 286:Src/module_test.c **** 		printf("%f,",log_store[i].time);
 287:Src/module_test.c **** 		printf("%f,",log_store[i].real_d_m);
 288:Src/module_test.c **** 		printf("%f,",log_store[i].speed_m_ave);
 289:Src/module_test.c **** 		printf("%f,",log_store[i].duty_r);
 290:Src/module_test.c **** 		printf("%f,",log_store[i].duty_l);
 291:Src/module_test.c **** 		printf("%f,",log_store[i].front_sensor_r);
 292:Src/module_test.c **** 		printf("%f,",log_store[i].front_sensor_l);
 293:Src/module_test.c **** 		printf("%f,",log_store[i].side_sensor_r);
 294:Src/module_test.c **** 		printf("%f,",log_store[i].side_sensor_l);
 295:Src/module_test.c **** 		printf("%f,",log_store[i].front_r);
 296:Src/module_test.c **** 		printf("%f,",log_store[i].front_l);
 297:Src/module_test.c **** 		printf("%f,",log_store[i].side_r);
 298:Src/module_test.c **** 		printf("%f,",log_store[i].side_l);
 299:Src/module_test.c **** 		printf("%f,",log_store[i].side_r_target);
 300:Src/module_test.c **** 		printf("%f,",log_store[i].side_l_target);
 301:Src/module_test.c **** 		printf("%f,",log_store[i].side_r_th);
 302:Src/module_test.c **** 		printf("%f,",log_store[i].side_l_th);
 303:Src/module_test.c **** 		printf("%f,",log_store[i].side_vol);
 304:Src/module_test.c **** 		printf("%f,",log_store[i].side_mode);
 305:Src/module_test.c **** 		printf("%f",log_store[i].V_battery);			//æœ€å¾Œã¯ã‚«ãƒ³ãƒãªã—
 306:Src/module_test.c **** 		printf("\r\n"); // æ”¹è¡Œ
 307:Src/module_test.c **** 		#endif
 308:Src/module_test.c **** 
 309:Src/module_test.c **** 		#ifdef DATA_MAZE
 310:Src/module_test.c **** 		printf("%f,",log_store[i].time);
 311:Src/module_test.c **** 		printf("%f,",log_store[i].ideal_d_m);
 312:Src/module_test.c **** 		printf("%f,",log_store[i].real_d_m);
 313:Src/module_test.c **** 		printf("%f,",log_store[i].speed_m_ave);
 314:Src/module_test.c **** 		printf("%f,",log_store[i].ideal_d_w);
ARM GAS  C:\Temp\ccf7skLl.s 			page 20


 315:Src/module_test.c **** 		printf("%f,",log_store[i].speed_w);
 316:Src/module_test.c **** 		printf("%f,",log_store[i].real_d_w);
 317:Src/module_test.c **** 		printf("%f,",log_store[i].duty_r);
 318:Src/module_test.c **** 		printf("%f,",log_store[i].duty_l);
 319:Src/module_test.c **** 		printf("%f,",log_store[i].front_sensor_r);
 320:Src/module_test.c **** 		printf("%f,",log_store[i].front_sensor_l);
 321:Src/module_test.c **** 		printf("%f,",log_store[i].side_sensor_r);
 322:Src/module_test.c **** 		printf("%f,",log_store[i].side_sensor_l);
 323:Src/module_test.c **** 		printf("%f,",log_store[i].maze_x);
 324:Src/module_test.c **** 		printf("%f,",log_store[i].maze_y);
 325:Src/module_test.c **** 		printf("%f,",log_store[i].wall_s_front);
 326:Src/module_test.c **** 		printf("%f,",log_store[i].wall_s_right);
 327:Src/module_test.c **** 		printf("%f,",log_store[i].wall_s_left);
 328:Src/module_test.c **** 		printf("%f",log_store[i].V_battery);		
 329:Src/module_test.c **** 		printf("\r\n"); // æ”¹è¡Œ	
 330:Src/module_test.c **** 		#endif
 331:Src/module_test.c **** 	}
 332:Src/module_test.c **** 
 333:Src/module_test.c **** }
 645              		.loc 1 333 1 view .LVU150
 646 01ec BDE8F081 		pop	{r4, r5, r6, r7, r8, pc}
 647              	.LVL96:
 648              	.L16:
 649              		.loc 1 333 1 view .LVU151
 650              		.align	2
 651              	.L15:
 652 01f0 00000000 		.word	.LC0
 653 01f4 00000000 		.word	log_store
 654 01f8 84010000 		.word	.LC1
 655 01fc 88010000 		.word	.LC2
 656 0200 8C010000 		.word	.LC3
 657              		.cfi_endproc
 658              	.LFE135:
 660              		.section	.rodata.module_test.str1.4,"aMS",%progbits,1
 661              		.align	2
 662              	.LC4:
 663 0000 3C426F6F 		.ascii	"<Boot Time> %8.3f[s]\015\012\000"
 663      74205469 
 663      6D653E20 
 663      25382E33 
 663      665B735D 
 664 0017 00       		.align	2
 665              	.LC5:
 666 0018 3C496E74 		.ascii	"<Interrupt> %3.1f[%%] (MAX : %3.1f[%%])\015\012\000"
 666      65727275 
 666      70743E20 
 666      25332E31 
 666      665B2525 
 667 0042 0000     		.align	2
 668              	.LC6:
 669 0044 3C50574D 		.ascii	"<PWM Duty> L: %4.1f[%%],  R: %4.1f[%%]\015\012\000"
 669      20447574 
 669      793E204C 
 669      3A202534 
 669      2E31665B 
 670 006d 000000   		.align	2
 671              	.LC7:
ARM GAS  C:\Temp\ccf7skLl.s 			page 21


 672 0070 3C456E63 		.ascii	"<Encoder> L: %5.1f[deg],  R: %5.1f[deg]\015\012\000"
 672      6F646572 
 672      3E204C3A 
 672      2025352E 
 672      31665B64 
 673 009a 0000     		.align	2
 674              	.LC8:
 675 009c 3C6D6F75 		.ascii	"<mouse_speed> speed_m : %5.3f[m/s]  spwwd_w : %5.3f"
 675      73655F73 
 675      70656564 
 675      3E207370 
 675      6565645F 
 676 00cf 5B6D2F73 		.ascii	"[m/s] \015\012 \000"
 676      5D200D0A 
 676      2000
 677 00d9 000000   		.align	2
 678              	.LC9:
 679 00dc 3C426174 		.ascii	"<Battery> %3.2f[V]\015\012\000"
 679      74657279 
 679      3E202533 
 679      2E32665B 
 679      565D0D0A 
 680 00f1 000000   		.align	2
 681              	.LC10:
 682 00f4 3C495220 		.ascii	"<IR Sensor> Front_R: %4d, Side_R: %4d, Side_L: %4d,"
 682      53656E73 
 682      6F723E20 
 682      46726F6E 
 682      745F523A 
 683 0127 2046726F 		.ascii	" Front_L: %4d\015\012\000"
 683      6E745F4C 
 683      3A202534 
 683      640D0A00 
 684 0137 00       		.align	2
 685              	.LC11:
 686 0138 3C495220 		.ascii	"<IR Sensor_length> Front_R: %8.8f, Front_L: %8.8f\015"
 686      53656E73 
 686      6F725F6C 
 686      656E6774 
 686      683E2046 
 687 016a 0A00     		.ascii	"\012\000"
 688              		.align	2
 689              	.LC12:
 690 016c 3C494D55 		.ascii	"<IMU> Accel_X: %5.3f[m/s^2], Gyro_Z: %6.3f[rad/s]\015"
 690      3E204163 
 690      63656C5F 
 690      583A2025 
 690      352E3366 
 691 019e 0A00     		.ascii	"\012\000"
 692              		.align	2
 693              	.LC13:
 694 01a0 66726F6E 		.ascii	"front_sensor, fr: %5.8f  fl: %5.8f \015\012\000"
 694      745F7365 
 694      6E736F72 
 694      2C206672 
 694      3A202535 
 695 01c6 0000     		.align	2
ARM GAS  C:\Temp\ccf7skLl.s 			page 22


 696              	.LC14:
 697 01c8 73696465 		.ascii	"side_sensor, sl: %5.8f  sr: %5.8f \015\012\000"
 697      5F73656E 
 697      736F722C 
 697      20736C3A 
 697      2025352E 
 698 01ed 000000   		.align	2
 699              	.LC15:
 700 01f0 73696465 		.ascii	"side_wall_ctrl_mode %d \015\012\000"
 700      5F77616C 
 700      6C5F6374 
 700      726C5F6D 
 700      6F646520 
 701 020a 0000     		.align	2
 702              	.LC16:
 703 020c 725F7461 		.ascii	"r_target sl: %5.8f  sr: %5.8f \015\012\000"
 703      72676574 
 703      20736C3A 
 703      2025352E 
 703      38662020 
 704 022d 000000   		.align	2
 705              	.LC17:
 706 0230 25635B30 		.ascii	"%c[0J\000"
 706      4A00
 707 0236 0000     		.align	2
 708              	.LC18:
 709 0238 25635B25 		.ascii	"%c[%dA\000"
 709      644100
 710              		.section	.text.module_test,"ax",%progbits
 711              		.align	1
 712              		.global	module_test
 713              		.syntax unified
 714              		.thumb
 715              		.thumb_func
 716              		.fpu fpv4-sp-d16
 718              	module_test:
 719              	.LFB136:
 334:Src/module_test.c **** 
 335:Src/module_test.c **** 
 336:Src/module_test.c **** 
 337:Src/module_test.c **** /* ---------------------------------------------------------------
 338:Src/module_test.c **** 	å„æ©Ÿèƒ½ã®å‹•ä½œç¢ºèªç”¨é–¢æ•°
 339:Src/module_test.c **** --------------------------------------------------------------- */
 340:Src/module_test.c **** void module_test( void )
 341:Src/module_test.c **** {
 720              		.loc 1 341 1 is_stmt 1 view -0
 721              		.cfi_startproc
 722              		@ args = 0, pretend = 0, frame = 0
 723              		@ frame_needed = 0, uses_anonymous_args = 0
 724 0000 F0B5     		push	{r4, r5, r6, r7, lr}
 725              	.LCFI2:
 726              		.cfi_def_cfa_offset 20
 727              		.cfi_offset 4, -20
 728              		.cfi_offset 5, -16
 729              		.cfi_offset 6, -12
 730              		.cfi_offset 7, -8
 731              		.cfi_offset 14, -4
ARM GAS  C:\Temp\ccf7skLl.s 			page 23


 732 0002 2DED048B 		vpush.64	{d8, d9}
 733              	.LCFI3:
 734              		.cfi_def_cfa_offset 36
 735              		.cfi_offset 80, -36
 736              		.cfi_offset 81, -32
 737              		.cfi_offset 82, -28
 738              		.cfi_offset 83, -24
 739 0006 83B0     		sub	sp, sp, #12
 740              	.LCFI4:
 741              		.cfi_def_cfa_offset 48
 342:Src/module_test.c **** 	uint16_t	line 	  = 0;
 742              		.loc 1 342 2 view .LVU153
 743              	.LVL97:
 343:Src/module_test.c **** 	int16_t		duty_l	  = 0;
 744              		.loc 1 343 2 view .LVU154
 344:Src/module_test.c **** 	int16_t		duty_r	  = 0;
 745              		.loc 1 344 2 view .LVU155
 345:Src/module_test.c **** 
 346:Src/module_test.c **** 	// aã‚¨ãƒ³ã‚³ãƒ¼ãƒ€ã®ã‚«ã‚¦ãƒ³ãƒˆã‚’ãƒªã‚»ãƒƒãƒˆ
 347:Src/module_test.c **** 	Encoder_ResetCount_Left();
 746              		.loc 1 347 2 view .LVU156
 747 0008 FFF7FEFF 		bl	Encoder_ResetCount_Left
 748              	.LVL98:
 348:Src/module_test.c **** 	Encoder_ResetCount_Right();
 749              		.loc 1 348 2 view .LVU157
 750 000c FFF7FEFF 		bl	Encoder_ResetCount_Right
 751              	.LVL99:
 342:Src/module_test.c **** 	int16_t		duty_l	  = 0;
 752              		.loc 1 342 11 is_stmt 0 view .LVU158
 753 0010 0024     		movs	r4, #0
 754              	.LVL100:
 755              	.L18:
 349:Src/module_test.c **** 
 350:Src/module_test.c **** 	while( 1 ) {
 756              		.loc 1 350 2 is_stmt 1 discriminator 1 view .LVU159
 351:Src/module_test.c **** //		__disable_irq();
 352:Src/module_test.c **** 		// aå‰²ã‚Šè¾¼ã¿å‡¦ç†ç‡ã‚’è¡¨ç¤º
 353:Src/module_test.c **** 		printf("<Boot Time> %8.3f[s]\r\n", Interrupt_GetBootTime()); line++;
 757              		.loc 1 353 3 discriminator 1 view .LVU160
 758              		.loc 1 353 38 is_stmt 0 discriminator 1 view .LVU161
 759 0012 FFF7FEFF 		bl	Interrupt_GetBootTime
 760              	.LVL101:
 761 0016 10EE100A 		vmov	r0, s0
 762              		.loc 1 353 3 discriminator 1 view .LVU162
 763 001a FFF7FEFF 		bl	__aeabi_f2d
 764              	.LVL102:
 765 001e 0246     		mov	r2, r0
 766 0020 0B46     		mov	r3, r1
 767 0022 8D48     		ldr	r0, .L20
 768 0024 FFF7FEFF 		bl	printf
 769              	.LVL103:
 770              		.loc 1 353 64 is_stmt 1 discriminator 1 view .LVU163
 354:Src/module_test.c **** 		printf("<Interrupt> %3.1f[%%] (MAX : %3.1f[%%])\r\n",
 771              		.loc 1 354 3 discriminator 1 view .LVU164
 355:Src/module_test.c **** 				(float)Interrupt_GetDuty()/10.f, (float)Interrupt_GetDuty_Max()/10.f); line++;
 772              		.loc 1 355 12 is_stmt 0 discriminator 1 view .LVU165
 773 0028 FFF7FEFF 		bl	Interrupt_GetDuty
ARM GAS  C:\Temp\ccf7skLl.s 			page 24


 774              	.LVL104:
 775 002c 07EE900A 		vmov	s15, r0	@ int
 776              		.loc 1 355 5 discriminator 1 view .LVU166
 777 0030 F8EE677A 		vcvt.f32.u32	s15, s15
 778              		.loc 1 355 31 discriminator 1 view .LVU167
 779 0034 B2EE048A 		vmov.f32	s16, #1.0e+1
 780 0038 87EE889A 		vdiv.f32	s18, s15, s16
 781              		.loc 1 355 45 discriminator 1 view .LVU168
 782 003c FFF7FEFF 		bl	Interrupt_GetDuty_Max
 783              	.LVL105:
 784 0040 07EE900A 		vmov	s15, r0	@ int
 785              		.loc 1 355 38 discriminator 1 view .LVU169
 786 0044 F8EE677A 		vcvt.f32.u32	s15, s15
 787              		.loc 1 355 68 discriminator 1 view .LVU170
 788 0048 C7EE888A 		vdiv.f32	s17, s15, s16
 354:Src/module_test.c **** 		printf("<Interrupt> %3.1f[%%] (MAX : %3.1f[%%])\r\n",
 789              		.loc 1 354 3 discriminator 1 view .LVU171
 790 004c 19EE100A 		vmov	r0, s18
 791 0050 FFF7FEFF 		bl	__aeabi_f2d
 792              	.LVL106:
 793 0054 0646     		mov	r6, r0
 794 0056 0F46     		mov	r7, r1
 795 0058 18EE900A 		vmov	r0, s17
 796 005c FFF7FEFF 		bl	__aeabi_f2d
 797              	.LVL107:
 798 0060 CDE90001 		strd	r0, [sp]
 799 0064 3246     		mov	r2, r6
 800 0066 3B46     		mov	r3, r7
 801 0068 7C48     		ldr	r0, .L20+4
 802 006a FFF7FEFF 		bl	printf
 803              	.LVL108:
 804              		.loc 1 355 76 is_stmt 1 discriminator 1 view .LVU172
 356:Src/module_test.c **** 
 357:Src/module_test.c **** 		// aãƒ¢ãƒ¼ã‚¿ã‚’æŒ‡å®šã®Dutyã‚’è¡¨ç¤º
 358:Src/module_test.c **** 		printf("<PWM Duty> L: %4.1f[%%],  R: %4.1f[%%]\r\n",
 805              		.loc 1 358 3 discriminator 1 view .LVU173
 806 006e 0022     		movs	r2, #0
 807 0070 0023     		movs	r3, #0
 808 0072 CDE90023 		strd	r2, [sp]
 809 0076 7A48     		ldr	r0, .L20+8
 810 0078 FFF7FEFF 		bl	printf
 811              	.LVL109:
 359:Src/module_test.c **** 				(float)duty_l/10.f, (float)duty_r/10.f); line++;
 812              		.loc 1 359 46 discriminator 1 view .LVU174
 360:Src/module_test.c **** 
 361:Src/module_test.c **** 		// aã‚¨ãƒ³ã‚³ãƒ¼ãƒ€ã®è§’åº¦è¡¨ç¤º
 362:Src/module_test.c **** 		printf("<Encoder> L: %5.1f[deg],  R: %5.1f[deg]\r\n",
 813              		.loc 1 362 3 discriminator 1 view .LVU175
 363:Src/module_test.c **** 				RAD2DEG(Encoder_GetAngle_Left()), RAD2DEG(Encoder_GetAngle_Right())); line++;
 814              		.loc 1 363 5 is_stmt 0 discriminator 1 view .LVU176
 815 007c FFF7FEFF 		bl	Encoder_GetAngle_Left
 816              	.LVL110:
 817 0080 DFED789A 		vldr.32	s19, .L20+12
 818 0084 C0EE298A 		vdiv.f32	s17, s0, s19
 819 0088 9FED779A 		vldr.32	s18, .L20+16
 820 008c 68EE898A 		vmul.f32	s17, s17, s18
 821              		.loc 1 363 39 discriminator 1 view .LVU177
ARM GAS  C:\Temp\ccf7skLl.s 			page 25


 822 0090 FFF7FEFF 		bl	Encoder_GetAngle_Right
 823              	.LVL111:
 824 0094 80EE298A 		vdiv.f32	s16, s0, s19
 825 0098 28EE098A 		vmul.f32	s16, s16, s18
 362:Src/module_test.c **** 				RAD2DEG(Encoder_GetAngle_Left()), RAD2DEG(Encoder_GetAngle_Right())); line++;
 826              		.loc 1 362 3 discriminator 1 view .LVU178
 827 009c 18EE900A 		vmov	r0, s17
 828 00a0 FFF7FEFF 		bl	__aeabi_f2d
 829              	.LVL112:
 830 00a4 0646     		mov	r6, r0
 831 00a6 0F46     		mov	r7, r1
 832 00a8 18EE100A 		vmov	r0, s16
 833 00ac FFF7FEFF 		bl	__aeabi_f2d
 834              	.LVL113:
 835 00b0 CDE90001 		strd	r0, [sp]
 836 00b4 3246     		mov	r2, r6
 837 00b6 3B46     		mov	r3, r7
 838 00b8 6C48     		ldr	r0, .L20+20
 839 00ba FFF7FEFF 		bl	printf
 840              	.LVL114:
 841              		.loc 1 363 75 is_stmt 1 discriminator 1 view .LVU179
 364:Src/module_test.c **** 
 365:Src/module_test.c **** 		// aãƒã‚¦ã‚¹ã®ã‚¹ãƒ”ãƒ¼ãƒ‰è¡¨ç¤º from encoder
 366:Src/module_test.c **** 		printf("<mouse_speed> speed_m : %5.3f[m/s]  spwwd_w : %5.3f[m/s] \r\n ",
 842              		.loc 1 366 3 discriminator 1 view .LVU180
 367:Src/module_test.c **** 				get_move_speed(),IMU_GetGyro_Z());line++;
 843              		.loc 1 367 5 is_stmt 0 discriminator 1 view .LVU181
 844 00be FFF7FEFF 		bl	get_move_speed
 845              	.LVL115:
 846 00c2 10EE106A 		vmov	r6, s0
 847              		.loc 1 367 22 discriminator 1 view .LVU182
 848 00c6 FFF7FEFF 		bl	IMU_GetGyro_Z
 849              	.LVL116:
 850 00ca 10EE105A 		vmov	r5, s0
 366:Src/module_test.c **** 				get_move_speed(),IMU_GetGyro_Z());line++;
 851              		.loc 1 366 3 discriminator 1 view .LVU183
 852 00ce 3046     		mov	r0, r6	@ float
 853 00d0 FFF7FEFF 		bl	__aeabi_f2d
 854              	.LVL117:
 855 00d4 0646     		mov	r6, r0
 856 00d6 0F46     		mov	r7, r1
 857 00d8 2846     		mov	r0, r5	@ float
 858 00da FFF7FEFF 		bl	__aeabi_f2d
 859              	.LVL118:
 860 00de CDE90001 		strd	r0, [sp]
 861 00e2 3246     		mov	r2, r6
 862 00e4 3B46     		mov	r3, r7
 863 00e6 6248     		ldr	r0, .L20+24
 864 00e8 FFF7FEFF 		bl	printf
 865              	.LVL119:
 866              		.loc 1 367 39 is_stmt 1 discriminator 1 view .LVU184
 368:Src/module_test.c **** 
 369:Src/module_test.c **** 		// aãƒãƒƒãƒ†ãƒªãƒ¼é›»åœ§ã®è¡¨ç¤º
 370:Src/module_test.c **** 		printf("<Battery> %3.2f[V]\r\n", Battery_GetVoltage()); line++;
 867              		.loc 1 370 3 discriminator 1 view .LVU185
 868              		.loc 1 370 36 is_stmt 0 discriminator 1 view .LVU186
 869 00ec FFF7FEFF 		bl	Battery_GetVoltage
ARM GAS  C:\Temp\ccf7skLl.s 			page 26


 870              	.LVL120:
 871 00f0 10EE100A 		vmov	r0, s0
 872              		.loc 1 370 3 discriminator 1 view .LVU187
 873 00f4 FFF7FEFF 		bl	__aeabi_f2d
 874              	.LVL121:
 875 00f8 0246     		mov	r2, r0
 876 00fa 0B46     		mov	r3, r1
 877 00fc 5D48     		ldr	r0, .L20+28
 878 00fe FFF7FEFF 		bl	printf
 879              	.LVL122:
 880              		.loc 1 370 59 is_stmt 1 discriminator 1 view .LVU188
 371:Src/module_test.c **** 
 372:Src/module_test.c **** 		// aå£ã‚»ãƒ³ã‚µã®ADå€¤è¡¨ç¤º
 373:Src/module_test.c **** 		printf("<IR Sensor> Front_R: %4d, Side_R: %4d, Side_L: %4d, Front_L: %4d\r\n",
 881              		.loc 1 373 3 discriminator 1 view .LVU189
 374:Src/module_test.c **** 				Sensor_GetValue(3), Sensor_GetValue(2), Sensor_GetValue(1), Sensor_GetValue(0)); line++;
 882              		.loc 1 374 5 is_stmt 0 discriminator 1 view .LVU190
 883 0102 0320     		movs	r0, #3
 884 0104 FFF7FEFF 		bl	Sensor_GetValue
 885              	.LVL123:
 886 0108 0546     		mov	r5, r0
 887              		.loc 1 374 25 discriminator 1 view .LVU191
 888 010a 0220     		movs	r0, #2
 889 010c FFF7FEFF 		bl	Sensor_GetValue
 890              	.LVL124:
 891 0110 0646     		mov	r6, r0
 892              		.loc 1 374 45 discriminator 1 view .LVU192
 893 0112 0120     		movs	r0, #1
 894 0114 FFF7FEFF 		bl	Sensor_GetValue
 895              	.LVL125:
 896 0118 0746     		mov	r7, r0
 897              		.loc 1 374 65 discriminator 1 view .LVU193
 898 011a 0020     		movs	r0, #0
 899 011c FFF7FEFF 		bl	Sensor_GetValue
 900              	.LVL126:
 373:Src/module_test.c **** 				Sensor_GetValue(3), Sensor_GetValue(2), Sensor_GetValue(1), Sensor_GetValue(0)); line++;
 901              		.loc 1 373 3 discriminator 1 view .LVU194
 902 0120 0090     		str	r0, [sp]
 903 0122 3B46     		mov	r3, r7
 904 0124 3246     		mov	r2, r6
 905 0126 2946     		mov	r1, r5
 906 0128 5348     		ldr	r0, .L20+32
 907 012a FFF7FEFF 		bl	printf
 908              	.LVL127:
 909              		.loc 1 374 86 is_stmt 1 discriminator 1 view .LVU195
 375:Src/module_test.c **** 		Sensor_DebugPrintf();line++;
 910              		.loc 1 375 3 discriminator 1 view .LVU196
 911 012e FFF7FEFF 		bl	Sensor_DebugPrintf
 912              	.LVL128:
 913              		.loc 1 375 24 discriminator 1 view .LVU197
 376:Src/module_test.c **** 
 377:Src/module_test.c **** 		//å£ã‚»ãƒ³ã‚µã®è·é›¢å¤‰æ›çµæœç¢ºèª
 378:Src/module_test.c **** 		printf("<IR Sensor_length> Front_R: %8.8f, Front_L: %8.8f\r\n",
 914              		.loc 1 378 3 discriminator 1 view .LVU198
 915 0132 0320     		movs	r0, #3
 916 0134 FFF7FEFF 		bl	SensorValue2length
 917              	.LVL129:
ARM GAS  C:\Temp\ccf7skLl.s 			page 27


 918 0138 57EC106B 		vmov	r6, r7, d0
 919 013c 0020     		movs	r0, #0
 920 013e FFF7FEFF 		bl	SensorValue2length
 921              	.LVL130:
 922 0142 8DED000B 		vstr.64	d0, [sp]
 923 0146 3246     		mov	r2, r6
 924 0148 3B46     		mov	r3, r7
 925 014a 4C48     		ldr	r0, .L20+36
 926 014c FFF7FEFF 		bl	printf
 927              	.LVL131:
 379:Src/module_test.c **** 				SensorValue2length(3),SensorValue2length(0)); line++;
 928              		.loc 1 379 51 discriminator 1 view .LVU199
 380:Src/module_test.c **** 		// IMUï¼ˆåŠ é€Ÿåº¦è¨ˆã¨ã‚¸ãƒ£ã‚¤ãƒ­ï¼‰ã®è¨ˆæ¸¬å€¤è¡¨ç¤º
 381:Src/module_test.c **** 		printf("<IMU> Accel_X: %5.3f[m/s^2], Gyro_Z: %6.3f[rad/s]\r\n",
 929              		.loc 1 381 3 discriminator 1 view .LVU200
 382:Src/module_test.c **** 				IMU_GetAccel_X(), IMU_GetGyro_Z()); line++;
 930              		.loc 1 382 5 is_stmt 0 discriminator 1 view .LVU201
 931 0150 FFF7FEFF 		bl	IMU_GetAccel_X
 932              	.LVL132:
 933 0154 10EE106A 		vmov	r6, s0
 934              		.loc 1 382 23 discriminator 1 view .LVU202
 935 0158 FFF7FEFF 		bl	IMU_GetGyro_Z
 936              	.LVL133:
 937 015c 10EE105A 		vmov	r5, s0
 381:Src/module_test.c **** 				IMU_GetAccel_X(), IMU_GetGyro_Z()); line++;
 938              		.loc 1 381 3 discriminator 1 view .LVU203
 939 0160 3046     		mov	r0, r6	@ float
 940 0162 FFF7FEFF 		bl	__aeabi_f2d
 941              	.LVL134:
 942 0166 0646     		mov	r6, r0
 943 0168 0F46     		mov	r7, r1
 944 016a 2846     		mov	r0, r5	@ float
 945 016c FFF7FEFF 		bl	__aeabi_f2d
 946              	.LVL135:
 947 0170 CDE90001 		strd	r0, [sp]
 948 0174 3246     		mov	r2, r6
 949 0176 3B46     		mov	r3, r7
 950 0178 4148     		ldr	r0, .L20+40
 951 017a FFF7FEFF 		bl	printf
 952              	.LVL136:
 953              		.loc 1 382 41 is_stmt 1 discriminator 1 view .LVU204
 383:Src/module_test.c **** 		// aå£ã‚»ãƒ³ã‚µç”¨ã‚¿ã‚¤ãƒ
 384:Src/module_test.c **** 		// printf("<IR Sensor_tim> tim: %5.8f\r\n",ABS(front_sensor_ref - SensorValue2length(3)) );line++
 385:Src/module_test.c **** 		// å£ã‚»ãƒ³ã‚µ
 386:Src/module_test.c **** 		printf("front_sensor, fr: %5.8f  fl: %5.8f \r\n",get_frontrightwall_dis_table(Sensor_GetValue(3))
 954              		.loc 1 386 3 discriminator 1 view .LVU205
 955              		.loc 1 386 52 is_stmt 0 discriminator 1 view .LVU206
 956 017e 0320     		movs	r0, #3
 957 0180 FFF7FEFF 		bl	Sensor_GetValue
 958              	.LVL137:
 959 0184 FFF7FEFF 		bl	get_frontrightwall_dis_table
 960              	.LVL138:
 961 0188 10EE106A 		vmov	r6, s0
 962              		.loc 1 386 101 discriminator 1 view .LVU207
 963 018c 0020     		movs	r0, #0
 964 018e FFF7FEFF 		bl	Sensor_GetValue
 965              	.LVL139:
ARM GAS  C:\Temp\ccf7skLl.s 			page 28


 966 0192 FFF7FEFF 		bl	get_frontleftwall_dis_table
 967              	.LVL140:
 968 0196 10EE105A 		vmov	r5, s0
 969              		.loc 1 386 3 discriminator 1 view .LVU208
 970 019a 3046     		mov	r0, r6	@ float
 971 019c FFF7FEFF 		bl	__aeabi_f2d
 972              	.LVL141:
 973 01a0 0646     		mov	r6, r0
 974 01a2 0F46     		mov	r7, r1
 975 01a4 2846     		mov	r0, r5	@ float
 976 01a6 FFF7FEFF 		bl	__aeabi_f2d
 977              	.LVL142:
 978 01aa CDE90001 		strd	r0, [sp]
 979 01ae 3246     		mov	r2, r6
 980 01b0 3B46     		mov	r3, r7
 981 01b2 3448     		ldr	r0, .L20+44
 982 01b4 FFF7FEFF 		bl	printf
 983              	.LVL143:
 984              		.loc 1 386 150 is_stmt 1 discriminator 1 view .LVU209
 387:Src/module_test.c **** 		printf("side_sensor, sl: %5.8f  sr: %5.8f \r\n",get_sidewall_dis_table(Sensor_GetValue(1)),get_si
 985              		.loc 1 387 3 discriminator 1 view .LVU210
 986              		.loc 1 387 51 is_stmt 0 discriminator 1 view .LVU211
 987 01b8 0120     		movs	r0, #1
 988 01ba FFF7FEFF 		bl	Sensor_GetValue
 989              	.LVL144:
 990 01be FFF7FEFF 		bl	get_sidewall_dis_table
 991              	.LVL145:
 992 01c2 10EE106A 		vmov	r6, s0
 993              		.loc 1 387 94 discriminator 1 view .LVU212
 994 01c6 0220     		movs	r0, #2
 995 01c8 FFF7FEFF 		bl	Sensor_GetValue
 996              	.LVL146:
 997 01cc FFF7FEFF 		bl	get_sidewall_dis_table
 998              	.LVL147:
 999 01d0 10EE105A 		vmov	r5, s0
 1000              		.loc 1 387 3 discriminator 1 view .LVU213
 1001 01d4 3046     		mov	r0, r6	@ float
 1002 01d6 FFF7FEFF 		bl	__aeabi_f2d
 1003              	.LVL148:
 1004 01da 0646     		mov	r6, r0
 1005 01dc 0F46     		mov	r7, r1
 1006 01de 2846     		mov	r0, r5	@ float
 1007 01e0 FFF7FEFF 		bl	__aeabi_f2d
 1008              	.LVL149:
 1009 01e4 CDE90001 		strd	r0, [sp]
 1010 01e8 3246     		mov	r2, r6
 1011 01ea 3B46     		mov	r3, r7
 1012 01ec 2648     		ldr	r0, .L20+48
 1013 01ee FFF7FEFF 		bl	printf
 1014              	.LVL150:
 1015              		.loc 1 387 138 is_stmt 1 discriminator 1 view .LVU214
 388:Src/module_test.c **** 
 389:Src/module_test.c **** 		// æ¨ªå£åˆ¶å¾¡
 390:Src/module_test.c **** 		printf("side_wall_ctrl_mode %d \r\n",get_side_wall_ctrl_mode());line++;
 1016              		.loc 1 390 3 discriminator 1 view .LVU215
 1017              		.loc 1 390 40 is_stmt 0 discriminator 1 view .LVU216
 1018 01f2 FFF7FEFF 		bl	get_side_wall_ctrl_mode
ARM GAS  C:\Temp\ccf7skLl.s 			page 29


 1019              	.LVL151:
 1020 01f6 0146     		mov	r1, r0
 1021              		.loc 1 390 3 discriminator 1 view .LVU217
 1022 01f8 2448     		ldr	r0, .L20+52
 1023 01fa FFF7FEFF 		bl	printf
 1024              	.LVL152:
 1025              		.loc 1 390 67 is_stmt 1 discriminator 1 view .LVU218
 391:Src/module_test.c **** 		printf("r_target sl: %5.8f  sr: %5.8f \r\n",get_target_sensor_sl(),get_target_sensor_sr());line++
 1026              		.loc 1 391 3 discriminator 1 view .LVU219
 1027              		.loc 1 391 47 is_stmt 0 discriminator 1 view .LVU220
 1028 01fe FFF7FEFF 		bl	get_target_sensor_sl
 1029              	.LVL153:
 1030 0202 10EE106A 		vmov	r6, s0
 1031              		.loc 1 391 70 discriminator 1 view .LVU221
 1032 0206 FFF7FEFF 		bl	get_target_sensor_sr
 1033              	.LVL154:
 1034 020a 10EE105A 		vmov	r5, s0
 1035              		.loc 1 391 3 discriminator 1 view .LVU222
 1036 020e 3046     		mov	r0, r6	@ float
 1037 0210 FFF7FEFF 		bl	__aeabi_f2d
 1038              	.LVL155:
 1039 0214 0646     		mov	r6, r0
 1040 0216 0F46     		mov	r7, r1
 1041 0218 2846     		mov	r0, r5	@ float
 1042 021a FFF7FEFF 		bl	__aeabi_f2d
 1043              	.LVL156:
 1044 021e CDE90001 		strd	r0, [sp]
 1045 0222 3246     		mov	r2, r6
 1046 0224 3B46     		mov	r3, r7
 1047 0226 1A48     		ldr	r0, .L20+56
 1048 0228 FFF7FEFF 		bl	printf
 1049              	.LVL157:
 1050              		.loc 1 391 94 is_stmt 1 discriminator 1 view .LVU223
 1051              		.loc 1 391 98 is_stmt 0 discriminator 1 view .LVU224
 1052 022c 0E34     		adds	r4, r4, #14
 1053              	.LVL158:
 1054              		.loc 1 391 98 discriminator 1 view .LVU225
 1055 022e A4B2     		uxth	r4, r4
 1056              	.LVL159:
 392:Src/module_test.c **** 		
 393:Src/module_test.c **** 		fflush(stdout);
 1057              		.loc 1 393 3 is_stmt 1 discriminator 1 view .LVU226
 1058              		.loc 1 393 10 is_stmt 0 discriminator 1 view .LVU227
 1059 0230 184B     		ldr	r3, .L20+60
 1060 0232 1B68     		ldr	r3, [r3]
 1061              		.loc 1 393 3 discriminator 1 view .LVU228
 1062 0234 9868     		ldr	r0, [r3, #8]
 1063 0236 FFF7FEFF 		bl	fflush
 1064              	.LVL160:
 394:Src/module_test.c **** 		HAL_Delay(500);
 1065              		.loc 1 394 3 is_stmt 1 discriminator 1 view .LVU229
 1066 023a 4FF4FA70 		mov	r0, #500
 1067 023e FFF7FEFF 		bl	HAL_Delay
 1068              	.LVL161:
 395:Src/module_test.c **** 		// aç”»é¢ã®ã‚¯ãƒªã‚¢
 396:Src/module_test.c **** 		printf("%c[0J", 0x1b);
 1069              		.loc 1 396 3 discriminator 1 view .LVU230
ARM GAS  C:\Temp\ccf7skLl.s 			page 30


 1070 0242 1B21     		movs	r1, #27
 1071 0244 1448     		ldr	r0, .L20+64
 1072 0246 FFF7FEFF 		bl	printf
 1073              	.LVL162:
 397:Src/module_test.c **** 		printf("%c[%dA", 0x1b, line);
 1074              		.loc 1 397 3 discriminator 1 view .LVU231
 1075 024a 2246     		mov	r2, r4
 1076 024c 1B21     		movs	r1, #27
 1077 024e 1348     		ldr	r0, .L20+68
 1078 0250 FFF7FEFF 		bl	printf
 1079              	.LVL163:
 350:Src/module_test.c **** //		__disable_irq();
 1080              		.loc 1 350 7 discriminator 1 view .LVU232
 1081 0254 DDE6     		b	.L18
 1082              	.L21:
 1083 0256 00BF     		.align	2
 1084              	.L20:
 1085 0258 00000000 		.word	.LC4
 1086 025c 18000000 		.word	.LC5
 1087 0260 44000000 		.word	.LC6
 1088 0264 DA0F4940 		.word	1078530010
 1089 0268 00003443 		.word	1127481344
 1090 026c 70000000 		.word	.LC7
 1091 0270 9C000000 		.word	.LC8
 1092 0274 DC000000 		.word	.LC9
 1093 0278 F4000000 		.word	.LC10
 1094 027c 38010000 		.word	.LC11
 1095 0280 6C010000 		.word	.LC12
 1096 0284 A0010000 		.word	.LC13
 1097 0288 C8010000 		.word	.LC14
 1098 028c F0010000 		.word	.LC15
 1099 0290 0C020000 		.word	.LC16
 1100 0294 00000000 		.word	_impure_ptr
 1101 0298 30020000 		.word	.LC17
 1102 029c 38020000 		.word	.LC18
 1103              		.cfi_endproc
 1104              	.LFE136:
 1106              		.section	.bss.log_counter,"aw",%nobits
 1107              		.align	1
 1108              		.set	.LANCHOR0,. + 0
 1111              	log_counter:
 1112 0000 0000     		.space	2
 1113              		.section	.bss.log_store,"aw",%nobits
 1114              		.align	2
 1117              	log_store:
 1118 0000 00000000 		.space	112000
 1118      00000000 
 1118      00000000 
 1118      00000000 
 1118      00000000 
 1119              		.text
 1120              	.Letext0:
 1121              		.file 2 "c:\\tools\\gcc-arm-none-eabi-9-2019-q4-major\\arm-none-eabi\\include\\machine\\_default_t
 1122              		.file 3 "c:\\tools\\gcc-arm-none-eabi-9-2019-q4-major\\arm-none-eabi\\include\\sys\\lock.h"
 1123              		.file 4 "c:\\tools\\gcc-arm-none-eabi-9-2019-q4-major\\arm-none-eabi\\include\\sys\\_types.h"
 1124              		.file 5 "c:\\tools\\gcc-arm-none-eabi-9-2019-q4-major\\lib\\gcc\\arm-none-eabi\\9.2.1\\include\\st
 1125              		.file 6 "c:\\tools\\gcc-arm-none-eabi-9-2019-q4-major\\arm-none-eabi\\include\\sys\\reent.h"
ARM GAS  C:\Temp\ccf7skLl.s 			page 31


 1126              		.file 7 "c:\\tools\\gcc-arm-none-eabi-9-2019-q4-major\\arm-none-eabi\\include\\sys\\_stdint.h"
 1127              		.file 8 "c:\\tools\\gcc-arm-none-eabi-9-2019-q4-major\\arm-none-eabi\\include\\math.h"
 1128              		.file 9 "Drivers/CMSIS/Include/core_cm4.h"
 1129              		.file 10 "Drivers/CMSIS/Device/ST/STM32F4xx/Include/system_stm32f4xx.h"
 1130              		.file 11 "Drivers/CMSIS/Device/ST/STM32F4xx/Include/stm32f413xx.h"
 1131              		.file 12 "Drivers/CMSIS/Device/ST/STM32F4xx/Include/stm32f4xx.h"
 1132              		.file 13 "Drivers/STM32F4xx_HAL_Driver/Inc/stm32f4xx_hal_def.h"
 1133              		.file 14 "Drivers/STM32F4xx_HAL_Driver/Inc/stm32f4xx_hal_dma.h"
 1134              		.file 15 "Drivers/STM32F4xx_HAL_Driver/Inc/stm32f4xx_hal_adc.h"
 1135              		.file 16 "Drivers/STM32F4xx_HAL_Driver/Inc/stm32f4xx_hal_spi.h"
 1136              		.file 17 "Drivers/STM32F4xx_HAL_Driver/Inc/stm32f4xx_hal_tim.h"
 1137              		.file 18 "Drivers/STM32F4xx_HAL_Driver/Inc/stm32f4xx_hal_uart.h"
 1138              		.file 19 "Inc/adc.h"
 1139              		.file 20 "Inc/spi.h"
 1140              		.file 21 "Inc/tim.h"
 1141              		.file 22 "Inc/usart.h"
 1142              		.file 23 "c:\\tools\\gcc-arm-none-eabi-9-2019-q4-major\\arm-none-eabi\\include\\stdlib.h"
 1143              		.file 24 "Inc/maze_solve.h"
 1144              		.file 25 "Inc/encorder.h"
 1145              		.file 26 "Inc/interrupt.h"
 1146              		.file 27 "c:\\tools\\gcc-arm-none-eabi-9-2019-q4-major\\arm-none-eabi\\include\\stdio.h"
 1147              		.file 28 "Inc/mouse_state.h"
 1148              		.file 29 "Inc/imu.h"
 1149              		.file 30 "Inc/battery.h"
 1150              		.file 31 "Inc/ir_sensor.h"
 1151              		.file 32 "Inc/lookuptable.h"
 1152              		.file 33 "Inc/adjust.h"
 1153              		.file 34 "Drivers/STM32F4xx_HAL_Driver/Inc/stm32f4xx_hal.h"
 1154              		.file 35 "Inc/target.h"
 1155              		.file 36 "Inc/motor.h"
 1156              		.file 37 "<built-in>"
ARM GAS  C:\Temp\ccf7skLl.s 			page 32


DEFINED SYMBOLS
                            *ABS*:00000000 module_test.c
  C:\Temp\ccf7skLl.s:18     .text.log_init:00000000 $t
  C:\Temp\ccf7skLl.s:26     .text.log_init:00000000 log_init
  C:\Temp\ccf7skLl.s:44     .text.log_init:00000008 $d
  C:\Temp\ccf7skLl.s:49     .text.data_get:00000000 $t
  C:\Temp\ccf7skLl.s:56     .text.data_get:00000000 data_get
  C:\Temp\ccf7skLl.s:307    .text.data_get:00000160 $d
  C:\Temp\ccf7skLl.s:1117   .bss.log_store:00000000 log_store
  C:\Temp\ccf7skLl.s:313    .rodata.data_read.str1.4:00000000 $d
  C:\Temp\ccf7skLl.s:334    .text.data_read:00000000 $t
  C:\Temp\ccf7skLl.s:341    .text.data_read:00000000 data_read
  C:\Temp\ccf7skLl.s:652    .text.data_read:000001f0 $d
  C:\Temp\ccf7skLl.s:661    .rodata.module_test.str1.4:00000000 $d
  C:\Temp\ccf7skLl.s:711    .text.module_test:00000000 $t
  C:\Temp\ccf7skLl.s:718    .text.module_test:00000000 module_test
  C:\Temp\ccf7skLl.s:1085   .text.module_test:00000258 $d
  C:\Temp\ccf7skLl.s:1107   .bss.log_counter:00000000 $d
  C:\Temp\ccf7skLl.s:1111   .bss.log_counter:00000000 log_counter
  C:\Temp\ccf7skLl.s:1114   .bss.log_store:00000000 $d

UNDEFINED SYMBOLS
get_target_length
get_ideal_length
get_move_length
get_target_move_speed
get_move_speed
get_move_speed_ave
IMU_GetAccel_X
get_move_accel_ave
get_target_angle
get_ideal_angle
get_rotation_angle
get_target_rotation_speed
IMU_GetGyro_Z
get_rotation_speed
get_duty_r
get_duty_l
Sensor_GetValue
get_frontrightwall_dis_table
get_frontleftwall_dis_table
get_sidewall_dis_table
get_target_vol_diff_sidewall
get_side_wall_ctrl_mode
Battery_GetVoltage
__aeabi_f2d
printf
puts
Encoder_ResetCount_Left
Encoder_ResetCount_Right
Interrupt_GetBootTime
Interrupt_GetDuty
Interrupt_GetDuty_Max
Encoder_GetAngle_Left
Encoder_GetAngle_Right
Sensor_DebugPrintf
SensorValue2length
ARM GAS  C:\Temp\ccf7skLl.s 			page 33


get_target_sensor_sl
get_target_sensor_sr
fflush
HAL_Delay
_impure_ptr
