ARM GAS  C:\Temp\cckFZyBH.s 			page 1


   1              		.cpu cortex-m4
   2              		.eabi_attribute 27, 1
   3              		.eabi_attribute 28, 1
   4              		.eabi_attribute 20, 1
   5              		.eabi_attribute 21, 1
   6              		.eabi_attribute 23, 3
   7              		.eabi_attribute 24, 1
   8              		.eabi_attribute 25, 1
   9              		.eabi_attribute 26, 1
  10              		.eabi_attribute 30, 1
  11              		.eabi_attribute 34, 1
  12              		.eabi_attribute 18, 4
  13              		.file	"module_test.c"
  14              		.text
  15              	.Ltext0:
  16              		.cfi_sections	.debug_frame
  17              		.section	.text.log_init,"ax",%progbits
  18              		.align	1
  19              		.global	log_init
  20              		.arch armv7e-m
  21              		.syntax unified
  22              		.thumb
  23              		.thumb_func
  24              		.fpu fpv4-sp-d16
  26              	log_init:
  27              	.LFB133:
  28              		.file 1 "Src/module_test.c"
   1:Src/module_test.c **** /*
   2:Src/module_test.c ****  * module_test.c
   3:Src/module_test.c ****  *
   4:Src/module_test.c ****  *  Created on: Aug 13, 2019
   5:Src/module_test.c ****  *      Author: å²¡ç”° æ³°è£•
   6:Src/module_test.c ****  */
   7:Src/module_test.c **** 
   8:Src/module_test.c **** 
   9:Src/module_test.c **** #include "index.h"
  10:Src/module_test.c **** #include "module_test.h"
  11:Src/module_test.c **** #include "ir_sensor.h"
  12:Src/module_test.c **** #include "battery.h"
  13:Src/module_test.c **** #include "imu.h"
  14:Src/module_test.c **** #include "param.h"
  15:Src/module_test.c **** #include "mouse_state.h"
  16:Src/module_test.c **** #include "target.h"
  17:Src/module_test.c **** #include "exvol.h"
  18:Src/module_test.c **** #include "stm32f4xx_hal.h"
  19:Src/module_test.c **** #include "encorder.h"
  20:Src/module_test.c **** #include "interrupt.h"
  21:Src/module_test.c **** #include "adjust.h"	
  22:Src/module_test.c **** 
  23:Src/module_test.c **** 
  24:Src/module_test.c **** static uint16_t log_counter = 0 ; //ãƒ­ã‚°å–å¾—é–‹å§‹ã‹ã‚‰ã®æ™‚é–“ç›£è¦–ç”¨ã‚«ã‚¦ãƒ³ã‚¿[ms]
  25:Src/module_test.c **** 
  26:Src/module_test.c **** typedef struct {	//ãƒ‡ãƒ¼ã‚¿æ ¼ç´ç”¨æ§‹é€ ä½“ã®å®šç¾©ï¼ˆæœ€å¤§ï¼’ï¼å€‹ã¨ã™ã‚‹ã“ã¨ï¼ˆï¼”ç§’ã
  27:Src/module_test.c **** 	
  28:Src/module_test.c **** 	
  29:Src/module_test.c **** 	#ifdef DATA_DEFAULT
  30:Src/module_test.c **** 	float	time;				//æ¸¬å®šé–‹å§‹ã‹ã‚‰ã®æ™‚é–“[m/s]
ARM GAS  C:\Temp\cckFZyBH.s 			page 2


  31:Src/module_test.c **** 	float	target_d_m;			//ç›®æ¨™ç§»å‹•è·é›¢[m]
  32:Src/module_test.c **** 	float 	ideal_d_m;			//ç†æƒ³ã®ä¸¦é€²æ–¹å‘ç§»å‹•è·é›¢[m]
  33:Src/module_test.c **** 	float	real_d_m;			//ä¸¦é€²æ–¹å‘ç§»å‹•è·é›¢[m]
  34:Src/module_test.c **** 	float   target_speed_m;		//ç›®æ¨™é€Ÿåº¦[m/s]
  35:Src/module_test.c **** 	float	speed_m;			//ä¸¦é€²æ–¹å‘ã®é€Ÿåº¦[m/s]
  36:Src/module_test.c **** 	float	speed_m_ave;		//ä¸¦é€²æ–¹å‘ã®é€Ÿåº¦å¹³å‡[m/s]
  37:Src/module_test.c **** 	float   accel_m;			//ä¸¦é€²æ–¹å‘ã®åŠ é€Ÿåº¦(m/s)
  38:Src/module_test.c **** 	float	accel_m_ave;		//ä¸¦é€²æ–¹å‘ã®åŠ é€Ÿåº¦å¹³å‡(m/s)
  39:Src/module_test.c **** 	float	target_d_w;			//ç›®æ¨™è§’åº¦
  40:Src/module_test.c **** 	float	ideal_d_w;			//ç†æƒ³è§’åº¦
  41:Src/module_test.c **** 	float	real_d_w;			//å›è»¢è§’åº¦(rad)
  42:Src/module_test.c **** 	float   target_speed_w;		//ç›®æ¨™è§’é€Ÿåº¦(rad/s)
  43:Src/module_test.c **** 	float	speed_w;			//å®Ÿéš›ã®è§’é€Ÿåº¦(rad/s)
  44:Src/module_test.c **** 	float   duty_r;				//å³ãƒ¢ãƒ¼ã‚¿æ“ä½œé‡ï¼ˆduty)
  45:Src/module_test.c **** 	float   duty_l;				//å·¦ãƒ¢ãƒ¼ã‚¿æ“ä½œé‡(duty)
  46:Src/module_test.c **** 	float   front_sensor_r;		//å³å‰å£ã‚»ãƒ³ã‚µå€¤
  47:Src/module_test.c **** 	float   front_sensor_l;		//å·¦å‰å£ã‚»ãƒ³ã‚µå€¤
  48:Src/module_test.c **** 	float   side_sensor_r;		//å³æ¨ªå£ã‚»ãƒ³ã‚µå€¤
  49:Src/module_test.c **** 	float   side_sensor_l;		//å·¦æ¨ªå£ã‚»ãƒ³ã‚µå€¤
  50:Src/module_test.c **** 	float   front_r;			//å£ã¨ã®è·é›¢ï¼ˆå³å‰ã‚»ãƒ³ã‚µï¼‰(m)
  51:Src/module_test.c **** 	float   front_l;			//å£ã¨ã®è·é›¢ï¼ˆå·¦å‰ã‚»ãƒ³ã‚µï¼‰(m)ï¼‰
  52:Src/module_test.c **** 	float   side_r;				//å£ã¨ã®è·é›¢ï¼ˆå³å‰ã‚»ãƒ³ã‚µï¼‰(m)
  53:Src/module_test.c **** 	float   side_l;				//å£ã¨ã®è·é›¢ï¼ˆå·¦å‰ã‚»ãƒ³ã‚µï¼‰(m)ï¼‰
  54:Src/module_test.c **** 	float   side_vol;			//æ¨ªå£åˆ¶å¾¡ã§ã®é›»åœ§å‡ºåŠ›
  55:Src/module_test.c **** 	float   side_mode;			//æ¨ªå£åˆ¶å¾¡ã®ãƒ¢ãƒ¼ãƒ‰
  56:Src/module_test.c **** 	float 	V_battery;			//ãƒãƒƒãƒ†ãƒªãƒ¼é›»åœ§
  57:Src/module_test.c **** 	#endif
  58:Src/module_test.c **** 
  59:Src/module_test.c **** 	#ifdef DATA_SIDE
  60:Src/module_test.c **** 	float	time;				//æ¸¬å®šé–‹å§‹ã‹ã‚‰ã®æ™‚é–“[m/s]
  61:Src/module_test.c **** 	float	real_d_m;			//ä¸¦é€²æ–¹å‘ç§»å‹•è·é›¢[m]
  62:Src/module_test.c **** 	float	speed_m_ave;		//ä¸¦é€²æ–¹å‘ã®é€Ÿåº¦å¹³å‡[m/s]
  63:Src/module_test.c **** 	float   duty_r;				//å³ãƒ¢ãƒ¼ã‚¿æ“ä½œé‡ï¼ˆduty)
  64:Src/module_test.c **** 	float   duty_l;				//å·¦ãƒ¢ãƒ¼ã‚¿æ“ä½œé‡(duty)
  65:Src/module_test.c **** 	float   front_sensor_r;		//å³å‰å£ã‚»ãƒ³ã‚µå€¤
  66:Src/module_test.c **** 	float   front_sensor_l;		//å·¦å‰å£ã‚»ãƒ³ã‚µå€¤
  67:Src/module_test.c **** 	float   side_sensor_r;		//å³æ¨ªå£ã‚»ãƒ³ã‚µå€¤
  68:Src/module_test.c **** 	float   side_sensor_l;		//å·¦æ¨ªå£ã‚»ãƒ³ã‚µå€¤
  69:Src/module_test.c **** 	float   front_r;			//å£ã¨ã®è·é›¢ï¼ˆå³å‰ã‚»ãƒ³ã‚µï¼‰(m)
  70:Src/module_test.c **** 	float   front_l;			//å£ã¨ã®è·é›¢ï¼ˆå·¦å‰ã‚»ãƒ³ã‚µï¼‰(m)
  71:Src/module_test.c **** 	float   side_r;				//å£ã¨ã®è·é›¢ï¼ˆå³å‰ã‚»ãƒ³ã‚µï¼‰(m)
  72:Src/module_test.c **** 	float   side_l;				//å£ã¨ã®è·é›¢ï¼ˆå·¦å‰ã‚»ãƒ³ã‚µï¼‰(m)
  73:Src/module_test.c **** 	float	side_r_target;		//å³å£ç›®æ¨™è·é›¢
  74:Src/module_test.c **** 	float	side_l_target;		//å·¦å£ç›®æ¨™è·é›¢
  75:Src/module_test.c **** 	float	side_r_th;			//å³å£åˆ¶å¾¡ãƒ¢ãƒ¼ãƒ‰é–¾å€¤
  76:Src/module_test.c **** 	float	side_l_th;			//å·¦å£åˆ¶å¾¡ãƒ¢ãƒ¼ãƒ‰é–¾å€¤
  77:Src/module_test.c **** 	float   side_vol;			//æ¨ªå£åˆ¶å¾¡ã§ã®é›»åœ§å‡ºåŠ›
  78:Src/module_test.c **** 	float   side_mode;			//æ¨ªå£åˆ¶å¾¡ã®ãƒ¢ãƒ¼ãƒ‰
  79:Src/module_test.c **** 	float 	V_battery;			//ãƒãƒƒãƒ†ãƒªãƒ¼é›»åœ§
  80:Src/module_test.c **** 
  81:Src/module_test.c **** 
  82:Src/module_test.c **** 	#endif
  83:Src/module_test.c **** } log_struct;
  84:Src/module_test.c **** 
  85:Src/module_test.c **** static log_struct log_store[log_count_lim / log_count_step];  // ãƒ‡ãƒ¼ã‚¿æ ¼ç´ç”¨ã®æ§‹é€ ä½“
  86:Src/module_test.c **** 
  87:Src/module_test.c **** 
ARM GAS  C:\Temp\cckFZyBH.s 			page 3


  88:Src/module_test.c **** /* ---------------------------------------------------------------
  89:Src/module_test.c **** 	ãƒ­ã‚°å–å¾—ã‚«ã‚¦ãƒ³ã‚¿åˆæœŸåŒ–é–¢æ•°
  90:Src/module_test.c **** --------------------------------------------------------------- */
  91:Src/module_test.c **** void log_init (void)
  92:Src/module_test.c **** {
  29              		.loc 1 92 1 view -0
  30              		.cfi_startproc
  31              		@ args = 0, pretend = 0, frame = 0
  32              		@ frame_needed = 0, uses_anonymous_args = 0
  33              		@ link register save eliminated.
  93:Src/module_test.c **** 	log_counter = 0; //ãƒ­ã‚°ã‚«ã‚¦ãƒ³ã‚¿ã®åˆæœŸåŒ–
  34              		.loc 1 93 2 view .LVU1
  35              		.loc 1 93 14 is_stmt 0 view .LVU2
  36 0000 014B     		ldr	r3, .L2
  37 0002 0022     		movs	r2, #0
  38 0004 1A80     		strh	r2, [r3]	@ movhi
  94:Src/module_test.c **** }
  39              		.loc 1 94 1 view .LVU3
  40 0006 7047     		bx	lr
  41              	.L3:
  42              		.align	2
  43              	.L2:
  44 0008 00000000 		.word	.LANCHOR0
  45              		.cfi_endproc
  46              	.LFE133:
  48              		.global	__aeabi_d2f
  49              		.section	.text.data_get,"ax",%progbits
  50              		.align	1
  51              		.global	data_get
  52              		.syntax unified
  53              		.thumb
  54              		.thumb_func
  55              		.fpu fpv4-sp-d16
  57              	data_get:
  58              	.LFB134:
  95:Src/module_test.c **** 
  96:Src/module_test.c **** 
  97:Src/module_test.c **** /* ---------------------------------------------------------------
  98:Src/module_test.c **** 	ãƒ­ã‚°å–å¾—ç”¨é–¢æ•°ï¼ˆ1msã‚¿ã‚¹ã‚¯ï¼‰
  99:Src/module_test.c **** --------------------------------------------------------------- */
 100:Src/module_test.c **** void data_get (void)
 101:Src/module_test.c **** {
  59              		.loc 1 101 1 is_stmt 1 view -0
  60              		.cfi_startproc
  61              		@ args = 0, pretend = 0, frame = 0
  62              		@ frame_needed = 0, uses_anonymous_args = 0
  63 0000 F8B5     		push	{r3, r4, r5, r6, r7, lr}
  64              	.LCFI0:
  65              		.cfi_def_cfa_offset 24
  66              		.cfi_offset 3, -24
  67              		.cfi_offset 4, -20
  68              		.cfi_offset 5, -16
  69              		.cfi_offset 6, -12
  70              		.cfi_offset 7, -8
  71              		.cfi_offset 14, -4
 102:Src/module_test.c **** 
 103:Src/module_test.c **** 	uint16_t i = 0;
ARM GAS  C:\Temp\cckFZyBH.s 			page 4


  72              		.loc 1 103 2 view .LVU5
  73              	.LVL0:
 104:Src/module_test.c **** 	i = log_counter / log_count_step;
  74              		.loc 1 104 2 view .LVU6
  75              		.loc 1 104 4 is_stmt 0 view .LVU7
  76 0002 4D4B     		ldr	r3, .L8
  77 0004 1D88     		ldrh	r5, [r3]
  78              	.LVL1:
 105:Src/module_test.c **** 
 106:Src/module_test.c **** 	if(log_counter < log_count_lim)
  79              		.loc 1 106 2 is_stmt 1 view .LVU8
  80              		.loc 1 106 4 is_stmt 0 view .LVU9
  81 0006 40F6B733 		movw	r3, #2999
  82 000a 9D42     		cmp	r5, r3
  83 000c 00D9     		bls	.L7
  84              	.L4:
 107:Src/module_test.c **** 	{
 108:Src/module_test.c **** 		if( (log_counter % log_count_step) == 0)
 109:Src/module_test.c **** 		{
 110:Src/module_test.c **** 			//æ¸¬å®šãƒ¢ãƒ¼ãƒ‰ï¼‘
 111:Src/module_test.c **** 			#ifdef DATA_DEFAULT
 112:Src/module_test.c **** 			log_store[i].time = (float)log_counter;
 113:Src/module_test.c **** 			log_store[i].target_d_m = (float)get_target_length();
 114:Src/module_test.c **** 			log_store[i].ideal_d_m = (float)get_ideal_length();
 115:Src/module_test.c **** 			log_store[i].real_d_m = (float)get_move_length();
 116:Src/module_test.c **** 			log_store[i].target_speed_m =  (float)get_target_move_speed();
 117:Src/module_test.c **** 			log_store[i].speed_m = (float)get_move_speed();
 118:Src/module_test.c **** 			log_store[i].speed_m_ave = (float)get_move_speed_ave();
 119:Src/module_test.c **** 			log_store[i].accel_m = (float)IMU_GetAccel_X();
 120:Src/module_test.c **** 			log_store[i].accel_m_ave = (float)get_move_accel_ave();
 121:Src/module_test.c **** 			log_store[i].target_d_w = (float)get_target_angle();
 122:Src/module_test.c **** 			log_store[i].ideal_d_w = (float)get_ideal_angle();
 123:Src/module_test.c **** 			log_store[i].real_d_w = (float)get_rotation_angle();
 124:Src/module_test.c **** 			log_store[i].target_speed_w = (float)get_target_rotation_speed();
 125:Src/module_test.c **** 			log_store[i].speed_w = (float)get_rotation_speed();
 126:Src/module_test.c **** 			log_store[i].duty_r = (float)get_target_duty_r();
 127:Src/module_test.c **** 			log_store[i].duty_l = (float)get_target_duty_l();
 128:Src/module_test.c **** 			log_store[i].front_sensor_r = (float)Sensor_GetValue(3);
 129:Src/module_test.c **** 			log_store[i].front_sensor_l = (float)Sensor_GetValue(0);
 130:Src/module_test.c **** 			log_store[i].side_sensor_r = (float)Sensor_GetValue(2);
 131:Src/module_test.c **** 			log_store[i].side_sensor_l = (float)Sensor_GetValue(1);
 132:Src/module_test.c **** 			log_store[i].front_r = (float)SensorValue2length(3);
 133:Src/module_test.c **** 			log_store[i].front_l = (float)SensorValue2length(0);
 134:Src/module_test.c **** 			log_store[i].side_r = (float)SensorValue2length(2);
 135:Src/module_test.c **** 			log_store[i].side_l = (float)SensorValue2length(1);
 136:Src/module_test.c **** 			log_store[i].side_vol = (float)get_target_vol_diff_sidewall();
 137:Src/module_test.c **** 			log_store[i].side_mode = (float)get_side_wall_ctrl_mode();
 138:Src/module_test.c **** 			log_store[i].V_battery =(float) Battery_GetVoltage();
 139:Src/module_test.c **** 			#endif
 140:Src/module_test.c **** 
 141:Src/module_test.c **** 			//æ¸¬å®šãƒ¢ãƒ¼ãƒ‰ï¼’
 142:Src/module_test.c **** 			#ifdef DATA_SIDE
 143:Src/module_test.c **** 			log_store[i].time = (float)log_counter;
 144:Src/module_test.c **** 			log_store[i].real_d_m = (float)get_move_length();
 145:Src/module_test.c **** 			log_store[i].speed_m_ave = (float)get_move_speed_ave();
 146:Src/module_test.c **** 			log_store[i].duty_r = (float)get_target_duty_r();
 147:Src/module_test.c **** 			log_store[i].duty_l = (float)get_target_duty_l();
ARM GAS  C:\Temp\cckFZyBH.s 			page 5


 148:Src/module_test.c **** 			log_store[i].front_sensor_r = (float)Sensor_GetValue(3);
 149:Src/module_test.c **** 			log_store[i].front_sensor_l = (float)Sensor_GetValue(0);
 150:Src/module_test.c **** 			log_store[i].side_sensor_r = (float)Sensor_GetValue(2);
 151:Src/module_test.c **** 			log_store[i].side_sensor_l = (float)Sensor_GetValue(1);
 152:Src/module_test.c **** 			log_store[i].front_r = (float)SensorValue2length(3);
 153:Src/module_test.c **** 			log_store[i].front_l = (float)SensorValue2length(0);
 154:Src/module_test.c **** 			log_store[i].side_r = (float)SensorValue2length(2);
 155:Src/module_test.c **** 			log_store[i].side_l = (float)SensorValue2length(1);
 156:Src/module_test.c **** 			log_store[i].side_r_target = (float)get_target_sensor_sr();
 157:Src/module_test.c **** 			log_store[i].side_l_target = (float)get_target_sensor_sl();
 158:Src/module_test.c **** 			log_store[i].side_r_th = (float)get_side_sensor_r_th();
 159:Src/module_test.c **** 			log_store[i].side_l_th = (float)get_side_sensor_l_th();
 160:Src/module_test.c **** 			log_store[i].side_vol = (float)get_target_vol_diff_sidewall();
 161:Src/module_test.c **** 			log_store[i].side_mode = (float)get_side_wall_ctrl_mode();
 162:Src/module_test.c **** 			log_store[i].V_battery =(float) Battery_GetVoltage();
 163:Src/module_test.c **** 			#endif
 164:Src/module_test.c **** 		}
 165:Src/module_test.c **** 		log_counter += 1; //logã‚«ã‚¦ãƒ³ã‚¿æ›´æ–°
 166:Src/module_test.c **** 	}
 167:Src/module_test.c **** }
  85              		.loc 1 167 1 view .LVU10
  86 000e F8BD     		pop	{r3, r4, r5, r6, r7, pc}
  87              	.LVL2:
  88              	.L7:
 108:Src/module_test.c **** 		{
  89              		.loc 1 108 3 is_stmt 1 view .LVU11
 143:Src/module_test.c **** 			log_store[i].real_d_m = (float)get_move_length();
  90              		.loc 1 143 4 view .LVU12
 143:Src/module_test.c **** 			log_store[i].real_d_m = (float)get_move_length();
  91              		.loc 1 143 24 is_stmt 0 view .LVU13
  92 0010 07EE905A 		vmov	s15, r5	@ int
  93 0014 F8EE677A 		vcvt.f32.u32	s15, s15
 143:Src/module_test.c **** 			log_store[i].real_d_m = (float)get_move_length();
  94              		.loc 1 143 22 view .LVU14
  95 0018 484E     		ldr	r6, .L8+4
  96 001a 05EB8504 		add	r4, r5, r5, lsl #2
  97 001e 06EB0414 		add	r4, r6, r4, lsl #4
  98 0022 C4ED007A 		vstr.32	s15, [r4]
 144:Src/module_test.c **** 			log_store[i].speed_m_ave = (float)get_move_speed_ave();
  99              		.loc 1 144 4 is_stmt 1 view .LVU15
 144:Src/module_test.c **** 			log_store[i].speed_m_ave = (float)get_move_speed_ave();
 100              		.loc 1 144 28 is_stmt 0 view .LVU16
 101 0026 FFF7FEFF 		bl	get_move_length
 102              	.LVL3:
 144:Src/module_test.c **** 			log_store[i].speed_m_ave = (float)get_move_speed_ave();
 103              		.loc 1 144 26 view .LVU17
 104 002a 84ED010A 		vstr.32	s0, [r4, #4]
 145:Src/module_test.c **** 			log_store[i].duty_r = (float)get_target_duty_r();
 105              		.loc 1 145 4 is_stmt 1 view .LVU18
 145:Src/module_test.c **** 			log_store[i].duty_r = (float)get_target_duty_r();
 106              		.loc 1 145 31 is_stmt 0 view .LVU19
 107 002e FFF7FEFF 		bl	get_move_speed_ave
 108              	.LVL4:
 145:Src/module_test.c **** 			log_store[i].duty_r = (float)get_target_duty_r();
 109              		.loc 1 145 29 view .LVU20
 110 0032 84ED020A 		vstr.32	s0, [r4, #8]
 146:Src/module_test.c **** 			log_store[i].duty_l = (float)get_target_duty_l();
ARM GAS  C:\Temp\cckFZyBH.s 			page 6


 111              		.loc 1 146 4 is_stmt 1 view .LVU21
 146:Src/module_test.c **** 			log_store[i].duty_l = (float)get_target_duty_l();
 112              		.loc 1 146 33 is_stmt 0 view .LVU22
 113 0036 FFF7FEFF 		bl	get_target_duty_r
 114              	.LVL5:
 115 003a 07EE900A 		vmov	s15, r0	@ int
 146:Src/module_test.c **** 			log_store[i].duty_l = (float)get_target_duty_l();
 116              		.loc 1 146 26 view .LVU23
 117 003e F8EEE77A 		vcvt.f32.s32	s15, s15
 146:Src/module_test.c **** 			log_store[i].duty_l = (float)get_target_duty_l();
 118              		.loc 1 146 24 view .LVU24
 119 0042 C4ED037A 		vstr.32	s15, [r4, #12]
 147:Src/module_test.c **** 			log_store[i].front_sensor_r = (float)Sensor_GetValue(3);
 120              		.loc 1 147 4 is_stmt 1 view .LVU25
 147:Src/module_test.c **** 			log_store[i].front_sensor_r = (float)Sensor_GetValue(3);
 121              		.loc 1 147 33 is_stmt 0 view .LVU26
 122 0046 FFF7FEFF 		bl	get_target_duty_l
 123              	.LVL6:
 124 004a 07EE900A 		vmov	s15, r0	@ int
 147:Src/module_test.c **** 			log_store[i].front_sensor_r = (float)Sensor_GetValue(3);
 125              		.loc 1 147 26 view .LVU27
 126 004e F8EEE77A 		vcvt.f32.s32	s15, s15
 147:Src/module_test.c **** 			log_store[i].front_sensor_r = (float)Sensor_GetValue(3);
 127              		.loc 1 147 24 view .LVU28
 128 0052 C4ED047A 		vstr.32	s15, [r4, #16]
 148:Src/module_test.c **** 			log_store[i].front_sensor_l = (float)Sensor_GetValue(0);
 129              		.loc 1 148 4 is_stmt 1 view .LVU29
 148:Src/module_test.c **** 			log_store[i].front_sensor_l = (float)Sensor_GetValue(0);
 130              		.loc 1 148 41 is_stmt 0 view .LVU30
 131 0056 0320     		movs	r0, #3
 132 0058 FFF7FEFF 		bl	Sensor_GetValue
 133              	.LVL7:
 134 005c 07EE900A 		vmov	s15, r0	@ int
 148:Src/module_test.c **** 			log_store[i].front_sensor_l = (float)Sensor_GetValue(0);
 135              		.loc 1 148 34 view .LVU31
 136 0060 F8EEE77A 		vcvt.f32.s32	s15, s15
 148:Src/module_test.c **** 			log_store[i].front_sensor_l = (float)Sensor_GetValue(0);
 137              		.loc 1 148 32 view .LVU32
 138 0064 C4ED057A 		vstr.32	s15, [r4, #20]
 149:Src/module_test.c **** 			log_store[i].side_sensor_r = (float)Sensor_GetValue(2);
 139              		.loc 1 149 4 is_stmt 1 view .LVU33
 149:Src/module_test.c **** 			log_store[i].side_sensor_r = (float)Sensor_GetValue(2);
 140              		.loc 1 149 41 is_stmt 0 view .LVU34
 141 0068 0020     		movs	r0, #0
 142 006a FFF7FEFF 		bl	Sensor_GetValue
 143              	.LVL8:
 144 006e 07EE900A 		vmov	s15, r0	@ int
 149:Src/module_test.c **** 			log_store[i].side_sensor_r = (float)Sensor_GetValue(2);
 145              		.loc 1 149 34 view .LVU35
 146 0072 F8EEE77A 		vcvt.f32.s32	s15, s15
 149:Src/module_test.c **** 			log_store[i].side_sensor_r = (float)Sensor_GetValue(2);
 147              		.loc 1 149 32 view .LVU36
 148 0076 C4ED067A 		vstr.32	s15, [r4, #24]
 150:Src/module_test.c **** 			log_store[i].side_sensor_l = (float)Sensor_GetValue(1);
 149              		.loc 1 150 4 is_stmt 1 view .LVU37
 150:Src/module_test.c **** 			log_store[i].side_sensor_l = (float)Sensor_GetValue(1);
 150              		.loc 1 150 40 is_stmt 0 view .LVU38
ARM GAS  C:\Temp\cckFZyBH.s 			page 7


 151 007a 0220     		movs	r0, #2
 152 007c FFF7FEFF 		bl	Sensor_GetValue
 153              	.LVL9:
 154 0080 07EE900A 		vmov	s15, r0	@ int
 150:Src/module_test.c **** 			log_store[i].side_sensor_l = (float)Sensor_GetValue(1);
 155              		.loc 1 150 33 view .LVU39
 156 0084 F8EEE77A 		vcvt.f32.s32	s15, s15
 150:Src/module_test.c **** 			log_store[i].side_sensor_l = (float)Sensor_GetValue(1);
 157              		.loc 1 150 31 view .LVU40
 158 0088 C4ED077A 		vstr.32	s15, [r4, #28]
 151:Src/module_test.c **** 			log_store[i].front_r = (float)SensorValue2length(3);
 159              		.loc 1 151 4 is_stmt 1 view .LVU41
 151:Src/module_test.c **** 			log_store[i].front_r = (float)SensorValue2length(3);
 160              		.loc 1 151 40 is_stmt 0 view .LVU42
 161 008c 0120     		movs	r0, #1
 162 008e FFF7FEFF 		bl	Sensor_GetValue
 163              	.LVL10:
 164 0092 07EE900A 		vmov	s15, r0	@ int
 151:Src/module_test.c **** 			log_store[i].front_r = (float)SensorValue2length(3);
 165              		.loc 1 151 33 view .LVU43
 166 0096 F8EEE77A 		vcvt.f32.s32	s15, s15
 151:Src/module_test.c **** 			log_store[i].front_r = (float)SensorValue2length(3);
 167              		.loc 1 151 31 view .LVU44
 168 009a C4ED087A 		vstr.32	s15, [r4, #32]
 152:Src/module_test.c **** 			log_store[i].front_l = (float)SensorValue2length(0);
 169              		.loc 1 152 4 is_stmt 1 view .LVU45
 152:Src/module_test.c **** 			log_store[i].front_l = (float)SensorValue2length(0);
 170              		.loc 1 152 34 is_stmt 0 view .LVU46
 171 009e 0320     		movs	r0, #3
 172 00a0 FFF7FEFF 		bl	SensorValue2length
 173              	.LVL11:
 174 00a4 51EC100B 		vmov	r0, r1, d0
 152:Src/module_test.c **** 			log_store[i].front_l = (float)SensorValue2length(0);
 175              		.loc 1 152 27 view .LVU47
 176 00a8 FFF7FEFF 		bl	__aeabi_d2f
 177              	.LVL12:
 152:Src/module_test.c **** 			log_store[i].front_l = (float)SensorValue2length(0);
 178              		.loc 1 152 25 view .LVU48
 179 00ac 6062     		str	r0, [r4, #36]	@ float
 153:Src/module_test.c **** 			log_store[i].side_r = (float)SensorValue2length(2);
 180              		.loc 1 153 4 is_stmt 1 view .LVU49
 153:Src/module_test.c **** 			log_store[i].side_r = (float)SensorValue2length(2);
 181              		.loc 1 153 34 is_stmt 0 view .LVU50
 182 00ae 0020     		movs	r0, #0
 183 00b0 FFF7FEFF 		bl	SensorValue2length
 184              	.LVL13:
 185 00b4 51EC100B 		vmov	r0, r1, d0
 153:Src/module_test.c **** 			log_store[i].side_r = (float)SensorValue2length(2);
 186              		.loc 1 153 27 view .LVU51
 187 00b8 FFF7FEFF 		bl	__aeabi_d2f
 188              	.LVL14:
 153:Src/module_test.c **** 			log_store[i].side_r = (float)SensorValue2length(2);
 189              		.loc 1 153 25 view .LVU52
 190 00bc A062     		str	r0, [r4, #40]	@ float
 154:Src/module_test.c **** 			log_store[i].side_l = (float)SensorValue2length(1);
 191              		.loc 1 154 4 is_stmt 1 view .LVU53
 154:Src/module_test.c **** 			log_store[i].side_l = (float)SensorValue2length(1);
ARM GAS  C:\Temp\cckFZyBH.s 			page 8


 192              		.loc 1 154 33 is_stmt 0 view .LVU54
 193 00be 0220     		movs	r0, #2
 194 00c0 FFF7FEFF 		bl	SensorValue2length
 195              	.LVL15:
 196 00c4 51EC100B 		vmov	r0, r1, d0
 154:Src/module_test.c **** 			log_store[i].side_l = (float)SensorValue2length(1);
 197              		.loc 1 154 26 view .LVU55
 198 00c8 FFF7FEFF 		bl	__aeabi_d2f
 199              	.LVL16:
 154:Src/module_test.c **** 			log_store[i].side_l = (float)SensorValue2length(1);
 200              		.loc 1 154 24 view .LVU56
 201 00cc E062     		str	r0, [r4, #44]	@ float
 155:Src/module_test.c **** 			log_store[i].side_r_target = (float)get_target_sensor_sr();
 202              		.loc 1 155 4 is_stmt 1 view .LVU57
 155:Src/module_test.c **** 			log_store[i].side_r_target = (float)get_target_sensor_sr();
 203              		.loc 1 155 33 is_stmt 0 view .LVU58
 204 00ce 0120     		movs	r0, #1
 205 00d0 FFF7FEFF 		bl	SensorValue2length
 206              	.LVL17:
 207 00d4 51EC100B 		vmov	r0, r1, d0
 155:Src/module_test.c **** 			log_store[i].side_r_target = (float)get_target_sensor_sr();
 208              		.loc 1 155 26 view .LVU59
 209 00d8 FFF7FEFF 		bl	__aeabi_d2f
 210              	.LVL18:
 155:Src/module_test.c **** 			log_store[i].side_r_target = (float)get_target_sensor_sr();
 211              		.loc 1 155 24 view .LVU60
 212 00dc 2063     		str	r0, [r4, #48]	@ float
 156:Src/module_test.c **** 			log_store[i].side_l_target = (float)get_target_sensor_sl();
 213              		.loc 1 156 4 is_stmt 1 view .LVU61
 156:Src/module_test.c **** 			log_store[i].side_l_target = (float)get_target_sensor_sl();
 214              		.loc 1 156 33 is_stmt 0 view .LVU62
 215 00de FFF7FEFF 		bl	get_target_sensor_sr
 216              	.LVL19:
 156:Src/module_test.c **** 			log_store[i].side_l_target = (float)get_target_sensor_sl();
 217              		.loc 1 156 31 view .LVU63
 218 00e2 84ED0D0A 		vstr.32	s0, [r4, #52]
 157:Src/module_test.c **** 			log_store[i].side_r_th = (float)get_side_sensor_r_th();
 219              		.loc 1 157 4 is_stmt 1 view .LVU64
 157:Src/module_test.c **** 			log_store[i].side_r_th = (float)get_side_sensor_r_th();
 220              		.loc 1 157 33 is_stmt 0 view .LVU65
 221 00e6 FFF7FEFF 		bl	get_target_sensor_sl
 222              	.LVL20:
 157:Src/module_test.c **** 			log_store[i].side_r_th = (float)get_side_sensor_r_th();
 223              		.loc 1 157 31 view .LVU66
 224 00ea 84ED0E0A 		vstr.32	s0, [r4, #56]
 158:Src/module_test.c **** 			log_store[i].side_l_th = (float)get_side_sensor_l_th();
 225              		.loc 1 158 4 is_stmt 1 view .LVU67
 158:Src/module_test.c **** 			log_store[i].side_l_th = (float)get_side_sensor_l_th();
 226              		.loc 1 158 36 is_stmt 0 view .LVU68
 227 00ee FFF7FEFF 		bl	get_side_sensor_r_th
 228              	.LVL21:
 229 00f2 07EE900A 		vmov	s15, r0	@ int
 158:Src/module_test.c **** 			log_store[i].side_l_th = (float)get_side_sensor_l_th();
 230              		.loc 1 158 29 view .LVU69
 231 00f6 F8EE677A 		vcvt.f32.u32	s15, s15
 158:Src/module_test.c **** 			log_store[i].side_l_th = (float)get_side_sensor_l_th();
 232              		.loc 1 158 27 view .LVU70
ARM GAS  C:\Temp\cckFZyBH.s 			page 9


 233 00fa C4ED0F7A 		vstr.32	s15, [r4, #60]
 159:Src/module_test.c **** 			log_store[i].side_vol = (float)get_target_vol_diff_sidewall();
 234              		.loc 1 159 4 is_stmt 1 view .LVU71
 159:Src/module_test.c **** 			log_store[i].side_vol = (float)get_target_vol_diff_sidewall();
 235              		.loc 1 159 36 is_stmt 0 view .LVU72
 236 00fe FFF7FEFF 		bl	get_side_sensor_l_th
 237              	.LVL22:
 238 0102 07EE900A 		vmov	s15, r0	@ int
 159:Src/module_test.c **** 			log_store[i].side_vol = (float)get_target_vol_diff_sidewall();
 239              		.loc 1 159 29 view .LVU73
 240 0106 F8EE677A 		vcvt.f32.u32	s15, s15
 159:Src/module_test.c **** 			log_store[i].side_vol = (float)get_target_vol_diff_sidewall();
 241              		.loc 1 159 27 view .LVU74
 242 010a C4ED107A 		vstr.32	s15, [r4, #64]
 160:Src/module_test.c **** 			log_store[i].side_mode = (float)get_side_wall_ctrl_mode();
 243              		.loc 1 160 4 is_stmt 1 view .LVU75
 160:Src/module_test.c **** 			log_store[i].side_mode = (float)get_side_wall_ctrl_mode();
 244              		.loc 1 160 28 is_stmt 0 view .LVU76
 245 010e FFF7FEFF 		bl	get_target_vol_diff_sidewall
 246              	.LVL23:
 160:Src/module_test.c **** 			log_store[i].side_mode = (float)get_side_wall_ctrl_mode();
 247              		.loc 1 160 26 view .LVU77
 248 0112 84ED110A 		vstr.32	s0, [r4, #68]
 161:Src/module_test.c **** 			log_store[i].V_battery =(float) Battery_GetVoltage();
 249              		.loc 1 161 4 is_stmt 1 view .LVU78
 161:Src/module_test.c **** 			log_store[i].V_battery =(float) Battery_GetVoltage();
 250              		.loc 1 161 36 is_stmt 0 view .LVU79
 251 0116 FFF7FEFF 		bl	get_side_wall_ctrl_mode
 252              	.LVL24:
 253 011a 07EE900A 		vmov	s15, r0	@ int
 161:Src/module_test.c **** 			log_store[i].V_battery =(float) Battery_GetVoltage();
 254              		.loc 1 161 29 view .LVU80
 255 011e F8EE677A 		vcvt.f32.u32	s15, s15
 161:Src/module_test.c **** 			log_store[i].V_battery =(float) Battery_GetVoltage();
 256              		.loc 1 161 27 view .LVU81
 257 0122 C4ED127A 		vstr.32	s15, [r4, #72]
 162:Src/module_test.c **** 			#endif
 258              		.loc 1 162 4 is_stmt 1 view .LVU82
 162:Src/module_test.c **** 			#endif
 259              		.loc 1 162 28 is_stmt 0 view .LVU83
 260 0126 FFF7FEFF 		bl	Battery_GetVoltage
 261              	.LVL25:
 162:Src/module_test.c **** 			#endif
 262              		.loc 1 162 27 view .LVU84
 263 012a 84ED130A 		vstr.32	s0, [r4, #76]
 165:Src/module_test.c **** 	}
 264              		.loc 1 165 3 is_stmt 1 view .LVU85
 165:Src/module_test.c **** 	}
 265              		.loc 1 165 15 is_stmt 0 view .LVU86
 266 012e 024A     		ldr	r2, .L8
 267 0130 1388     		ldrh	r3, [r2]
 268 0132 0133     		adds	r3, r3, #1
 269 0134 1380     		strh	r3, [r2]	@ movhi
 270              		.loc 1 167 1 view .LVU87
 271 0136 6AE7     		b	.L4
 272              	.L9:
 273              		.align	2
ARM GAS  C:\Temp\cckFZyBH.s 			page 10


 274              	.L8:
 275 0138 00000000 		.word	.LANCHOR0
 276 013c 00000000 		.word	log_store
 277              		.cfi_endproc
 278              	.LFE134:
 280              		.section	.rodata.data_read.str1.4,"aMS",%progbits,1
 281              		.align	2
 282              	.LC0:
 283 0000 54494D45 		.ascii	"TIME[ms],current_distance[m],SPEED_m_ave[m/s],DUTY_"
 283      5B6D735D 
 283      2C637572 
 283      72656E74 
 283      5F646973 
 284 0033 525B2525 		.ascii	"R[%%],Duty_L[%%],front_r,front_l,side_r,side_l,fron"
 284      5D2C4475 
 284      74795F4C 
 284      5B25255D 
 284      2C66726F 
 285 0066 745F725B 		.ascii	"t_r[m],front_l[m],side_r[m],side_l[m],side_r_target"
 285      6D5D2C66 
 285      726F6E74 
 285      5F6C5B6D 
 285      5D2C7369 
 286 0099 5B6D5D2C 		.ascii	"[m],side_l_target[m],side_r_th,side_l_th,side_vol[V"
 286      73696465 
 286      5F6C5F74 
 286      61726765 
 286      745B6D5D 
 287 00cc 5D2C7369 		.ascii	"],side_mode,V_battery[V]\015\012\000"
 287      64655F6D 
 287      6F64652C 
 287      565F6261 
 287      74746572 
 288              		.global	__aeabi_f2d
 289 00e7 00       		.align	2
 290              	.LC1:
 291 00e8 25662C00 		.ascii	"%f,\000"
 292              		.align	2
 293              	.LC2:
 294 00ec 256600   		.ascii	"%f\000"
 295 00ef 00       		.align	2
 296              	.LC3:
 297 00f0 0D00     		.ascii	"\015\000"
 298              		.section	.text.data_read,"ax",%progbits
 299              		.align	1
 300              		.global	data_read
 301              		.syntax unified
 302              		.thumb
 303              		.thumb_func
 304              		.fpu fpv4-sp-d16
 306              	data_read:
 307              	.LFB135:
 168:Src/module_test.c **** 
 169:Src/module_test.c **** /* ---------------------------------------------------------------
 170:Src/module_test.c **** 	ãƒ­ã‚°åãå‡ºã—ç”¨é–¢æ•°
 171:Src/module_test.c **** --------------------------------------------------------------- */
 172:Src/module_test.c **** void data_read(void)
ARM GAS  C:\Temp\cckFZyBH.s 			page 11


 173:Src/module_test.c **** {
 308              		.loc 1 173 1 is_stmt 1 view -0
 309              		.cfi_startproc
 310              		@ args = 0, pretend = 0, frame = 0
 311              		@ frame_needed = 0, uses_anonymous_args = 0
 312 0000 2DE9F041 		push	{r4, r5, r6, r7, r8, lr}
 313              	.LCFI1:
 314              		.cfi_def_cfa_offset 24
 315              		.cfi_offset 4, -24
 316              		.cfi_offset 5, -20
 317              		.cfi_offset 6, -16
 318              		.cfi_offset 7, -12
 319              		.cfi_offset 8, -8
 320              		.cfi_offset 14, -4
 174:Src/module_test.c **** 
 175:Src/module_test.c **** 	uint16_t i = 0;
 321              		.loc 1 175 2 view .LVU89
 322              	.LVL26:
 176:Src/module_test.c **** 	uint16_t j = 0;
 323              		.loc 1 176 2 view .LVU90
 177:Src/module_test.c **** 
 178:Src/module_test.c **** 	j =  log_count_lim / log_count_step - 1 ;
 324              		.loc 1 178 2 view .LVU91
 179:Src/module_test.c **** 
 180:Src/module_test.c **** 	//printfã§ä¸€è¡Œã¥ã¤æ›¸ãå‡ºã—ã¦ã„ãã€‚
 181:Src/module_test.c **** 	//ä¸€è¡Œç›®ã¯ãƒ‘ãƒ©ãƒ¡ãƒ¼ã‚¿å
 182:Src/module_test.c **** 	#ifdef DATA_DEFAULT
 183:Src/module_test.c **** 	printf ("TIME[ms],target_distance[m],ideal_distance[m],current_distance[m],TARGET_SPEED_m[m/s],SPE
 184:Src/module_test.c **** 			"accel_m[m/s2],accel_m_ave[m/s2],target_angle[rad],ideal_angle[rad],current_angle[rad],target_sp
 185:Src/module_test.c **** 			"speed_w[rad/s],DUTY_R[%%],Duty_L[%%],front_r,front_l,side_r,side_l,front_r[m],front_l[m],side_r
 186:Src/module_test.c **** 	#endif
 187:Src/module_test.c **** 
 188:Src/module_test.c **** 	#ifdef DATA_SIDE
 189:Src/module_test.c **** 	printf ("TIME[ms],current_distance[m],SPEED_m_ave[m/s],"
 325              		.loc 1 189 2 view .LVU92
 326 0004 5B48     		ldr	r0, .L15
 327 0006 FFF7FEFF 		bl	printf
 328              	.LVL27:
 190:Src/module_test.c **** 			"DUTY_R[%%],Duty_L[%%],front_r,front_l,side_r,side_l,"
 191:Src/module_test.c **** 			"front_r[m],front_l[m],side_r[m],side_l[m],side_r_target[m],side_l_target[m],"
 192:Src/module_test.c **** 			"side_r_th,side_l_th,side_vol[V],side_mode,V_battery[V]\r\n");	//ãƒ‘ãƒ©ãƒ¡ãƒ¼ã‚¿åã‚’è¨˜è¿°
 193:Src/module_test.c **** 	#endif
 194:Src/module_test.c **** 
 195:Src/module_test.c **** 	for(i = 0; i <= j ; i++)
 329              		.loc 1 195 2 view .LVU93
 330              		.loc 1 195 8 is_stmt 0 view .LVU94
 331 000a 0026     		movs	r6, #0
 332              	.LVL28:
 333              	.L11:
 334              		.loc 1 195 13 is_stmt 1 discriminator 1 view .LVU95
 335              		.loc 1 195 2 is_stmt 0 discriminator 1 view .LVU96
 336 000c 40F6B733 		movw	r3, #2999
 337 0010 9E42     		cmp	r6, r3
 338 0012 00F2AC80 		bhi	.L14
 196:Src/module_test.c **** 	{
 197:Src/module_test.c **** 		#ifdef DATA_DEFAULT
 198:Src/module_test.c **** 		printf("%f,",log_store[i].time);
ARM GAS  C:\Temp\cckFZyBH.s 			page 12


 199:Src/module_test.c **** 		printf("%f,",log_store[i].target_d_m);
 200:Src/module_test.c **** 		printf("%f,",log_store[i].ideal_d_m);
 201:Src/module_test.c **** 		printf("%f,",log_store[i].real_d_m);
 202:Src/module_test.c **** 		printf("%f,",log_store[i].target_speed_m);
 203:Src/module_test.c **** 		printf("%f,",log_store[i].speed_m);
 204:Src/module_test.c **** 		printf("%f,",log_store[i].speed_m_ave);
 205:Src/module_test.c **** 		printf("%f,",log_store[i].accel_m);
 206:Src/module_test.c **** 		printf("%f,",log_store[i].accel_m_ave);
 207:Src/module_test.c **** 		printf("%f,",log_store[i].target_d_w);
 208:Src/module_test.c **** 		printf("%f,",log_store[i].ideal_d_w);
 209:Src/module_test.c **** 		printf("%f,",log_store[i].real_d_w);
 210:Src/module_test.c **** 		printf("%f,",log_store[i].target_speed_w);
 211:Src/module_test.c **** 		printf("%f,",log_store[i].speed_w);
 212:Src/module_test.c **** 		printf("%f,",log_store[i].duty_r);
 213:Src/module_test.c **** 		printf("%f,",log_store[i].duty_l);
 214:Src/module_test.c **** 		printf("%f,",log_store[i].front_sensor_r);
 215:Src/module_test.c **** 		printf("%f,",log_store[i].front_sensor_l);
 216:Src/module_test.c **** 		printf("%f,",log_store[i].side_sensor_r);
 217:Src/module_test.c **** 		printf("%f,",log_store[i].side_sensor_l);
 218:Src/module_test.c **** 		printf("%f,",log_store[i].front_r);
 219:Src/module_test.c **** 		printf("%f,",log_store[i].front_l);
 220:Src/module_test.c **** 		printf("%f,",log_store[i].side_r);
 221:Src/module_test.c **** 		printf("%f,",log_store[i].side_l);
 222:Src/module_test.c **** 		printf("%f,",log_store[i].side_vol);
 223:Src/module_test.c **** 		printf("%f,",log_store[i].side_mode);
 224:Src/module_test.c **** 		printf("%f",log_store[i].V_battery);			//æœ€å¾Œã¯ã‚«ãƒ³ãƒãªã—
 225:Src/module_test.c **** 		printf("\r\n"); //m æ”¹è¡Œ
 226:Src/module_test.c **** 		#endif
 227:Src/module_test.c **** 
 228:Src/module_test.c **** 		#ifdef DATA_SIDE
 229:Src/module_test.c **** 		printf("%f,",log_store[i].time);
 339              		.loc 1 229 3 is_stmt 1 discriminator 3 view .LVU97
 340              		.loc 1 229 28 is_stmt 0 discriminator 3 view .LVU98
 341 0016 584F     		ldr	r7, .L15+4
 342 0018 06EB8604 		add	r4, r6, r6, lsl #2
 343 001c 07EB0414 		add	r4, r7, r4, lsl #4
 344              		.loc 1 229 3 discriminator 3 view .LVU99
 345 0020 2068     		ldr	r0, [r4]	@ float
 346 0022 FFF7FEFF 		bl	__aeabi_f2d
 347              	.LVL29:
 348 0026 0246     		mov	r2, r0
 349 0028 0B46     		mov	r3, r1
 350 002a 544D     		ldr	r5, .L15+8
 351 002c 2846     		mov	r0, r5
 352 002e FFF7FEFF 		bl	printf
 353              	.LVL30:
 230:Src/module_test.c **** 		printf("%f,",log_store[i].real_d_m);
 354              		.loc 1 230 3 is_stmt 1 discriminator 3 view .LVU100
 355 0032 6068     		ldr	r0, [r4, #4]	@ float
 356 0034 FFF7FEFF 		bl	__aeabi_f2d
 357              	.LVL31:
 358 0038 0246     		mov	r2, r0
 359 003a 0B46     		mov	r3, r1
 360 003c 2846     		mov	r0, r5
 361 003e FFF7FEFF 		bl	printf
 362              	.LVL32:
 231:Src/module_test.c **** 		printf("%f,",log_store[i].speed_m_ave);
ARM GAS  C:\Temp\cckFZyBH.s 			page 13


 363              		.loc 1 231 3 discriminator 3 view .LVU101
 364 0042 A068     		ldr	r0, [r4, #8]	@ float
 365 0044 FFF7FEFF 		bl	__aeabi_f2d
 366              	.LVL33:
 367 0048 0246     		mov	r2, r0
 368 004a 0B46     		mov	r3, r1
 369 004c 2846     		mov	r0, r5
 370 004e FFF7FEFF 		bl	printf
 371              	.LVL34:
 232:Src/module_test.c **** 		printf("%f,",log_store[i].duty_r);
 372              		.loc 1 232 3 discriminator 3 view .LVU102
 373 0052 E068     		ldr	r0, [r4, #12]	@ float
 374 0054 FFF7FEFF 		bl	__aeabi_f2d
 375              	.LVL35:
 376 0058 0246     		mov	r2, r0
 377 005a 0B46     		mov	r3, r1
 378 005c 2846     		mov	r0, r5
 379 005e FFF7FEFF 		bl	printf
 380              	.LVL36:
 233:Src/module_test.c **** 		printf("%f,",log_store[i].duty_l);
 381              		.loc 1 233 3 discriminator 3 view .LVU103
 382 0062 2069     		ldr	r0, [r4, #16]	@ float
 383 0064 FFF7FEFF 		bl	__aeabi_f2d
 384              	.LVL37:
 385 0068 0246     		mov	r2, r0
 386 006a 0B46     		mov	r3, r1
 387 006c 2846     		mov	r0, r5
 388 006e FFF7FEFF 		bl	printf
 389              	.LVL38:
 234:Src/module_test.c **** 		printf("%f,",log_store[i].front_sensor_r);
 390              		.loc 1 234 3 discriminator 3 view .LVU104
 391 0072 6069     		ldr	r0, [r4, #20]	@ float
 392 0074 FFF7FEFF 		bl	__aeabi_f2d
 393              	.LVL39:
 394 0078 0246     		mov	r2, r0
 395 007a 0B46     		mov	r3, r1
 396 007c 2846     		mov	r0, r5
 397 007e FFF7FEFF 		bl	printf
 398              	.LVL40:
 235:Src/module_test.c **** 		printf("%f,",log_store[i].front_sensor_l);
 399              		.loc 1 235 3 discriminator 3 view .LVU105
 400 0082 A069     		ldr	r0, [r4, #24]	@ float
 401 0084 FFF7FEFF 		bl	__aeabi_f2d
 402              	.LVL41:
 403 0088 0246     		mov	r2, r0
 404 008a 0B46     		mov	r3, r1
 405 008c 2846     		mov	r0, r5
 406 008e FFF7FEFF 		bl	printf
 407              	.LVL42:
 236:Src/module_test.c **** 		printf("%f,",log_store[i].side_sensor_r);
 408              		.loc 1 236 3 discriminator 3 view .LVU106
 409 0092 E069     		ldr	r0, [r4, #28]	@ float
 410 0094 FFF7FEFF 		bl	__aeabi_f2d
 411              	.LVL43:
 412 0098 0246     		mov	r2, r0
 413 009a 0B46     		mov	r3, r1
 414 009c 2846     		mov	r0, r5
ARM GAS  C:\Temp\cckFZyBH.s 			page 14


 415 009e FFF7FEFF 		bl	printf
 416              	.LVL44:
 237:Src/module_test.c **** 		printf("%f,",log_store[i].side_sensor_l);
 417              		.loc 1 237 3 discriminator 3 view .LVU107
 418 00a2 206A     		ldr	r0, [r4, #32]	@ float
 419 00a4 FFF7FEFF 		bl	__aeabi_f2d
 420              	.LVL45:
 421 00a8 0246     		mov	r2, r0
 422 00aa 0B46     		mov	r3, r1
 423 00ac 2846     		mov	r0, r5
 424 00ae FFF7FEFF 		bl	printf
 425              	.LVL46:
 238:Src/module_test.c **** 		printf("%f,",log_store[i].front_r);
 426              		.loc 1 238 3 discriminator 3 view .LVU108
 427 00b2 606A     		ldr	r0, [r4, #36]	@ float
 428 00b4 FFF7FEFF 		bl	__aeabi_f2d
 429              	.LVL47:
 430 00b8 0246     		mov	r2, r0
 431 00ba 0B46     		mov	r3, r1
 432 00bc 2846     		mov	r0, r5
 433 00be FFF7FEFF 		bl	printf
 434              	.LVL48:
 239:Src/module_test.c **** 		printf("%f,",log_store[i].front_l);
 435              		.loc 1 239 3 discriminator 3 view .LVU109
 436 00c2 A06A     		ldr	r0, [r4, #40]	@ float
 437 00c4 FFF7FEFF 		bl	__aeabi_f2d
 438              	.LVL49:
 439 00c8 0246     		mov	r2, r0
 440 00ca 0B46     		mov	r3, r1
 441 00cc 2846     		mov	r0, r5
 442 00ce FFF7FEFF 		bl	printf
 443              	.LVL50:
 240:Src/module_test.c **** 		printf("%f,",log_store[i].side_r);
 444              		.loc 1 240 3 discriminator 3 view .LVU110
 445 00d2 E06A     		ldr	r0, [r4, #44]	@ float
 446 00d4 FFF7FEFF 		bl	__aeabi_f2d
 447              	.LVL51:
 448 00d8 0246     		mov	r2, r0
 449 00da 0B46     		mov	r3, r1
 450 00dc 2846     		mov	r0, r5
 451 00de FFF7FEFF 		bl	printf
 452              	.LVL52:
 241:Src/module_test.c **** 		printf("%f,",log_store[i].side_l);
 453              		.loc 1 241 3 discriminator 3 view .LVU111
 454 00e2 206B     		ldr	r0, [r4, #48]	@ float
 455 00e4 FFF7FEFF 		bl	__aeabi_f2d
 456              	.LVL53:
 457 00e8 0246     		mov	r2, r0
 458 00ea 0B46     		mov	r3, r1
 459 00ec 2846     		mov	r0, r5
 460 00ee FFF7FEFF 		bl	printf
 461              	.LVL54:
 242:Src/module_test.c **** 		printf("%f,",log_store[i].side_r_target);
 462              		.loc 1 242 3 discriminator 3 view .LVU112
 463 00f2 606B     		ldr	r0, [r4, #52]	@ float
 464 00f4 FFF7FEFF 		bl	__aeabi_f2d
 465              	.LVL55:
ARM GAS  C:\Temp\cckFZyBH.s 			page 15


 466 00f8 0246     		mov	r2, r0
 467 00fa 0B46     		mov	r3, r1
 468 00fc 2846     		mov	r0, r5
 469 00fe FFF7FEFF 		bl	printf
 470              	.LVL56:
 243:Src/module_test.c **** 		printf("%f,",log_store[i].side_l_target);
 471              		.loc 1 243 3 discriminator 3 view .LVU113
 472 0102 A06B     		ldr	r0, [r4, #56]	@ float
 473 0104 FFF7FEFF 		bl	__aeabi_f2d
 474              	.LVL57:
 475 0108 0246     		mov	r2, r0
 476 010a 0B46     		mov	r3, r1
 477 010c 2846     		mov	r0, r5
 478 010e FFF7FEFF 		bl	printf
 479              	.LVL58:
 244:Src/module_test.c **** 		printf("%f,",log_store[i].side_r_th);
 480              		.loc 1 244 3 discriminator 3 view .LVU114
 481 0112 E06B     		ldr	r0, [r4, #60]	@ float
 482 0114 FFF7FEFF 		bl	__aeabi_f2d
 483              	.LVL59:
 484 0118 0246     		mov	r2, r0
 485 011a 0B46     		mov	r3, r1
 486 011c 2846     		mov	r0, r5
 487 011e FFF7FEFF 		bl	printf
 488              	.LVL60:
 245:Src/module_test.c **** 		printf("%f,",log_store[i].side_l_th);
 489              		.loc 1 245 3 discriminator 3 view .LVU115
 490 0122 206C     		ldr	r0, [r4, #64]	@ float
 491 0124 FFF7FEFF 		bl	__aeabi_f2d
 492              	.LVL61:
 493 0128 0246     		mov	r2, r0
 494 012a 0B46     		mov	r3, r1
 495 012c 2846     		mov	r0, r5
 496 012e FFF7FEFF 		bl	printf
 497              	.LVL62:
 246:Src/module_test.c **** 		printf("%f,",log_store[i].side_vol);
 498              		.loc 1 246 3 discriminator 3 view .LVU116
 499 0132 606C     		ldr	r0, [r4, #68]	@ float
 500 0134 FFF7FEFF 		bl	__aeabi_f2d
 501              	.LVL63:
 502 0138 0246     		mov	r2, r0
 503 013a 0B46     		mov	r3, r1
 504 013c 2846     		mov	r0, r5
 505 013e FFF7FEFF 		bl	printf
 506              	.LVL64:
 247:Src/module_test.c **** 		printf("%f,",log_store[i].side_mode);
 507              		.loc 1 247 3 discriminator 3 view .LVU117
 508 0142 A06C     		ldr	r0, [r4, #72]	@ float
 509 0144 FFF7FEFF 		bl	__aeabi_f2d
 510              	.LVL65:
 511 0148 0246     		mov	r2, r0
 512 014a 0B46     		mov	r3, r1
 513 014c 2846     		mov	r0, r5
 514 014e FFF7FEFF 		bl	printf
 515              	.LVL66:
 248:Src/module_test.c **** 		printf("%f",log_store[i].V_battery);			//æœ€å¾Œã¯ã‚«ãƒ³ãƒãªã—
 516              		.loc 1 248 3 discriminator 3 view .LVU118
ARM GAS  C:\Temp\cckFZyBH.s 			page 16


 517 0152 E06C     		ldr	r0, [r4, #76]	@ float
 518 0154 FFF7FEFF 		bl	__aeabi_f2d
 519              	.LVL67:
 520 0158 0246     		mov	r2, r0
 521 015a 0B46     		mov	r3, r1
 522 015c 0848     		ldr	r0, .L15+12
 523 015e FFF7FEFF 		bl	printf
 524              	.LVL68:
 249:Src/module_test.c **** 		printf("\r\n"); // æ”¹è¡Œ
 525              		.loc 1 249 3 discriminator 3 view .LVU119
 526 0162 0848     		ldr	r0, .L15+16
 527 0164 FFF7FEFF 		bl	puts
 528              	.LVL69:
 195:Src/module_test.c **** 	{
 529              		.loc 1 195 22 discriminator 3 view .LVU120
 195:Src/module_test.c **** 	{
 530              		.loc 1 195 23 is_stmt 0 discriminator 3 view .LVU121
 531 0168 0136     		adds	r6, r6, #1
 532              	.LVL70:
 195:Src/module_test.c **** 	{
 533              		.loc 1 195 23 discriminator 3 view .LVU122
 534 016a B6B2     		uxth	r6, r6
 535              	.LVL71:
 195:Src/module_test.c **** 	{
 536              		.loc 1 195 23 discriminator 3 view .LVU123
 537 016c 4EE7     		b	.L11
 538              	.L14:
 250:Src/module_test.c **** 
 251:Src/module_test.c **** 		#endif
 252:Src/module_test.c **** 
 253:Src/module_test.c **** 	}
 254:Src/module_test.c **** 
 255:Src/module_test.c **** }
 539              		.loc 1 255 1 view .LVU124
 540 016e BDE8F081 		pop	{r4, r5, r6, r7, r8, pc}
 541              	.LVL72:
 542              	.L16:
 543              		.loc 1 255 1 view .LVU125
 544 0172 00BF     		.align	2
 545              	.L15:
 546 0174 00000000 		.word	.LC0
 547 0178 00000000 		.word	log_store
 548 017c E8000000 		.word	.LC1
 549 0180 EC000000 		.word	.LC2
 550 0184 F0000000 		.word	.LC3
 551              		.cfi_endproc
 552              	.LFE135:
 554              		.section	.rodata.module_test.str1.4,"aMS",%progbits,1
 555              		.align	2
 556              	.LC4:
 557 0000 3C426F6F 		.ascii	"<Boot Time> %8.3f[s]\015\012\000"
 557      74205469 
 557      6D653E20 
 557      25382E33 
 557      665B735D 
 558 0017 00       		.align	2
 559              	.LC5:
ARM GAS  C:\Temp\cckFZyBH.s 			page 17


 560 0018 3C496E74 		.ascii	"<Interrupt> %3.1f[%%] (MAX : %3.1f[%%])\015\012\000"
 560      65727275 
 560      70743E20 
 560      25332E31 
 560      665B2525 
 561 0042 0000     		.align	2
 562              	.LC6:
 563 0044 3C50574D 		.ascii	"<PWM Duty> L: %4.1f[%%],  R: %4.1f[%%]\015\012\000"
 563      20447574 
 563      793E204C 
 563      3A202534 
 563      2E31665B 
 564 006d 000000   		.align	2
 565              	.LC7:
 566 0070 3C456E63 		.ascii	"<Encoder> L: %5.1f[deg],  R: %5.1f[deg]\015\012\000"
 566      6F646572 
 566      3E204C3A 
 566      2025352E 
 566      31665B64 
 567 009a 0000     		.align	2
 568              	.LC8:
 569 009c 3C6D6F75 		.ascii	"<mouse_speed> speed_m : %5.3f[m/s]  spwwd_w : %5.3f"
 569      73655F73 
 569      70656564 
 569      3E207370 
 569      6565645F 
 570 00cf 5B6D2F73 		.ascii	"[m/s] \015\012 \000"
 570      5D200D0A 
 570      2000
 571 00d9 000000   		.align	2
 572              	.LC9:
 573 00dc 3C426174 		.ascii	"<Battery> %3.2f[V]\015\012\000"
 573      74657279 
 573      3E202533 
 573      2E32665B 
 573      565D0D0A 
 574 00f1 000000   		.align	2
 575              	.LC10:
 576 00f4 3C495220 		.ascii	"<IR Sensor> Front_R: %4d, Side_R: %4d, Side_L: %4d,"
 576      53656E73 
 576      6F723E20 
 576      46726F6E 
 576      745F523A 
 577 0127 2046726F 		.ascii	" Front_L: %4d\015\012\000"
 577      6E745F4C 
 577      3A202534 
 577      640D0A00 
 578 0137 00       		.align	2
 579              	.LC11:
 580 0138 3C495220 		.ascii	"<IR Sensor_length> Front_R: %8.8f, Front_L: %8.8f\015"
 580      53656E73 
 580      6F725F6C 
 580      656E6774 
 580      683E2046 
 581 016a 0A00     		.ascii	"\012\000"
 582              		.align	2
 583              	.LC12:
ARM GAS  C:\Temp\cckFZyBH.s 			page 18


 584 016c 3C494D55 		.ascii	"<IMU> Accel_X: %5.3f[m/s^2], Gyro_Z: %6.3f[rad/s]\015"
 584      3E204163 
 584      63656C5F 
 584      583A2025 
 584      352E3366 
 585 019e 0A00     		.ascii	"\012\000"
 586              		.global	__aeabi_dsub
 587              		.global	__aeabi_dcmplt
 588              		.align	2
 589              	.LC13:
 590 01a0 66726F6E 		.ascii	"front_sensor_ref - real, r: %5.8f  l: %5.8f \015\012"
 590      745F7365 
 590      6E736F72 
 590      5F726566 
 590      202D2072 
 591 01ce 00       		.ascii	"\000"
 592 01cf 00       		.align	2
 593              	.LC14:
 594 01d0 66726F6E 		.ascii	"front_sensor, sl: %5.8f  sr: %5.8f \015\012\000"
 594      745F7365 
 594      6E736F72 
 594      2C20736C 
 594      3A202535 
 595 01f6 0000     		.align	2
 596              	.LC15:
 597 01f8 73696465 		.ascii	"side_wall_ctrl_mode %d \015\012\000"
 597      5F77616C 
 597      6C5F6374 
 597      726C5F6D 
 597      6F646520 
 598 0212 0000     		.align	2
 599              	.LC16:
 600 0214 725F7461 		.ascii	"r_target sl: %5.8f  sr: %5.8f \015\012\000"
 600      72676574 
 600      20736C3A 
 600      2025352E 
 600      38662020 
 601 0235 000000   		.align	2
 602              	.LC17:
 603 0238 25635B30 		.ascii	"%c[0J\000"
 603      4A00
 604 023e 0000     		.align	2
 605              	.LC18:
 606 0240 25635B25 		.ascii	"%c[%dA\000"
 606      644100
 607              		.section	.text.module_test,"ax",%progbits
 608              		.align	1
 609              		.global	module_test
 610              		.syntax unified
 611              		.thumb
 612              		.thumb_func
 613              		.fpu fpv4-sp-d16
 615              	module_test:
 616              	.LFB136:
 256:Src/module_test.c **** 
 257:Src/module_test.c **** 
 258:Src/module_test.c **** 
ARM GAS  C:\Temp\cckFZyBH.s 			page 19


 259:Src/module_test.c **** /* ---------------------------------------------------------------
 260:Src/module_test.c **** 	å„æ©Ÿèƒ½ã®å‹•ä½œç¢ºèªç”¨é–¢æ•°
 261:Src/module_test.c **** --------------------------------------------------------------- */
 262:Src/module_test.c **** void module_test( void )
 263:Src/module_test.c **** {
 617              		.loc 1 263 1 is_stmt 1 view -0
 618              		.cfi_startproc
 619              		@ args = 0, pretend = 0, frame = 8
 620              		@ frame_needed = 0, uses_anonymous_args = 0
 621 0000 2DE9F04F 		push	{r4, r5, r6, r7, r8, r9, r10, fp, lr}
 622              	.LCFI2:
 623              		.cfi_def_cfa_offset 36
 624              		.cfi_offset 4, -36
 625              		.cfi_offset 5, -32
 626              		.cfi_offset 6, -28
 627              		.cfi_offset 7, -24
 628              		.cfi_offset 8, -20
 629              		.cfi_offset 9, -16
 630              		.cfi_offset 10, -12
 631              		.cfi_offset 11, -8
 632              		.cfi_offset 14, -4
 633 0004 2DED049B 		vpush.64	{d9, d10}
 634              	.LCFI3:
 635              		.cfi_def_cfa_offset 52
 636              		.cfi_offset 82, -52
 637              		.cfi_offset 83, -48
 638              		.cfi_offset 84, -44
 639              		.cfi_offset 85, -40
 640 0008 85B0     		sub	sp, sp, #20
 641              	.LCFI4:
 642              		.cfi_def_cfa_offset 72
 264:Src/module_test.c **** 	uint16_t	line 	  = 0;
 643              		.loc 1 264 2 view .LVU127
 644              	.LVL73:
 265:Src/module_test.c **** 	int16_t		duty_l	  = 0;
 645              		.loc 1 265 2 view .LVU128
 266:Src/module_test.c **** 	int16_t		duty_r	  = 0;
 646              		.loc 1 266 2 view .LVU129
 267:Src/module_test.c **** 
 268:Src/module_test.c **** 	// aã‚¨ãƒ³ã‚³ãƒ¼ãƒ€ã®ã‚«ã‚¦ãƒ³ãƒˆã‚’ãƒªã‚»ãƒƒãƒˆ
 269:Src/module_test.c **** 	Encoder_ResetCount_Left();
 647              		.loc 1 269 2 view .LVU130
 648 000a FFF7FEFF 		bl	Encoder_ResetCount_Left
 649              	.LVL74:
 270:Src/module_test.c **** 	Encoder_ResetCount_Right();
 650              		.loc 1 270 2 view .LVU131
 651 000e FFF7FEFF 		bl	Encoder_ResetCount_Right
 652              	.LVL75:
 264:Src/module_test.c **** 	int16_t		duty_l	  = 0;
 653              		.loc 1 264 11 is_stmt 0 view .LVU132
 654 0012 0024     		movs	r4, #0
 655 0014 62E0     		b	.L24
 656              	.LVL76:
 657              	.L30:
 271:Src/module_test.c **** 
 272:Src/module_test.c **** 	while( 1 ) {
 273:Src/module_test.c **** //		__disable_irq();
ARM GAS  C:\Temp\cckFZyBH.s 			page 20


 274:Src/module_test.c **** 		// aå‰²ã‚Šè¾¼ã¿å‡¦ç†ç‡ã‚’è¡¨ç¤º
 275:Src/module_test.c **** 		printf("<Boot Time> %8.3f[s]\r\n", Interrupt_GetBootTime()); line++;
 276:Src/module_test.c **** 		printf("<Interrupt> %3.1f[%%] (MAX : %3.1f[%%])\r\n",
 277:Src/module_test.c **** 				(float)Interrupt_GetDuty()/10.f, (float)Interrupt_GetDuty_Max()/10.f); line++;
 278:Src/module_test.c **** 
 279:Src/module_test.c **** 		// aãƒ¢ãƒ¼ã‚¿ã‚’æŒ‡å®šã®Dutyã‚’è¡¨ç¤º
 280:Src/module_test.c **** 		printf("<PWM Duty> L: %4.1f[%%],  R: %4.1f[%%]\r\n",
 281:Src/module_test.c **** 				(float)duty_l/10.f, (float)duty_r/10.f); line++;
 282:Src/module_test.c **** 
 283:Src/module_test.c **** 		// aã‚¨ãƒ³ã‚³ãƒ¼ãƒ€ã®è§’åº¦è¡¨ç¤º
 284:Src/module_test.c **** 		printf("<Encoder> L: %5.1f[deg],  R: %5.1f[deg]\r\n",
 285:Src/module_test.c **** 				RAD2DEG(Encoder_GetAngle_Left()), RAD2DEG(Encoder_GetAngle_Right())); line++;
 286:Src/module_test.c **** 
 287:Src/module_test.c **** 		// aãƒã‚¦ã‚¹ã®ã‚¹ãƒ”ãƒ¼ãƒ‰è¡¨ç¤º from encoder
 288:Src/module_test.c **** 		printf("<mouse_speed> speed_m : %5.3f[m/s]  spwwd_w : %5.3f[m/s] \r\n ",
 289:Src/module_test.c **** 				get_move_speed(),IMU_GetGyro_Z());line++;
 290:Src/module_test.c **** 
 291:Src/module_test.c **** 		// aãƒãƒƒãƒ†ãƒªãƒ¼é›»åœ§ã®è¡¨ç¤º
 292:Src/module_test.c **** 		printf("<Battery> %3.2f[V]\r\n", Battery_GetVoltage()); line++;
 293:Src/module_test.c **** 
 294:Src/module_test.c **** 		// aå£ã‚»ãƒ³ã‚µã®ADå€¤è¡¨ç¤º
 295:Src/module_test.c **** 		printf("<IR Sensor> Front_R: %4d, Side_R: %4d, Side_L: %4d, Front_L: %4d\r\n",
 296:Src/module_test.c **** 				Sensor_GetValue(3), Sensor_GetValue(2), Sensor_GetValue(1), Sensor_GetValue(0)); line++;
 297:Src/module_test.c **** 		Sensor_DebugPrintf();line++;
 298:Src/module_test.c **** 
 299:Src/module_test.c **** 		//å£ã‚»ãƒ³ã‚µã®è·é›¢å¤‰æ›çµæœç¢ºèª
 300:Src/module_test.c **** 		printf("<IR Sensor_length> Front_R: %8.8f, Front_L: %8.8f\r\n",
 301:Src/module_test.c **** 				SensorValue2length(3),SensorValue2length(0)); line++;
 302:Src/module_test.c **** 		// IMUï¼ˆåŠ é€Ÿåº¦è¨ˆã¨ã‚¸ãƒ£ã‚¤ãƒ­ï¼‰ã®è¨ˆæ¸¬å€¤è¡¨ç¤º
 303:Src/module_test.c **** 		printf("<IMU> Accel_X: %5.3f[m/s^2], Gyro_Z: %6.3f[rad/s]\r\n",
 304:Src/module_test.c **** 				IMU_GetAccel_X(), IMU_GetGyro_Z()); line++;
 305:Src/module_test.c **** 		// aå£ã‚»ãƒ³ã‚µç”¨ã‚¿ã‚¤ãƒ
 306:Src/module_test.c **** 		// printf("<IR Sensor_tim> tim: %5.8f\r\n",ABS(front_sensor_ref - SensorValue2length(3)) );line++
 307:Src/module_test.c **** 		// å£ã‚»ãƒ³ã‚µ
 308:Src/module_test.c **** 		printf("front_sensor_ref - real, r: %5.8f  l: %5.8f \r\n",ABS(front_sensor_r_ref - SensorValue2le
 658              		.loc 1 308 61 discriminator 1 view .LVU133
 659 0016 0320     		movs	r0, #3
 660 0018 FFF7FEFF 		bl	SensorValue2length
 661              	.LVL77:
 662 001c 53EC102B 		vmov	r2, r3, d0
 663 0020 A9A1     		adr	r1, .L32
 664 0022 D1E90001 		ldrd	r0, [r1]
 665 0026 FFF7FEFF 		bl	__aeabi_dsub
 666              	.LVL78:
 667              		.loc 1 308 3 discriminator 1 view .LVU134
 668 002a 0290     		str	r0, [sp, #8]
 669 002c 01F10043 		add	r3, r1, #-2147483648
 670 0030 0393     		str	r3, [sp, #12]
 671 0032 2AE1     		b	.L20
 672              	.L31:
 673              		.loc 1 308 109 discriminator 5 view .LVU135
 674 0034 0020     		movs	r0, #0
 675 0036 FFF7FEFF 		bl	SensorValue2length
 676              	.LVL79:
 677 003a 53EC102B 		vmov	r2, r3, d0
 678 003e A4A1     		adr	r1, .L32+8
 679 0040 D1E90001 		ldrd	r0, [r1]
ARM GAS  C:\Temp\cckFZyBH.s 			page 21


 680 0044 FFF7FEFF 		bl	__aeabi_dsub
 681              	.LVL80:
 682              		.loc 1 308 3 discriminator 5 view .LVU136
 683 0048 8046     		mov	r8, r0
 684 004a 01F10049 		add	r9, r1, #-2147483648
 685              	.L23:
 686              		.loc 1 308 3 discriminator 8 view .LVU137
 687 004e CDE90089 		strd	r8, [sp]
 688 0052 DDE90223 		ldrd	r2, [sp, #8]
 689 0056 A048     		ldr	r0, .L32+16
 690 0058 FFF7FEFF 		bl	printf
 691              	.LVL81:
 692              		.loc 1 308 159 is_stmt 1 discriminator 8 view .LVU138
 309:Src/module_test.c **** 		printf("front_sensor, sl: %5.8f  sr: %5.8f \r\n",SensorValue2length(1),SensorValue2length(2));lin
 693              		.loc 1 309 3 discriminator 8 view .LVU139
 694 005c 0120     		movs	r0, #1
 695 005e FFF7FEFF 		bl	SensorValue2length
 696              	.LVL82:
 697 0062 57EC106B 		vmov	r6, r7, d0
 698 0066 0220     		movs	r0, #2
 699 0068 FFF7FEFF 		bl	SensorValue2length
 700              	.LVL83:
 701 006c 8DED000B 		vstr.64	d0, [sp]
 702 0070 3246     		mov	r2, r6
 703 0072 3B46     		mov	r3, r7
 704 0074 9948     		ldr	r0, .L32+20
 705 0076 FFF7FEFF 		bl	printf
 706              	.LVL84:
 707              		.loc 1 309 97 discriminator 8 view .LVU140
 310:Src/module_test.c **** 
 311:Src/module_test.c **** 		// æ¨ªå£åˆ¶å¾¡
 312:Src/module_test.c **** 		printf("side_wall_ctrl_mode %d \r\n",get_side_wall_ctrl_mode());line++;
 708              		.loc 1 312 3 discriminator 8 view .LVU141
 709              		.loc 1 312 40 is_stmt 0 discriminator 8 view .LVU142
 710 007a FFF7FEFF 		bl	get_side_wall_ctrl_mode
 711              	.LVL85:
 712 007e 0146     		mov	r1, r0
 713              		.loc 1 312 3 discriminator 8 view .LVU143
 714 0080 9748     		ldr	r0, .L32+24
 715 0082 FFF7FEFF 		bl	printf
 716              	.LVL86:
 717              		.loc 1 312 67 is_stmt 1 discriminator 8 view .LVU144
 313:Src/module_test.c **** 		printf("r_target sl: %5.8f  sr: %5.8f \r\n",get_target_sensor_sl(),get_target_sensor_sr());line++
 718              		.loc 1 313 3 discriminator 8 view .LVU145
 719              		.loc 1 313 47 is_stmt 0 discriminator 8 view .LVU146
 720 0086 FFF7FEFF 		bl	get_target_sensor_sl
 721              	.LVL87:
 722 008a 10EE106A 		vmov	r6, s0
 723              		.loc 1 313 70 discriminator 8 view .LVU147
 724 008e FFF7FEFF 		bl	get_target_sensor_sr
 725              	.LVL88:
 726 0092 10EE105A 		vmov	r5, s0
 727              		.loc 1 313 3 discriminator 8 view .LVU148
 728 0096 3046     		mov	r0, r6	@ float
 729 0098 FFF7FEFF 		bl	__aeabi_f2d
 730              	.LVL89:
 731 009c 0646     		mov	r6, r0
ARM GAS  C:\Temp\cckFZyBH.s 			page 22


 732 009e 0F46     		mov	r7, r1
 733 00a0 2846     		mov	r0, r5	@ float
 734 00a2 FFF7FEFF 		bl	__aeabi_f2d
 735              	.LVL90:
 736 00a6 CDE90001 		strd	r0, [sp]
 737 00aa 3246     		mov	r2, r6
 738 00ac 3B46     		mov	r3, r7
 739 00ae 8D48     		ldr	r0, .L32+28
 740 00b0 FFF7FEFF 		bl	printf
 741              	.LVL91:
 742              		.loc 1 313 94 is_stmt 1 discriminator 8 view .LVU149
 743              		.loc 1 313 98 is_stmt 0 discriminator 8 view .LVU150
 744 00b4 0E34     		adds	r4, r4, #14
 745              	.LVL92:
 746              		.loc 1 313 98 discriminator 8 view .LVU151
 747 00b6 A4B2     		uxth	r4, r4
 748              	.LVL93:
 314:Src/module_test.c **** 		
 315:Src/module_test.c **** 		fflush(stdout);
 749              		.loc 1 315 3 is_stmt 1 discriminator 8 view .LVU152
 750              		.loc 1 315 10 is_stmt 0 discriminator 8 view .LVU153
 751 00b8 8B4B     		ldr	r3, .L32+32
 752 00ba 1B68     		ldr	r3, [r3]
 753              		.loc 1 315 3 discriminator 8 view .LVU154
 754 00bc 9868     		ldr	r0, [r3, #8]
 755 00be FFF7FEFF 		bl	fflush
 756              	.LVL94:
 316:Src/module_test.c **** 		HAL_Delay(500);
 757              		.loc 1 316 3 is_stmt 1 discriminator 8 view .LVU155
 758 00c2 4FF4FA70 		mov	r0, #500
 759 00c6 FFF7FEFF 		bl	HAL_Delay
 760              	.LVL95:
 317:Src/module_test.c **** 		// aç”»é¢ã®ã‚¯ãƒªã‚¢
 318:Src/module_test.c **** 		printf("%c[0J", 0x1b);
 761              		.loc 1 318 3 discriminator 8 view .LVU156
 762 00ca 1B21     		movs	r1, #27
 763 00cc 8748     		ldr	r0, .L32+36
 764 00ce FFF7FEFF 		bl	printf
 765              	.LVL96:
 319:Src/module_test.c **** 		printf("%c[%dA", 0x1b, line);
 766              		.loc 1 319 3 discriminator 8 view .LVU157
 767 00d2 2246     		mov	r2, r4
 768 00d4 1B21     		movs	r1, #27
 769 00d6 8648     		ldr	r0, .L32+40
 770 00d8 FFF7FEFF 		bl	printf
 771              	.LVL97:
 272:Src/module_test.c **** //		__disable_irq();
 772              		.loc 1 272 7 discriminator 8 view .LVU158
 773              	.L24:
 272:Src/module_test.c **** //		__disable_irq();
 774              		.loc 1 272 2 view .LVU159
 275:Src/module_test.c **** 		printf("<Interrupt> %3.1f[%%] (MAX : %3.1f[%%])\r\n",
 775              		.loc 1 275 3 view .LVU160
 275:Src/module_test.c **** 		printf("<Interrupt> %3.1f[%%] (MAX : %3.1f[%%])\r\n",
 776              		.loc 1 275 38 is_stmt 0 view .LVU161
 777 00dc FFF7FEFF 		bl	Interrupt_GetBootTime
 778              	.LVL98:
ARM GAS  C:\Temp\cckFZyBH.s 			page 23


 779 00e0 10EE100A 		vmov	r0, s0
 275:Src/module_test.c **** 		printf("<Interrupt> %3.1f[%%] (MAX : %3.1f[%%])\r\n",
 780              		.loc 1 275 3 view .LVU162
 781 00e4 FFF7FEFF 		bl	__aeabi_f2d
 782              	.LVL99:
 783 00e8 0246     		mov	r2, r0
 784 00ea 0B46     		mov	r3, r1
 785 00ec 8148     		ldr	r0, .L32+44
 786 00ee FFF7FEFF 		bl	printf
 787              	.LVL100:
 275:Src/module_test.c **** 		printf("<Interrupt> %3.1f[%%] (MAX : %3.1f[%%])\r\n",
 788              		.loc 1 275 64 is_stmt 1 view .LVU163
 276:Src/module_test.c **** 				(float)Interrupt_GetDuty()/10.f, (float)Interrupt_GetDuty_Max()/10.f); line++;
 789              		.loc 1 276 3 view .LVU164
 277:Src/module_test.c **** 
 790              		.loc 1 277 12 is_stmt 0 view .LVU165
 791 00f2 FFF7FEFF 		bl	Interrupt_GetDuty
 792              	.LVL101:
 793 00f6 07EE900A 		vmov	s15, r0	@ int
 277:Src/module_test.c **** 
 794              		.loc 1 277 5 view .LVU166
 795 00fa F8EE677A 		vcvt.f32.u32	s15, s15
 277:Src/module_test.c **** 
 796              		.loc 1 277 31 view .LVU167
 797 00fe B2EE049A 		vmov.f32	s18, #1.0e+1
 798 0102 87EE89AA 		vdiv.f32	s20, s15, s18
 277:Src/module_test.c **** 
 799              		.loc 1 277 45 view .LVU168
 800 0106 FFF7FEFF 		bl	Interrupt_GetDuty_Max
 801              	.LVL102:
 802 010a 07EE900A 		vmov	s15, r0	@ int
 277:Src/module_test.c **** 
 803              		.loc 1 277 38 view .LVU169
 804 010e F8EE677A 		vcvt.f32.u32	s15, s15
 277:Src/module_test.c **** 
 805              		.loc 1 277 68 view .LVU170
 806 0112 C7EE899A 		vdiv.f32	s19, s15, s18
 276:Src/module_test.c **** 				(float)Interrupt_GetDuty()/10.f, (float)Interrupt_GetDuty_Max()/10.f); line++;
 807              		.loc 1 276 3 view .LVU171
 808 0116 1AEE100A 		vmov	r0, s20
 809 011a FFF7FEFF 		bl	__aeabi_f2d
 810              	.LVL103:
 811 011e 0646     		mov	r6, r0
 812 0120 0F46     		mov	r7, r1
 813 0122 19EE900A 		vmov	r0, s19
 814 0126 FFF7FEFF 		bl	__aeabi_f2d
 815              	.LVL104:
 816 012a CDE90001 		strd	r0, [sp]
 817 012e 3246     		mov	r2, r6
 818 0130 3B46     		mov	r3, r7
 819 0132 7148     		ldr	r0, .L32+48
 820 0134 FFF7FEFF 		bl	printf
 821              	.LVL105:
 277:Src/module_test.c **** 
 822              		.loc 1 277 76 is_stmt 1 view .LVU172
 280:Src/module_test.c **** 				(float)duty_l/10.f, (float)duty_r/10.f); line++;
 823              		.loc 1 280 3 view .LVU173
ARM GAS  C:\Temp\cckFZyBH.s 			page 24


 824 0138 4FF0000A 		mov	r10, #0
 825 013c 4FF0000B 		mov	fp, #0
 826 0140 CDE900AB 		strd	r10, [sp]
 827 0144 5246     		mov	r2, r10
 828 0146 5B46     		mov	r3, fp
 829 0148 6C48     		ldr	r0, .L32+52
 830 014a FFF7FEFF 		bl	printf
 831              	.LVL106:
 281:Src/module_test.c **** 
 832              		.loc 1 281 46 view .LVU174
 284:Src/module_test.c **** 				RAD2DEG(Encoder_GetAngle_Left()), RAD2DEG(Encoder_GetAngle_Right())); line++;
 833              		.loc 1 284 3 view .LVU175
 285:Src/module_test.c **** 
 834              		.loc 1 285 5 is_stmt 0 view .LVU176
 835 014e FFF7FEFF 		bl	Encoder_GetAngle_Left
 836              	.LVL107:
 837 0152 DFED6BAA 		vldr.32	s21, .L32+56
 838 0156 C0EE2A9A 		vdiv.f32	s19, s0, s21
 839 015a 9FED6AAA 		vldr.32	s20, .L32+60
 840 015e 69EE8A9A 		vmul.f32	s19, s19, s20
 285:Src/module_test.c **** 
 841              		.loc 1 285 39 view .LVU177
 842 0162 FFF7FEFF 		bl	Encoder_GetAngle_Right
 843              	.LVL108:
 844 0166 80EE2A9A 		vdiv.f32	s18, s0, s21
 845 016a 29EE0A9A 		vmul.f32	s18, s18, s20
 284:Src/module_test.c **** 				RAD2DEG(Encoder_GetAngle_Left()), RAD2DEG(Encoder_GetAngle_Right())); line++;
 846              		.loc 1 284 3 view .LVU178
 847 016e 19EE900A 		vmov	r0, s19
 848 0172 FFF7FEFF 		bl	__aeabi_f2d
 849              	.LVL109:
 850 0176 0646     		mov	r6, r0
 851 0178 0F46     		mov	r7, r1
 852 017a 19EE100A 		vmov	r0, s18
 853 017e FFF7FEFF 		bl	__aeabi_f2d
 854              	.LVL110:
 855 0182 CDE90001 		strd	r0, [sp]
 856 0186 3246     		mov	r2, r6
 857 0188 3B46     		mov	r3, r7
 858 018a 5F48     		ldr	r0, .L32+64
 859 018c FFF7FEFF 		bl	printf
 860              	.LVL111:
 285:Src/module_test.c **** 
 861              		.loc 1 285 75 is_stmt 1 view .LVU179
 288:Src/module_test.c **** 				get_move_speed(),IMU_GetGyro_Z());line++;
 862              		.loc 1 288 3 view .LVU180
 289:Src/module_test.c **** 
 863              		.loc 1 289 5 is_stmt 0 view .LVU181
 864 0190 FFF7FEFF 		bl	get_move_speed
 865              	.LVL112:
 866 0194 10EE106A 		vmov	r6, s0
 289:Src/module_test.c **** 
 867              		.loc 1 289 22 view .LVU182
 868 0198 FFF7FEFF 		bl	IMU_GetGyro_Z
 869              	.LVL113:
 870 019c 10EE105A 		vmov	r5, s0
 288:Src/module_test.c **** 				get_move_speed(),IMU_GetGyro_Z());line++;
ARM GAS  C:\Temp\cckFZyBH.s 			page 25


 871              		.loc 1 288 3 view .LVU183
 872 01a0 3046     		mov	r0, r6	@ float
 873 01a2 FFF7FEFF 		bl	__aeabi_f2d
 874              	.LVL114:
 875 01a6 0646     		mov	r6, r0
 876 01a8 0F46     		mov	r7, r1
 877 01aa 2846     		mov	r0, r5	@ float
 878 01ac FFF7FEFF 		bl	__aeabi_f2d
 879              	.LVL115:
 880 01b0 CDE90001 		strd	r0, [sp]
 881 01b4 3246     		mov	r2, r6
 882 01b6 3B46     		mov	r3, r7
 883 01b8 5448     		ldr	r0, .L32+68
 884 01ba FFF7FEFF 		bl	printf
 885              	.LVL116:
 289:Src/module_test.c **** 
 886              		.loc 1 289 39 is_stmt 1 view .LVU184
 292:Src/module_test.c **** 
 887              		.loc 1 292 3 view .LVU185
 292:Src/module_test.c **** 
 888              		.loc 1 292 36 is_stmt 0 view .LVU186
 889 01be FFF7FEFF 		bl	Battery_GetVoltage
 890              	.LVL117:
 891 01c2 10EE100A 		vmov	r0, s0
 292:Src/module_test.c **** 
 892              		.loc 1 292 3 view .LVU187
 893 01c6 FFF7FEFF 		bl	__aeabi_f2d
 894              	.LVL118:
 895 01ca 0246     		mov	r2, r0
 896 01cc 0B46     		mov	r3, r1
 897 01ce 5048     		ldr	r0, .L32+72
 898 01d0 FFF7FEFF 		bl	printf
 899              	.LVL119:
 292:Src/module_test.c **** 
 900              		.loc 1 292 59 is_stmt 1 view .LVU188
 295:Src/module_test.c **** 				Sensor_GetValue(3), Sensor_GetValue(2), Sensor_GetValue(1), Sensor_GetValue(0)); line++;
 901              		.loc 1 295 3 view .LVU189
 296:Src/module_test.c **** 		Sensor_DebugPrintf();line++;
 902              		.loc 1 296 5 is_stmt 0 view .LVU190
 903 01d4 0320     		movs	r0, #3
 904 01d6 FFF7FEFF 		bl	Sensor_GetValue
 905              	.LVL120:
 906 01da 0546     		mov	r5, r0
 296:Src/module_test.c **** 		Sensor_DebugPrintf();line++;
 907              		.loc 1 296 25 view .LVU191
 908 01dc 0220     		movs	r0, #2
 909 01de FFF7FEFF 		bl	Sensor_GetValue
 910              	.LVL121:
 911 01e2 0646     		mov	r6, r0
 296:Src/module_test.c **** 		Sensor_DebugPrintf();line++;
 912              		.loc 1 296 45 view .LVU192
 913 01e4 0120     		movs	r0, #1
 914 01e6 FFF7FEFF 		bl	Sensor_GetValue
 915              	.LVL122:
 916 01ea 0746     		mov	r7, r0
 296:Src/module_test.c **** 		Sensor_DebugPrintf();line++;
 917              		.loc 1 296 65 view .LVU193
ARM GAS  C:\Temp\cckFZyBH.s 			page 26


 918 01ec 0020     		movs	r0, #0
 919 01ee FFF7FEFF 		bl	Sensor_GetValue
 920              	.LVL123:
 295:Src/module_test.c **** 				Sensor_GetValue(3), Sensor_GetValue(2), Sensor_GetValue(1), Sensor_GetValue(0)); line++;
 921              		.loc 1 295 3 view .LVU194
 922 01f2 0090     		str	r0, [sp]
 923 01f4 3B46     		mov	r3, r7
 924 01f6 3246     		mov	r2, r6
 925 01f8 2946     		mov	r1, r5
 926 01fa 4648     		ldr	r0, .L32+76
 927 01fc FFF7FEFF 		bl	printf
 928              	.LVL124:
 296:Src/module_test.c **** 		Sensor_DebugPrintf();line++;
 929              		.loc 1 296 86 is_stmt 1 view .LVU195
 297:Src/module_test.c **** 
 930              		.loc 1 297 3 view .LVU196
 931 0200 FFF7FEFF 		bl	Sensor_DebugPrintf
 932              	.LVL125:
 297:Src/module_test.c **** 
 933              		.loc 1 297 24 view .LVU197
 300:Src/module_test.c **** 				SensorValue2length(3),SensorValue2length(0)); line++;
 934              		.loc 1 300 3 view .LVU198
 935 0204 0320     		movs	r0, #3
 936 0206 FFF7FEFF 		bl	SensorValue2length
 937              	.LVL126:
 938 020a 57EC106B 		vmov	r6, r7, d0
 939 020e 0020     		movs	r0, #0
 940 0210 FFF7FEFF 		bl	SensorValue2length
 941              	.LVL127:
 942 0214 8DED000B 		vstr.64	d0, [sp]
 943 0218 3246     		mov	r2, r6
 944 021a 3B46     		mov	r3, r7
 945 021c 3E48     		ldr	r0, .L32+80
 946 021e FFF7FEFF 		bl	printf
 947              	.LVL128:
 301:Src/module_test.c **** 		// IMUï¼ˆåŠ é€Ÿåº¦è¨ˆã¨ã‚¸ãƒ£ã‚¤ãƒ­ï¼‰ã®è¨ˆæ¸¬å€¤è¡¨ç¤º
 948              		.loc 1 301 51 view .LVU199
 303:Src/module_test.c **** 				IMU_GetAccel_X(), IMU_GetGyro_Z()); line++;
 949              		.loc 1 303 3 view .LVU200
 304:Src/module_test.c **** 		// aå£ã‚»ãƒ³ã‚µç”¨ã‚¿ã‚¤ãƒ
 950              		.loc 1 304 5 is_stmt 0 view .LVU201
 951 0222 FFF7FEFF 		bl	IMU_GetAccel_X
 952              	.LVL129:
 953 0226 10EE106A 		vmov	r6, s0
 304:Src/module_test.c **** 		// aå£ã‚»ãƒ³ã‚µç”¨ã‚¿ã‚¤ãƒ
 954              		.loc 1 304 23 view .LVU202
 955 022a FFF7FEFF 		bl	IMU_GetGyro_Z
 956              	.LVL130:
 957 022e 10EE105A 		vmov	r5, s0
 303:Src/module_test.c **** 				IMU_GetAccel_X(), IMU_GetGyro_Z()); line++;
 958              		.loc 1 303 3 view .LVU203
 959 0232 3046     		mov	r0, r6	@ float
 960 0234 FFF7FEFF 		bl	__aeabi_f2d
 961              	.LVL131:
 962 0238 0646     		mov	r6, r0
 963 023a 0F46     		mov	r7, r1
 964 023c 2846     		mov	r0, r5	@ float
ARM GAS  C:\Temp\cckFZyBH.s 			page 27


 965 023e FFF7FEFF 		bl	__aeabi_f2d
 966              	.LVL132:
 967 0242 CDE90001 		strd	r0, [sp]
 968 0246 3246     		mov	r2, r6
 969 0248 3B46     		mov	r3, r7
 970 024a 3448     		ldr	r0, .L32+84
 971 024c FFF7FEFF 		bl	printf
 972              	.LVL133:
 304:Src/module_test.c **** 		// aå£ã‚»ãƒ³ã‚µç”¨ã‚¿ã‚¤ãƒ
 973              		.loc 1 304 41 is_stmt 1 view .LVU204
 308:Src/module_test.c **** 		printf("front_sensor, sl: %5.8f  sr: %5.8f \r\n",SensorValue2length(1),SensorValue2length(2));lin
 974              		.loc 1 308 3 view .LVU205
 308:Src/module_test.c **** 		printf("front_sensor, sl: %5.8f  sr: %5.8f \r\n",SensorValue2length(1),SensorValue2length(2));lin
 975              		.loc 1 308 61 is_stmt 0 view .LVU206
 976 0250 0320     		movs	r0, #3
 977 0252 FFF7FEFF 		bl	SensorValue2length
 978              	.LVL134:
 979 0256 53EC102B 		vmov	r2, r3, d0
 980 025a 1BA1     		adr	r1, .L32
 981 025c D1E90001 		ldrd	r0, [r1]
 982 0260 FFF7FEFF 		bl	__aeabi_dsub
 983              	.LVL135:
 308:Src/module_test.c **** 		printf("front_sensor, sl: %5.8f  sr: %5.8f \r\n",SensorValue2length(1),SensorValue2length(2));lin
 984              		.loc 1 308 3 view .LVU207
 985 0264 5246     		mov	r2, r10
 986 0266 5B46     		mov	r3, fp
 987 0268 FFF7FEFF 		bl	__aeabi_dcmplt
 988              	.LVL136:
 989 026c 0028     		cmp	r0, #0
 990 026e 7FF4D2AE 		bne	.L30
 308:Src/module_test.c **** 		printf("front_sensor, sl: %5.8f  sr: %5.8f \r\n",SensorValue2length(1),SensorValue2length(2));lin
 991              		.loc 1 308 61 discriminator 2 view .LVU208
 992 0272 0320     		movs	r0, #3
 993 0274 FFF7FEFF 		bl	SensorValue2length
 994              	.LVL137:
 995 0278 53EC102B 		vmov	r2, r3, d0
 308:Src/module_test.c **** 		printf("front_sensor, sl: %5.8f  sr: %5.8f \r\n",SensorValue2length(1),SensorValue2length(2));lin
 996              		.loc 1 308 3 discriminator 2 view .LVU209
 997 027c 12A1     		adr	r1, .L32
 998 027e D1E90001 		ldrd	r0, [r1]
 999 0282 FFF7FEFF 		bl	__aeabi_dsub
 1000              	.LVL138:
 1001 0286 CDE90201 		strd	r0, [sp, #8]
 1002              	.L20:
 308:Src/module_test.c **** 		printf("front_sensor, sl: %5.8f  sr: %5.8f \r\n",SensorValue2length(1),SensorValue2length(2));lin
 1003              		.loc 1 308 109 discriminator 4 view .LVU210
 1004 028a 0020     		movs	r0, #0
 1005 028c FFF7FEFF 		bl	SensorValue2length
 1006              	.LVL139:
 1007 0290 53EC102B 		vmov	r2, r3, d0
 1008 0294 0EA1     		adr	r1, .L32+8
 1009 0296 D1E90001 		ldrd	r0, [r1]
 1010 029a FFF7FEFF 		bl	__aeabi_dsub
 1011              	.LVL140:
 308:Src/module_test.c **** 		printf("front_sensor, sl: %5.8f  sr: %5.8f \r\n",SensorValue2length(1),SensorValue2length(2));lin
 1012              		.loc 1 308 3 discriminator 4 view .LVU211
 1013 029e 0022     		movs	r2, #0
ARM GAS  C:\Temp\cckFZyBH.s 			page 28


 1014 02a0 0023     		movs	r3, #0
 1015 02a2 FFF7FEFF 		bl	__aeabi_dcmplt
 1016              	.LVL141:
 1017 02a6 0028     		cmp	r0, #0
 1018 02a8 7FF4C4AE 		bne	.L31
 308:Src/module_test.c **** 		printf("front_sensor, sl: %5.8f  sr: %5.8f \r\n",SensorValue2length(1),SensorValue2length(2));lin
 1019              		.loc 1 308 109 discriminator 6 view .LVU212
 1020 02ac 0020     		movs	r0, #0
 1021 02ae FFF7FEFF 		bl	SensorValue2length
 1022              	.LVL142:
 1023 02b2 53EC102B 		vmov	r2, r3, d0
 308:Src/module_test.c **** 		printf("front_sensor, sl: %5.8f  sr: %5.8f \r\n",SensorValue2length(1),SensorValue2length(2));lin
 1024              		.loc 1 308 3 discriminator 6 view .LVU213
 1025 02b6 06A1     		adr	r1, .L32+8
 1026 02b8 D1E90001 		ldrd	r0, [r1]
 1027 02bc FFF7FEFF 		bl	__aeabi_dsub
 1028              	.LVL143:
 1029 02c0 8046     		mov	r8, r0
 1030 02c2 8946     		mov	r9, r1
 1031 02c4 C3E6     		b	.L23
 1032              	.L33:
 1033 02c6 00BF     		.align	3
 1034              	.L32:
 1035 02c8 000000E0 		.word	-536870912
 1036 02cc 4F8D873F 		.word	1065848143
 1037 02d0 00000060 		.word	1610612736
 1038 02d4 BC74833F 		.word	1065579708
 1039 02d8 A0010000 		.word	.LC13
 1040 02dc D0010000 		.word	.LC14
 1041 02e0 F8010000 		.word	.LC15
 1042 02e4 14020000 		.word	.LC16
 1043 02e8 00000000 		.word	_impure_ptr
 1044 02ec 38020000 		.word	.LC17
 1045 02f0 40020000 		.word	.LC18
 1046 02f4 00000000 		.word	.LC4
 1047 02f8 18000000 		.word	.LC5
 1048 02fc 44000000 		.word	.LC6
 1049 0300 DA0F4940 		.word	1078530010
 1050 0304 00003443 		.word	1127481344
 1051 0308 70000000 		.word	.LC7
 1052 030c 9C000000 		.word	.LC8
 1053 0310 DC000000 		.word	.LC9
 1054 0314 F4000000 		.word	.LC10
 1055 0318 38010000 		.word	.LC11
 1056 031c 6C010000 		.word	.LC12
 1057              		.cfi_endproc
 1058              	.LFE136:
 1060              		.section	.bss.log_counter,"aw",%nobits
 1061              		.align	1
 1062              		.set	.LANCHOR0,. + 0
 1065              	log_counter:
 1066 0000 0000     		.space	2
 1067              		.section	.bss.log_store,"aw",%nobits
 1068              		.align	2
 1071              	log_store:
 1072 0000 00000000 		.space	240000
 1072      00000000 
ARM GAS  C:\Temp\cckFZyBH.s 			page 29


 1072      00000000 
 1072      00000000 
 1072      00000000 
 1073              		.text
 1074              	.Letext0:
 1075              		.file 2 "c:\\tools\\gcc-arm-none-eabi-9-2019-q4-major\\arm-none-eabi\\include\\machine\\_default_t
 1076              		.file 3 "c:\\tools\\gcc-arm-none-eabi-9-2019-q4-major\\arm-none-eabi\\include\\sys\\lock.h"
 1077              		.file 4 "c:\\tools\\gcc-arm-none-eabi-9-2019-q4-major\\arm-none-eabi\\include\\sys\\_types.h"
 1078              		.file 5 "c:\\tools\\gcc-arm-none-eabi-9-2019-q4-major\\lib\\gcc\\arm-none-eabi\\9.2.1\\include\\st
 1079              		.file 6 "c:\\tools\\gcc-arm-none-eabi-9-2019-q4-major\\arm-none-eabi\\include\\sys\\reent.h"
 1080              		.file 7 "c:\\tools\\gcc-arm-none-eabi-9-2019-q4-major\\arm-none-eabi\\include\\sys\\_stdint.h"
 1081              		.file 8 "c:\\tools\\gcc-arm-none-eabi-9-2019-q4-major\\arm-none-eabi\\include\\math.h"
 1082              		.file 9 "Drivers/CMSIS/Include/core_cm4.h"
 1083              		.file 10 "Drivers/CMSIS/Device/ST/STM32F4xx/Include/system_stm32f4xx.h"
 1084              		.file 11 "Drivers/CMSIS/Device/ST/STM32F4xx/Include/stm32f413xx.h"
 1085              		.file 12 "Drivers/CMSIS/Device/ST/STM32F4xx/Include/stm32f4xx.h"
 1086              		.file 13 "Drivers/STM32F4xx_HAL_Driver/Inc/stm32f4xx_hal_def.h"
 1087              		.file 14 "Drivers/STM32F4xx_HAL_Driver/Inc/stm32f4xx_hal_dma.h"
 1088              		.file 15 "Drivers/STM32F4xx_HAL_Driver/Inc/stm32f4xx_hal_adc.h"
 1089              		.file 16 "Drivers/STM32F4xx_HAL_Driver/Inc/stm32f4xx_hal_spi.h"
 1090              		.file 17 "Drivers/STM32F4xx_HAL_Driver/Inc/stm32f4xx_hal_tim.h"
 1091              		.file 18 "Drivers/STM32F4xx_HAL_Driver/Inc/stm32f4xx_hal_uart.h"
 1092              		.file 19 "Inc/adc.h"
 1093              		.file 20 "Inc/spi.h"
 1094              		.file 21 "Inc/tim.h"
 1095              		.file 22 "Inc/usart.h"
 1096              		.file 23 "Inc/encorder.h"
 1097              		.file 24 "Inc/ir_sensor.h"
 1098              		.file 25 "c:\\tools\\gcc-arm-none-eabi-9-2019-q4-major\\arm-none-eabi\\include\\stdio.h"
 1099              		.file 26 "Inc/adjust.h"
 1100              		.file 27 "Drivers/STM32F4xx_HAL_Driver/Inc/stm32f4xx_hal.h"
 1101              		.file 28 "Inc/interrupt.h"
 1102              		.file 29 "Inc/mouse_state.h"
 1103              		.file 30 "Inc/imu.h"
 1104              		.file 31 "Inc/battery.h"
 1105              		.file 32 "Inc/exvol.h"
 1106              		.file 33 "<built-in>"
ARM GAS  C:\Temp\cckFZyBH.s 			page 30


DEFINED SYMBOLS
                            *ABS*:00000000 module_test.c
  C:\Temp\cckFZyBH.s:18     .text.log_init:00000000 $t
  C:\Temp\cckFZyBH.s:26     .text.log_init:00000000 log_init
  C:\Temp\cckFZyBH.s:44     .text.log_init:00000008 $d
  C:\Temp\cckFZyBH.s:50     .text.data_get:00000000 $t
  C:\Temp\cckFZyBH.s:57     .text.data_get:00000000 data_get
  C:\Temp\cckFZyBH.s:275    .text.data_get:00000138 $d
  C:\Temp\cckFZyBH.s:1071   .bss.log_store:00000000 log_store
  C:\Temp\cckFZyBH.s:281    .rodata.data_read.str1.4:00000000 $d
  C:\Temp\cckFZyBH.s:299    .text.data_read:00000000 $t
  C:\Temp\cckFZyBH.s:306    .text.data_read:00000000 data_read
  C:\Temp\cckFZyBH.s:546    .text.data_read:00000174 $d
  C:\Temp\cckFZyBH.s:555    .rodata.module_test.str1.4:00000000 $d
  C:\Temp\cckFZyBH.s:608    .text.module_test:00000000 $t
  C:\Temp\cckFZyBH.s:615    .text.module_test:00000000 module_test
  C:\Temp\cckFZyBH.s:1035   .text.module_test:000002c8 $d
  C:\Temp\cckFZyBH.s:1061   .bss.log_counter:00000000 $d
  C:\Temp\cckFZyBH.s:1065   .bss.log_counter:00000000 log_counter
  C:\Temp\cckFZyBH.s:1068   .bss.log_store:00000000 $d

UNDEFINED SYMBOLS
__aeabi_d2f
get_move_length
get_move_speed_ave
get_target_duty_r
get_target_duty_l
Sensor_GetValue
SensorValue2length
get_target_sensor_sr
get_target_sensor_sl
get_side_sensor_r_th
get_side_sensor_l_th
get_target_vol_diff_sidewall
get_side_wall_ctrl_mode
Battery_GetVoltage
__aeabi_f2d
printf
puts
__aeabi_dsub
__aeabi_dcmplt
Encoder_ResetCount_Left
Encoder_ResetCount_Right
fflush
HAL_Delay
Interrupt_GetBootTime
Interrupt_GetDuty
Interrupt_GetDuty_Max
Encoder_GetAngle_Left
Encoder_GetAngle_Right
get_move_speed
IMU_GetGyro_Z
Sensor_DebugPrintf
IMU_GetAccel_X
_impure_ptr
