ARM GAS  C:\Temp\ccrQCEwQ.s 			page 1


   1              		.cpu cortex-m4
   2              		.eabi_attribute 27, 1
   3              		.eabi_attribute 28, 1
   4              		.eabi_attribute 20, 1
   5              		.eabi_attribute 21, 1
   6              		.eabi_attribute 23, 3
   7              		.eabi_attribute 24, 1
   8              		.eabi_attribute 25, 1
   9              		.eabi_attribute 26, 1
  10              		.eabi_attribute 30, 1
  11              		.eabi_attribute 34, 1
  12              		.eabi_attribute 18, 4
  13              		.file	"module_test.c"
  14              		.text
  15              	.Ltext0:
  16              		.cfi_sections	.debug_frame
  17              		.section	.text.log_init,"ax",%progbits
  18              		.align	1
  19              		.global	log_init
  20              		.arch armv7e-m
  21              		.syntax unified
  22              		.thumb
  23              		.thumb_func
  24              		.fpu fpv4-sp-d16
  26              	log_init:
  27              	.LFB133:
  28              		.file 1 "Src/module_test.c"
   1:Src/module_test.c **** /*
   2:Src/module_test.c ****  * module_test.c
   3:Src/module_test.c ****  *
   4:Src/module_test.c ****  *  Created on: Aug 13, 2019
   5:Src/module_test.c ****  *      Author: å²¡ç”° æ³°è£•
   6:Src/module_test.c ****  */
   7:Src/module_test.c **** 
   8:Src/module_test.c **** 
   9:Src/module_test.c **** #include "index.h"
  10:Src/module_test.c **** #include "module_test.h"
  11:Src/module_test.c **** #include "ir_sensor.h"
  12:Src/module_test.c **** #include "battery.h"
  13:Src/module_test.c **** #include "imu.h"
  14:Src/module_test.c **** #include "param.h"
  15:Src/module_test.c **** #include "mouse_state.h"
  16:Src/module_test.c **** #include "target.h"
  17:Src/module_test.c **** #include "exvol.h"
  18:Src/module_test.c **** #include "stm32f4xx_hal.h"
  19:Src/module_test.c **** #include "encorder.h"
  20:Src/module_test.c **** #include "interrupt.h"
  21:Src/module_test.c **** #include "adjust.h"	
  22:Src/module_test.c **** 
  23:Src/module_test.c **** 
  24:Src/module_test.c **** static uint16_t log_counter = 0 ; //ãƒ­ã‚°å–å¾—é–‹å§‹ã‹ã‚‰ã®æ™‚é–“ç›£è¦–ç”¨ã‚«ã‚¦ãƒ³ã‚¿[ms]
  25:Src/module_test.c **** 
  26:Src/module_test.c **** typedef struct {	//ãƒ‡ãƒ¼ã‚¿æ ¼ç´ç”¨æ§‹é€ ä½“ã®å®šç¾©ï¼ˆæœ€å¤§ï¼’ï¼å€‹ã¨ã™ã‚‹ã“ã¨ï¼ˆï¼”ç§’ã
  27:Src/module_test.c **** 	
  28:Src/module_test.c **** 	
  29:Src/module_test.c **** 	#ifdef DATA_DEFAULT
  30:Src/module_test.c **** 	float	time;				//æ¸¬å®šé–‹å§‹ã‹ã‚‰ã®æ™‚é–“[m/s]
ARM GAS  C:\Temp\ccrQCEwQ.s 			page 2


  31:Src/module_test.c **** 	float	target_d_m;			//ç›®æ¨™ç§»å‹•è·é›¢[m]
  32:Src/module_test.c **** 	float 	ideal_d_m;			//ç†æƒ³ã®ä¸¦é€²æ–¹å‘ç§»å‹•è·é›¢[m]
  33:Src/module_test.c **** 	float	real_d_m;			//ä¸¦é€²æ–¹å‘ç§»å‹•è·é›¢[m]
  34:Src/module_test.c **** 	float   target_speed_m;		//ç›®æ¨™é€Ÿåº¦[m/s]
  35:Src/module_test.c **** 	float	speed_m;			//ä¸¦é€²æ–¹å‘ã®é€Ÿåº¦[m/s]
  36:Src/module_test.c **** 	float	speed_m_ave;		//ä¸¦é€²æ–¹å‘ã®é€Ÿåº¦å¹³å‡[m/s]
  37:Src/module_test.c **** 	float   accel_m;			//ä¸¦é€²æ–¹å‘ã®åŠ é€Ÿåº¦(m/s)
  38:Src/module_test.c **** 	float	accel_m_ave;		//ä¸¦é€²æ–¹å‘ã®åŠ é€Ÿåº¦å¹³å‡(m/s)
  39:Src/module_test.c **** 	float	target_d_w;			//ç›®æ¨™è§’åº¦
  40:Src/module_test.c **** 	float	ideal_d_w;			//ç†æƒ³è§’åº¦
  41:Src/module_test.c **** 	float	real_d_w;			//å›è»¢è§’åº¦(rad)
  42:Src/module_test.c **** 	float   target_speed_w;		//ç›®æ¨™è§’é€Ÿåº¦(rad/s)
  43:Src/module_test.c **** 	float	speed_w;			//å®Ÿéš›ã®è§’é€Ÿåº¦(rad/s)
  44:Src/module_test.c **** 	float   duty_r;				//å³ãƒ¢ãƒ¼ã‚¿æ“ä½œé‡ï¼ˆduty)
  45:Src/module_test.c **** 	float   duty_l;				//å·¦ãƒ¢ãƒ¼ã‚¿æ“ä½œé‡(duty)
  46:Src/module_test.c **** 	float   front_sensor_r;		//å³å‰å£ã‚»ãƒ³ã‚µå€¤
  47:Src/module_test.c **** 	float   front_sensor_l;		//å·¦å‰å£ã‚»ãƒ³ã‚µå€¤
  48:Src/module_test.c **** 	float   side_sensor_r;		//å³æ¨ªå£ã‚»ãƒ³ã‚µå€¤
  49:Src/module_test.c **** 	float   side_sensor_l;		//å·¦æ¨ªå£ã‚»ãƒ³ã‚µå€¤
  50:Src/module_test.c **** 	float   front_r;			//å£ã¨ã®è·é›¢ï¼ˆå³å‰ã‚»ãƒ³ã‚µï¼‰(m)
  51:Src/module_test.c **** 	float   front_l;			//å£ã¨ã®è·é›¢ï¼ˆå·¦å‰ã‚»ãƒ³ã‚µï¼‰(m)ï¼‰
  52:Src/module_test.c **** 	float   side_r;				//å£ã¨ã®è·é›¢ï¼ˆå³å‰ã‚»ãƒ³ã‚µï¼‰(m)
  53:Src/module_test.c **** 	float   side_l;				//å£ã¨ã®è·é›¢ï¼ˆå·¦å‰ã‚»ãƒ³ã‚µï¼‰(m)ï¼‰
  54:Src/module_test.c **** 	float   side_vol;			//æ¨ªå£åˆ¶å¾¡ã§ã®é›»åœ§å‡ºåŠ›
  55:Src/module_test.c **** 	float   side_mode;			//æ¨ªå£åˆ¶å¾¡ã®ãƒ¢ãƒ¼ãƒ‰
  56:Src/module_test.c **** 	float 	V_battery;			//ãƒãƒƒãƒ†ãƒªãƒ¼é›»åœ§
  57:Src/module_test.c **** 	#endif
  58:Src/module_test.c **** 
  59:Src/module_test.c **** 	#ifdef DATA_SIDE
  60:Src/module_test.c **** 	float	time;				//æ¸¬å®šé–‹å§‹ã‹ã‚‰ã®æ™‚é–“[m/s]
  61:Src/module_test.c **** 	float	real_d_m;			//ä¸¦é€²æ–¹å‘ç§»å‹•è·é›¢[m]
  62:Src/module_test.c **** 	float	speed_m_ave;		//ä¸¦é€²æ–¹å‘ã®é€Ÿåº¦å¹³å‡[m/s]
  63:Src/module_test.c **** 	float   duty_r;				//å³ãƒ¢ãƒ¼ã‚¿æ“ä½œé‡ï¼ˆduty)
  64:Src/module_test.c **** 	float   duty_l;				//å·¦ãƒ¢ãƒ¼ã‚¿æ“ä½œé‡(duty)
  65:Src/module_test.c **** 	float   front_sensor_r;		//å³å‰å£ã‚»ãƒ³ã‚µå€¤
  66:Src/module_test.c **** 	float   front_sensor_l;		//å·¦å‰å£ã‚»ãƒ³ã‚µå€¤
  67:Src/module_test.c **** 	float   side_sensor_r;		//å³æ¨ªå£ã‚»ãƒ³ã‚µå€¤
  68:Src/module_test.c **** 	float   side_sensor_l;		//å·¦æ¨ªå£ã‚»ãƒ³ã‚µå€¤
  69:Src/module_test.c **** 	float   front_r;			//å£ã¨ã®è·é›¢ï¼ˆå³å‰ã‚»ãƒ³ã‚µï¼‰(m)
  70:Src/module_test.c **** 	float   front_l;			//å£ã¨ã®è·é›¢ï¼ˆå·¦å‰ã‚»ãƒ³ã‚µï¼‰(m)
  71:Src/module_test.c **** 	float   side_r;				//å£ã¨ã®è·é›¢ï¼ˆå³å‰ã‚»ãƒ³ã‚µï¼‰(m)
  72:Src/module_test.c **** 	float   side_l;				//å£ã¨ã®è·é›¢ï¼ˆå·¦å‰ã‚»ãƒ³ã‚µï¼‰(m)
  73:Src/module_test.c **** 	float	side_r_target;		//å³å£ç›®æ¨™è·é›¢
  74:Src/module_test.c **** 	float	side_l_target;		//å·¦å£ç›®æ¨™è·é›¢
  75:Src/module_test.c **** 	float	side_r_th;			//å³å£åˆ¶å¾¡ãƒ¢ãƒ¼ãƒ‰é–¾å€¤
  76:Src/module_test.c **** 	float	side_l_th;			//å·¦å£åˆ¶å¾¡ãƒ¢ãƒ¼ãƒ‰é–¾å€¤
  77:Src/module_test.c **** 	float   side_vol;			//æ¨ªå£åˆ¶å¾¡ã§ã®é›»åœ§å‡ºåŠ›
  78:Src/module_test.c **** 	float   side_mode;			//æ¨ªå£åˆ¶å¾¡ã®ãƒ¢ãƒ¼ãƒ‰
  79:Src/module_test.c **** 	float 	V_battery;			//ãƒãƒƒãƒ†ãƒªãƒ¼é›»åœ§
  80:Src/module_test.c **** 
  81:Src/module_test.c **** 
  82:Src/module_test.c **** 	#endif
  83:Src/module_test.c **** } log_struct;
  84:Src/module_test.c **** 
  85:Src/module_test.c **** static log_struct log_store[log_count_lim / log_count_step];  // ãƒ‡ãƒ¼ã‚¿æ ¼ç´ç”¨ã®æ§‹é€ ä½“
  86:Src/module_test.c **** 
  87:Src/module_test.c **** 
ARM GAS  C:\Temp\ccrQCEwQ.s 			page 3


  88:Src/module_test.c **** /* ---------------------------------------------------------------
  89:Src/module_test.c **** 	ãƒ­ã‚°å–å¾—ã‚«ã‚¦ãƒ³ã‚¿åˆæœŸåŒ–é–¢æ•°
  90:Src/module_test.c **** --------------------------------------------------------------- */
  91:Src/module_test.c **** void log_init (void)
  92:Src/module_test.c **** {
  29              		.loc 1 92 1 view -0
  30              		.cfi_startproc
  31              		@ args = 0, pretend = 0, frame = 0
  32              		@ frame_needed = 0, uses_anonymous_args = 0
  33              		@ link register save eliminated.
  93:Src/module_test.c **** 	log_counter = 0; //ãƒ­ã‚°ã‚«ã‚¦ãƒ³ã‚¿ã®åˆæœŸåŒ–
  34              		.loc 1 93 2 view .LVU1
  35              		.loc 1 93 14 is_stmt 0 view .LVU2
  36 0000 014B     		ldr	r3, .L2
  37 0002 0022     		movs	r2, #0
  38 0004 1A80     		strh	r2, [r3]	@ movhi
  94:Src/module_test.c **** }
  39              		.loc 1 94 1 view .LVU3
  40 0006 7047     		bx	lr
  41              	.L3:
  42              		.align	2
  43              	.L2:
  44 0008 00000000 		.word	.LANCHOR0
  45              		.cfi_endproc
  46              	.LFE133:
  48              		.global	__aeabi_d2f
  49              		.section	.text.data_get,"ax",%progbits
  50              		.align	1
  51              		.global	data_get
  52              		.syntax unified
  53              		.thumb
  54              		.thumb_func
  55              		.fpu fpv4-sp-d16
  57              	data_get:
  58              	.LFB134:
  95:Src/module_test.c **** 
  96:Src/module_test.c **** 
  97:Src/module_test.c **** /* ---------------------------------------------------------------
  98:Src/module_test.c **** 	ãƒ­ã‚°å–å¾—ç”¨é–¢æ•°ï¼ˆ1msã‚¿ã‚¹ã‚¯ï¼‰
  99:Src/module_test.c **** --------------------------------------------------------------- */
 100:Src/module_test.c **** void data_get (void)
 101:Src/module_test.c **** {
  59              		.loc 1 101 1 is_stmt 1 view -0
  60              		.cfi_startproc
  61              		@ args = 0, pretend = 0, frame = 0
  62              		@ frame_needed = 0, uses_anonymous_args = 0
  63 0000 F8B5     		push	{r3, r4, r5, r6, r7, lr}
  64              	.LCFI0:
  65              		.cfi_def_cfa_offset 24
  66              		.cfi_offset 3, -24
  67              		.cfi_offset 4, -20
  68              		.cfi_offset 5, -16
  69              		.cfi_offset 6, -12
  70              		.cfi_offset 7, -8
  71              		.cfi_offset 14, -4
 102:Src/module_test.c **** 
 103:Src/module_test.c **** 	uint16_t i = 0;
ARM GAS  C:\Temp\ccrQCEwQ.s 			page 4


  72              		.loc 1 103 2 view .LVU5
  73              	.LVL0:
 104:Src/module_test.c **** 	i = log_counter / log_count_step;
  74              		.loc 1 104 2 view .LVU6
  75              		.loc 1 104 4 is_stmt 0 view .LVU7
  76 0002 514B     		ldr	r3, .L9
  77 0004 1A88     		ldrh	r2, [r3]
  78 0006 514B     		ldr	r3, .L9+4
  79 0008 A3FB0213 		umull	r1, r3, r3, r2
  80 000c 1C09     		lsrs	r4, r3, #4
  81              	.LVL1:
 105:Src/module_test.c **** 
 106:Src/module_test.c **** 	if(log_counter < log_count_lim)
  82              		.loc 1 106 2 is_stmt 1 view .LVU8
  83              		.loc 1 106 4 is_stmt 0 view .LVU9
  84 000e 44F61F63 		movw	r3, #19999
  85 0012 9A42     		cmp	r2, r3
  86 0014 09D8     		bhi	.L4
 107:Src/module_test.c **** 	{
 108:Src/module_test.c **** 		if( (log_counter % log_count_step) == 0)
  87              		.loc 1 108 3 is_stmt 1 view .LVU10
  88              		.loc 1 108 38 is_stmt 0 view .LVU11
  89 0016 04EB8403 		add	r3, r4, r4, lsl #2
  90 001a A2EB8303 		sub	r3, r2, r3, lsl #2
  91 001e 9BB2     		uxth	r3, r3
  92              		.loc 1 108 5 view .LVU12
  93 0020 23B1     		cbz	r3, .L8
  94              	.L6:
 109:Src/module_test.c **** 		{
 110:Src/module_test.c **** 			//æ¸¬å®šãƒ¢ãƒ¼ãƒ‰ï¼‘
 111:Src/module_test.c **** 			#ifdef DATA_DEFAULT
 112:Src/module_test.c **** 			log_store[i].time = (float)log_counter;
 113:Src/module_test.c **** 			log_store[i].target_d_m = (float)get_target_length();
 114:Src/module_test.c **** 			log_store[i].ideal_d_m = (float)get_ideal_length();
 115:Src/module_test.c **** 			log_store[i].real_d_m = (float)get_move_length();
 116:Src/module_test.c **** 			log_store[i].target_speed_m =  (float)get_target_move_speed();
 117:Src/module_test.c **** 			log_store[i].speed_m = (float)get_move_speed();
 118:Src/module_test.c **** 			log_store[i].speed_m_ave = (float)get_move_speed_ave();
 119:Src/module_test.c **** 			log_store[i].accel_m = (float)IMU_GetAccel_X();
 120:Src/module_test.c **** 			log_store[i].accel_m_ave = (float)get_move_accel_ave();
 121:Src/module_test.c **** 			log_store[i].target_d_w = (float)get_target_angle();
 122:Src/module_test.c **** 			log_store[i].ideal_d_w = (float)get_ideal_angle();
 123:Src/module_test.c **** 			log_store[i].real_d_w = (float)get_rotation_angle();
 124:Src/module_test.c **** 			log_store[i].target_speed_w = (float)get_target_rotation_speed();
 125:Src/module_test.c **** 			log_store[i].speed_w = (float)get_rotation_speed();
 126:Src/module_test.c **** 			log_store[i].duty_r = (float)get_target_duty_r();
 127:Src/module_test.c **** 			log_store[i].duty_l = (float)get_target_duty_l();
 128:Src/module_test.c **** 			log_store[i].front_sensor_r = (float)Sensor_GetValue(3);
 129:Src/module_test.c **** 			log_store[i].front_sensor_l = (float)Sensor_GetValue(0);
 130:Src/module_test.c **** 			log_store[i].side_sensor_r = (float)Sensor_GetValue(2);
 131:Src/module_test.c **** 			log_store[i].side_sensor_l = (float)Sensor_GetValue(1);
 132:Src/module_test.c **** 			log_store[i].front_r = (float)SensorValue2length(3);
 133:Src/module_test.c **** 			log_store[i].front_l = (float)SensorValue2length(0);
 134:Src/module_test.c **** 			log_store[i].side_r = (float)SensorValue2length(2);
 135:Src/module_test.c **** 			log_store[i].side_l = (float)SensorValue2length(1);
 136:Src/module_test.c **** 			log_store[i].side_vol = (float)get_target_vol_diff_sidewall();
 137:Src/module_test.c **** 			log_store[i].side_mode = (float)get_side_wall_ctrl_mode();
ARM GAS  C:\Temp\ccrQCEwQ.s 			page 5


 138:Src/module_test.c **** 			log_store[i].V_battery =(float) Battery_GetVoltage();
 139:Src/module_test.c **** 			#endif
 140:Src/module_test.c **** 
 141:Src/module_test.c **** 			//æ¸¬å®šãƒ¢ãƒ¼ãƒ‰ï¼’
 142:Src/module_test.c **** 			#ifdef DATA_SIDE
 143:Src/module_test.c **** 			log_store[i].time = (float)log_counter;
 144:Src/module_test.c **** 			log_store[i].real_d_m = (float)get_move_length();
 145:Src/module_test.c **** 			log_store[i].speed_m_ave = (float)get_move_speed_ave();
 146:Src/module_test.c **** 			log_store[i].duty_r = (float)get_target_duty_r();
 147:Src/module_test.c **** 			log_store[i].duty_l = (float)get_target_duty_l();
 148:Src/module_test.c **** 			log_store[i].front_sensor_r = (float)Sensor_GetValue(3);
 149:Src/module_test.c **** 			log_store[i].front_sensor_l = (float)Sensor_GetValue(0);
 150:Src/module_test.c **** 			log_store[i].side_sensor_r = (float)Sensor_GetValue(2);
 151:Src/module_test.c **** 			log_store[i].side_sensor_l = (float)Sensor_GetValue(1);
 152:Src/module_test.c **** 			log_store[i].front_r = (float)SensorValue2length(3);
 153:Src/module_test.c **** 			log_store[i].front_l = (float)SensorValue2length(0);
 154:Src/module_test.c **** 			log_store[i].side_r = (float)SensorValue2length(2);
 155:Src/module_test.c **** 			log_store[i].side_l = (float)SensorValue2length(1);
 156:Src/module_test.c **** 			log_store[i].side_r_target = (float)get_target_sensor_sr();
 157:Src/module_test.c **** 			log_store[i].side_l_target = (float)get_target_sensor_sl();
 158:Src/module_test.c **** 			log_store[i].side_r_th = (float)get_side_sensor_r_th();
 159:Src/module_test.c **** 			log_store[i].side_l_th = (float)get_side_sensor_l_th();
 160:Src/module_test.c **** 			log_store[i].side_vol = (float)get_target_vol_diff_sidewall();
 161:Src/module_test.c **** 			log_store[i].side_mode = (float)get_side_wall_ctrl_mode();
 162:Src/module_test.c **** 			log_store[i].V_battery =(float) Battery_GetVoltage();
 163:Src/module_test.c **** 			#endif
 164:Src/module_test.c **** 		}
 165:Src/module_test.c **** 		log_counter += 1; //logã‚«ã‚¦ãƒ³ã‚¿æ›´æ–°
  95              		.loc 1 165 3 is_stmt 1 view .LVU13
  96              		.loc 1 165 15 is_stmt 0 view .LVU14
  97 0022 494A     		ldr	r2, .L9
  98 0024 1388     		ldrh	r3, [r2]
  99 0026 0133     		adds	r3, r3, #1
 100 0028 1380     		strh	r3, [r2]	@ movhi
 101              	.L4:
 166:Src/module_test.c **** 	}
 167:Src/module_test.c **** }
 102              		.loc 1 167 1 view .LVU15
 103 002a F8BD     		pop	{r3, r4, r5, r6, r7, pc}
 104              	.LVL2:
 105              	.L8:
 143:Src/module_test.c **** 			log_store[i].real_d_m = (float)get_move_length();
 106              		.loc 1 143 4 is_stmt 1 view .LVU16
 143:Src/module_test.c **** 			log_store[i].real_d_m = (float)get_move_length();
 107              		.loc 1 143 24 is_stmt 0 view .LVU17
 108 002c 07EE902A 		vmov	s15, r2	@ int
 109 0030 F8EE677A 		vcvt.f32.u32	s15, s15
 143:Src/module_test.c **** 			log_store[i].real_d_m = (float)get_move_length();
 110              		.loc 1 143 22 view .LVU18
 111 0034 464E     		ldr	r6, .L9+8
 112 0036 04EB8405 		add	r5, r4, r4, lsl #2
 113 003a 06EB0515 		add	r5, r6, r5, lsl #4
 114 003e C5ED007A 		vstr.32	s15, [r5]
 144:Src/module_test.c **** 			log_store[i].speed_m_ave = (float)get_move_speed_ave();
 115              		.loc 1 144 4 is_stmt 1 view .LVU19
 144:Src/module_test.c **** 			log_store[i].speed_m_ave = (float)get_move_speed_ave();
 116              		.loc 1 144 28 is_stmt 0 view .LVU20
ARM GAS  C:\Temp\ccrQCEwQ.s 			page 6


 117 0042 FFF7FEFF 		bl	get_move_length
 118              	.LVL3:
 144:Src/module_test.c **** 			log_store[i].speed_m_ave = (float)get_move_speed_ave();
 119              		.loc 1 144 26 view .LVU21
 120 0046 85ED010A 		vstr.32	s0, [r5, #4]
 145:Src/module_test.c **** 			log_store[i].duty_r = (float)get_target_duty_r();
 121              		.loc 1 145 4 is_stmt 1 view .LVU22
 145:Src/module_test.c **** 			log_store[i].duty_r = (float)get_target_duty_r();
 122              		.loc 1 145 31 is_stmt 0 view .LVU23
 123 004a FFF7FEFF 		bl	get_move_speed_ave
 124              	.LVL4:
 145:Src/module_test.c **** 			log_store[i].duty_r = (float)get_target_duty_r();
 125              		.loc 1 145 29 view .LVU24
 126 004e 85ED020A 		vstr.32	s0, [r5, #8]
 146:Src/module_test.c **** 			log_store[i].duty_l = (float)get_target_duty_l();
 127              		.loc 1 146 4 is_stmt 1 view .LVU25
 146:Src/module_test.c **** 			log_store[i].duty_l = (float)get_target_duty_l();
 128              		.loc 1 146 33 is_stmt 0 view .LVU26
 129 0052 FFF7FEFF 		bl	get_target_duty_r
 130              	.LVL5:
 131 0056 07EE900A 		vmov	s15, r0	@ int
 146:Src/module_test.c **** 			log_store[i].duty_l = (float)get_target_duty_l();
 132              		.loc 1 146 26 view .LVU27
 133 005a F8EEE77A 		vcvt.f32.s32	s15, s15
 146:Src/module_test.c **** 			log_store[i].duty_l = (float)get_target_duty_l();
 134              		.loc 1 146 24 view .LVU28
 135 005e C5ED037A 		vstr.32	s15, [r5, #12]
 147:Src/module_test.c **** 			log_store[i].front_sensor_r = (float)Sensor_GetValue(3);
 136              		.loc 1 147 4 is_stmt 1 view .LVU29
 147:Src/module_test.c **** 			log_store[i].front_sensor_r = (float)Sensor_GetValue(3);
 137              		.loc 1 147 33 is_stmt 0 view .LVU30
 138 0062 FFF7FEFF 		bl	get_target_duty_l
 139              	.LVL6:
 140 0066 07EE900A 		vmov	s15, r0	@ int
 147:Src/module_test.c **** 			log_store[i].front_sensor_r = (float)Sensor_GetValue(3);
 141              		.loc 1 147 26 view .LVU31
 142 006a F8EEE77A 		vcvt.f32.s32	s15, s15
 147:Src/module_test.c **** 			log_store[i].front_sensor_r = (float)Sensor_GetValue(3);
 143              		.loc 1 147 24 view .LVU32
 144 006e C5ED047A 		vstr.32	s15, [r5, #16]
 148:Src/module_test.c **** 			log_store[i].front_sensor_l = (float)Sensor_GetValue(0);
 145              		.loc 1 148 4 is_stmt 1 view .LVU33
 148:Src/module_test.c **** 			log_store[i].front_sensor_l = (float)Sensor_GetValue(0);
 146              		.loc 1 148 41 is_stmt 0 view .LVU34
 147 0072 0320     		movs	r0, #3
 148 0074 FFF7FEFF 		bl	Sensor_GetValue
 149              	.LVL7:
 150 0078 07EE900A 		vmov	s15, r0	@ int
 148:Src/module_test.c **** 			log_store[i].front_sensor_l = (float)Sensor_GetValue(0);
 151              		.loc 1 148 34 view .LVU35
 152 007c F8EEE77A 		vcvt.f32.s32	s15, s15
 148:Src/module_test.c **** 			log_store[i].front_sensor_l = (float)Sensor_GetValue(0);
 153              		.loc 1 148 32 view .LVU36
 154 0080 C5ED057A 		vstr.32	s15, [r5, #20]
 149:Src/module_test.c **** 			log_store[i].side_sensor_r = (float)Sensor_GetValue(2);
 155              		.loc 1 149 4 is_stmt 1 view .LVU37
 149:Src/module_test.c **** 			log_store[i].side_sensor_r = (float)Sensor_GetValue(2);
ARM GAS  C:\Temp\ccrQCEwQ.s 			page 7


 156              		.loc 1 149 41 is_stmt 0 view .LVU38
 157 0084 0020     		movs	r0, #0
 158 0086 FFF7FEFF 		bl	Sensor_GetValue
 159              	.LVL8:
 160 008a 07EE900A 		vmov	s15, r0	@ int
 149:Src/module_test.c **** 			log_store[i].side_sensor_r = (float)Sensor_GetValue(2);
 161              		.loc 1 149 34 view .LVU39
 162 008e F8EEE77A 		vcvt.f32.s32	s15, s15
 149:Src/module_test.c **** 			log_store[i].side_sensor_r = (float)Sensor_GetValue(2);
 163              		.loc 1 149 32 view .LVU40
 164 0092 C5ED067A 		vstr.32	s15, [r5, #24]
 150:Src/module_test.c **** 			log_store[i].side_sensor_l = (float)Sensor_GetValue(1);
 165              		.loc 1 150 4 is_stmt 1 view .LVU41
 150:Src/module_test.c **** 			log_store[i].side_sensor_l = (float)Sensor_GetValue(1);
 166              		.loc 1 150 40 is_stmt 0 view .LVU42
 167 0096 0220     		movs	r0, #2
 168 0098 FFF7FEFF 		bl	Sensor_GetValue
 169              	.LVL9:
 170 009c 07EE900A 		vmov	s15, r0	@ int
 150:Src/module_test.c **** 			log_store[i].side_sensor_l = (float)Sensor_GetValue(1);
 171              		.loc 1 150 33 view .LVU43
 172 00a0 F8EEE77A 		vcvt.f32.s32	s15, s15
 150:Src/module_test.c **** 			log_store[i].side_sensor_l = (float)Sensor_GetValue(1);
 173              		.loc 1 150 31 view .LVU44
 174 00a4 C5ED077A 		vstr.32	s15, [r5, #28]
 151:Src/module_test.c **** 			log_store[i].front_r = (float)SensorValue2length(3);
 175              		.loc 1 151 4 is_stmt 1 view .LVU45
 151:Src/module_test.c **** 			log_store[i].front_r = (float)SensorValue2length(3);
 176              		.loc 1 151 40 is_stmt 0 view .LVU46
 177 00a8 0120     		movs	r0, #1
 178 00aa FFF7FEFF 		bl	Sensor_GetValue
 179              	.LVL10:
 180 00ae 07EE900A 		vmov	s15, r0	@ int
 151:Src/module_test.c **** 			log_store[i].front_r = (float)SensorValue2length(3);
 181              		.loc 1 151 33 view .LVU47
 182 00b2 F8EEE77A 		vcvt.f32.s32	s15, s15
 151:Src/module_test.c **** 			log_store[i].front_r = (float)SensorValue2length(3);
 183              		.loc 1 151 31 view .LVU48
 184 00b6 C5ED087A 		vstr.32	s15, [r5, #32]
 152:Src/module_test.c **** 			log_store[i].front_l = (float)SensorValue2length(0);
 185              		.loc 1 152 4 is_stmt 1 view .LVU49
 152:Src/module_test.c **** 			log_store[i].front_l = (float)SensorValue2length(0);
 186              		.loc 1 152 34 is_stmt 0 view .LVU50
 187 00ba 0320     		movs	r0, #3
 188 00bc FFF7FEFF 		bl	SensorValue2length
 189              	.LVL11:
 190 00c0 51EC100B 		vmov	r0, r1, d0
 152:Src/module_test.c **** 			log_store[i].front_l = (float)SensorValue2length(0);
 191              		.loc 1 152 27 view .LVU51
 192 00c4 FFF7FEFF 		bl	__aeabi_d2f
 193              	.LVL12:
 152:Src/module_test.c **** 			log_store[i].front_l = (float)SensorValue2length(0);
 194              		.loc 1 152 25 view .LVU52
 195 00c8 6862     		str	r0, [r5, #36]	@ float
 153:Src/module_test.c **** 			log_store[i].side_r = (float)SensorValue2length(2);
 196              		.loc 1 153 4 is_stmt 1 view .LVU53
 153:Src/module_test.c **** 			log_store[i].side_r = (float)SensorValue2length(2);
ARM GAS  C:\Temp\ccrQCEwQ.s 			page 8


 197              		.loc 1 153 34 is_stmt 0 view .LVU54
 198 00ca 0020     		movs	r0, #0
 199 00cc FFF7FEFF 		bl	SensorValue2length
 200              	.LVL13:
 201 00d0 51EC100B 		vmov	r0, r1, d0
 153:Src/module_test.c **** 			log_store[i].side_r = (float)SensorValue2length(2);
 202              		.loc 1 153 27 view .LVU55
 203 00d4 FFF7FEFF 		bl	__aeabi_d2f
 204              	.LVL14:
 153:Src/module_test.c **** 			log_store[i].side_r = (float)SensorValue2length(2);
 205              		.loc 1 153 25 view .LVU56
 206 00d8 A862     		str	r0, [r5, #40]	@ float
 154:Src/module_test.c **** 			log_store[i].side_l = (float)SensorValue2length(1);
 207              		.loc 1 154 4 is_stmt 1 view .LVU57
 154:Src/module_test.c **** 			log_store[i].side_l = (float)SensorValue2length(1);
 208              		.loc 1 154 33 is_stmt 0 view .LVU58
 209 00da 0220     		movs	r0, #2
 210 00dc FFF7FEFF 		bl	SensorValue2length
 211              	.LVL15:
 212 00e0 51EC100B 		vmov	r0, r1, d0
 154:Src/module_test.c **** 			log_store[i].side_l = (float)SensorValue2length(1);
 213              		.loc 1 154 26 view .LVU59
 214 00e4 FFF7FEFF 		bl	__aeabi_d2f
 215              	.LVL16:
 154:Src/module_test.c **** 			log_store[i].side_l = (float)SensorValue2length(1);
 216              		.loc 1 154 24 view .LVU60
 217 00e8 E862     		str	r0, [r5, #44]	@ float
 155:Src/module_test.c **** 			log_store[i].side_r_target = (float)get_target_sensor_sr();
 218              		.loc 1 155 4 is_stmt 1 view .LVU61
 155:Src/module_test.c **** 			log_store[i].side_r_target = (float)get_target_sensor_sr();
 219              		.loc 1 155 33 is_stmt 0 view .LVU62
 220 00ea 0120     		movs	r0, #1
 221 00ec FFF7FEFF 		bl	SensorValue2length
 222              	.LVL17:
 223 00f0 51EC100B 		vmov	r0, r1, d0
 155:Src/module_test.c **** 			log_store[i].side_r_target = (float)get_target_sensor_sr();
 224              		.loc 1 155 26 view .LVU63
 225 00f4 FFF7FEFF 		bl	__aeabi_d2f
 226              	.LVL18:
 155:Src/module_test.c **** 			log_store[i].side_r_target = (float)get_target_sensor_sr();
 227              		.loc 1 155 24 view .LVU64
 228 00f8 2863     		str	r0, [r5, #48]	@ float
 156:Src/module_test.c **** 			log_store[i].side_l_target = (float)get_target_sensor_sl();
 229              		.loc 1 156 4 is_stmt 1 view .LVU65
 156:Src/module_test.c **** 			log_store[i].side_l_target = (float)get_target_sensor_sl();
 230              		.loc 1 156 33 is_stmt 0 view .LVU66
 231 00fa FFF7FEFF 		bl	get_target_sensor_sr
 232              	.LVL19:
 156:Src/module_test.c **** 			log_store[i].side_l_target = (float)get_target_sensor_sl();
 233              		.loc 1 156 31 view .LVU67
 234 00fe 85ED0D0A 		vstr.32	s0, [r5, #52]
 157:Src/module_test.c **** 			log_store[i].side_r_th = (float)get_side_sensor_r_th();
 235              		.loc 1 157 4 is_stmt 1 view .LVU68
 157:Src/module_test.c **** 			log_store[i].side_r_th = (float)get_side_sensor_r_th();
 236              		.loc 1 157 33 is_stmt 0 view .LVU69
 237 0102 FFF7FEFF 		bl	get_target_sensor_sl
 238              	.LVL20:
ARM GAS  C:\Temp\ccrQCEwQ.s 			page 9


 157:Src/module_test.c **** 			log_store[i].side_r_th = (float)get_side_sensor_r_th();
 239              		.loc 1 157 31 view .LVU70
 240 0106 85ED0E0A 		vstr.32	s0, [r5, #56]
 158:Src/module_test.c **** 			log_store[i].side_l_th = (float)get_side_sensor_l_th();
 241              		.loc 1 158 4 is_stmt 1 view .LVU71
 158:Src/module_test.c **** 			log_store[i].side_l_th = (float)get_side_sensor_l_th();
 242              		.loc 1 158 36 is_stmt 0 view .LVU72
 243 010a FFF7FEFF 		bl	get_side_sensor_r_th
 244              	.LVL21:
 245 010e 51EC100B 		vmov	r0, r1, d0
 158:Src/module_test.c **** 			log_store[i].side_l_th = (float)get_side_sensor_l_th();
 246              		.loc 1 158 29 view .LVU73
 247 0112 FFF7FEFF 		bl	__aeabi_d2f
 248              	.LVL22:
 158:Src/module_test.c **** 			log_store[i].side_l_th = (float)get_side_sensor_l_th();
 249              		.loc 1 158 27 view .LVU74
 250 0116 E863     		str	r0, [r5, #60]	@ float
 159:Src/module_test.c **** 			log_store[i].side_vol = (float)get_target_vol_diff_sidewall();
 251              		.loc 1 159 4 is_stmt 1 view .LVU75
 159:Src/module_test.c **** 			log_store[i].side_vol = (float)get_target_vol_diff_sidewall();
 252              		.loc 1 159 36 is_stmt 0 view .LVU76
 253 0118 FFF7FEFF 		bl	get_side_sensor_l_th
 254              	.LVL23:
 255 011c 51EC100B 		vmov	r0, r1, d0
 159:Src/module_test.c **** 			log_store[i].side_vol = (float)get_target_vol_diff_sidewall();
 256              		.loc 1 159 29 view .LVU77
 257 0120 FFF7FEFF 		bl	__aeabi_d2f
 258              	.LVL24:
 159:Src/module_test.c **** 			log_store[i].side_vol = (float)get_target_vol_diff_sidewall();
 259              		.loc 1 159 27 view .LVU78
 260 0124 2864     		str	r0, [r5, #64]	@ float
 160:Src/module_test.c **** 			log_store[i].side_mode = (float)get_side_wall_ctrl_mode();
 261              		.loc 1 160 4 is_stmt 1 view .LVU79
 160:Src/module_test.c **** 			log_store[i].side_mode = (float)get_side_wall_ctrl_mode();
 262              		.loc 1 160 28 is_stmt 0 view .LVU80
 263 0126 FFF7FEFF 		bl	get_target_vol_diff_sidewall
 264              	.LVL25:
 160:Src/module_test.c **** 			log_store[i].side_mode = (float)get_side_wall_ctrl_mode();
 265              		.loc 1 160 26 view .LVU81
 266 012a 85ED110A 		vstr.32	s0, [r5, #68]
 161:Src/module_test.c **** 			log_store[i].V_battery =(float) Battery_GetVoltage();
 267              		.loc 1 161 4 is_stmt 1 view .LVU82
 161:Src/module_test.c **** 			log_store[i].V_battery =(float) Battery_GetVoltage();
 268              		.loc 1 161 36 is_stmt 0 view .LVU83
 269 012e FFF7FEFF 		bl	get_side_wall_ctrl_mode
 270              	.LVL26:
 271 0132 07EE900A 		vmov	s15, r0	@ int
 161:Src/module_test.c **** 			log_store[i].V_battery =(float) Battery_GetVoltage();
 272              		.loc 1 161 29 view .LVU84
 273 0136 F8EE677A 		vcvt.f32.u32	s15, s15
 161:Src/module_test.c **** 			log_store[i].V_battery =(float) Battery_GetVoltage();
 274              		.loc 1 161 27 view .LVU85
 275 013a C5ED127A 		vstr.32	s15, [r5, #72]
 162:Src/module_test.c **** 			#endif
 276              		.loc 1 162 4 is_stmt 1 view .LVU86
 162:Src/module_test.c **** 			#endif
 277              		.loc 1 162 28 is_stmt 0 view .LVU87
ARM GAS  C:\Temp\ccrQCEwQ.s 			page 10


 278 013e FFF7FEFF 		bl	Battery_GetVoltage
 279              	.LVL27:
 162:Src/module_test.c **** 			#endif
 280              		.loc 1 162 27 view .LVU88
 281 0142 85ED130A 		vstr.32	s0, [r5, #76]
 282 0146 6CE7     		b	.L6
 283              	.L10:
 284              		.align	2
 285              	.L9:
 286 0148 00000000 		.word	.LANCHOR0
 287 014c CDCCCCCC 		.word	-858993459
 288 0150 00000000 		.word	log_store
 289              		.cfi_endproc
 290              	.LFE134:
 292              		.section	.rodata.data_read.str1.4,"aMS",%progbits,1
 293              		.align	2
 294              	.LC0:
 295 0000 54494D45 		.ascii	"TIME[ms],current_distance[m],SPEED_m_ave[m/s],DUTY_"
 295      5B6D735D 
 295      2C637572 
 295      72656E74 
 295      5F646973 
 296 0033 525B2525 		.ascii	"R[%%],Duty_L[%%],front_r,front_l,side_r,side_l,fron"
 296      5D2C4475 
 296      74795F4C 
 296      5B25255D 
 296      2C66726F 
 297 0066 745F725B 		.ascii	"t_r[m],front_l[m],side_r[m],side_l[m],side_r_target"
 297      6D5D2C66 
 297      726F6E74 
 297      5F6C5B6D 
 297      5D2C7369 
 298 0099 5B6D5D2C 		.ascii	"[m],side_l_target[m],side_r_th,side_l_th,side_vol[V"
 298      73696465 
 298      5F6C5F74 
 298      61726765 
 298      745B6D5D 
 299 00cc 5D2C7369 		.ascii	"],side_mode,V_battery[V]\015\012\000"
 299      64655F6D 
 299      6F64652C 
 299      565F6261 
 299      74746572 
 300              		.global	__aeabi_f2d
 301 00e7 00       		.align	2
 302              	.LC1:
 303 00e8 25662C00 		.ascii	"%f,\000"
 304              		.align	2
 305              	.LC2:
 306 00ec 256600   		.ascii	"%f\000"
 307 00ef 00       		.align	2
 308              	.LC3:
 309 00f0 0D00     		.ascii	"\015\000"
 310              		.section	.text.data_read,"ax",%progbits
 311              		.align	1
 312              		.global	data_read
 313              		.syntax unified
 314              		.thumb
ARM GAS  C:\Temp\ccrQCEwQ.s 			page 11


 315              		.thumb_func
 316              		.fpu fpv4-sp-d16
 318              	data_read:
 319              	.LFB135:
 168:Src/module_test.c **** 
 169:Src/module_test.c **** /* ---------------------------------------------------------------
 170:Src/module_test.c **** 	ãƒ­ã‚°åãå‡ºã—ç”¨é–¢æ•°
 171:Src/module_test.c **** --------------------------------------------------------------- */
 172:Src/module_test.c **** void data_read(void)
 173:Src/module_test.c **** {
 320              		.loc 1 173 1 is_stmt 1 view -0
 321              		.cfi_startproc
 322              		@ args = 0, pretend = 0, frame = 0
 323              		@ frame_needed = 0, uses_anonymous_args = 0
 324 0000 2DE9F041 		push	{r4, r5, r6, r7, r8, lr}
 325              	.LCFI1:
 326              		.cfi_def_cfa_offset 24
 327              		.cfi_offset 4, -24
 328              		.cfi_offset 5, -20
 329              		.cfi_offset 6, -16
 330              		.cfi_offset 7, -12
 331              		.cfi_offset 8, -8
 332              		.cfi_offset 14, -4
 174:Src/module_test.c **** 
 175:Src/module_test.c **** 	uint16_t i = 0;
 333              		.loc 1 175 2 view .LVU90
 334              	.LVL28:
 176:Src/module_test.c **** 	uint16_t j = 0;
 335              		.loc 1 176 2 view .LVU91
 177:Src/module_test.c **** 
 178:Src/module_test.c **** 	j =  log_count_lim / log_count_step - 1 ;
 336              		.loc 1 178 2 view .LVU92
 179:Src/module_test.c **** 
 180:Src/module_test.c **** 	//printfã§ä¸€è¡Œã¥ã¤æ›¸ãå‡ºã—ã¦ã„ãã€‚
 181:Src/module_test.c **** 	//ä¸€è¡Œç›®ã¯ãƒ‘ãƒ©ãƒ¡ãƒ¼ã‚¿å
 182:Src/module_test.c **** 	#ifdef DATA_DEFAULT
 183:Src/module_test.c **** 	printf ("TIME[ms],target_distance[m],ideal_distance[m],current_distance[m],TARGET_SPEED_m[m/s],SPE
 184:Src/module_test.c **** 			"accel_m[m/s2],accel_m_ave[m/s2],target_angle[rad],ideal_angle[rad],current_angle[rad],target_sp
 185:Src/module_test.c **** 			"speed_w[rad/s],DUTY_R[%%],Duty_L[%%],front_r,front_l,side_r,side_l,front_r[m],front_l[m],side_r
 186:Src/module_test.c **** 	#endif
 187:Src/module_test.c **** 
 188:Src/module_test.c **** 	#ifdef DATA_SIDE
 189:Src/module_test.c **** 	printf ("TIME[ms],current_distance[m],SPEED_m_ave[m/s],"
 337              		.loc 1 189 2 view .LVU93
 338 0004 5A48     		ldr	r0, .L16
 339 0006 FFF7FEFF 		bl	printf
 340              	.LVL29:
 190:Src/module_test.c **** 			"DUTY_R[%%],Duty_L[%%],front_r,front_l,side_r,side_l,"
 191:Src/module_test.c **** 			"front_r[m],front_l[m],side_r[m],side_l[m],side_r_target[m],side_l_target[m],"
 192:Src/module_test.c **** 			"side_r_th,side_l_th,side_vol[V],side_mode,V_battery[V]\r\n");	//ãƒ‘ãƒ©ãƒ¡ãƒ¼ã‚¿åã‚’è¨˜è¿°
 193:Src/module_test.c **** 	#endif
 194:Src/module_test.c **** 
 195:Src/module_test.c **** 	for(i = 0; i <= j ; i++)
 341              		.loc 1 195 2 view .LVU94
 342              		.loc 1 195 8 is_stmt 0 view .LVU95
 343 000a 0026     		movs	r6, #0
 344              	.LVL30:
ARM GAS  C:\Temp\ccrQCEwQ.s 			page 12


 345              	.L12:
 346              		.loc 1 195 13 is_stmt 1 discriminator 1 view .LVU96
 347              		.loc 1 195 2 is_stmt 0 discriminator 1 view .LVU97
 348 000c B6F57A7F 		cmp	r6, #1000
 349 0010 80F0AC80 		bcs	.L15
 196:Src/module_test.c **** 	{
 197:Src/module_test.c **** 		#ifdef DATA_DEFAULT
 198:Src/module_test.c **** 		printf("%f,",log_store[i].time);
 199:Src/module_test.c **** 		printf("%f,",log_store[i].target_d_m);
 200:Src/module_test.c **** 		printf("%f,",log_store[i].ideal_d_m);
 201:Src/module_test.c **** 		printf("%f,",log_store[i].real_d_m);
 202:Src/module_test.c **** 		printf("%f,",log_store[i].target_speed_m);
 203:Src/module_test.c **** 		printf("%f,",log_store[i].speed_m);
 204:Src/module_test.c **** 		printf("%f,",log_store[i].speed_m_ave);
 205:Src/module_test.c **** 		printf("%f,",log_store[i].accel_m);
 206:Src/module_test.c **** 		printf("%f,",log_store[i].accel_m_ave);
 207:Src/module_test.c **** 		printf("%f,",log_store[i].target_d_w);
 208:Src/module_test.c **** 		printf("%f,",log_store[i].ideal_d_w);
 209:Src/module_test.c **** 		printf("%f,",log_store[i].real_d_w);
 210:Src/module_test.c **** 		printf("%f,",log_store[i].target_speed_w);
 211:Src/module_test.c **** 		printf("%f,",log_store[i].speed_w);
 212:Src/module_test.c **** 		printf("%f,",log_store[i].duty_r);
 213:Src/module_test.c **** 		printf("%f,",log_store[i].duty_l);
 214:Src/module_test.c **** 		printf("%f,",log_store[i].front_sensor_r);
 215:Src/module_test.c **** 		printf("%f,",log_store[i].front_sensor_l);
 216:Src/module_test.c **** 		printf("%f,",log_store[i].side_sensor_r);
 217:Src/module_test.c **** 		printf("%f,",log_store[i].side_sensor_l);
 218:Src/module_test.c **** 		printf("%f,",log_store[i].front_r);
 219:Src/module_test.c **** 		printf("%f,",log_store[i].front_l);
 220:Src/module_test.c **** 		printf("%f,",log_store[i].side_r);
 221:Src/module_test.c **** 		printf("%f,",log_store[i].side_l);
 222:Src/module_test.c **** 		printf("%f,",log_store[i].side_vol);
 223:Src/module_test.c **** 		printf("%f,",log_store[i].side_mode);
 224:Src/module_test.c **** 		printf("%f",log_store[i].V_battery);			//æœ€å¾Œã¯ã‚«ãƒ³ãƒãªã—
 225:Src/module_test.c **** 		printf("\r\n"); //m æ”¹è¡Œ
 226:Src/module_test.c **** 		#endif
 227:Src/module_test.c **** 
 228:Src/module_test.c **** 		#ifdef DATA_SIDE
 229:Src/module_test.c **** 		printf("%f,",log_store[i].time);
 350              		.loc 1 229 3 is_stmt 1 discriminator 3 view .LVU98
 351              		.loc 1 229 28 is_stmt 0 discriminator 3 view .LVU99
 352 0014 574F     		ldr	r7, .L16+4
 353 0016 06EB8604 		add	r4, r6, r6, lsl #2
 354 001a 07EB0414 		add	r4, r7, r4, lsl #4
 355              		.loc 1 229 3 discriminator 3 view .LVU100
 356 001e 2068     		ldr	r0, [r4]	@ float
 357 0020 FFF7FEFF 		bl	__aeabi_f2d
 358              	.LVL31:
 359 0024 0246     		mov	r2, r0
 360 0026 0B46     		mov	r3, r1
 361 0028 534D     		ldr	r5, .L16+8
 362 002a 2846     		mov	r0, r5
 363 002c FFF7FEFF 		bl	printf
 364              	.LVL32:
 230:Src/module_test.c **** 		printf("%f,",log_store[i].real_d_m);
 365              		.loc 1 230 3 is_stmt 1 discriminator 3 view .LVU101
 366 0030 6068     		ldr	r0, [r4, #4]	@ float
ARM GAS  C:\Temp\ccrQCEwQ.s 			page 13


 367 0032 FFF7FEFF 		bl	__aeabi_f2d
 368              	.LVL33:
 369 0036 0246     		mov	r2, r0
 370 0038 0B46     		mov	r3, r1
 371 003a 2846     		mov	r0, r5
 372 003c FFF7FEFF 		bl	printf
 373              	.LVL34:
 231:Src/module_test.c **** 		printf("%f,",log_store[i].speed_m_ave);
 374              		.loc 1 231 3 discriminator 3 view .LVU102
 375 0040 A068     		ldr	r0, [r4, #8]	@ float
 376 0042 FFF7FEFF 		bl	__aeabi_f2d
 377              	.LVL35:
 378 0046 0246     		mov	r2, r0
 379 0048 0B46     		mov	r3, r1
 380 004a 2846     		mov	r0, r5
 381 004c FFF7FEFF 		bl	printf
 382              	.LVL36:
 232:Src/module_test.c **** 		printf("%f,",log_store[i].duty_r);
 383              		.loc 1 232 3 discriminator 3 view .LVU103
 384 0050 E068     		ldr	r0, [r4, #12]	@ float
 385 0052 FFF7FEFF 		bl	__aeabi_f2d
 386              	.LVL37:
 387 0056 0246     		mov	r2, r0
 388 0058 0B46     		mov	r3, r1
 389 005a 2846     		mov	r0, r5
 390 005c FFF7FEFF 		bl	printf
 391              	.LVL38:
 233:Src/module_test.c **** 		printf("%f,",log_store[i].duty_l);
 392              		.loc 1 233 3 discriminator 3 view .LVU104
 393 0060 2069     		ldr	r0, [r4, #16]	@ float
 394 0062 FFF7FEFF 		bl	__aeabi_f2d
 395              	.LVL39:
 396 0066 0246     		mov	r2, r0
 397 0068 0B46     		mov	r3, r1
 398 006a 2846     		mov	r0, r5
 399 006c FFF7FEFF 		bl	printf
 400              	.LVL40:
 234:Src/module_test.c **** 		printf("%f,",log_store[i].front_sensor_r);
 401              		.loc 1 234 3 discriminator 3 view .LVU105
 402 0070 6069     		ldr	r0, [r4, #20]	@ float
 403 0072 FFF7FEFF 		bl	__aeabi_f2d
 404              	.LVL41:
 405 0076 0246     		mov	r2, r0
 406 0078 0B46     		mov	r3, r1
 407 007a 2846     		mov	r0, r5
 408 007c FFF7FEFF 		bl	printf
 409              	.LVL42:
 235:Src/module_test.c **** 		printf("%f,",log_store[i].front_sensor_l);
 410              		.loc 1 235 3 discriminator 3 view .LVU106
 411 0080 A069     		ldr	r0, [r4, #24]	@ float
 412 0082 FFF7FEFF 		bl	__aeabi_f2d
 413              	.LVL43:
 414 0086 0246     		mov	r2, r0
 415 0088 0B46     		mov	r3, r1
 416 008a 2846     		mov	r0, r5
 417 008c FFF7FEFF 		bl	printf
 418              	.LVL44:
ARM GAS  C:\Temp\ccrQCEwQ.s 			page 14


 236:Src/module_test.c **** 		printf("%f,",log_store[i].side_sensor_r);
 419              		.loc 1 236 3 discriminator 3 view .LVU107
 420 0090 E069     		ldr	r0, [r4, #28]	@ float
 421 0092 FFF7FEFF 		bl	__aeabi_f2d
 422              	.LVL45:
 423 0096 0246     		mov	r2, r0
 424 0098 0B46     		mov	r3, r1
 425 009a 2846     		mov	r0, r5
 426 009c FFF7FEFF 		bl	printf
 427              	.LVL46:
 237:Src/module_test.c **** 		printf("%f,",log_store[i].side_sensor_l);
 428              		.loc 1 237 3 discriminator 3 view .LVU108
 429 00a0 206A     		ldr	r0, [r4, #32]	@ float
 430 00a2 FFF7FEFF 		bl	__aeabi_f2d
 431              	.LVL47:
 432 00a6 0246     		mov	r2, r0
 433 00a8 0B46     		mov	r3, r1
 434 00aa 2846     		mov	r0, r5
 435 00ac FFF7FEFF 		bl	printf
 436              	.LVL48:
 238:Src/module_test.c **** 		printf("%f,",log_store[i].front_r);
 437              		.loc 1 238 3 discriminator 3 view .LVU109
 438 00b0 606A     		ldr	r0, [r4, #36]	@ float
 439 00b2 FFF7FEFF 		bl	__aeabi_f2d
 440              	.LVL49:
 441 00b6 0246     		mov	r2, r0
 442 00b8 0B46     		mov	r3, r1
 443 00ba 2846     		mov	r0, r5
 444 00bc FFF7FEFF 		bl	printf
 445              	.LVL50:
 239:Src/module_test.c **** 		printf("%f,",log_store[i].front_l);
 446              		.loc 1 239 3 discriminator 3 view .LVU110
 447 00c0 A06A     		ldr	r0, [r4, #40]	@ float
 448 00c2 FFF7FEFF 		bl	__aeabi_f2d
 449              	.LVL51:
 450 00c6 0246     		mov	r2, r0
 451 00c8 0B46     		mov	r3, r1
 452 00ca 2846     		mov	r0, r5
 453 00cc FFF7FEFF 		bl	printf
 454              	.LVL52:
 240:Src/module_test.c **** 		printf("%f,",log_store[i].side_r);
 455              		.loc 1 240 3 discriminator 3 view .LVU111
 456 00d0 E06A     		ldr	r0, [r4, #44]	@ float
 457 00d2 FFF7FEFF 		bl	__aeabi_f2d
 458              	.LVL53:
 459 00d6 0246     		mov	r2, r0
 460 00d8 0B46     		mov	r3, r1
 461 00da 2846     		mov	r0, r5
 462 00dc FFF7FEFF 		bl	printf
 463              	.LVL54:
 241:Src/module_test.c **** 		printf("%f,",log_store[i].side_l);
 464              		.loc 1 241 3 discriminator 3 view .LVU112
 465 00e0 206B     		ldr	r0, [r4, #48]	@ float
 466 00e2 FFF7FEFF 		bl	__aeabi_f2d
 467              	.LVL55:
 468 00e6 0246     		mov	r2, r0
 469 00e8 0B46     		mov	r3, r1
ARM GAS  C:\Temp\ccrQCEwQ.s 			page 15


 470 00ea 2846     		mov	r0, r5
 471 00ec FFF7FEFF 		bl	printf
 472              	.LVL56:
 242:Src/module_test.c **** 		printf("%f,",log_store[i].side_r_target);
 473              		.loc 1 242 3 discriminator 3 view .LVU113
 474 00f0 606B     		ldr	r0, [r4, #52]	@ float
 475 00f2 FFF7FEFF 		bl	__aeabi_f2d
 476              	.LVL57:
 477 00f6 0246     		mov	r2, r0
 478 00f8 0B46     		mov	r3, r1
 479 00fa 2846     		mov	r0, r5
 480 00fc FFF7FEFF 		bl	printf
 481              	.LVL58:
 243:Src/module_test.c **** 		printf("%f,",log_store[i].side_l_target);
 482              		.loc 1 243 3 discriminator 3 view .LVU114
 483 0100 A06B     		ldr	r0, [r4, #56]	@ float
 484 0102 FFF7FEFF 		bl	__aeabi_f2d
 485              	.LVL59:
 486 0106 0246     		mov	r2, r0
 487 0108 0B46     		mov	r3, r1
 488 010a 2846     		mov	r0, r5
 489 010c FFF7FEFF 		bl	printf
 490              	.LVL60:
 244:Src/module_test.c **** 		printf("%f,",log_store[i].side_r_th);
 491              		.loc 1 244 3 discriminator 3 view .LVU115
 492 0110 E06B     		ldr	r0, [r4, #60]	@ float
 493 0112 FFF7FEFF 		bl	__aeabi_f2d
 494              	.LVL61:
 495 0116 0246     		mov	r2, r0
 496 0118 0B46     		mov	r3, r1
 497 011a 2846     		mov	r0, r5
 498 011c FFF7FEFF 		bl	printf
 499              	.LVL62:
 245:Src/module_test.c **** 		printf("%f,",log_store[i].side_l_th);
 500              		.loc 1 245 3 discriminator 3 view .LVU116
 501 0120 206C     		ldr	r0, [r4, #64]	@ float
 502 0122 FFF7FEFF 		bl	__aeabi_f2d
 503              	.LVL63:
 504 0126 0246     		mov	r2, r0
 505 0128 0B46     		mov	r3, r1
 506 012a 2846     		mov	r0, r5
 507 012c FFF7FEFF 		bl	printf
 508              	.LVL64:
 246:Src/module_test.c **** 		printf("%f,",log_store[i].side_vol);
 509              		.loc 1 246 3 discriminator 3 view .LVU117
 510 0130 606C     		ldr	r0, [r4, #68]	@ float
 511 0132 FFF7FEFF 		bl	__aeabi_f2d
 512              	.LVL65:
 513 0136 0246     		mov	r2, r0
 514 0138 0B46     		mov	r3, r1
 515 013a 2846     		mov	r0, r5
 516 013c FFF7FEFF 		bl	printf
 517              	.LVL66:
 247:Src/module_test.c **** 		printf("%f,",log_store[i].side_mode);
 518              		.loc 1 247 3 discriminator 3 view .LVU118
 519 0140 A06C     		ldr	r0, [r4, #72]	@ float
 520 0142 FFF7FEFF 		bl	__aeabi_f2d
ARM GAS  C:\Temp\ccrQCEwQ.s 			page 16


 521              	.LVL67:
 522 0146 0246     		mov	r2, r0
 523 0148 0B46     		mov	r3, r1
 524 014a 2846     		mov	r0, r5
 525 014c FFF7FEFF 		bl	printf
 526              	.LVL68:
 248:Src/module_test.c **** 		printf("%f",log_store[i].V_battery);			//æœ€å¾Œã¯ã‚«ãƒ³ãƒãªã—
 527              		.loc 1 248 3 discriminator 3 view .LVU119
 528 0150 E06C     		ldr	r0, [r4, #76]	@ float
 529 0152 FFF7FEFF 		bl	__aeabi_f2d
 530              	.LVL69:
 531 0156 0246     		mov	r2, r0
 532 0158 0B46     		mov	r3, r1
 533 015a 0848     		ldr	r0, .L16+12
 534 015c FFF7FEFF 		bl	printf
 535              	.LVL70:
 249:Src/module_test.c **** 		printf("\r\n"); // æ”¹è¡Œ
 536              		.loc 1 249 3 discriminator 3 view .LVU120
 537 0160 0748     		ldr	r0, .L16+16
 538 0162 FFF7FEFF 		bl	puts
 539              	.LVL71:
 195:Src/module_test.c **** 	{
 540              		.loc 1 195 22 discriminator 3 view .LVU121
 195:Src/module_test.c **** 	{
 541              		.loc 1 195 23 is_stmt 0 discriminator 3 view .LVU122
 542 0166 0136     		adds	r6, r6, #1
 543              	.LVL72:
 195:Src/module_test.c **** 	{
 544              		.loc 1 195 23 discriminator 3 view .LVU123
 545 0168 B6B2     		uxth	r6, r6
 546              	.LVL73:
 195:Src/module_test.c **** 	{
 547              		.loc 1 195 23 discriminator 3 view .LVU124
 548 016a 4FE7     		b	.L12
 549              	.L15:
 250:Src/module_test.c **** 
 251:Src/module_test.c **** 		#endif
 252:Src/module_test.c **** 
 253:Src/module_test.c **** 	}
 254:Src/module_test.c **** 
 255:Src/module_test.c **** }
 550              		.loc 1 255 1 view .LVU125
 551 016c BDE8F081 		pop	{r4, r5, r6, r7, r8, pc}
 552              	.LVL74:
 553              	.L17:
 554              		.loc 1 255 1 view .LVU126
 555              		.align	2
 556              	.L16:
 557 0170 00000000 		.word	.LC0
 558 0174 00000000 		.word	log_store
 559 0178 E8000000 		.word	.LC1
 560 017c EC000000 		.word	.LC2
 561 0180 F0000000 		.word	.LC3
 562              		.cfi_endproc
 563              	.LFE135:
 565              		.section	.rodata.module_test.str1.4,"aMS",%progbits,1
 566              		.align	2
ARM GAS  C:\Temp\ccrQCEwQ.s 			page 17


 567              	.LC4:
 568 0000 3C426F6F 		.ascii	"<Boot Time> %8.3f[s]\015\012\000"
 568      74205469 
 568      6D653E20 
 568      25382E33 
 568      665B735D 
 569 0017 00       		.align	2
 570              	.LC5:
 571 0018 3C496E74 		.ascii	"<Interrupt> %3.1f[%%] (MAX : %3.1f[%%])\015\012\000"
 571      65727275 
 571      70743E20 
 571      25332E31 
 571      665B2525 
 572 0042 0000     		.align	2
 573              	.LC6:
 574 0044 3C50574D 		.ascii	"<PWM Duty> L: %4.1f[%%],  R: %4.1f[%%]\015\012\000"
 574      20447574 
 574      793E204C 
 574      3A202534 
 574      2E31665B 
 575 006d 000000   		.align	2
 576              	.LC7:
 577 0070 3C456E63 		.ascii	"<Encoder> L: %5.1f[deg],  R: %5.1f[deg]\015\012\000"
 577      6F646572 
 577      3E204C3A 
 577      2025352E 
 577      31665B64 
 578 009a 0000     		.align	2
 579              	.LC8:
 580 009c 3C6D6F75 		.ascii	"<mouse_speed> speed_m : %5.3f[m/s]  spwwd_w : %5.3f"
 580      73655F73 
 580      70656564 
 580      3E207370 
 580      6565645F 
 581 00cf 5B6D2F73 		.ascii	"[m/s] \015\012 \000"
 581      5D200D0A 
 581      2000
 582 00d9 000000   		.align	2
 583              	.LC9:
 584 00dc 3C426174 		.ascii	"<Battery> %3.2f[V]\015\012\000"
 584      74657279 
 584      3E202533 
 584      2E32665B 
 584      565D0D0A 
 585 00f1 000000   		.align	2
 586              	.LC10:
 587 00f4 3C495220 		.ascii	"<IR Sensor> Front_R: %4d, Side_R: %4d, Side_L: %4d,"
 587      53656E73 
 587      6F723E20 
 587      46726F6E 
 587      745F523A 
 588 0127 2046726F 		.ascii	" Front_L: %4d\015\012\000"
 588      6E745F4C 
 588      3A202534 
 588      640D0A00 
 589 0137 00       		.align	2
 590              	.LC11:
ARM GAS  C:\Temp\ccrQCEwQ.s 			page 18


 591 0138 3C495220 		.ascii	"<IR Sensor_length> Front_R: %8.8f, Front_L: %8.8f\015"
 591      53656E73 
 591      6F725F6C 
 591      656E6774 
 591      683E2046 
 592 016a 0A00     		.ascii	"\012\000"
 593              		.align	2
 594              	.LC12:
 595 016c 3C494D55 		.ascii	"<IMU> Accel_X: %5.3f[m/s^2], Gyro_Z: %6.3f[rad/s]\015"
 595      3E204163 
 595      63656C5F 
 595      583A2025 
 595      352E3366 
 596 019e 0A00     		.ascii	"\012\000"
 597              		.global	__aeabi_dsub
 598              		.global	__aeabi_dcmplt
 599              		.align	2
 600              	.LC13:
 601 01a0 66726F6E 		.ascii	"front_sensor_ref - real, r: %5.8f  l: %5.8f \015\012"
 601      745F7365 
 601      6E736F72 
 601      5F726566 
 601      202D2072 
 602 01ce 00       		.ascii	"\000"
 603 01cf 00       		.align	2
 604              	.LC14:
 605 01d0 66726F6E 		.ascii	"front_sensor, sl: %5.8f  sr: %5.8f \015\012\000"
 605      745F7365 
 605      6E736F72 
 605      2C20736C 
 605      3A202535 
 606 01f6 0000     		.align	2
 607              	.LC15:
 608 01f8 73696465 		.ascii	"side_wall_ctrl_mode %d \015\012\000"
 608      5F77616C 
 608      6C5F6374 
 608      726C5F6D 
 608      6F646520 
 609 0212 0000     		.align	2
 610              	.LC16:
 611 0214 725F7461 		.ascii	"r_target sl: %5.8f  sr: %5.8f \015\012\000"
 611      72676574 
 611      20736C3A 
 611      2025352E 
 611      38662020 
 612 0235 000000   		.align	2
 613              	.LC17:
 614 0238 25635B30 		.ascii	"%c[0J\000"
 614      4A00
 615 023e 0000     		.align	2
 616              	.LC18:
 617 0240 25635B25 		.ascii	"%c[%dA\000"
 617      644100
 618              		.section	.text.module_test,"ax",%progbits
 619              		.align	1
 620              		.global	module_test
 621              		.syntax unified
ARM GAS  C:\Temp\ccrQCEwQ.s 			page 19


 622              		.thumb
 623              		.thumb_func
 624              		.fpu fpv4-sp-d16
 626              	module_test:
 627              	.LFB136:
 256:Src/module_test.c **** 
 257:Src/module_test.c **** 
 258:Src/module_test.c **** 
 259:Src/module_test.c **** /* ---------------------------------------------------------------
 260:Src/module_test.c **** 	å„æ©Ÿèƒ½ã®å‹•ä½œç¢ºèªç”¨é–¢æ•°
 261:Src/module_test.c **** --------------------------------------------------------------- */
 262:Src/module_test.c **** void module_test( void )
 263:Src/module_test.c **** {
 628              		.loc 1 263 1 is_stmt 1 view -0
 629              		.cfi_startproc
 630              		@ args = 0, pretend = 0, frame = 8
 631              		@ frame_needed = 0, uses_anonymous_args = 0
 632 0000 2DE9F04F 		push	{r4, r5, r6, r7, r8, r9, r10, fp, lr}
 633              	.LCFI2:
 634              		.cfi_def_cfa_offset 36
 635              		.cfi_offset 4, -36
 636              		.cfi_offset 5, -32
 637              		.cfi_offset 6, -28
 638              		.cfi_offset 7, -24
 639              		.cfi_offset 8, -20
 640              		.cfi_offset 9, -16
 641              		.cfi_offset 10, -12
 642              		.cfi_offset 11, -8
 643              		.cfi_offset 14, -4
 644 0004 2DED049B 		vpush.64	{d9, d10}
 645              	.LCFI3:
 646              		.cfi_def_cfa_offset 52
 647              		.cfi_offset 82, -52
 648              		.cfi_offset 83, -48
 649              		.cfi_offset 84, -44
 650              		.cfi_offset 85, -40
 651 0008 85B0     		sub	sp, sp, #20
 652              	.LCFI4:
 653              		.cfi_def_cfa_offset 72
 264:Src/module_test.c **** 	uint16_t	line 	  = 0;
 654              		.loc 1 264 2 view .LVU128
 655              	.LVL75:
 265:Src/module_test.c **** 	int16_t		duty_l	  = 0;
 656              		.loc 1 265 2 view .LVU129
 266:Src/module_test.c **** 	int16_t		duty_r	  = 0;
 657              		.loc 1 266 2 view .LVU130
 267:Src/module_test.c **** 
 268:Src/module_test.c **** 	// aã‚¨ãƒ³ã‚³ãƒ¼ãƒ€ã®ã‚«ã‚¦ãƒ³ãƒˆã‚’ãƒªã‚»ãƒƒãƒˆ
 269:Src/module_test.c **** 	Encoder_ResetCount_Left();
 658              		.loc 1 269 2 view .LVU131
 659 000a FFF7FEFF 		bl	Encoder_ResetCount_Left
 660              	.LVL76:
 270:Src/module_test.c **** 	Encoder_ResetCount_Right();
 661              		.loc 1 270 2 view .LVU132
 662 000e FFF7FEFF 		bl	Encoder_ResetCount_Right
 663              	.LVL77:
 264:Src/module_test.c **** 	int16_t		duty_l	  = 0;
ARM GAS  C:\Temp\ccrQCEwQ.s 			page 20


 664              		.loc 1 264 11 is_stmt 0 view .LVU133
 665 0012 0024     		movs	r4, #0
 666 0014 62E0     		b	.L25
 667              	.LVL78:
 668              	.L31:
 271:Src/module_test.c **** 
 272:Src/module_test.c **** 	while( 1 ) {
 273:Src/module_test.c **** //		__disable_irq();
 274:Src/module_test.c **** 		// aå‰²ã‚Šè¾¼ã¿å‡¦ç†ç‡ã‚’è¡¨ç¤º
 275:Src/module_test.c **** 		printf("<Boot Time> %8.3f[s]\r\n", Interrupt_GetBootTime()); line++;
 276:Src/module_test.c **** 		printf("<Interrupt> %3.1f[%%] (MAX : %3.1f[%%])\r\n",
 277:Src/module_test.c **** 				(float)Interrupt_GetDuty()/10.f, (float)Interrupt_GetDuty_Max()/10.f); line++;
 278:Src/module_test.c **** 
 279:Src/module_test.c **** 		// aãƒ¢ãƒ¼ã‚¿ã‚’æŒ‡å®šã®Dutyã‚’è¡¨ç¤º
 280:Src/module_test.c **** 		printf("<PWM Duty> L: %4.1f[%%],  R: %4.1f[%%]\r\n",
 281:Src/module_test.c **** 				(float)duty_l/10.f, (float)duty_r/10.f); line++;
 282:Src/module_test.c **** 
 283:Src/module_test.c **** 		// aã‚¨ãƒ³ã‚³ãƒ¼ãƒ€ã®è§’åº¦è¡¨ç¤º
 284:Src/module_test.c **** 		printf("<Encoder> L: %5.1f[deg],  R: %5.1f[deg]\r\n",
 285:Src/module_test.c **** 				RAD2DEG(Encoder_GetAngle_Left()), RAD2DEG(Encoder_GetAngle_Right())); line++;
 286:Src/module_test.c **** 
 287:Src/module_test.c **** 		// aãƒã‚¦ã‚¹ã®ã‚¹ãƒ”ãƒ¼ãƒ‰è¡¨ç¤º from encoder
 288:Src/module_test.c **** 		printf("<mouse_speed> speed_m : %5.3f[m/s]  spwwd_w : %5.3f[m/s] \r\n ",
 289:Src/module_test.c **** 				get_move_speed(),IMU_GetGyro_Z());line++;
 290:Src/module_test.c **** 
 291:Src/module_test.c **** 		// aãƒãƒƒãƒ†ãƒªãƒ¼é›»åœ§ã®è¡¨ç¤º
 292:Src/module_test.c **** 		printf("<Battery> %3.2f[V]\r\n", Battery_GetVoltage()); line++;
 293:Src/module_test.c **** 
 294:Src/module_test.c **** 		// aå£ã‚»ãƒ³ã‚µã®ADå€¤è¡¨ç¤º
 295:Src/module_test.c **** 		printf("<IR Sensor> Front_R: %4d, Side_R: %4d, Side_L: %4d, Front_L: %4d\r\n",
 296:Src/module_test.c **** 				Sensor_GetValue(3), Sensor_GetValue(2), Sensor_GetValue(1), Sensor_GetValue(0)); line++;
 297:Src/module_test.c **** 		Sensor_DebugPrintf();line++;
 298:Src/module_test.c **** 
 299:Src/module_test.c **** 		//å£ã‚»ãƒ³ã‚µã®è·é›¢å¤‰æ›çµæœç¢ºèª
 300:Src/module_test.c **** 		printf("<IR Sensor_length> Front_R: %8.8f, Front_L: %8.8f\r\n",
 301:Src/module_test.c **** 				SensorValue2length(3),SensorValue2length(0)); line++;
 302:Src/module_test.c **** 		// IMUï¼ˆåŠ é€Ÿåº¦è¨ˆã¨ã‚¸ãƒ£ã‚¤ãƒ­ï¼‰ã®è¨ˆæ¸¬å€¤è¡¨ç¤º
 303:Src/module_test.c **** 		printf("<IMU> Accel_X: %5.3f[m/s^2], Gyro_Z: %6.3f[rad/s]\r\n",
 304:Src/module_test.c **** 				IMU_GetAccel_X(), IMU_GetGyro_Z()); line++;
 305:Src/module_test.c **** 		// aå£ã‚»ãƒ³ã‚µç”¨ã‚¿ã‚¤ãƒ
 306:Src/module_test.c **** 		// printf("<IR Sensor_tim> tim: %5.8f\r\n",ABS(front_sensor_ref - SensorValue2length(3)) );line++
 307:Src/module_test.c **** 		// å£ã‚»ãƒ³ã‚µ
 308:Src/module_test.c **** 		printf("front_sensor_ref - real, r: %5.8f  l: %5.8f \r\n",ABS(front_sensor_r_ref - SensorValue2le
 669              		.loc 1 308 61 discriminator 1 view .LVU134
 670 0016 0320     		movs	r0, #3
 671 0018 FFF7FEFF 		bl	SensorValue2length
 672              	.LVL79:
 673 001c 53EC102B 		vmov	r2, r3, d0
 674 0020 A9A1     		adr	r1, .L33
 675 0022 D1E90001 		ldrd	r0, [r1]
 676 0026 FFF7FEFF 		bl	__aeabi_dsub
 677              	.LVL80:
 678              		.loc 1 308 3 discriminator 1 view .LVU135
 679 002a 0290     		str	r0, [sp, #8]
 680 002c 01F10043 		add	r3, r1, #-2147483648
 681 0030 0393     		str	r3, [sp, #12]
 682 0032 2AE1     		b	.L21
ARM GAS  C:\Temp\ccrQCEwQ.s 			page 21


 683              	.L32:
 684              		.loc 1 308 109 discriminator 5 view .LVU136
 685 0034 0020     		movs	r0, #0
 686 0036 FFF7FEFF 		bl	SensorValue2length
 687              	.LVL81:
 688 003a 53EC102B 		vmov	r2, r3, d0
 689 003e A4A1     		adr	r1, .L33+8
 690 0040 D1E90001 		ldrd	r0, [r1]
 691 0044 FFF7FEFF 		bl	__aeabi_dsub
 692              	.LVL82:
 693              		.loc 1 308 3 discriminator 5 view .LVU137
 694 0048 8046     		mov	r8, r0
 695 004a 01F10049 		add	r9, r1, #-2147483648
 696              	.L24:
 697              		.loc 1 308 3 discriminator 8 view .LVU138
 698 004e CDE90089 		strd	r8, [sp]
 699 0052 DDE90223 		ldrd	r2, [sp, #8]
 700 0056 A048     		ldr	r0, .L33+16
 701 0058 FFF7FEFF 		bl	printf
 702              	.LVL83:
 703              		.loc 1 308 159 is_stmt 1 discriminator 8 view .LVU139
 309:Src/module_test.c **** 		printf("front_sensor, sl: %5.8f  sr: %5.8f \r\n",SensorValue2length(1),SensorValue2length(2));lin
 704              		.loc 1 309 3 discriminator 8 view .LVU140
 705 005c 0120     		movs	r0, #1
 706 005e FFF7FEFF 		bl	SensorValue2length
 707              	.LVL84:
 708 0062 57EC106B 		vmov	r6, r7, d0
 709 0066 0220     		movs	r0, #2
 710 0068 FFF7FEFF 		bl	SensorValue2length
 711              	.LVL85:
 712 006c 8DED000B 		vstr.64	d0, [sp]
 713 0070 3246     		mov	r2, r6
 714 0072 3B46     		mov	r3, r7
 715 0074 9948     		ldr	r0, .L33+20
 716 0076 FFF7FEFF 		bl	printf
 717              	.LVL86:
 718              		.loc 1 309 97 discriminator 8 view .LVU141
 310:Src/module_test.c **** 
 311:Src/module_test.c **** 		// æ¨ªå£åˆ¶å¾¡
 312:Src/module_test.c **** 		printf("side_wall_ctrl_mode %d \r\n",get_side_wall_ctrl_mode());line++;
 719              		.loc 1 312 3 discriminator 8 view .LVU142
 720              		.loc 1 312 40 is_stmt 0 discriminator 8 view .LVU143
 721 007a FFF7FEFF 		bl	get_side_wall_ctrl_mode
 722              	.LVL87:
 723 007e 0146     		mov	r1, r0
 724              		.loc 1 312 3 discriminator 8 view .LVU144
 725 0080 9748     		ldr	r0, .L33+24
 726 0082 FFF7FEFF 		bl	printf
 727              	.LVL88:
 728              		.loc 1 312 67 is_stmt 1 discriminator 8 view .LVU145
 313:Src/module_test.c **** 		printf("r_target sl: %5.8f  sr: %5.8f \r\n",get_target_sensor_sl(),get_target_sensor_sr());line++
 729              		.loc 1 313 3 discriminator 8 view .LVU146
 730              		.loc 1 313 47 is_stmt 0 discriminator 8 view .LVU147
 731 0086 FFF7FEFF 		bl	get_target_sensor_sl
 732              	.LVL89:
 733 008a 10EE106A 		vmov	r6, s0
 734              		.loc 1 313 70 discriminator 8 view .LVU148
ARM GAS  C:\Temp\ccrQCEwQ.s 			page 22


 735 008e FFF7FEFF 		bl	get_target_sensor_sr
 736              	.LVL90:
 737 0092 10EE105A 		vmov	r5, s0
 738              		.loc 1 313 3 discriminator 8 view .LVU149
 739 0096 3046     		mov	r0, r6	@ float
 740 0098 FFF7FEFF 		bl	__aeabi_f2d
 741              	.LVL91:
 742 009c 0646     		mov	r6, r0
 743 009e 0F46     		mov	r7, r1
 744 00a0 2846     		mov	r0, r5	@ float
 745 00a2 FFF7FEFF 		bl	__aeabi_f2d
 746              	.LVL92:
 747 00a6 CDE90001 		strd	r0, [sp]
 748 00aa 3246     		mov	r2, r6
 749 00ac 3B46     		mov	r3, r7
 750 00ae 8D48     		ldr	r0, .L33+28
 751 00b0 FFF7FEFF 		bl	printf
 752              	.LVL93:
 753              		.loc 1 313 94 is_stmt 1 discriminator 8 view .LVU150
 754              		.loc 1 313 98 is_stmt 0 discriminator 8 view .LVU151
 755 00b4 0E34     		adds	r4, r4, #14
 756              	.LVL94:
 757              		.loc 1 313 98 discriminator 8 view .LVU152
 758 00b6 A4B2     		uxth	r4, r4
 759              	.LVL95:
 314:Src/module_test.c **** 		
 315:Src/module_test.c **** 		fflush(stdout);
 760              		.loc 1 315 3 is_stmt 1 discriminator 8 view .LVU153
 761              		.loc 1 315 10 is_stmt 0 discriminator 8 view .LVU154
 762 00b8 8B4B     		ldr	r3, .L33+32
 763 00ba 1B68     		ldr	r3, [r3]
 764              		.loc 1 315 3 discriminator 8 view .LVU155
 765 00bc 9868     		ldr	r0, [r3, #8]
 766 00be FFF7FEFF 		bl	fflush
 767              	.LVL96:
 316:Src/module_test.c **** 		HAL_Delay(500);
 768              		.loc 1 316 3 is_stmt 1 discriminator 8 view .LVU156
 769 00c2 4FF4FA70 		mov	r0, #500
 770 00c6 FFF7FEFF 		bl	HAL_Delay
 771              	.LVL97:
 317:Src/module_test.c **** 		// aç”»é¢ã®ã‚¯ãƒªã‚¢
 318:Src/module_test.c **** 		printf("%c[0J", 0x1b);
 772              		.loc 1 318 3 discriminator 8 view .LVU157
 773 00ca 1B21     		movs	r1, #27
 774 00cc 8748     		ldr	r0, .L33+36
 775 00ce FFF7FEFF 		bl	printf
 776              	.LVL98:
 319:Src/module_test.c **** 		printf("%c[%dA", 0x1b, line);
 777              		.loc 1 319 3 discriminator 8 view .LVU158
 778 00d2 2246     		mov	r2, r4
 779 00d4 1B21     		movs	r1, #27
 780 00d6 8648     		ldr	r0, .L33+40
 781 00d8 FFF7FEFF 		bl	printf
 782              	.LVL99:
 272:Src/module_test.c **** //		__disable_irq();
 783              		.loc 1 272 7 discriminator 8 view .LVU159
 784              	.L25:
ARM GAS  C:\Temp\ccrQCEwQ.s 			page 23


 272:Src/module_test.c **** //		__disable_irq();
 785              		.loc 1 272 2 view .LVU160
 275:Src/module_test.c **** 		printf("<Interrupt> %3.1f[%%] (MAX : %3.1f[%%])\r\n",
 786              		.loc 1 275 3 view .LVU161
 275:Src/module_test.c **** 		printf("<Interrupt> %3.1f[%%] (MAX : %3.1f[%%])\r\n",
 787              		.loc 1 275 38 is_stmt 0 view .LVU162
 788 00dc FFF7FEFF 		bl	Interrupt_GetBootTime
 789              	.LVL100:
 790 00e0 10EE100A 		vmov	r0, s0
 275:Src/module_test.c **** 		printf("<Interrupt> %3.1f[%%] (MAX : %3.1f[%%])\r\n",
 791              		.loc 1 275 3 view .LVU163
 792 00e4 FFF7FEFF 		bl	__aeabi_f2d
 793              	.LVL101:
 794 00e8 0246     		mov	r2, r0
 795 00ea 0B46     		mov	r3, r1
 796 00ec 8148     		ldr	r0, .L33+44
 797 00ee FFF7FEFF 		bl	printf
 798              	.LVL102:
 275:Src/module_test.c **** 		printf("<Interrupt> %3.1f[%%] (MAX : %3.1f[%%])\r\n",
 799              		.loc 1 275 64 is_stmt 1 view .LVU164
 276:Src/module_test.c **** 				(float)Interrupt_GetDuty()/10.f, (float)Interrupt_GetDuty_Max()/10.f); line++;
 800              		.loc 1 276 3 view .LVU165
 277:Src/module_test.c **** 
 801              		.loc 1 277 12 is_stmt 0 view .LVU166
 802 00f2 FFF7FEFF 		bl	Interrupt_GetDuty
 803              	.LVL103:
 804 00f6 07EE900A 		vmov	s15, r0	@ int
 277:Src/module_test.c **** 
 805              		.loc 1 277 5 view .LVU167
 806 00fa F8EE677A 		vcvt.f32.u32	s15, s15
 277:Src/module_test.c **** 
 807              		.loc 1 277 31 view .LVU168
 808 00fe B2EE049A 		vmov.f32	s18, #1.0e+1
 809 0102 87EE89AA 		vdiv.f32	s20, s15, s18
 277:Src/module_test.c **** 
 810              		.loc 1 277 45 view .LVU169
 811 0106 FFF7FEFF 		bl	Interrupt_GetDuty_Max
 812              	.LVL104:
 813 010a 07EE900A 		vmov	s15, r0	@ int
 277:Src/module_test.c **** 
 814              		.loc 1 277 38 view .LVU170
 815 010e F8EE677A 		vcvt.f32.u32	s15, s15
 277:Src/module_test.c **** 
 816              		.loc 1 277 68 view .LVU171
 817 0112 C7EE899A 		vdiv.f32	s19, s15, s18
 276:Src/module_test.c **** 				(float)Interrupt_GetDuty()/10.f, (float)Interrupt_GetDuty_Max()/10.f); line++;
 818              		.loc 1 276 3 view .LVU172
 819 0116 1AEE100A 		vmov	r0, s20
 820 011a FFF7FEFF 		bl	__aeabi_f2d
 821              	.LVL105:
 822 011e 0646     		mov	r6, r0
 823 0120 0F46     		mov	r7, r1
 824 0122 19EE900A 		vmov	r0, s19
 825 0126 FFF7FEFF 		bl	__aeabi_f2d
 826              	.LVL106:
 827 012a CDE90001 		strd	r0, [sp]
 828 012e 3246     		mov	r2, r6
ARM GAS  C:\Temp\ccrQCEwQ.s 			page 24


 829 0130 3B46     		mov	r3, r7
 830 0132 7148     		ldr	r0, .L33+48
 831 0134 FFF7FEFF 		bl	printf
 832              	.LVL107:
 277:Src/module_test.c **** 
 833              		.loc 1 277 76 is_stmt 1 view .LVU173
 280:Src/module_test.c **** 				(float)duty_l/10.f, (float)duty_r/10.f); line++;
 834              		.loc 1 280 3 view .LVU174
 835 0138 4FF0000A 		mov	r10, #0
 836 013c 4FF0000B 		mov	fp, #0
 837 0140 CDE900AB 		strd	r10, [sp]
 838 0144 5246     		mov	r2, r10
 839 0146 5B46     		mov	r3, fp
 840 0148 6C48     		ldr	r0, .L33+52
 841 014a FFF7FEFF 		bl	printf
 842              	.LVL108:
 281:Src/module_test.c **** 
 843              		.loc 1 281 46 view .LVU175
 284:Src/module_test.c **** 				RAD2DEG(Encoder_GetAngle_Left()), RAD2DEG(Encoder_GetAngle_Right())); line++;
 844              		.loc 1 284 3 view .LVU176
 285:Src/module_test.c **** 
 845              		.loc 1 285 5 is_stmt 0 view .LVU177
 846 014e FFF7FEFF 		bl	Encoder_GetAngle_Left
 847              	.LVL109:
 848 0152 DFED6BAA 		vldr.32	s21, .L33+56
 849 0156 C0EE2A9A 		vdiv.f32	s19, s0, s21
 850 015a 9FED6AAA 		vldr.32	s20, .L33+60
 851 015e 69EE8A9A 		vmul.f32	s19, s19, s20
 285:Src/module_test.c **** 
 852              		.loc 1 285 39 view .LVU178
 853 0162 FFF7FEFF 		bl	Encoder_GetAngle_Right
 854              	.LVL110:
 855 0166 80EE2A9A 		vdiv.f32	s18, s0, s21
 856 016a 29EE0A9A 		vmul.f32	s18, s18, s20
 284:Src/module_test.c **** 				RAD2DEG(Encoder_GetAngle_Left()), RAD2DEG(Encoder_GetAngle_Right())); line++;
 857              		.loc 1 284 3 view .LVU179
 858 016e 19EE900A 		vmov	r0, s19
 859 0172 FFF7FEFF 		bl	__aeabi_f2d
 860              	.LVL111:
 861 0176 0646     		mov	r6, r0
 862 0178 0F46     		mov	r7, r1
 863 017a 19EE100A 		vmov	r0, s18
 864 017e FFF7FEFF 		bl	__aeabi_f2d
 865              	.LVL112:
 866 0182 CDE90001 		strd	r0, [sp]
 867 0186 3246     		mov	r2, r6
 868 0188 3B46     		mov	r3, r7
 869 018a 5F48     		ldr	r0, .L33+64
 870 018c FFF7FEFF 		bl	printf
 871              	.LVL113:
 285:Src/module_test.c **** 
 872              		.loc 1 285 75 is_stmt 1 view .LVU180
 288:Src/module_test.c **** 				get_move_speed(),IMU_GetGyro_Z());line++;
 873              		.loc 1 288 3 view .LVU181
 289:Src/module_test.c **** 
 874              		.loc 1 289 5 is_stmt 0 view .LVU182
 875 0190 FFF7FEFF 		bl	get_move_speed
ARM GAS  C:\Temp\ccrQCEwQ.s 			page 25


 876              	.LVL114:
 877 0194 10EE106A 		vmov	r6, s0
 289:Src/module_test.c **** 
 878              		.loc 1 289 22 view .LVU183
 879 0198 FFF7FEFF 		bl	IMU_GetGyro_Z
 880              	.LVL115:
 881 019c 10EE105A 		vmov	r5, s0
 288:Src/module_test.c **** 				get_move_speed(),IMU_GetGyro_Z());line++;
 882              		.loc 1 288 3 view .LVU184
 883 01a0 3046     		mov	r0, r6	@ float
 884 01a2 FFF7FEFF 		bl	__aeabi_f2d
 885              	.LVL116:
 886 01a6 0646     		mov	r6, r0
 887 01a8 0F46     		mov	r7, r1
 888 01aa 2846     		mov	r0, r5	@ float
 889 01ac FFF7FEFF 		bl	__aeabi_f2d
 890              	.LVL117:
 891 01b0 CDE90001 		strd	r0, [sp]
 892 01b4 3246     		mov	r2, r6
 893 01b6 3B46     		mov	r3, r7
 894 01b8 5448     		ldr	r0, .L33+68
 895 01ba FFF7FEFF 		bl	printf
 896              	.LVL118:
 289:Src/module_test.c **** 
 897              		.loc 1 289 39 is_stmt 1 view .LVU185
 292:Src/module_test.c **** 
 898              		.loc 1 292 3 view .LVU186
 292:Src/module_test.c **** 
 899              		.loc 1 292 36 is_stmt 0 view .LVU187
 900 01be FFF7FEFF 		bl	Battery_GetVoltage
 901              	.LVL119:
 902 01c2 10EE100A 		vmov	r0, s0
 292:Src/module_test.c **** 
 903              		.loc 1 292 3 view .LVU188
 904 01c6 FFF7FEFF 		bl	__aeabi_f2d
 905              	.LVL120:
 906 01ca 0246     		mov	r2, r0
 907 01cc 0B46     		mov	r3, r1
 908 01ce 5048     		ldr	r0, .L33+72
 909 01d0 FFF7FEFF 		bl	printf
 910              	.LVL121:
 292:Src/module_test.c **** 
 911              		.loc 1 292 59 is_stmt 1 view .LVU189
 295:Src/module_test.c **** 				Sensor_GetValue(3), Sensor_GetValue(2), Sensor_GetValue(1), Sensor_GetValue(0)); line++;
 912              		.loc 1 295 3 view .LVU190
 296:Src/module_test.c **** 		Sensor_DebugPrintf();line++;
 913              		.loc 1 296 5 is_stmt 0 view .LVU191
 914 01d4 0320     		movs	r0, #3
 915 01d6 FFF7FEFF 		bl	Sensor_GetValue
 916              	.LVL122:
 917 01da 0546     		mov	r5, r0
 296:Src/module_test.c **** 		Sensor_DebugPrintf();line++;
 918              		.loc 1 296 25 view .LVU192
 919 01dc 0220     		movs	r0, #2
 920 01de FFF7FEFF 		bl	Sensor_GetValue
 921              	.LVL123:
 922 01e2 0646     		mov	r6, r0
ARM GAS  C:\Temp\ccrQCEwQ.s 			page 26


 296:Src/module_test.c **** 		Sensor_DebugPrintf();line++;
 923              		.loc 1 296 45 view .LVU193
 924 01e4 0120     		movs	r0, #1
 925 01e6 FFF7FEFF 		bl	Sensor_GetValue
 926              	.LVL124:
 927 01ea 0746     		mov	r7, r0
 296:Src/module_test.c **** 		Sensor_DebugPrintf();line++;
 928              		.loc 1 296 65 view .LVU194
 929 01ec 0020     		movs	r0, #0
 930 01ee FFF7FEFF 		bl	Sensor_GetValue
 931              	.LVL125:
 295:Src/module_test.c **** 				Sensor_GetValue(3), Sensor_GetValue(2), Sensor_GetValue(1), Sensor_GetValue(0)); line++;
 932              		.loc 1 295 3 view .LVU195
 933 01f2 0090     		str	r0, [sp]
 934 01f4 3B46     		mov	r3, r7
 935 01f6 3246     		mov	r2, r6
 936 01f8 2946     		mov	r1, r5
 937 01fa 4648     		ldr	r0, .L33+76
 938 01fc FFF7FEFF 		bl	printf
 939              	.LVL126:
 296:Src/module_test.c **** 		Sensor_DebugPrintf();line++;
 940              		.loc 1 296 86 is_stmt 1 view .LVU196
 297:Src/module_test.c **** 
 941              		.loc 1 297 3 view .LVU197
 942 0200 FFF7FEFF 		bl	Sensor_DebugPrintf
 943              	.LVL127:
 297:Src/module_test.c **** 
 944              		.loc 1 297 24 view .LVU198
 300:Src/module_test.c **** 				SensorValue2length(3),SensorValue2length(0)); line++;
 945              		.loc 1 300 3 view .LVU199
 946 0204 0320     		movs	r0, #3
 947 0206 FFF7FEFF 		bl	SensorValue2length
 948              	.LVL128:
 949 020a 57EC106B 		vmov	r6, r7, d0
 950 020e 0020     		movs	r0, #0
 951 0210 FFF7FEFF 		bl	SensorValue2length
 952              	.LVL129:
 953 0214 8DED000B 		vstr.64	d0, [sp]
 954 0218 3246     		mov	r2, r6
 955 021a 3B46     		mov	r3, r7
 956 021c 3E48     		ldr	r0, .L33+80
 957 021e FFF7FEFF 		bl	printf
 958              	.LVL130:
 301:Src/module_test.c **** 		// IMUï¼ˆåŠ é€Ÿåº¦è¨ˆã¨ã‚¸ãƒ£ã‚¤ãƒ­ï¼‰ã®è¨ˆæ¸¬å€¤è¡¨ç¤º
 959              		.loc 1 301 51 view .LVU200
 303:Src/module_test.c **** 				IMU_GetAccel_X(), IMU_GetGyro_Z()); line++;
 960              		.loc 1 303 3 view .LVU201
 304:Src/module_test.c **** 		// aå£ã‚»ãƒ³ã‚µç”¨ã‚¿ã‚¤ãƒ
 961              		.loc 1 304 5 is_stmt 0 view .LVU202
 962 0222 FFF7FEFF 		bl	IMU_GetAccel_X
 963              	.LVL131:
 964 0226 10EE106A 		vmov	r6, s0
 304:Src/module_test.c **** 		// aå£ã‚»ãƒ³ã‚µç”¨ã‚¿ã‚¤ãƒ
 965              		.loc 1 304 23 view .LVU203
 966 022a FFF7FEFF 		bl	IMU_GetGyro_Z
 967              	.LVL132:
 968 022e 10EE105A 		vmov	r5, s0
ARM GAS  C:\Temp\ccrQCEwQ.s 			page 27


 303:Src/module_test.c **** 				IMU_GetAccel_X(), IMU_GetGyro_Z()); line++;
 969              		.loc 1 303 3 view .LVU204
 970 0232 3046     		mov	r0, r6	@ float
 971 0234 FFF7FEFF 		bl	__aeabi_f2d
 972              	.LVL133:
 973 0238 0646     		mov	r6, r0
 974 023a 0F46     		mov	r7, r1
 975 023c 2846     		mov	r0, r5	@ float
 976 023e FFF7FEFF 		bl	__aeabi_f2d
 977              	.LVL134:
 978 0242 CDE90001 		strd	r0, [sp]
 979 0246 3246     		mov	r2, r6
 980 0248 3B46     		mov	r3, r7
 981 024a 3448     		ldr	r0, .L33+84
 982 024c FFF7FEFF 		bl	printf
 983              	.LVL135:
 304:Src/module_test.c **** 		// aå£ã‚»ãƒ³ã‚µç”¨ã‚¿ã‚¤ãƒ
 984              		.loc 1 304 41 is_stmt 1 view .LVU205
 308:Src/module_test.c **** 		printf("front_sensor, sl: %5.8f  sr: %5.8f \r\n",SensorValue2length(1),SensorValue2length(2));lin
 985              		.loc 1 308 3 view .LVU206
 308:Src/module_test.c **** 		printf("front_sensor, sl: %5.8f  sr: %5.8f \r\n",SensorValue2length(1),SensorValue2length(2));lin
 986              		.loc 1 308 61 is_stmt 0 view .LVU207
 987 0250 0320     		movs	r0, #3
 988 0252 FFF7FEFF 		bl	SensorValue2length
 989              	.LVL136:
 990 0256 53EC102B 		vmov	r2, r3, d0
 991 025a 1BA1     		adr	r1, .L33
 992 025c D1E90001 		ldrd	r0, [r1]
 993 0260 FFF7FEFF 		bl	__aeabi_dsub
 994              	.LVL137:
 308:Src/module_test.c **** 		printf("front_sensor, sl: %5.8f  sr: %5.8f \r\n",SensorValue2length(1),SensorValue2length(2));lin
 995              		.loc 1 308 3 view .LVU208
 996 0264 5246     		mov	r2, r10
 997 0266 5B46     		mov	r3, fp
 998 0268 FFF7FEFF 		bl	__aeabi_dcmplt
 999              	.LVL138:
 1000 026c 0028     		cmp	r0, #0
 1001 026e 7FF4D2AE 		bne	.L31
 308:Src/module_test.c **** 		printf("front_sensor, sl: %5.8f  sr: %5.8f \r\n",SensorValue2length(1),SensorValue2length(2));lin
 1002              		.loc 1 308 61 discriminator 2 view .LVU209
 1003 0272 0320     		movs	r0, #3
 1004 0274 FFF7FEFF 		bl	SensorValue2length
 1005              	.LVL139:
 1006 0278 53EC102B 		vmov	r2, r3, d0
 308:Src/module_test.c **** 		printf("front_sensor, sl: %5.8f  sr: %5.8f \r\n",SensorValue2length(1),SensorValue2length(2));lin
 1007              		.loc 1 308 3 discriminator 2 view .LVU210
 1008 027c 12A1     		adr	r1, .L33
 1009 027e D1E90001 		ldrd	r0, [r1]
 1010 0282 FFF7FEFF 		bl	__aeabi_dsub
 1011              	.LVL140:
 1012 0286 CDE90201 		strd	r0, [sp, #8]
 1013              	.L21:
 308:Src/module_test.c **** 		printf("front_sensor, sl: %5.8f  sr: %5.8f \r\n",SensorValue2length(1),SensorValue2length(2));lin
 1014              		.loc 1 308 109 discriminator 4 view .LVU211
 1015 028a 0020     		movs	r0, #0
 1016 028c FFF7FEFF 		bl	SensorValue2length
 1017              	.LVL141:
ARM GAS  C:\Temp\ccrQCEwQ.s 			page 28


 1018 0290 53EC102B 		vmov	r2, r3, d0
 1019 0294 0EA1     		adr	r1, .L33+8
 1020 0296 D1E90001 		ldrd	r0, [r1]
 1021 029a FFF7FEFF 		bl	__aeabi_dsub
 1022              	.LVL142:
 308:Src/module_test.c **** 		printf("front_sensor, sl: %5.8f  sr: %5.8f \r\n",SensorValue2length(1),SensorValue2length(2));lin
 1023              		.loc 1 308 3 discriminator 4 view .LVU212
 1024 029e 0022     		movs	r2, #0
 1025 02a0 0023     		movs	r3, #0
 1026 02a2 FFF7FEFF 		bl	__aeabi_dcmplt
 1027              	.LVL143:
 1028 02a6 0028     		cmp	r0, #0
 1029 02a8 7FF4C4AE 		bne	.L32
 308:Src/module_test.c **** 		printf("front_sensor, sl: %5.8f  sr: %5.8f \r\n",SensorValue2length(1),SensorValue2length(2));lin
 1030              		.loc 1 308 109 discriminator 6 view .LVU213
 1031 02ac 0020     		movs	r0, #0
 1032 02ae FFF7FEFF 		bl	SensorValue2length
 1033              	.LVL144:
 1034 02b2 53EC102B 		vmov	r2, r3, d0
 308:Src/module_test.c **** 		printf("front_sensor, sl: %5.8f  sr: %5.8f \r\n",SensorValue2length(1),SensorValue2length(2));lin
 1035              		.loc 1 308 3 discriminator 6 view .LVU214
 1036 02b6 06A1     		adr	r1, .L33+8
 1037 02b8 D1E90001 		ldrd	r0, [r1]
 1038 02bc FFF7FEFF 		bl	__aeabi_dsub
 1039              	.LVL145:
 1040 02c0 8046     		mov	r8, r0
 1041 02c2 8946     		mov	r9, r1
 1042 02c4 C3E6     		b	.L24
 1043              	.L34:
 1044 02c6 00BF     		.align	3
 1045              	.L33:
 1046 02c8 000000E0 		.word	-536870912
 1047 02cc 4F8D873F 		.word	1065848143
 1048 02d0 00000060 		.word	1610612736
 1049 02d4 BC74833F 		.word	1065579708
 1050 02d8 A0010000 		.word	.LC13
 1051 02dc D0010000 		.word	.LC14
 1052 02e0 F8010000 		.word	.LC15
 1053 02e4 14020000 		.word	.LC16
 1054 02e8 00000000 		.word	_impure_ptr
 1055 02ec 38020000 		.word	.LC17
 1056 02f0 40020000 		.word	.LC18
 1057 02f4 00000000 		.word	.LC4
 1058 02f8 18000000 		.word	.LC5
 1059 02fc 44000000 		.word	.LC6
 1060 0300 DA0F4940 		.word	1078530010
 1061 0304 00003443 		.word	1127481344
 1062 0308 70000000 		.word	.LC7
 1063 030c 9C000000 		.word	.LC8
 1064 0310 DC000000 		.word	.LC9
 1065 0314 F4000000 		.word	.LC10
 1066 0318 38010000 		.word	.LC11
 1067 031c 6C010000 		.word	.LC12
 1068              		.cfi_endproc
 1069              	.LFE136:
 1071              		.section	.bss.log_counter,"aw",%nobits
 1072              		.align	1
ARM GAS  C:\Temp\ccrQCEwQ.s 			page 29


 1073              		.set	.LANCHOR0,. + 0
 1076              	log_counter:
 1077 0000 0000     		.space	2
 1078              		.section	.bss.log_store,"aw",%nobits
 1079              		.align	2
 1082              	log_store:
 1083 0000 00000000 		.space	80000
 1083      00000000 
 1083      00000000 
 1083      00000000 
 1083      00000000 
 1084              		.text
 1085              	.Letext0:
 1086              		.file 2 "c:\\tools\\gcc-arm-none-eabi-9-2019-q4-major\\arm-none-eabi\\include\\machine\\_default_t
 1087              		.file 3 "c:\\tools\\gcc-arm-none-eabi-9-2019-q4-major\\arm-none-eabi\\include\\sys\\lock.h"
 1088              		.file 4 "c:\\tools\\gcc-arm-none-eabi-9-2019-q4-major\\arm-none-eabi\\include\\sys\\_types.h"
 1089              		.file 5 "c:\\tools\\gcc-arm-none-eabi-9-2019-q4-major\\lib\\gcc\\arm-none-eabi\\9.2.1\\include\\st
 1090              		.file 6 "c:\\tools\\gcc-arm-none-eabi-9-2019-q4-major\\arm-none-eabi\\include\\sys\\reent.h"
 1091              		.file 7 "c:\\tools\\gcc-arm-none-eabi-9-2019-q4-major\\arm-none-eabi\\include\\sys\\_stdint.h"
 1092              		.file 8 "c:\\tools\\gcc-arm-none-eabi-9-2019-q4-major\\arm-none-eabi\\include\\math.h"
 1093              		.file 9 "Drivers/CMSIS/Include/core_cm4.h"
 1094              		.file 10 "Drivers/CMSIS/Device/ST/STM32F4xx/Include/system_stm32f4xx.h"
 1095              		.file 11 "Drivers/CMSIS/Device/ST/STM32F4xx/Include/stm32f413xx.h"
 1096              		.file 12 "Drivers/CMSIS/Device/ST/STM32F4xx/Include/stm32f4xx.h"
 1097              		.file 13 "Drivers/STM32F4xx_HAL_Driver/Inc/stm32f4xx_hal_def.h"
 1098              		.file 14 "Drivers/STM32F4xx_HAL_Driver/Inc/stm32f4xx_hal_dma.h"
 1099              		.file 15 "Drivers/STM32F4xx_HAL_Driver/Inc/stm32f4xx_hal_adc.h"
 1100              		.file 16 "Drivers/STM32F4xx_HAL_Driver/Inc/stm32f4xx_hal_spi.h"
 1101              		.file 17 "Drivers/STM32F4xx_HAL_Driver/Inc/stm32f4xx_hal_tim.h"
 1102              		.file 18 "Drivers/STM32F4xx_HAL_Driver/Inc/stm32f4xx_hal_uart.h"
 1103              		.file 19 "Inc/adc.h"
 1104              		.file 20 "Inc/spi.h"
 1105              		.file 21 "Inc/tim.h"
 1106              		.file 22 "Inc/usart.h"
 1107              		.file 23 "Inc/encorder.h"
 1108              		.file 24 "Inc/ir_sensor.h"
 1109              		.file 25 "c:\\tools\\gcc-arm-none-eabi-9-2019-q4-major\\arm-none-eabi\\include\\stdio.h"
 1110              		.file 26 "Inc/adjust.h"
 1111              		.file 27 "Drivers/STM32F4xx_HAL_Driver/Inc/stm32f4xx_hal.h"
 1112              		.file 28 "Inc/interrupt.h"
 1113              		.file 29 "Inc/mouse_state.h"
 1114              		.file 30 "Inc/imu.h"
 1115              		.file 31 "Inc/battery.h"
 1116              		.file 32 "Inc/exvol.h"
 1117              		.file 33 "<built-in>"
ARM GAS  C:\Temp\ccrQCEwQ.s 			page 30

