ARM GAS  C:\Temp\ccwak6Tu.s 			page 1


   1              		.cpu cortex-m4
   2              		.eabi_attribute 27, 1
   3              		.eabi_attribute 28, 1
   4              		.eabi_attribute 20, 1
   5              		.eabi_attribute 21, 1
   6              		.eabi_attribute 23, 3
   7              		.eabi_attribute 24, 1
   8              		.eabi_attribute 25, 1
   9              		.eabi_attribute 26, 1
  10              		.eabi_attribute 30, 1
  11              		.eabi_attribute 34, 1
  12              		.eabi_attribute 18, 4
  13              		.file	"module_test.c"
  14              		.text
  15              	.Ltext0:
  16              		.cfi_sections	.debug_frame
  17              		.section	.text.log_init,"ax",%progbits
  18              		.align	1
  19              		.global	log_init
  20              		.arch armv7e-m
  21              		.syntax unified
  22              		.thumb
  23              		.thumb_func
  24              		.fpu fpv4-sp-d16
  26              	log_init:
  27              	.LFB133:
  28              		.file 1 "Src/module_test.c"
   1:Src/module_test.c **** /*
   2:Src/module_test.c ****  * module_test.c
   3:Src/module_test.c ****  *
   4:Src/module_test.c ****  *  Created on: Aug 13, 2019
   5:Src/module_test.c ****  *      Author: å²¡ç”° æ³°è£•
   6:Src/module_test.c ****  */
   7:Src/module_test.c **** 
   8:Src/module_test.c **** 
   9:Src/module_test.c **** //#include "index.h"
  10:Src/module_test.c **** #include "module_test.h"
  11:Src/module_test.c **** #include "ir_sensor.h"
  12:Src/module_test.c **** #include "battery.h"
  13:Src/module_test.c **** #include "imu.h"
  14:Src/module_test.c **** #include "param.h"
  15:Src/module_test.c **** #include "mouse_state.h"
  16:Src/module_test.c **** #include "target.h"
  17:Src/module_test.c **** #include "exvol.h"
  18:Src/module_test.c **** #include "stm32f4xx_hal.h"
  19:Src/module_test.c **** #include "encorder.h"
  20:Src/module_test.c **** #include "interrupt.h"
  21:Src/module_test.c **** 
  22:Src/module_test.c **** 
  23:Src/module_test.c **** static uint16_t log_counter = 0 ; //ãƒ­ã‚°å–å¾—é–‹å§‹ã‹ã‚‰ã®æ™‚é–“ç›£è¦–ç”¨ã‚«ã‚¦ãƒ³ã‚¿[ms]
  24:Src/module_test.c **** 
  25:Src/module_test.c **** typedef struct {	//ãƒ‡ãƒ¼ã‚¿æ ¼ç´ç”¨æ§‹é€ ä½“ã®å®šç¾©ï¼ˆæœ€å¤§ï¼’ï¼å€‹ã¨ã™ã‚‹ã“ã¨ï¼ˆï¼”ç§’ã
  26:Src/module_test.c **** 	float	time;				//æ¸¬å®šé–‹å§‹ã‹ã‚‰ã®æ™‚é–“[m/s]
  27:Src/module_test.c **** 	float	target_d_m;			//ç›®æ¨™ç§»å‹•è·é›¢[m]
  28:Src/module_test.c **** 	float 	ideal_d_m;			//ç†æƒ³ã®ä¸¦é€²æ–¹å‘ç§»å‹•è·é›¢[m]
  29:Src/module_test.c **** 	float	real_d_m;			//ä¸¦é€²æ–¹å‘ç§»å‹•è·é›¢[m]
  30:Src/module_test.c **** 	float   target_speed_m;		//ç›®æ¨™é€Ÿåº¦[m/s]
ARM GAS  C:\Temp\ccwak6Tu.s 			page 2


  31:Src/module_test.c **** 	float	speed_m;			//ä¸¦é€²æ–¹å‘ã®é€Ÿåº¦[m/s]
  32:Src/module_test.c **** 	float	speed_m_ave;		//ä¸¦é€²æ–¹å‘ã®é€Ÿåº¦å¹³å‡[m/s]
  33:Src/module_test.c **** 	float   accel_m;			//ä¸¦é€²æ–¹å‘ã®åŠ é€Ÿåº¦(m/s)
  34:Src/module_test.c **** 	float	accel_m_ave;		//ä¸¦é€²æ–¹å‘ã®åŠ é€Ÿåº¦å¹³å‡(m/s)
  35:Src/module_test.c **** 	float	target_d_w;			//ç›®æ¨™è§’åº¦
  36:Src/module_test.c **** 	float	ideal_d_w;			//ç†æƒ³è§’åº¦
  37:Src/module_test.c **** 	float	real_d_w;			//å›è»¢è§’åº¦(rad)
  38:Src/module_test.c **** 	float   target_speed_w;		//ç›®æ¨™è§’é€Ÿåº¦(rad/s)
  39:Src/module_test.c **** 	float	speed_w;			//å®Ÿéš›ã®è§’é€Ÿåº¦(rad/s)
  40:Src/module_test.c **** 	float   duty_r;				//å³ãƒ¢ãƒ¼ã‚¿æ“ä½œé‡ï¼ˆduty)
  41:Src/module_test.c **** 	float   duty_l;				//å·¦ãƒ¢ãƒ¼ã‚¿æ“ä½œé‡(duty)
  42:Src/module_test.c **** 	float   front_sensor_r;		//å³å‰å£ã‚»ãƒ³ã‚µå€¤
  43:Src/module_test.c **** 	float   front_sensor_l;		//å·¦å‰å£ã‚»ãƒ³ã‚µå€¤
  44:Src/module_test.c **** 	float   side_sensor_r;		//å³æ¨ªå£ã‚»ãƒ³ã‚µå€¤
  45:Src/module_test.c **** 	float   side_sensor_l;		//å·¦æ¨ªå£ã‚»ãƒ³ã‚µå€¤
  46:Src/module_test.c **** 	float   front_r;			//å£ã¨ã®è·é›¢ï¼ˆå³å‰ã‚»ãƒ³ã‚µï¼‰(m)
  47:Src/module_test.c **** 	float   front_l;			//å£ã¨ã®è·é›¢ï¼ˆå·¦å‰ã‚»ãƒ³ã‚µï¼‰(m)ï¼‰
  48:Src/module_test.c **** 	float 	V_battery;			//ãƒãƒƒãƒ†ãƒªãƒ¼é›»åœ§
  49:Src/module_test.c **** } log_struct;
  50:Src/module_test.c **** 
  51:Src/module_test.c **** static log_struct log_store[log_count_lim / log_count_step];  // ãƒ‡ãƒ¼ã‚¿æ ¼ç´ç”¨ã®æ§‹é€ ä½“
  52:Src/module_test.c **** 
  53:Src/module_test.c **** 
  54:Src/module_test.c **** /* ---------------------------------------------------------------
  55:Src/module_test.c **** 	ãƒ­ã‚°å–å¾—ã‚«ã‚¦ãƒ³ã‚¿åˆæœŸåŒ–é–¢æ•°
  56:Src/module_test.c **** --------------------------------------------------------------- */
  57:Src/module_test.c **** void log_init (void)
  58:Src/module_test.c **** {
  29              		.loc 1 58 1 view -0
  30              		.cfi_startproc
  31              		@ args = 0, pretend = 0, frame = 0
  32              		@ frame_needed = 0, uses_anonymous_args = 0
  33              		@ link register save eliminated.
  59:Src/module_test.c **** 	log_counter = 0; //ãƒ­ã‚°ã‚«ã‚¦ãƒ³ã‚¿ã®åˆæœŸåŒ–
  34              		.loc 1 59 2 view .LVU1
  35              		.loc 1 59 14 is_stmt 0 view .LVU2
  36 0000 014B     		ldr	r3, .L2
  37 0002 0022     		movs	r2, #0
  38 0004 1A80     		strh	r2, [r3]	@ movhi
  60:Src/module_test.c **** }
  39              		.loc 1 60 1 view .LVU3
  40 0006 7047     		bx	lr
  41              	.L3:
  42              		.align	2
  43              	.L2:
  44 0008 00000000 		.word	.LANCHOR0
  45              		.cfi_endproc
  46              	.LFE133:
  48              		.global	__aeabi_d2f
  49              		.section	.text.data_get,"ax",%progbits
  50              		.align	1
  51              		.global	data_get
  52              		.syntax unified
  53              		.thumb
  54              		.thumb_func
  55              		.fpu fpv4-sp-d16
  57              	data_get:
ARM GAS  C:\Temp\ccwak6Tu.s 			page 3


  58              	.LFB134:
  61:Src/module_test.c **** 
  62:Src/module_test.c **** /* ---------------------------------------------------------------
  63:Src/module_test.c **** 	ãƒ­ã‚°å–å¾—ç”¨é–¢æ•°ï¼ˆ1msã‚¿ã‚¹ã‚¯ï¼‰
  64:Src/module_test.c **** --------------------------------------------------------------- */
  65:Src/module_test.c **** void data_get (void)
  66:Src/module_test.c **** {
  59              		.loc 1 66 1 is_stmt 1 view -0
  60              		.cfi_startproc
  61              		@ args = 0, pretend = 0, frame = 0
  62              		@ frame_needed = 0, uses_anonymous_args = 0
  63 0000 10B5     		push	{r4, lr}
  64              	.LCFI0:
  65              		.cfi_def_cfa_offset 8
  66              		.cfi_offset 4, -8
  67              		.cfi_offset 14, -4
  67:Src/module_test.c **** 
  68:Src/module_test.c **** 	uint16_t i = 0;
  68              		.loc 1 68 2 view .LVU5
  69              	.LVL0:
  69:Src/module_test.c **** 	i = log_counter / log_count_step;
  70              		.loc 1 69 2 view .LVU6
  71              		.loc 1 69 4 is_stmt 0 view .LVU7
  72 0002 4E4B     		ldr	r3, .L9
  73 0004 1A88     		ldrh	r2, [r3]
  74 0006 4E4C     		ldr	r4, .L9+4
  75 0008 A4FB0234 		umull	r3, r4, r4, r2
  76              	.LVL1:
  70:Src/module_test.c **** 
  71:Src/module_test.c **** 	if(log_counter < log_count_lim)
  77              		.loc 1 71 2 is_stmt 1 view .LVU8
  78              		.loc 1 71 4 is_stmt 0 view .LVU9
  79 000c 42F20F73 		movw	r3, #9999
  80 0010 9A42     		cmp	r2, r3
  81 0012 0AD8     		bhi	.L4
  82 0014 E408     		lsrs	r4, r4, #3
  83              	.LVL2:
  72:Src/module_test.c **** 	{
  73:Src/module_test.c **** 		if( (log_counter % log_count_step) == 0)
  84              		.loc 1 73 3 is_stmt 1 view .LVU10
  85              		.loc 1 73 38 is_stmt 0 view .LVU11
  86 0016 04EB8403 		add	r3, r4, r4, lsl #2
  87 001a A2EB4303 		sub	r3, r2, r3, lsl #1
  88 001e 9BB2     		uxth	r3, r3
  89              		.loc 1 73 5 view .LVU12
  90 0020 23B1     		cbz	r3, .L8
  91              	.LVL3:
  92              	.L6:
  74:Src/module_test.c **** 		{
  75:Src/module_test.c **** 			log_store[i].time = (float)log_counter;
  76:Src/module_test.c **** 			log_store[i].target_d_m = (float)get_target_length();
  77:Src/module_test.c **** 			log_store[i].ideal_d_m = (float)get_ideal_length();
  78:Src/module_test.c **** 			log_store[i].real_d_m = (float)get_move_length();
  79:Src/module_test.c **** 			log_store[i].target_speed_m =  (float)get_target_move_speed();
  80:Src/module_test.c **** 			log_store[i].speed_m = (float)get_move_speed();
  81:Src/module_test.c **** 			log_store[i].speed_m_ave = (float)get_move_speed_ave();
  82:Src/module_test.c **** 			log_store[i].accel_m = (float)IMU_GetAccel_X();
ARM GAS  C:\Temp\ccwak6Tu.s 			page 4


  83:Src/module_test.c **** 			log_store[i].accel_m_ave = (float)get_move_accel_ave();
  84:Src/module_test.c **** 			log_store[i].target_d_w = (float)get_target_angle();
  85:Src/module_test.c **** 			log_store[i].ideal_d_w = (float)get_ideal_angle();
  86:Src/module_test.c **** 			log_store[i].real_d_w = (float)get_rotation_angle();
  87:Src/module_test.c **** 			log_store[i].target_speed_w = (float)get_target_rotation_speed();
  88:Src/module_test.c **** 			log_store[i].speed_w = (float)get_rotation_speed();
  89:Src/module_test.c **** 			log_store[i].duty_r = (float)get_target_duty_r();
  90:Src/module_test.c **** 			log_store[i].duty_l = (float)get_target_duty_l();
  91:Src/module_test.c **** 			log_store[i].front_sensor_r = (float)Sensor_GetValue(3);
  92:Src/module_test.c **** 			log_store[i].front_sensor_l = (float)Sensor_GetValue(0);
  93:Src/module_test.c **** 			log_store[i].side_sensor_r = (float)Sensor_GetValue(2);
  94:Src/module_test.c **** 			log_store[i].side_sensor_l = (float)Sensor_GetValue(1);
  95:Src/module_test.c **** 			log_store[i].front_r = (float)SensorValue2length(3);
  96:Src/module_test.c **** 			log_store[i].front_l = (float)SensorValue2length(0);
  97:Src/module_test.c **** 			log_store[i].V_battery =(float) Battery_GetVoltage();
  98:Src/module_test.c **** 		}
  99:Src/module_test.c **** 		log_counter += 1; //logã‚«ã‚¦ãƒ³ã‚¿æ›´æ–°
  93              		.loc 1 99 3 is_stmt 1 view .LVU13
  94              		.loc 1 99 15 is_stmt 0 view .LVU14
  95 0022 464A     		ldr	r2, .L9
  96 0024 1388     		ldrh	r3, [r2]
  97 0026 0133     		adds	r3, r3, #1
  98 0028 1380     		strh	r3, [r2]	@ movhi
  99              	.L4:
 100:Src/module_test.c **** 	}
 101:Src/module_test.c **** }
 100              		.loc 1 101 1 view .LVU15
 101 002a 10BD     		pop	{r4, pc}
 102              	.LVL4:
 103              	.L8:
  75:Src/module_test.c **** 			log_store[i].target_d_m = (float)get_target_length();
 104              		.loc 1 75 4 is_stmt 1 view .LVU16
  75:Src/module_test.c **** 			log_store[i].target_d_m = (float)get_target_length();
 105              		.loc 1 75 24 is_stmt 0 view .LVU17
 106 002c 07EE902A 		vmov	s15, r2	@ int
 107 0030 F8EE677A 		vcvt.f32.u32	s15, s15
  75:Src/module_test.c **** 			log_store[i].target_d_m = (float)get_target_length();
 108              		.loc 1 75 22 view .LVU18
 109 0034 434B     		ldr	r3, .L9+8
 110 0036 5C22     		movs	r2, #92
 111              	.LVL5:
  75:Src/module_test.c **** 			log_store[i].target_d_m = (float)get_target_length();
 112              		.loc 1 75 22 view .LVU19
 113 0038 02FB0434 		mla	r4, r2, r4, r3
 114 003c C4ED007A 		vstr.32	s15, [r4]
  76:Src/module_test.c **** 			log_store[i].ideal_d_m = (float)get_ideal_length();
 115              		.loc 1 76 4 is_stmt 1 view .LVU20
  76:Src/module_test.c **** 			log_store[i].ideal_d_m = (float)get_ideal_length();
 116              		.loc 1 76 30 is_stmt 0 view .LVU21
 117 0040 FFF7FEFF 		bl	get_target_length
 118              	.LVL6:
  76:Src/module_test.c **** 			log_store[i].ideal_d_m = (float)get_ideal_length();
 119              		.loc 1 76 28 view .LVU22
 120 0044 84ED010A 		vstr.32	s0, [r4, #4]
  77:Src/module_test.c **** 			log_store[i].real_d_m = (float)get_move_length();
 121              		.loc 1 77 4 is_stmt 1 view .LVU23
  77:Src/module_test.c **** 			log_store[i].real_d_m = (float)get_move_length();
ARM GAS  C:\Temp\ccwak6Tu.s 			page 5


 122              		.loc 1 77 29 is_stmt 0 view .LVU24
 123 0048 FFF7FEFF 		bl	get_ideal_length
 124              	.LVL7:
  77:Src/module_test.c **** 			log_store[i].real_d_m = (float)get_move_length();
 125              		.loc 1 77 27 view .LVU25
 126 004c 84ED020A 		vstr.32	s0, [r4, #8]
  78:Src/module_test.c **** 			log_store[i].target_speed_m =  (float)get_target_move_speed();
 127              		.loc 1 78 4 is_stmt 1 view .LVU26
  78:Src/module_test.c **** 			log_store[i].target_speed_m =  (float)get_target_move_speed();
 128              		.loc 1 78 28 is_stmt 0 view .LVU27
 129 0050 FFF7FEFF 		bl	get_move_length
 130              	.LVL8:
  78:Src/module_test.c **** 			log_store[i].target_speed_m =  (float)get_target_move_speed();
 131              		.loc 1 78 26 view .LVU28
 132 0054 84ED030A 		vstr.32	s0, [r4, #12]
  79:Src/module_test.c **** 			log_store[i].speed_m = (float)get_move_speed();
 133              		.loc 1 79 4 is_stmt 1 view .LVU29
  79:Src/module_test.c **** 			log_store[i].speed_m = (float)get_move_speed();
 134              		.loc 1 79 35 is_stmt 0 view .LVU30
 135 0058 FFF7FEFF 		bl	get_target_move_speed
 136              	.LVL9:
  79:Src/module_test.c **** 			log_store[i].speed_m = (float)get_move_speed();
 137              		.loc 1 79 32 view .LVU31
 138 005c 84ED040A 		vstr.32	s0, [r4, #16]
  80:Src/module_test.c **** 			log_store[i].speed_m_ave = (float)get_move_speed_ave();
 139              		.loc 1 80 4 is_stmt 1 view .LVU32
  80:Src/module_test.c **** 			log_store[i].speed_m_ave = (float)get_move_speed_ave();
 140              		.loc 1 80 27 is_stmt 0 view .LVU33
 141 0060 FFF7FEFF 		bl	get_move_speed
 142              	.LVL10:
  80:Src/module_test.c **** 			log_store[i].speed_m_ave = (float)get_move_speed_ave();
 143              		.loc 1 80 25 view .LVU34
 144 0064 84ED050A 		vstr.32	s0, [r4, #20]
  81:Src/module_test.c **** 			log_store[i].accel_m = (float)IMU_GetAccel_X();
 145              		.loc 1 81 4 is_stmt 1 view .LVU35
  81:Src/module_test.c **** 			log_store[i].accel_m = (float)IMU_GetAccel_X();
 146              		.loc 1 81 31 is_stmt 0 view .LVU36
 147 0068 FFF7FEFF 		bl	get_move_speed_ave
 148              	.LVL11:
  81:Src/module_test.c **** 			log_store[i].accel_m = (float)IMU_GetAccel_X();
 149              		.loc 1 81 29 view .LVU37
 150 006c 84ED060A 		vstr.32	s0, [r4, #24]
  82:Src/module_test.c **** 			log_store[i].accel_m_ave = (float)get_move_accel_ave();
 151              		.loc 1 82 4 is_stmt 1 view .LVU38
  82:Src/module_test.c **** 			log_store[i].accel_m_ave = (float)get_move_accel_ave();
 152              		.loc 1 82 27 is_stmt 0 view .LVU39
 153 0070 FFF7FEFF 		bl	IMU_GetAccel_X
 154              	.LVL12:
  82:Src/module_test.c **** 			log_store[i].accel_m_ave = (float)get_move_accel_ave();
 155              		.loc 1 82 25 view .LVU40
 156 0074 84ED070A 		vstr.32	s0, [r4, #28]
  83:Src/module_test.c **** 			log_store[i].target_d_w = (float)get_target_angle();
 157              		.loc 1 83 4 is_stmt 1 view .LVU41
  83:Src/module_test.c **** 			log_store[i].target_d_w = (float)get_target_angle();
 158              		.loc 1 83 31 is_stmt 0 view .LVU42
 159 0078 FFF7FEFF 		bl	get_move_accel_ave
 160              	.LVL13:
ARM GAS  C:\Temp\ccwak6Tu.s 			page 6


  83:Src/module_test.c **** 			log_store[i].target_d_w = (float)get_target_angle();
 161              		.loc 1 83 29 view .LVU43
 162 007c 84ED080A 		vstr.32	s0, [r4, #32]
  84:Src/module_test.c **** 			log_store[i].ideal_d_w = (float)get_ideal_angle();
 163              		.loc 1 84 4 is_stmt 1 view .LVU44
  84:Src/module_test.c **** 			log_store[i].ideal_d_w = (float)get_ideal_angle();
 164              		.loc 1 84 30 is_stmt 0 view .LVU45
 165 0080 FFF7FEFF 		bl	get_target_angle
 166              	.LVL14:
  84:Src/module_test.c **** 			log_store[i].ideal_d_w = (float)get_ideal_angle();
 167              		.loc 1 84 28 view .LVU46
 168 0084 84ED090A 		vstr.32	s0, [r4, #36]
  85:Src/module_test.c **** 			log_store[i].real_d_w = (float)get_rotation_angle();
 169              		.loc 1 85 4 is_stmt 1 view .LVU47
  85:Src/module_test.c **** 			log_store[i].real_d_w = (float)get_rotation_angle();
 170              		.loc 1 85 29 is_stmt 0 view .LVU48
 171 0088 FFF7FEFF 		bl	get_ideal_angle
 172              	.LVL15:
  85:Src/module_test.c **** 			log_store[i].real_d_w = (float)get_rotation_angle();
 173              		.loc 1 85 27 view .LVU49
 174 008c 84ED0A0A 		vstr.32	s0, [r4, #40]
  86:Src/module_test.c **** 			log_store[i].target_speed_w = (float)get_target_rotation_speed();
 175              		.loc 1 86 4 is_stmt 1 view .LVU50
  86:Src/module_test.c **** 			log_store[i].target_speed_w = (float)get_target_rotation_speed();
 176              		.loc 1 86 28 is_stmt 0 view .LVU51
 177 0090 FFF7FEFF 		bl	get_rotation_angle
 178              	.LVL16:
  86:Src/module_test.c **** 			log_store[i].target_speed_w = (float)get_target_rotation_speed();
 179              		.loc 1 86 26 view .LVU52
 180 0094 84ED0B0A 		vstr.32	s0, [r4, #44]
  87:Src/module_test.c **** 			log_store[i].speed_w = (float)get_rotation_speed();
 181              		.loc 1 87 4 is_stmt 1 view .LVU53
  87:Src/module_test.c **** 			log_store[i].speed_w = (float)get_rotation_speed();
 182              		.loc 1 87 34 is_stmt 0 view .LVU54
 183 0098 FFF7FEFF 		bl	get_target_rotation_speed
 184              	.LVL17:
  87:Src/module_test.c **** 			log_store[i].speed_w = (float)get_rotation_speed();
 185              		.loc 1 87 32 view .LVU55
 186 009c 84ED0C0A 		vstr.32	s0, [r4, #48]
  88:Src/module_test.c **** 			log_store[i].duty_r = (float)get_target_duty_r();
 187              		.loc 1 88 4 is_stmt 1 view .LVU56
  88:Src/module_test.c **** 			log_store[i].duty_r = (float)get_target_duty_r();
 188              		.loc 1 88 27 is_stmt 0 view .LVU57
 189 00a0 FFF7FEFF 		bl	get_rotation_speed
 190              	.LVL18:
  88:Src/module_test.c **** 			log_store[i].duty_r = (float)get_target_duty_r();
 191              		.loc 1 88 25 view .LVU58
 192 00a4 84ED0D0A 		vstr.32	s0, [r4, #52]
  89:Src/module_test.c **** 			log_store[i].duty_l = (float)get_target_duty_l();
 193              		.loc 1 89 4 is_stmt 1 view .LVU59
  89:Src/module_test.c **** 			log_store[i].duty_l = (float)get_target_duty_l();
 194              		.loc 1 89 33 is_stmt 0 view .LVU60
 195 00a8 FFF7FEFF 		bl	get_target_duty_r
 196              	.LVL19:
 197 00ac 07EE900A 		vmov	s15, r0	@ int
  89:Src/module_test.c **** 			log_store[i].duty_l = (float)get_target_duty_l();
 198              		.loc 1 89 26 view .LVU61
ARM GAS  C:\Temp\ccwak6Tu.s 			page 7


 199 00b0 F8EEE77A 		vcvt.f32.s32	s15, s15
  89:Src/module_test.c **** 			log_store[i].duty_l = (float)get_target_duty_l();
 200              		.loc 1 89 24 view .LVU62
 201 00b4 C4ED0E7A 		vstr.32	s15, [r4, #56]
  90:Src/module_test.c **** 			log_store[i].front_sensor_r = (float)Sensor_GetValue(3);
 202              		.loc 1 90 4 is_stmt 1 view .LVU63
  90:Src/module_test.c **** 			log_store[i].front_sensor_r = (float)Sensor_GetValue(3);
 203              		.loc 1 90 33 is_stmt 0 view .LVU64
 204 00b8 FFF7FEFF 		bl	get_target_duty_l
 205              	.LVL20:
 206 00bc 07EE900A 		vmov	s15, r0	@ int
  90:Src/module_test.c **** 			log_store[i].front_sensor_r = (float)Sensor_GetValue(3);
 207              		.loc 1 90 26 view .LVU65
 208 00c0 F8EEE77A 		vcvt.f32.s32	s15, s15
  90:Src/module_test.c **** 			log_store[i].front_sensor_r = (float)Sensor_GetValue(3);
 209              		.loc 1 90 24 view .LVU66
 210 00c4 C4ED0F7A 		vstr.32	s15, [r4, #60]
  91:Src/module_test.c **** 			log_store[i].front_sensor_l = (float)Sensor_GetValue(0);
 211              		.loc 1 91 4 is_stmt 1 view .LVU67
  91:Src/module_test.c **** 			log_store[i].front_sensor_l = (float)Sensor_GetValue(0);
 212              		.loc 1 91 41 is_stmt 0 view .LVU68
 213 00c8 0320     		movs	r0, #3
 214 00ca FFF7FEFF 		bl	Sensor_GetValue
 215              	.LVL21:
 216 00ce 07EE900A 		vmov	s15, r0	@ int
  91:Src/module_test.c **** 			log_store[i].front_sensor_l = (float)Sensor_GetValue(0);
 217              		.loc 1 91 34 view .LVU69
 218 00d2 F8EEE77A 		vcvt.f32.s32	s15, s15
  91:Src/module_test.c **** 			log_store[i].front_sensor_l = (float)Sensor_GetValue(0);
 219              		.loc 1 91 32 view .LVU70
 220 00d6 C4ED107A 		vstr.32	s15, [r4, #64]
  92:Src/module_test.c **** 			log_store[i].side_sensor_r = (float)Sensor_GetValue(2);
 221              		.loc 1 92 4 is_stmt 1 view .LVU71
  92:Src/module_test.c **** 			log_store[i].side_sensor_r = (float)Sensor_GetValue(2);
 222              		.loc 1 92 41 is_stmt 0 view .LVU72
 223 00da 0020     		movs	r0, #0
 224 00dc FFF7FEFF 		bl	Sensor_GetValue
 225              	.LVL22:
 226 00e0 07EE900A 		vmov	s15, r0	@ int
  92:Src/module_test.c **** 			log_store[i].side_sensor_r = (float)Sensor_GetValue(2);
 227              		.loc 1 92 34 view .LVU73
 228 00e4 F8EEE77A 		vcvt.f32.s32	s15, s15
  92:Src/module_test.c **** 			log_store[i].side_sensor_r = (float)Sensor_GetValue(2);
 229              		.loc 1 92 32 view .LVU74
 230 00e8 C4ED117A 		vstr.32	s15, [r4, #68]
  93:Src/module_test.c **** 			log_store[i].side_sensor_l = (float)Sensor_GetValue(1);
 231              		.loc 1 93 4 is_stmt 1 view .LVU75
  93:Src/module_test.c **** 			log_store[i].side_sensor_l = (float)Sensor_GetValue(1);
 232              		.loc 1 93 40 is_stmt 0 view .LVU76
 233 00ec 0220     		movs	r0, #2
 234 00ee FFF7FEFF 		bl	Sensor_GetValue
 235              	.LVL23:
 236 00f2 07EE900A 		vmov	s15, r0	@ int
  93:Src/module_test.c **** 			log_store[i].side_sensor_l = (float)Sensor_GetValue(1);
 237              		.loc 1 93 33 view .LVU77
 238 00f6 F8EEE77A 		vcvt.f32.s32	s15, s15
  93:Src/module_test.c **** 			log_store[i].side_sensor_l = (float)Sensor_GetValue(1);
ARM GAS  C:\Temp\ccwak6Tu.s 			page 8


 239              		.loc 1 93 31 view .LVU78
 240 00fa C4ED127A 		vstr.32	s15, [r4, #72]
  94:Src/module_test.c **** 			log_store[i].front_r = (float)SensorValue2length(3);
 241              		.loc 1 94 4 is_stmt 1 view .LVU79
  94:Src/module_test.c **** 			log_store[i].front_r = (float)SensorValue2length(3);
 242              		.loc 1 94 40 is_stmt 0 view .LVU80
 243 00fe 0120     		movs	r0, #1
 244 0100 FFF7FEFF 		bl	Sensor_GetValue
 245              	.LVL24:
 246 0104 07EE900A 		vmov	s15, r0	@ int
  94:Src/module_test.c **** 			log_store[i].front_r = (float)SensorValue2length(3);
 247              		.loc 1 94 33 view .LVU81
 248 0108 F8EEE77A 		vcvt.f32.s32	s15, s15
  94:Src/module_test.c **** 			log_store[i].front_r = (float)SensorValue2length(3);
 249              		.loc 1 94 31 view .LVU82
 250 010c C4ED137A 		vstr.32	s15, [r4, #76]
  95:Src/module_test.c **** 			log_store[i].front_l = (float)SensorValue2length(0);
 251              		.loc 1 95 4 is_stmt 1 view .LVU83
  95:Src/module_test.c **** 			log_store[i].front_l = (float)SensorValue2length(0);
 252              		.loc 1 95 34 is_stmt 0 view .LVU84
 253 0110 0320     		movs	r0, #3
 254 0112 FFF7FEFF 		bl	SensorValue2length
 255              	.LVL25:
 256 0116 51EC100B 		vmov	r0, r1, d0
  95:Src/module_test.c **** 			log_store[i].front_l = (float)SensorValue2length(0);
 257              		.loc 1 95 27 view .LVU85
 258 011a FFF7FEFF 		bl	__aeabi_d2f
 259              	.LVL26:
  95:Src/module_test.c **** 			log_store[i].front_l = (float)SensorValue2length(0);
 260              		.loc 1 95 25 view .LVU86
 261 011e 2065     		str	r0, [r4, #80]	@ float
  96:Src/module_test.c **** 			log_store[i].V_battery =(float) Battery_GetVoltage();
 262              		.loc 1 96 4 is_stmt 1 view .LVU87
  96:Src/module_test.c **** 			log_store[i].V_battery =(float) Battery_GetVoltage();
 263              		.loc 1 96 34 is_stmt 0 view .LVU88
 264 0120 0020     		movs	r0, #0
 265 0122 FFF7FEFF 		bl	SensorValue2length
 266              	.LVL27:
 267 0126 51EC100B 		vmov	r0, r1, d0
  96:Src/module_test.c **** 			log_store[i].V_battery =(float) Battery_GetVoltage();
 268              		.loc 1 96 27 view .LVU89
 269 012a FFF7FEFF 		bl	__aeabi_d2f
 270              	.LVL28:
  96:Src/module_test.c **** 			log_store[i].V_battery =(float) Battery_GetVoltage();
 271              		.loc 1 96 25 view .LVU90
 272 012e 6065     		str	r0, [r4, #84]	@ float
  97:Src/module_test.c **** 		}
 273              		.loc 1 97 4 is_stmt 1 view .LVU91
  97:Src/module_test.c **** 		}
 274              		.loc 1 97 28 is_stmt 0 view .LVU92
 275 0130 FFF7FEFF 		bl	Battery_GetVoltage
 276              	.LVL29:
  97:Src/module_test.c **** 		}
 277              		.loc 1 97 27 view .LVU93
 278 0134 84ED160A 		vstr.32	s0, [r4, #88]
 279 0138 73E7     		b	.L6
 280              	.L10:
ARM GAS  C:\Temp\ccwak6Tu.s 			page 9


 281 013a 00BF     		.align	2
 282              	.L9:
 283 013c 00000000 		.word	.LANCHOR0
 284 0140 CDCCCCCC 		.word	-858993459
 285 0144 00000000 		.word	log_store
 286              		.cfi_endproc
 287              	.LFE134:
 289              		.section	.rodata.data_read.str1.4,"aMS",%progbits,1
 290              		.align	2
 291              	.LC0:
 292 0000 54494D45 		.ascii	"TIME[ms],target_distance[m],ideal_distance[m],curre"
 292      5B6D735D 
 292      2C746172 
 292      6765745F 
 292      64697374 
 293 0033 6E745F64 		.ascii	"nt_distance[m],TARGET_SPEED_m[m/s],SPEED_m[m/s],SPE"
 293      69737461 
 293      6E63655B 
 293      6D5D2C54 
 293      41524745 
 294 0066 45445F6D 		.ascii	"ED_m_ave[m/s],accel_m[m/s2],accel_m_ave[m/s2],targe"
 294      5F617665 
 294      5B6D2F73 
 294      5D2C6163 
 294      63656C5F 
 295 0099 745F616E 		.ascii	"t_angle[rad],ideal_angle[rad],current_angle[rad],ta"
 295      676C655B 
 295      7261645D 
 295      2C696465 
 295      616C5F61 
 296 00cc 72676574 		.ascii	"rget_speed_w[rad/s],speed_w[rad/s],DUTY_R[%%],Duty_"
 296      5F737065 
 296      65645F77 
 296      5B726164 
 296      2F735D2C 
 297 00ff 4C5B2525 		.ascii	"L[%%],front_r,front_l,side_r,side_l,front_r[m],fron"
 297      5D2C6672 
 297      6F6E745F 
 297      722C6672 
 297      6F6E745F 
 298 0132 745F6C5B 		.ascii	"t_l[m],V_battery[V]\015\012\000"
 298      6D5D2C56 
 298      5F626174 
 298      74657279 
 298      5B565D0D 
 299              		.global	__aeabi_f2d
 300              		.align	2
 301              	.LC1:
 302 0148 25662C00 		.ascii	"%f,\000"
 303              		.align	2
 304              	.LC2:
 305 014c 256600   		.ascii	"%f\000"
 306 014f 00       		.align	2
 307              	.LC3:
 308 0150 0D00     		.ascii	"\015\000"
 309              		.section	.text.data_read,"ax",%progbits
 310              		.align	1
ARM GAS  C:\Temp\ccwak6Tu.s 			page 10


 311              		.global	data_read
 312              		.syntax unified
 313              		.thumb
 314              		.thumb_func
 315              		.fpu fpv4-sp-d16
 317              	data_read:
 318              	.LFB135:
 102:Src/module_test.c **** 
 103:Src/module_test.c **** /* ---------------------------------------------------------------
 104:Src/module_test.c **** 	ãƒ­ã‚°åãå‡ºã—ç”¨é–¢æ•°
 105:Src/module_test.c **** --------------------------------------------------------------- */
 106:Src/module_test.c **** void data_read(void)
 107:Src/module_test.c **** {
 319              		.loc 1 107 1 is_stmt 1 view -0
 320              		.cfi_startproc
 321              		@ args = 0, pretend = 0, frame = 0
 322              		@ frame_needed = 0, uses_anonymous_args = 0
 323 0000 70B5     		push	{r4, r5, r6, lr}
 324              	.LCFI1:
 325              		.cfi_def_cfa_offset 16
 326              		.cfi_offset 4, -16
 327              		.cfi_offset 5, -12
 328              		.cfi_offset 6, -8
 329              		.cfi_offset 14, -4
 108:Src/module_test.c **** 
 109:Src/module_test.c **** 	uint16_t i = 0;
 330              		.loc 1 109 2 view .LVU95
 331              	.LVL30:
 110:Src/module_test.c **** 	uint16_t j = 0;
 332              		.loc 1 110 2 view .LVU96
 111:Src/module_test.c **** 
 112:Src/module_test.c **** 	j =  log_count_lim / log_count_step - 1 ;
 333              		.loc 1 112 2 view .LVU97
 113:Src/module_test.c **** 
 114:Src/module_test.c **** 	//printfã§ä¸€è¡Œã¥ã¤æ›¸ãå‡ºã—ã¦ã„ãã€‚
 115:Src/module_test.c **** 	//m ä¸€è¡Œç›®ã¯ãƒ‘ãƒ©ãƒ¡ãƒ¼ã‚¿å
 116:Src/module_test.c **** 
 117:Src/module_test.c **** //	printf ("TIME[ms],target_distance[m],ideal_distance[m],current_distance[m],TARGET_SPEED_m[m/s],S
 118:Src/module_test.c **** 	printf ("TIME[ms],target_distance[m],ideal_distance[m],current_distance[m],TARGET_SPEED_m[m/s],SPE
 334              		.loc 1 118 2 view .LVU98
 335 0002 6648     		ldr	r0, .L16
 336 0004 FFF7FEFF 		bl	printf
 337              	.LVL31:
 119:Src/module_test.c **** 			"accel_m[m/s2],accel_m_ave[m/s2],target_angle[rad],ideal_angle[rad],current_angle[rad],target_sp
 120:Src/module_test.c **** 			"speed_w[rad/s],DUTY_R[%%],Duty_L[%%],front_r,front_l,side_r,side_l,front_r[m],front_l[m],V_batt
 121:Src/module_test.c **** 
 122:Src/module_test.c **** 	for(i = 0; i <= j ; i++)
 338              		.loc 1 122 2 view .LVU99
 339              		.loc 1 122 8 is_stmt 0 view .LVU100
 340 0008 0026     		movs	r6, #0
 341              	.LVL32:
 342              	.L12:
 343              		.loc 1 122 13 is_stmt 1 discriminator 1 view .LVU101
 344              		.loc 1 122 2 is_stmt 0 discriminator 1 view .LVU102
 345 000a B6F57A7F 		cmp	r6, #1000
 346 000e 80F0C380 		bcs	.L15
 123:Src/module_test.c **** 	{
ARM GAS  C:\Temp\ccwak6Tu.s 			page 11


 124:Src/module_test.c **** 		printf("%f,",log_store[i].time);
 347              		.loc 1 124 3 is_stmt 1 discriminator 3 view .LVU103
 348              		.loc 1 124 28 is_stmt 0 discriminator 3 view .LVU104
 349 0012 634B     		ldr	r3, .L16+4
 350 0014 5C24     		movs	r4, #92
 351 0016 04FB0634 		mla	r4, r4, r6, r3
 352              		.loc 1 124 3 discriminator 3 view .LVU105
 353 001a 2068     		ldr	r0, [r4]	@ float
 354 001c FFF7FEFF 		bl	__aeabi_f2d
 355              	.LVL33:
 356 0020 0246     		mov	r2, r0
 357 0022 0B46     		mov	r3, r1
 358 0024 5F4D     		ldr	r5, .L16+8
 359 0026 2846     		mov	r0, r5
 360 0028 FFF7FEFF 		bl	printf
 361              	.LVL34:
 125:Src/module_test.c **** 		printf("%f,",log_store[i].target_d_m);
 362              		.loc 1 125 3 is_stmt 1 discriminator 3 view .LVU106
 363 002c 6068     		ldr	r0, [r4, #4]	@ float
 364 002e FFF7FEFF 		bl	__aeabi_f2d
 365              	.LVL35:
 366 0032 0246     		mov	r2, r0
 367 0034 0B46     		mov	r3, r1
 368 0036 2846     		mov	r0, r5
 369 0038 FFF7FEFF 		bl	printf
 370              	.LVL36:
 126:Src/module_test.c **** 		printf("%f,",log_store[i].ideal_d_m);
 371              		.loc 1 126 3 discriminator 3 view .LVU107
 372 003c A068     		ldr	r0, [r4, #8]	@ float
 373 003e FFF7FEFF 		bl	__aeabi_f2d
 374              	.LVL37:
 375 0042 0246     		mov	r2, r0
 376 0044 0B46     		mov	r3, r1
 377 0046 2846     		mov	r0, r5
 378 0048 FFF7FEFF 		bl	printf
 379              	.LVL38:
 127:Src/module_test.c **** 		printf("%f,",log_store[i].real_d_m);
 380              		.loc 1 127 3 discriminator 3 view .LVU108
 381 004c E068     		ldr	r0, [r4, #12]	@ float
 382 004e FFF7FEFF 		bl	__aeabi_f2d
 383              	.LVL39:
 384 0052 0246     		mov	r2, r0
 385 0054 0B46     		mov	r3, r1
 386 0056 2846     		mov	r0, r5
 387 0058 FFF7FEFF 		bl	printf
 388              	.LVL40:
 128:Src/module_test.c **** 		printf("%f,",log_store[i].target_speed_m);
 389              		.loc 1 128 3 discriminator 3 view .LVU109
 390 005c 2069     		ldr	r0, [r4, #16]	@ float
 391 005e FFF7FEFF 		bl	__aeabi_f2d
 392              	.LVL41:
 393 0062 0246     		mov	r2, r0
 394 0064 0B46     		mov	r3, r1
 395 0066 2846     		mov	r0, r5
 396 0068 FFF7FEFF 		bl	printf
 397              	.LVL42:
 129:Src/module_test.c **** 		printf("%f,",log_store[i].speed_m);
ARM GAS  C:\Temp\ccwak6Tu.s 			page 12


 398              		.loc 1 129 3 discriminator 3 view .LVU110
 399 006c 6069     		ldr	r0, [r4, #20]	@ float
 400 006e FFF7FEFF 		bl	__aeabi_f2d
 401              	.LVL43:
 402 0072 0246     		mov	r2, r0
 403 0074 0B46     		mov	r3, r1
 404 0076 2846     		mov	r0, r5
 405 0078 FFF7FEFF 		bl	printf
 406              	.LVL44:
 130:Src/module_test.c **** 		printf("%f,",log_store[i].speed_m_ave);
 407              		.loc 1 130 3 discriminator 3 view .LVU111
 408 007c A069     		ldr	r0, [r4, #24]	@ float
 409 007e FFF7FEFF 		bl	__aeabi_f2d
 410              	.LVL45:
 411 0082 0246     		mov	r2, r0
 412 0084 0B46     		mov	r3, r1
 413 0086 2846     		mov	r0, r5
 414 0088 FFF7FEFF 		bl	printf
 415              	.LVL46:
 131:Src/module_test.c **** 		printf("%f,",log_store[i].accel_m);
 416              		.loc 1 131 3 discriminator 3 view .LVU112
 417 008c E069     		ldr	r0, [r4, #28]	@ float
 418 008e FFF7FEFF 		bl	__aeabi_f2d
 419              	.LVL47:
 420 0092 0246     		mov	r2, r0
 421 0094 0B46     		mov	r3, r1
 422 0096 2846     		mov	r0, r5
 423 0098 FFF7FEFF 		bl	printf
 424              	.LVL48:
 132:Src/module_test.c **** 		printf("%f,",log_store[i].accel_m_ave);
 425              		.loc 1 132 3 discriminator 3 view .LVU113
 426 009c 206A     		ldr	r0, [r4, #32]	@ float
 427 009e FFF7FEFF 		bl	__aeabi_f2d
 428              	.LVL49:
 429 00a2 0246     		mov	r2, r0
 430 00a4 0B46     		mov	r3, r1
 431 00a6 2846     		mov	r0, r5
 432 00a8 FFF7FEFF 		bl	printf
 433              	.LVL50:
 133:Src/module_test.c **** 		printf("%f,",log_store[i].target_d_w);
 434              		.loc 1 133 3 discriminator 3 view .LVU114
 435 00ac 606A     		ldr	r0, [r4, #36]	@ float
 436 00ae FFF7FEFF 		bl	__aeabi_f2d
 437              	.LVL51:
 438 00b2 0246     		mov	r2, r0
 439 00b4 0B46     		mov	r3, r1
 440 00b6 2846     		mov	r0, r5
 441 00b8 FFF7FEFF 		bl	printf
 442              	.LVL52:
 134:Src/module_test.c **** 		printf("%f,",log_store[i].ideal_d_w);
 443              		.loc 1 134 3 discriminator 3 view .LVU115
 444 00bc A06A     		ldr	r0, [r4, #40]	@ float
 445 00be FFF7FEFF 		bl	__aeabi_f2d
 446              	.LVL53:
 447 00c2 0246     		mov	r2, r0
 448 00c4 0B46     		mov	r3, r1
 449 00c6 2846     		mov	r0, r5
ARM GAS  C:\Temp\ccwak6Tu.s 			page 13


 450 00c8 FFF7FEFF 		bl	printf
 451              	.LVL54:
 135:Src/module_test.c **** 		printf("%f,",log_store[i].real_d_w);
 452              		.loc 1 135 3 discriminator 3 view .LVU116
 453 00cc E06A     		ldr	r0, [r4, #44]	@ float
 454 00ce FFF7FEFF 		bl	__aeabi_f2d
 455              	.LVL55:
 456 00d2 0246     		mov	r2, r0
 457 00d4 0B46     		mov	r3, r1
 458 00d6 2846     		mov	r0, r5
 459 00d8 FFF7FEFF 		bl	printf
 460              	.LVL56:
 136:Src/module_test.c **** 		printf("%f,",log_store[i].target_speed_w);
 461              		.loc 1 136 3 discriminator 3 view .LVU117
 462 00dc 206B     		ldr	r0, [r4, #48]	@ float
 463 00de FFF7FEFF 		bl	__aeabi_f2d
 464              	.LVL57:
 465 00e2 0246     		mov	r2, r0
 466 00e4 0B46     		mov	r3, r1
 467 00e6 2846     		mov	r0, r5
 468 00e8 FFF7FEFF 		bl	printf
 469              	.LVL58:
 137:Src/module_test.c **** 		printf("%f,",log_store[i].speed_w);
 470              		.loc 1 137 3 discriminator 3 view .LVU118
 471 00ec 606B     		ldr	r0, [r4, #52]	@ float
 472 00ee FFF7FEFF 		bl	__aeabi_f2d
 473              	.LVL59:
 474 00f2 0246     		mov	r2, r0
 475 00f4 0B46     		mov	r3, r1
 476 00f6 2846     		mov	r0, r5
 477 00f8 FFF7FEFF 		bl	printf
 478              	.LVL60:
 138:Src/module_test.c **** 		printf("%f,",log_store[i].duty_r);
 479              		.loc 1 138 3 discriminator 3 view .LVU119
 480 00fc A06B     		ldr	r0, [r4, #56]	@ float
 481 00fe FFF7FEFF 		bl	__aeabi_f2d
 482              	.LVL61:
 483 0102 0246     		mov	r2, r0
 484 0104 0B46     		mov	r3, r1
 485 0106 2846     		mov	r0, r5
 486 0108 FFF7FEFF 		bl	printf
 487              	.LVL62:
 139:Src/module_test.c **** 		printf("%f,",log_store[i].duty_l);
 488              		.loc 1 139 3 discriminator 3 view .LVU120
 489 010c E06B     		ldr	r0, [r4, #60]	@ float
 490 010e FFF7FEFF 		bl	__aeabi_f2d
 491              	.LVL63:
 492 0112 0246     		mov	r2, r0
 493 0114 0B46     		mov	r3, r1
 494 0116 2846     		mov	r0, r5
 495 0118 FFF7FEFF 		bl	printf
 496              	.LVL64:
 140:Src/module_test.c **** 		printf("%f,",log_store[i].front_sensor_r);
 497              		.loc 1 140 3 discriminator 3 view .LVU121
 498 011c 206C     		ldr	r0, [r4, #64]	@ float
 499 011e FFF7FEFF 		bl	__aeabi_f2d
 500              	.LVL65:
ARM GAS  C:\Temp\ccwak6Tu.s 			page 14


 501 0122 0246     		mov	r2, r0
 502 0124 0B46     		mov	r3, r1
 503 0126 2846     		mov	r0, r5
 504 0128 FFF7FEFF 		bl	printf
 505              	.LVL66:
 141:Src/module_test.c **** 		printf("%f,",log_store[i].front_sensor_l);
 506              		.loc 1 141 3 discriminator 3 view .LVU122
 507 012c 606C     		ldr	r0, [r4, #68]	@ float
 508 012e FFF7FEFF 		bl	__aeabi_f2d
 509              	.LVL67:
 510 0132 0246     		mov	r2, r0
 511 0134 0B46     		mov	r3, r1
 512 0136 2846     		mov	r0, r5
 513 0138 FFF7FEFF 		bl	printf
 514              	.LVL68:
 142:Src/module_test.c **** 		printf("%f,",log_store[i].side_sensor_r);
 515              		.loc 1 142 3 discriminator 3 view .LVU123
 516 013c A06C     		ldr	r0, [r4, #72]	@ float
 517 013e FFF7FEFF 		bl	__aeabi_f2d
 518              	.LVL69:
 519 0142 0246     		mov	r2, r0
 520 0144 0B46     		mov	r3, r1
 521 0146 2846     		mov	r0, r5
 522 0148 FFF7FEFF 		bl	printf
 523              	.LVL70:
 143:Src/module_test.c **** 		printf("%f,",log_store[i].side_sensor_l);
 524              		.loc 1 143 3 discriminator 3 view .LVU124
 525 014c E06C     		ldr	r0, [r4, #76]	@ float
 526 014e FFF7FEFF 		bl	__aeabi_f2d
 527              	.LVL71:
 528 0152 0246     		mov	r2, r0
 529 0154 0B46     		mov	r3, r1
 530 0156 2846     		mov	r0, r5
 531 0158 FFF7FEFF 		bl	printf
 532              	.LVL72:
 144:Src/module_test.c **** 		printf("%f,",log_store[i].front_r);
 533              		.loc 1 144 3 discriminator 3 view .LVU125
 534 015c 206D     		ldr	r0, [r4, #80]	@ float
 535 015e FFF7FEFF 		bl	__aeabi_f2d
 536              	.LVL73:
 537 0162 0246     		mov	r2, r0
 538 0164 0B46     		mov	r3, r1
 539 0166 2846     		mov	r0, r5
 540 0168 FFF7FEFF 		bl	printf
 541              	.LVL74:
 145:Src/module_test.c **** 		printf("%f,",log_store[i].front_l);
 542              		.loc 1 145 3 discriminator 3 view .LVU126
 543 016c 606D     		ldr	r0, [r4, #84]	@ float
 544 016e FFF7FEFF 		bl	__aeabi_f2d
 545              	.LVL75:
 546 0172 0246     		mov	r2, r0
 547 0174 0B46     		mov	r3, r1
 548 0176 2846     		mov	r0, r5
 549 0178 FFF7FEFF 		bl	printf
 550              	.LVL76:
 146:Src/module_test.c **** 		printf("%f",log_store[i].V_battery);			//m æœ€å¾Œã¯ã‚«ãƒ³ãƒãªã—
 551              		.loc 1 146 3 discriminator 3 view .LVU127
ARM GAS  C:\Temp\ccwak6Tu.s 			page 15


 552 017c A06D     		ldr	r0, [r4, #88]	@ float
 553 017e FFF7FEFF 		bl	__aeabi_f2d
 554              	.LVL77:
 555 0182 0246     		mov	r2, r0
 556 0184 0B46     		mov	r3, r1
 557 0186 0848     		ldr	r0, .L16+12
 558 0188 FFF7FEFF 		bl	printf
 559              	.LVL78:
 147:Src/module_test.c **** 		printf("\r\n"); //m æ”¹è¡Œ
 560              		.loc 1 147 3 discriminator 3 view .LVU128
 561 018c 0748     		ldr	r0, .L16+16
 562 018e FFF7FEFF 		bl	puts
 563              	.LVL79:
 122:Src/module_test.c **** 	{
 564              		.loc 1 122 22 discriminator 3 view .LVU129
 122:Src/module_test.c **** 	{
 565              		.loc 1 122 23 is_stmt 0 discriminator 3 view .LVU130
 566 0192 0136     		adds	r6, r6, #1
 567              	.LVL80:
 122:Src/module_test.c **** 	{
 568              		.loc 1 122 23 discriminator 3 view .LVU131
 569 0194 B6B2     		uxth	r6, r6
 570              	.LVL81:
 122:Src/module_test.c **** 	{
 571              		.loc 1 122 23 discriminator 3 view .LVU132
 572 0196 38E7     		b	.L12
 573              	.L15:
 148:Src/module_test.c **** 
 149:Src/module_test.c **** 	}
 150:Src/module_test.c **** 
 151:Src/module_test.c **** }
 574              		.loc 1 151 1 view .LVU133
 575 0198 70BD     		pop	{r4, r5, r6, pc}
 576              	.LVL82:
 577              	.L17:
 578              		.loc 1 151 1 view .LVU134
 579 019a 00BF     		.align	2
 580              	.L16:
 581 019c 00000000 		.word	.LC0
 582 01a0 00000000 		.word	log_store
 583 01a4 48010000 		.word	.LC1
 584 01a8 4C010000 		.word	.LC2
 585 01ac 50010000 		.word	.LC3
 586              		.cfi_endproc
 587              	.LFE135:
 589              		.section	.rodata.module_test.str1.4,"aMS",%progbits,1
 590              		.align	2
 591              	.LC4:
 592 0000 3C426F6F 		.ascii	"<Boot Time> %8.3f[s]\015\012\000"
 592      74205469 
 592      6D653E20 
 592      25382E33 
 592      665B735D 
 593 0017 00       		.align	2
 594              	.LC5:
 595 0018 3C496E74 		.ascii	"<Interrupt> %3.1f[%%] (MAX : %3.1f[%%])\015\012\000"
 595      65727275 
ARM GAS  C:\Temp\ccwak6Tu.s 			page 16


 595      70743E20 
 595      25332E31 
 595      665B2525 
 596 0042 0000     		.align	2
 597              	.LC6:
 598 0044 3C50574D 		.ascii	"<PWM Duty> L: %4.1f[%%],  R: %4.1f[%%]\015\012\000"
 598      20447574 
 598      793E204C 
 598      3A202534 
 598      2E31665B 
 599 006d 000000   		.align	2
 600              	.LC7:
 601 0070 3C456E63 		.ascii	"<Encoder> L: %5.1f[deg],  R: %5.1f[deg]\015\012\000"
 601      6F646572 
 601      3E204C3A 
 601      2025352E 
 601      31665B64 
 602 009a 0000     		.align	2
 603              	.LC8:
 604 009c 3C6D6F75 		.ascii	"<mouse_speed> speed_m : %5.3f[m/s]  spwwd_w : %5.3f"
 604      73655F73 
 604      70656564 
 604      3E207370 
 604      6565645F 
 605 00cf 5B6D2F73 		.ascii	"[m/s] \015\012 \000"
 605      5D200D0A 
 605      2000
 606 00d9 000000   		.align	2
 607              	.LC9:
 608 00dc 3C426174 		.ascii	"<Battery> %3.2f[V]\015\012\000"
 608      74657279 
 608      3E202533 
 608      2E32665B 
 608      565D0D0A 
 609 00f1 000000   		.align	2
 610              	.LC10:
 611 00f4 3C495220 		.ascii	"<IR Sensor> Front_R: %4d, Side_R: %4d, Side_L: %4d,"
 611      53656E73 
 611      6F723E20 
 611      46726F6E 
 611      745F523A 
 612 0127 2046726F 		.ascii	" Front_L: %4d\015\012\000"
 612      6E745F4C 
 612      3A202534 
 612      640D0A00 
 613 0137 00       		.align	2
 614              	.LC11:
 615 0138 3C495220 		.ascii	"<IR Sensor_length> Front_R: %8.8f, Front_L: %8.8f\015"
 615      53656E73 
 615      6F725F6C 
 615      656E6774 
 615      683E2046 
 616 016a 0A00     		.ascii	"\012\000"
 617              		.align	2
 618              	.LC12:
 619 016c 3C494D55 		.ascii	"<IMU> Accel_X: %5.3f[m/s^2], Gyro_Z: %6.3f[rad/s]\015"
 619      3E204163 
ARM GAS  C:\Temp\ccwak6Tu.s 			page 17


 619      63656C5F 
 619      583A2025 
 619      352E3366 
 620 019e 0A00     		.ascii	"\012\000"
 621              		.global	__aeabi_dsub
 622              		.global	__aeabi_dcmplt
 623              		.align	2
 624              	.LC13:
 625 01a0 66726F6E 		.ascii	"front_sensor_ref - real, r: %5.8f  l: %5.8f \015\012"
 625      745F7365 
 625      6E736F72 
 625      5F726566 
 625      202D2072 
 626 01ce 00       		.ascii	"\000"
 627 01cf 00       		.align	2
 628              	.LC14:
 629 01d0 25635B30 		.ascii	"%c[0J\000"
 629      4A00
 630 01d6 0000     		.align	2
 631              	.LC15:
 632 01d8 25635B25 		.ascii	"%c[%dA\000"
 632      644100
 633              		.section	.text.module_test,"ax",%progbits
 634              		.align	1
 635              		.global	module_test
 636              		.syntax unified
 637              		.thumb
 638              		.thumb_func
 639              		.fpu fpv4-sp-d16
 641              	module_test:
 642              	.LFB136:
 152:Src/module_test.c **** 
 153:Src/module_test.c **** 
 154:Src/module_test.c **** 
 155:Src/module_test.c **** /* ---------------------------------------------------------------
 156:Src/module_test.c **** 	å„æ©Ÿèƒ½ã®å‹•ä½œç¢ºèªç”¨é–¢æ•°
 157:Src/module_test.c **** --------------------------------------------------------------- */
 158:Src/module_test.c **** void module_test( void )
 159:Src/module_test.c **** {
 643              		.loc 1 159 1 is_stmt 1 view -0
 644              		.cfi_startproc
 645              		@ args = 0, pretend = 0, frame = 8
 646              		@ frame_needed = 0, uses_anonymous_args = 0
 647 0000 2DE9F04F 		push	{r4, r5, r6, r7, r8, r9, r10, fp, lr}
 648              	.LCFI2:
 649              		.cfi_def_cfa_offset 36
 650              		.cfi_offset 4, -36
 651              		.cfi_offset 5, -32
 652              		.cfi_offset 6, -28
 653              		.cfi_offset 7, -24
 654              		.cfi_offset 8, -20
 655              		.cfi_offset 9, -16
 656              		.cfi_offset 10, -12
 657              		.cfi_offset 11, -8
 658              		.cfi_offset 14, -4
 659 0004 2DED028B 		vpush.64	{d8}
 660              	.LCFI3:
ARM GAS  C:\Temp\ccwak6Tu.s 			page 18


 661              		.cfi_def_cfa_offset 44
 662              		.cfi_offset 80, -44
 663              		.cfi_offset 81, -40
 664 0008 2DED02AB 		vpush.64	{d10}
 665              	.LCFI4:
 666              		.cfi_def_cfa_offset 52
 667              		.cfi_offset 84, -52
 668              		.cfi_offset 85, -48
 669 000c 85B0     		sub	sp, sp, #20
 670              	.LCFI5:
 671              		.cfi_def_cfa_offset 72
 160:Src/module_test.c **** 	uint16_t	line 	  = 0;
 672              		.loc 1 160 2 view .LVU136
 673              	.LVL83:
 161:Src/module_test.c **** 	int16_t		duty_l	  = 0;
 674              		.loc 1 161 2 view .LVU137
 162:Src/module_test.c **** 	int16_t		duty_r	  = 0;
 675              		.loc 1 162 2 view .LVU138
 163:Src/module_test.c **** 
 164:Src/module_test.c **** 	// aã‚¨ãƒ³ã‚³ãƒ¼ãƒ€ã®ã‚«ã‚¦ãƒ³ãƒˆã‚’ãƒªã‚»ãƒƒãƒˆ
 165:Src/module_test.c **** 	Encoder_ResetCount_Left();
 676              		.loc 1 165 2 view .LVU139
 677 000e FFF7FEFF 		bl	Encoder_ResetCount_Left
 678              	.LVL84:
 166:Src/module_test.c **** 	Encoder_ResetCount_Right();
 679              		.loc 1 166 2 view .LVU140
 680 0012 FFF7FEFF 		bl	Encoder_ResetCount_Right
 681              	.LVL85:
 160:Src/module_test.c **** 	int16_t		duty_l	  = 0;
 682              		.loc 1 160 11 is_stmt 0 view .LVU141
 683 0016 0024     		movs	r4, #0
 684 0018 36E0     		b	.L25
 685              	.LVL86:
 686              	.L31:
 167:Src/module_test.c **** 
 168:Src/module_test.c **** 	while( 1 ) {
 169:Src/module_test.c **** //		__disable_irq();
 170:Src/module_test.c **** 		// aå‰²ã‚Šè¾¼ã¿å‡¦ç†ç‡ã‚’è¡¨ç¤º
 171:Src/module_test.c **** 		printf("<Boot Time> %8.3f[s]\r\n", Interrupt_GetBootTime()); line++;
 172:Src/module_test.c **** 		printf("<Interrupt> %3.1f[%%] (MAX : %3.1f[%%])\r\n",
 173:Src/module_test.c **** 				(float)Interrupt_GetDuty()/10.f, (float)Interrupt_GetDuty_Max()/10.f); line++;
 174:Src/module_test.c **** 
 175:Src/module_test.c **** 		// aãƒ¢ãƒ¼ã‚¿ã‚’æŒ‡å®šã®Dutyã‚’è¡¨ç¤º
 176:Src/module_test.c **** 		printf("<PWM Duty> L: %4.1f[%%],  R: %4.1f[%%]\r\n",
 177:Src/module_test.c **** 				(float)duty_l/10.f, (float)duty_r/10.f); line++;
 178:Src/module_test.c **** 
 179:Src/module_test.c **** 		// aã‚¨ãƒ³ã‚³ãƒ¼ãƒ€ã®è§’åº¦è¡¨ç¤º
 180:Src/module_test.c **** 		printf("<Encoder> L: %5.1f[deg],  R: %5.1f[deg]\r\n",
 181:Src/module_test.c **** 				RAD2DEG(Encoder_GetAngle_Left()), RAD2DEG(Encoder_GetAngle_Right())); line++;
 182:Src/module_test.c **** 
 183:Src/module_test.c **** 		// aãƒã‚¦ã‚¹ã®ã‚¹ãƒ”ãƒ¼ãƒ‰è¡¨ç¤º from encoder
 184:Src/module_test.c **** 		printf("<mouse_speed> speed_m : %5.3f[m/s]  spwwd_w : %5.3f[m/s] \r\n ",
 185:Src/module_test.c **** 				get_move_speed(),IMU_GetGyro_Z());line++;
 186:Src/module_test.c **** 
 187:Src/module_test.c **** 		// aãƒãƒƒãƒ†ãƒªãƒ¼é›»åœ§ã®è¡¨ç¤º
 188:Src/module_test.c **** 		printf("<Battery> %3.2f[V]\r\n", Battery_GetVoltage()); line++;
 189:Src/module_test.c **** 
ARM GAS  C:\Temp\ccwak6Tu.s 			page 19


 190:Src/module_test.c **** 		// aå£ã‚»ãƒ³ã‚µã®ADå€¤è¡¨ç¤º
 191:Src/module_test.c **** 		printf("<IR Sensor> Front_R: %4d, Side_R: %4d, Side_L: %4d, Front_L: %4d\r\n",
 192:Src/module_test.c **** 				Sensor_GetValue(3), Sensor_GetValue(2), Sensor_GetValue(1), Sensor_GetValue(0)); line++;
 193:Src/module_test.c **** 		Sensor_DebugPrintf();line++;
 194:Src/module_test.c **** 
 195:Src/module_test.c **** 		//å£ã‚»ãƒ³ã‚µã®è·é›¢å¤‰æ›çµæœç¢ºèª
 196:Src/module_test.c **** 		printf("<IR Sensor_length> Front_R: %8.8f, Front_L: %8.8f\r\n",
 197:Src/module_test.c **** 				SensorValue2length(3),SensorValue2length(0)); line++;
 198:Src/module_test.c **** 		// IMUï¼ˆåŠ é€Ÿåº¦è¨ˆã¨ã‚¸ãƒ£ã‚¤ãƒ­ï¼‰ã®è¨ˆæ¸¬å€¤è¡¨ç¤º
 199:Src/module_test.c **** 		printf("<IMU> Accel_X: %5.3f[m/s^2], Gyro_Z: %6.3f[rad/s]\r\n",
 200:Src/module_test.c **** 				IMU_GetAccel_X(), IMU_GetGyro_Z()); line++;
 201:Src/module_test.c **** 		// aå£ã‚»ãƒ³ã‚µç”¨ã‚¿ã‚¤ãƒ
 202:Src/module_test.c **** 		// printf("<IR Sensor_tim> tim: %5.8f\r\n",ABS(front_sensor_ref - SensorValue2length(3)) );line++
 203:Src/module_test.c **** 		// å£ã‚»ãƒ³ã‚µ
 204:Src/module_test.c **** 		printf("front_sensor_ref - real, r: %5.8f  l: %5.8f \r\n",ABS(front_sensor_r_ref - SensorValue2le
 687              		.loc 1 204 61 discriminator 1 view .LVU142
 688 001a 0320     		movs	r0, #3
 689 001c FFF7FEFF 		bl	SensorValue2length
 690              	.LVL87:
 691 0020 53EC102B 		vmov	r2, r3, d0
 692 0024 94A1     		adr	r1, .L33
 693 0026 D1E90001 		ldrd	r0, [r1]
 694 002a FFF7FEFF 		bl	__aeabi_dsub
 695              	.LVL88:
 696              		.loc 1 204 3 discriminator 1 view .LVU143
 697 002e 0290     		str	r0, [sp, #8]
 698 0030 01F10043 		add	r3, r1, #-2147483648
 699 0034 0393     		str	r3, [sp, #12]
 700 0036 FEE0     		b	.L21
 701              	.L32:
 702              		.loc 1 204 109 discriminator 5 view .LVU144
 703 0038 0020     		movs	r0, #0
 704 003a FFF7FEFF 		bl	SensorValue2length
 705              	.LVL89:
 706 003e 53EC102B 		vmov	r2, r3, d0
 707 0042 8FA1     		adr	r1, .L33+8
 708 0044 D1E90001 		ldrd	r0, [r1]
 709 0048 FFF7FEFF 		bl	__aeabi_dsub
 710              	.LVL90:
 711              		.loc 1 204 3 discriminator 5 view .LVU145
 712 004c 8046     		mov	r8, r0
 713 004e 01F10049 		add	r9, r1, #-2147483648
 714              	.L24:
 715              		.loc 1 204 3 discriminator 8 view .LVU146
 716 0052 CDE90089 		strd	r8, [sp]
 717 0056 DDE90223 		ldrd	r2, [sp, #8]
 718 005a 8B48     		ldr	r0, .L33+16
 719 005c FFF7FEFF 		bl	printf
 720              	.LVL91:
 721              		.loc 1 204 159 is_stmt 1 discriminator 8 view .LVU147
 722              		.loc 1 204 163 is_stmt 0 discriminator 8 view .LVU148
 723 0060 0B34     		adds	r4, r4, #11
 724              	.LVL92:
 725              		.loc 1 204 163 discriminator 8 view .LVU149
 726 0062 A4B2     		uxth	r4, r4
 727              	.LVL93:
 205:Src/module_test.c **** 
ARM GAS  C:\Temp\ccwak6Tu.s 			page 20


 206:Src/module_test.c **** 		fflush(stdout);
 728              		.loc 1 206 3 is_stmt 1 discriminator 8 view .LVU150
 729              		.loc 1 206 10 is_stmt 0 discriminator 8 view .LVU151
 730 0064 894B     		ldr	r3, .L33+20
 731 0066 1B68     		ldr	r3, [r3]
 732              		.loc 1 206 3 discriminator 8 view .LVU152
 733 0068 9868     		ldr	r0, [r3, #8]
 734 006a FFF7FEFF 		bl	fflush
 735              	.LVL94:
 207:Src/module_test.c **** 		HAL_Delay(500);
 736              		.loc 1 207 3 is_stmt 1 discriminator 8 view .LVU153
 737 006e 4FF4FA70 		mov	r0, #500
 738 0072 FFF7FEFF 		bl	HAL_Delay
 739              	.LVL95:
 208:Src/module_test.c **** 		// aç”»é¢ã®ã‚¯ãƒªã‚¢
 209:Src/module_test.c **** 		printf("%c[0J", 0x1b);
 740              		.loc 1 209 3 discriminator 8 view .LVU154
 741 0076 1B21     		movs	r1, #27
 742 0078 8548     		ldr	r0, .L33+24
 743 007a FFF7FEFF 		bl	printf
 744              	.LVL96:
 210:Src/module_test.c **** 		printf("%c[%dA", 0x1b, line);
 745              		.loc 1 210 3 discriminator 8 view .LVU155
 746 007e 2246     		mov	r2, r4
 747 0080 1B21     		movs	r1, #27
 748 0082 8448     		ldr	r0, .L33+28
 749 0084 FFF7FEFF 		bl	printf
 750              	.LVL97:
 168:Src/module_test.c **** //		__disable_irq();
 751              		.loc 1 168 7 discriminator 8 view .LVU156
 752              	.L25:
 168:Src/module_test.c **** //		__disable_irq();
 753              		.loc 1 168 2 view .LVU157
 171:Src/module_test.c **** 		printf("<Interrupt> %3.1f[%%] (MAX : %3.1f[%%])\r\n",
 754              		.loc 1 171 3 view .LVU158
 171:Src/module_test.c **** 		printf("<Interrupt> %3.1f[%%] (MAX : %3.1f[%%])\r\n",
 755              		.loc 1 171 38 is_stmt 0 view .LVU159
 756 0088 FFF7FEFF 		bl	Interrupt_GetBootTime
 757              	.LVL98:
 758 008c 10EE100A 		vmov	r0, s0
 171:Src/module_test.c **** 		printf("<Interrupt> %3.1f[%%] (MAX : %3.1f[%%])\r\n",
 759              		.loc 1 171 3 view .LVU160
 760 0090 FFF7FEFF 		bl	__aeabi_f2d
 761              	.LVL99:
 762 0094 0246     		mov	r2, r0
 763 0096 0B46     		mov	r3, r1
 764 0098 7F48     		ldr	r0, .L33+32
 765 009a FFF7FEFF 		bl	printf
 766              	.LVL100:
 171:Src/module_test.c **** 		printf("<Interrupt> %3.1f[%%] (MAX : %3.1f[%%])\r\n",
 767              		.loc 1 171 64 is_stmt 1 view .LVU161
 172:Src/module_test.c **** 				(float)Interrupt_GetDuty()/10.f, (float)Interrupt_GetDuty_Max()/10.f); line++;
 768              		.loc 1 172 3 view .LVU162
 173:Src/module_test.c **** 
 769              		.loc 1 173 12 is_stmt 0 view .LVU163
 770 009e FFF7FEFF 		bl	Interrupt_GetDuty
 771              	.LVL101:
ARM GAS  C:\Temp\ccwak6Tu.s 			page 21


 772 00a2 07EE900A 		vmov	s15, r0	@ int
 173:Src/module_test.c **** 
 773              		.loc 1 173 5 view .LVU164
 774 00a6 F8EE677A 		vcvt.f32.u32	s15, s15
 173:Src/module_test.c **** 
 775              		.loc 1 173 31 view .LVU165
 776 00aa B2EE048A 		vmov.f32	s16, #1.0e+1
 777 00ae 87EE88AA 		vdiv.f32	s20, s15, s16
 173:Src/module_test.c **** 
 778              		.loc 1 173 45 view .LVU166
 779 00b2 FFF7FEFF 		bl	Interrupt_GetDuty_Max
 780              	.LVL102:
 781 00b6 07EE900A 		vmov	s15, r0	@ int
 173:Src/module_test.c **** 
 782              		.loc 1 173 38 view .LVU167
 783 00ba F8EE677A 		vcvt.f32.u32	s15, s15
 173:Src/module_test.c **** 
 784              		.loc 1 173 68 view .LVU168
 785 00be C7EE888A 		vdiv.f32	s17, s15, s16
 172:Src/module_test.c **** 				(float)Interrupt_GetDuty()/10.f, (float)Interrupt_GetDuty_Max()/10.f); line++;
 786              		.loc 1 172 3 view .LVU169
 787 00c2 1AEE100A 		vmov	r0, s20
 788 00c6 FFF7FEFF 		bl	__aeabi_f2d
 789              	.LVL103:
 790 00ca 0646     		mov	r6, r0
 791 00cc 0F46     		mov	r7, r1
 792 00ce 18EE900A 		vmov	r0, s17
 793 00d2 FFF7FEFF 		bl	__aeabi_f2d
 794              	.LVL104:
 795 00d6 CDE90001 		strd	r0, [sp]
 796 00da 3246     		mov	r2, r6
 797 00dc 3B46     		mov	r3, r7
 798 00de 6F48     		ldr	r0, .L33+36
 799 00e0 FFF7FEFF 		bl	printf
 800              	.LVL105:
 173:Src/module_test.c **** 
 801              		.loc 1 173 76 is_stmt 1 view .LVU170
 176:Src/module_test.c **** 				(float)duty_l/10.f, (float)duty_r/10.f); line++;
 802              		.loc 1 176 3 view .LVU171
 803 00e4 4FF0000A 		mov	r10, #0
 804 00e8 4FF0000B 		mov	fp, #0
 805 00ec CDE900AB 		strd	r10, [sp]
 806 00f0 5246     		mov	r2, r10
 807 00f2 5B46     		mov	r3, fp
 808 00f4 6A48     		ldr	r0, .L33+40
 809 00f6 FFF7FEFF 		bl	printf
 810              	.LVL106:
 177:Src/module_test.c **** 
 811              		.loc 1 177 46 view .LVU172
 180:Src/module_test.c **** 				RAD2DEG(Encoder_GetAngle_Left()), RAD2DEG(Encoder_GetAngle_Right())); line++;
 812              		.loc 1 180 3 view .LVU173
 181:Src/module_test.c **** 
 813              		.loc 1 181 5 is_stmt 0 view .LVU174
 814 00fa FFF7FEFF 		bl	Encoder_GetAngle_Left
 815              	.LVL107:
 816 00fe DFED69AA 		vldr.32	s21, .L33+44
 817 0102 C0EE2A8A 		vdiv.f32	s17, s0, s21
ARM GAS  C:\Temp\ccwak6Tu.s 			page 22


 818 0106 9FED68AA 		vldr.32	s20, .L33+48
 819 010a 68EE8A8A 		vmul.f32	s17, s17, s20
 181:Src/module_test.c **** 
 820              		.loc 1 181 39 view .LVU175
 821 010e FFF7FEFF 		bl	Encoder_GetAngle_Right
 822              	.LVL108:
 823 0112 80EE2A8A 		vdiv.f32	s16, s0, s21
 824 0116 28EE0A8A 		vmul.f32	s16, s16, s20
 180:Src/module_test.c **** 				RAD2DEG(Encoder_GetAngle_Left()), RAD2DEG(Encoder_GetAngle_Right())); line++;
 825              		.loc 1 180 3 view .LVU176
 826 011a 18EE900A 		vmov	r0, s17
 827 011e FFF7FEFF 		bl	__aeabi_f2d
 828              	.LVL109:
 829 0122 0646     		mov	r6, r0
 830 0124 0F46     		mov	r7, r1
 831 0126 18EE100A 		vmov	r0, s16
 832 012a FFF7FEFF 		bl	__aeabi_f2d
 833              	.LVL110:
 834 012e CDE90001 		strd	r0, [sp]
 835 0132 3246     		mov	r2, r6
 836 0134 3B46     		mov	r3, r7
 837 0136 5D48     		ldr	r0, .L33+52
 838 0138 FFF7FEFF 		bl	printf
 839              	.LVL111:
 181:Src/module_test.c **** 
 840              		.loc 1 181 75 is_stmt 1 view .LVU177
 184:Src/module_test.c **** 				get_move_speed(),IMU_GetGyro_Z());line++;
 841              		.loc 1 184 3 view .LVU178
 185:Src/module_test.c **** 
 842              		.loc 1 185 5 is_stmt 0 view .LVU179
 843 013c FFF7FEFF 		bl	get_move_speed
 844              	.LVL112:
 845 0140 10EE106A 		vmov	r6, s0
 185:Src/module_test.c **** 
 846              		.loc 1 185 22 view .LVU180
 847 0144 FFF7FEFF 		bl	IMU_GetGyro_Z
 848              	.LVL113:
 849 0148 10EE105A 		vmov	r5, s0
 184:Src/module_test.c **** 				get_move_speed(),IMU_GetGyro_Z());line++;
 850              		.loc 1 184 3 view .LVU181
 851 014c 3046     		mov	r0, r6	@ float
 852 014e FFF7FEFF 		bl	__aeabi_f2d
 853              	.LVL114:
 854 0152 0646     		mov	r6, r0
 855 0154 0F46     		mov	r7, r1
 856 0156 2846     		mov	r0, r5	@ float
 857 0158 FFF7FEFF 		bl	__aeabi_f2d
 858              	.LVL115:
 859 015c CDE90001 		strd	r0, [sp]
 860 0160 3246     		mov	r2, r6
 861 0162 3B46     		mov	r3, r7
 862 0164 5248     		ldr	r0, .L33+56
 863 0166 FFF7FEFF 		bl	printf
 864              	.LVL116:
 185:Src/module_test.c **** 
 865              		.loc 1 185 39 is_stmt 1 view .LVU182
 188:Src/module_test.c **** 
ARM GAS  C:\Temp\ccwak6Tu.s 			page 23


 866              		.loc 1 188 3 view .LVU183
 188:Src/module_test.c **** 
 867              		.loc 1 188 36 is_stmt 0 view .LVU184
 868 016a FFF7FEFF 		bl	Battery_GetVoltage
 869              	.LVL117:
 870 016e 10EE100A 		vmov	r0, s0
 188:Src/module_test.c **** 
 871              		.loc 1 188 3 view .LVU185
 872 0172 FFF7FEFF 		bl	__aeabi_f2d
 873              	.LVL118:
 874 0176 0246     		mov	r2, r0
 875 0178 0B46     		mov	r3, r1
 876 017a 4E48     		ldr	r0, .L33+60
 877 017c FFF7FEFF 		bl	printf
 878              	.LVL119:
 188:Src/module_test.c **** 
 879              		.loc 1 188 59 is_stmt 1 view .LVU186
 191:Src/module_test.c **** 				Sensor_GetValue(3), Sensor_GetValue(2), Sensor_GetValue(1), Sensor_GetValue(0)); line++;
 880              		.loc 1 191 3 view .LVU187
 192:Src/module_test.c **** 		Sensor_DebugPrintf();line++;
 881              		.loc 1 192 5 is_stmt 0 view .LVU188
 882 0180 0320     		movs	r0, #3
 883 0182 FFF7FEFF 		bl	Sensor_GetValue
 884              	.LVL120:
 885 0186 0546     		mov	r5, r0
 192:Src/module_test.c **** 		Sensor_DebugPrintf();line++;
 886              		.loc 1 192 25 view .LVU189
 887 0188 0220     		movs	r0, #2
 888 018a FFF7FEFF 		bl	Sensor_GetValue
 889              	.LVL121:
 890 018e 0646     		mov	r6, r0
 192:Src/module_test.c **** 		Sensor_DebugPrintf();line++;
 891              		.loc 1 192 45 view .LVU190
 892 0190 0120     		movs	r0, #1
 893 0192 FFF7FEFF 		bl	Sensor_GetValue
 894              	.LVL122:
 895 0196 0746     		mov	r7, r0
 192:Src/module_test.c **** 		Sensor_DebugPrintf();line++;
 896              		.loc 1 192 65 view .LVU191
 897 0198 0020     		movs	r0, #0
 898 019a FFF7FEFF 		bl	Sensor_GetValue
 899              	.LVL123:
 191:Src/module_test.c **** 				Sensor_GetValue(3), Sensor_GetValue(2), Sensor_GetValue(1), Sensor_GetValue(0)); line++;
 900              		.loc 1 191 3 view .LVU192
 901 019e 0090     		str	r0, [sp]
 902 01a0 3B46     		mov	r3, r7
 903 01a2 3246     		mov	r2, r6
 904 01a4 2946     		mov	r1, r5
 905 01a6 4448     		ldr	r0, .L33+64
 906 01a8 FFF7FEFF 		bl	printf
 907              	.LVL124:
 192:Src/module_test.c **** 		Sensor_DebugPrintf();line++;
 908              		.loc 1 192 86 is_stmt 1 view .LVU193
 193:Src/module_test.c **** 
 909              		.loc 1 193 3 view .LVU194
 910 01ac FFF7FEFF 		bl	Sensor_DebugPrintf
 911              	.LVL125:
ARM GAS  C:\Temp\ccwak6Tu.s 			page 24


 193:Src/module_test.c **** 
 912              		.loc 1 193 24 view .LVU195
 196:Src/module_test.c **** 				SensorValue2length(3),SensorValue2length(0)); line++;
 913              		.loc 1 196 3 view .LVU196
 914 01b0 0320     		movs	r0, #3
 915 01b2 FFF7FEFF 		bl	SensorValue2length
 916              	.LVL126:
 917 01b6 57EC106B 		vmov	r6, r7, d0
 918 01ba 0020     		movs	r0, #0
 919 01bc FFF7FEFF 		bl	SensorValue2length
 920              	.LVL127:
 921 01c0 8DED000B 		vstr.64	d0, [sp]
 922 01c4 3246     		mov	r2, r6
 923 01c6 3B46     		mov	r3, r7
 924 01c8 3C48     		ldr	r0, .L33+68
 925 01ca FFF7FEFF 		bl	printf
 926              	.LVL128:
 197:Src/module_test.c **** 		// IMUï¼ˆåŠ é€Ÿåº¦è¨ˆã¨ã‚¸ãƒ£ã‚¤ãƒ­ï¼‰ã®è¨ˆæ¸¬å€¤è¡¨ç¤º
 927              		.loc 1 197 51 view .LVU197
 199:Src/module_test.c **** 				IMU_GetAccel_X(), IMU_GetGyro_Z()); line++;
 928              		.loc 1 199 3 view .LVU198
 200:Src/module_test.c **** 		// aå£ã‚»ãƒ³ã‚µç”¨ã‚¿ã‚¤ãƒ
 929              		.loc 1 200 5 is_stmt 0 view .LVU199
 930 01ce FFF7FEFF 		bl	IMU_GetAccel_X
 931              	.LVL129:
 932 01d2 10EE106A 		vmov	r6, s0
 200:Src/module_test.c **** 		// aå£ã‚»ãƒ³ã‚µç”¨ã‚¿ã‚¤ãƒ
 933              		.loc 1 200 23 view .LVU200
 934 01d6 FFF7FEFF 		bl	IMU_GetGyro_Z
 935              	.LVL130:
 936 01da 10EE105A 		vmov	r5, s0
 199:Src/module_test.c **** 				IMU_GetAccel_X(), IMU_GetGyro_Z()); line++;
 937              		.loc 1 199 3 view .LVU201
 938 01de 3046     		mov	r0, r6	@ float
 939 01e0 FFF7FEFF 		bl	__aeabi_f2d
 940              	.LVL131:
 941 01e4 0646     		mov	r6, r0
 942 01e6 0F46     		mov	r7, r1
 943 01e8 2846     		mov	r0, r5	@ float
 944 01ea FFF7FEFF 		bl	__aeabi_f2d
 945              	.LVL132:
 946 01ee CDE90001 		strd	r0, [sp]
 947 01f2 3246     		mov	r2, r6
 948 01f4 3B46     		mov	r3, r7
 949 01f6 3248     		ldr	r0, .L33+72
 950 01f8 FFF7FEFF 		bl	printf
 951              	.LVL133:
 200:Src/module_test.c **** 		// aå£ã‚»ãƒ³ã‚µç”¨ã‚¿ã‚¤ãƒ
 952              		.loc 1 200 41 is_stmt 1 view .LVU202
 204:Src/module_test.c **** 
 953              		.loc 1 204 3 view .LVU203
 204:Src/module_test.c **** 
 954              		.loc 1 204 61 is_stmt 0 view .LVU204
 955 01fc 0320     		movs	r0, #3
 956 01fe FFF7FEFF 		bl	SensorValue2length
 957              	.LVL134:
 958 0202 53EC102B 		vmov	r2, r3, d0
ARM GAS  C:\Temp\ccwak6Tu.s 			page 25


 959 0206 1CA1     		adr	r1, .L33
 960 0208 D1E90001 		ldrd	r0, [r1]
 961 020c FFF7FEFF 		bl	__aeabi_dsub
 962              	.LVL135:
 204:Src/module_test.c **** 
 963              		.loc 1 204 3 view .LVU205
 964 0210 5246     		mov	r2, r10
 965 0212 5B46     		mov	r3, fp
 966 0214 FFF7FEFF 		bl	__aeabi_dcmplt
 967              	.LVL136:
 968 0218 0028     		cmp	r0, #0
 969 021a 7FF4FEAE 		bne	.L31
 204:Src/module_test.c **** 
 970              		.loc 1 204 61 discriminator 2 view .LVU206
 971 021e 0320     		movs	r0, #3
 972 0220 FFF7FEFF 		bl	SensorValue2length
 973              	.LVL137:
 974 0224 53EC102B 		vmov	r2, r3, d0
 204:Src/module_test.c **** 
 975              		.loc 1 204 3 discriminator 2 view .LVU207
 976 0228 13A1     		adr	r1, .L33
 977 022a D1E90001 		ldrd	r0, [r1]
 978 022e FFF7FEFF 		bl	__aeabi_dsub
 979              	.LVL138:
 980 0232 CDE90201 		strd	r0, [sp, #8]
 981              	.L21:
 204:Src/module_test.c **** 
 982              		.loc 1 204 109 discriminator 4 view .LVU208
 983 0236 0020     		movs	r0, #0
 984 0238 FFF7FEFF 		bl	SensorValue2length
 985              	.LVL139:
 986 023c 53EC102B 		vmov	r2, r3, d0
 987 0240 0FA1     		adr	r1, .L33+8
 988 0242 D1E90001 		ldrd	r0, [r1]
 989 0246 FFF7FEFF 		bl	__aeabi_dsub
 990              	.LVL140:
 204:Src/module_test.c **** 
 991              		.loc 1 204 3 discriminator 4 view .LVU209
 992 024a 0022     		movs	r2, #0
 993 024c 0023     		movs	r3, #0
 994 024e FFF7FEFF 		bl	__aeabi_dcmplt
 995              	.LVL141:
 996 0252 0028     		cmp	r0, #0
 997 0254 7FF4F0AE 		bne	.L32
 204:Src/module_test.c **** 
 998              		.loc 1 204 109 discriminator 6 view .LVU210
 999 0258 0020     		movs	r0, #0
 1000 025a FFF7FEFF 		bl	SensorValue2length
 1001              	.LVL142:
 1002 025e 53EC102B 		vmov	r2, r3, d0
 204:Src/module_test.c **** 
 1003              		.loc 1 204 3 discriminator 6 view .LVU211
 1004 0262 07A1     		adr	r1, .L33+8
 1005 0264 D1E90001 		ldrd	r0, [r1]
 1006 0268 FFF7FEFF 		bl	__aeabi_dsub
 1007              	.LVL143:
 1008 026c 8046     		mov	r8, r0
ARM GAS  C:\Temp\ccwak6Tu.s 			page 26


 1009 026e 8946     		mov	r9, r1
 1010 0270 EFE6     		b	.L24
 1011              	.L34:
 1012 0272 00BFAFF3 		.align	3
 1012      0080
 1013              	.L33:
 1014 0278 000000E0 		.word	-536870912
 1015 027c 4F8D873F 		.word	1065848143
 1016 0280 00000060 		.word	1610612736
 1017 0284 BC74833F 		.word	1065579708
 1018 0288 A0010000 		.word	.LC13
 1019 028c 00000000 		.word	_impure_ptr
 1020 0290 D0010000 		.word	.LC14
 1021 0294 D8010000 		.word	.LC15
 1022 0298 00000000 		.word	.LC4
 1023 029c 18000000 		.word	.LC5
 1024 02a0 44000000 		.word	.LC6
 1025 02a4 DA0F4940 		.word	1078530010
 1026 02a8 00003443 		.word	1127481344
 1027 02ac 70000000 		.word	.LC7
 1028 02b0 9C000000 		.word	.LC8
 1029 02b4 DC000000 		.word	.LC9
 1030 02b8 F4000000 		.word	.LC10
 1031 02bc 38010000 		.word	.LC11
 1032 02c0 6C010000 		.word	.LC12
 1033              		.cfi_endproc
 1034              	.LFE136:
 1036              		.section	.bss.log_counter,"aw",%nobits
 1037              		.align	1
 1038              		.set	.LANCHOR0,. + 0
 1041              	log_counter:
 1042 0000 0000     		.space	2
 1043              		.section	.bss.log_store,"aw",%nobits
 1044              		.align	2
 1047              	log_store:
 1048 0000 00000000 		.space	92000
 1048      00000000 
 1048      00000000 
 1048      00000000 
 1048      00000000 
 1049              		.text
 1050              	.Letext0:
 1051              		.file 2 "c:\\tools\\gcc-arm-none-eabi-9-2019-q4-major\\arm-none-eabi\\include\\machine\\_default_t
 1052              		.file 3 "c:\\tools\\gcc-arm-none-eabi-9-2019-q4-major\\arm-none-eabi\\include\\sys\\lock.h"
 1053              		.file 4 "c:\\tools\\gcc-arm-none-eabi-9-2019-q4-major\\arm-none-eabi\\include\\sys\\_types.h"
 1054              		.file 5 "c:\\tools\\gcc-arm-none-eabi-9-2019-q4-major\\lib\\gcc\\arm-none-eabi\\9.2.1\\include\\st
 1055              		.file 6 "c:\\tools\\gcc-arm-none-eabi-9-2019-q4-major\\arm-none-eabi\\include\\sys\\reent.h"
 1056              		.file 7 "c:\\tools\\gcc-arm-none-eabi-9-2019-q4-major\\arm-none-eabi\\include\\sys\\_stdint.h"
 1057              		.file 8 "c:\\tools\\gcc-arm-none-eabi-9-2019-q4-major\\arm-none-eabi\\include\\math.h"
 1058              		.file 9 "Drivers/CMSIS/Include/core_cm4.h"
 1059              		.file 10 "Drivers/CMSIS/Device/ST/STM32F4xx/Include/system_stm32f4xx.h"
 1060              		.file 11 "Inc/encorder.h"
 1061              		.file 12 "Inc/ir_sensor.h"
 1062              		.file 13 "c:\\tools\\gcc-arm-none-eabi-9-2019-q4-major\\arm-none-eabi\\include\\stdio.h"
 1063              		.file 14 "Drivers/STM32F4xx_HAL_Driver/Inc/stm32f4xx_hal.h"
 1064              		.file 15 "Inc/interrupt.h"
 1065              		.file 16 "Inc/mouse_state.h"
ARM GAS  C:\Temp\ccwak6Tu.s 			page 27


 1066              		.file 17 "Inc/imu.h"
 1067              		.file 18 "Inc/battery.h"
 1068              		.file 19 "Inc/target.h"
 1069              		.file 20 "Inc/exvol.h"
 1070              		.file 21 "<built-in>"
ARM GAS  C:\Temp\ccwak6Tu.s 			page 28


DEFINED SYMBOLS
                            *ABS*:00000000 module_test.c
  C:\Temp\ccwak6Tu.s:18     .text.log_init:00000000 $t
  C:\Temp\ccwak6Tu.s:26     .text.log_init:00000000 log_init
  C:\Temp\ccwak6Tu.s:44     .text.log_init:00000008 $d
  C:\Temp\ccwak6Tu.s:50     .text.data_get:00000000 $t
  C:\Temp\ccwak6Tu.s:57     .text.data_get:00000000 data_get
  C:\Temp\ccwak6Tu.s:283    .text.data_get:0000013c $d
  C:\Temp\ccwak6Tu.s:1047   .bss.log_store:00000000 log_store
  C:\Temp\ccwak6Tu.s:290    .rodata.data_read.str1.4:00000000 $d
  C:\Temp\ccwak6Tu.s:310    .text.data_read:00000000 $t
  C:\Temp\ccwak6Tu.s:317    .text.data_read:00000000 data_read
  C:\Temp\ccwak6Tu.s:581    .text.data_read:0000019c $d
  C:\Temp\ccwak6Tu.s:590    .rodata.module_test.str1.4:00000000 $d
  C:\Temp\ccwak6Tu.s:634    .text.module_test:00000000 $t
  C:\Temp\ccwak6Tu.s:641    .text.module_test:00000000 module_test
  C:\Temp\ccwak6Tu.s:1014   .text.module_test:00000278 $d
  C:\Temp\ccwak6Tu.s:1037   .bss.log_counter:00000000 $d
  C:\Temp\ccwak6Tu.s:1041   .bss.log_counter:00000000 log_counter
  C:\Temp\ccwak6Tu.s:1044   .bss.log_store:00000000 $d

UNDEFINED SYMBOLS
__aeabi_d2f
get_target_length
get_ideal_length
get_move_length
get_target_move_speed
get_move_speed
get_move_speed_ave
IMU_GetAccel_X
get_move_accel_ave
get_target_angle
get_ideal_angle
get_rotation_angle
get_target_rotation_speed
get_rotation_speed
get_target_duty_r
get_target_duty_l
Sensor_GetValue
SensorValue2length
Battery_GetVoltage
__aeabi_f2d
printf
puts
__aeabi_dsub
__aeabi_dcmplt
Encoder_ResetCount_Left
Encoder_ResetCount_Right
fflush
HAL_Delay
Interrupt_GetBootTime
Interrupt_GetDuty
Interrupt_GetDuty_Max
Encoder_GetAngle_Left
Encoder_GetAngle_Right
IMU_GetGyro_Z
Sensor_DebugPrintf
ARM GAS  C:\Temp\ccwak6Tu.s 			page 29


_impure_ptr
