ARM GAS  C:\Temp\cc40A9B8.s 			page 1


   1              		.cpu cortex-m4
   2              		.eabi_attribute 27, 1
   3              		.eabi_attribute 28, 1
   4              		.eabi_attribute 20, 1
   5              		.eabi_attribute 21, 1
   6              		.eabi_attribute 23, 3
   7              		.eabi_attribute 24, 1
   8              		.eabi_attribute 25, 1
   9              		.eabi_attribute 26, 1
  10              		.eabi_attribute 30, 1
  11              		.eabi_attribute 34, 1
  12              		.eabi_attribute 18, 4
  13              		.file	"module_test.c"
  14              		.text
  15              	.Ltext0:
  16              		.cfi_sections	.debug_frame
  17              		.section	.text.log_init,"ax",%progbits
  18              		.align	1
  19              		.global	log_init
  20              		.arch armv7e-m
  21              		.syntax unified
  22              		.thumb
  23              		.thumb_func
  24              		.fpu fpv4-sp-d16
  26              	log_init:
  27              	.LFB133:
  28              		.file 1 "Src/module_test.c"
   1:Src/module_test.c **** /*
   2:Src/module_test.c ****  * module_test.c
   3:Src/module_test.c ****  *
   4:Src/module_test.c ****  *  Created on: Aug 13, 2019
   5:Src/module_test.c ****  *      Author: å²¡ç”° æ³°è£•
   6:Src/module_test.c ****  */
   7:Src/module_test.c **** 
   8:Src/module_test.c **** 
   9:Src/module_test.c **** #include "index.h"
  10:Src/module_test.c **** #include "module_test.h"
  11:Src/module_test.c **** #include "ir_sensor.h"
  12:Src/module_test.c **** #include "battery.h"
  13:Src/module_test.c **** #include "imu.h"
  14:Src/module_test.c **** #include "param.h"
  15:Src/module_test.c **** #include "mouse_state.h"
  16:Src/module_test.c **** #include "target.h"
  17:Src/module_test.c **** #include "exvol.h"
  18:Src/module_test.c **** #include "stm32f4xx_hal.h"
  19:Src/module_test.c **** #include "encorder.h"
  20:Src/module_test.c **** #include "interrupt.h"
  21:Src/module_test.c **** #include "adjust.h"	
  22:Src/module_test.c **** #include "maze_solve.h"
  23:Src/module_test.c **** #include "lookuptable.h"
  24:Src/module_test.c **** 
  25:Src/module_test.c **** 
  26:Src/module_test.c **** static uint16_t log_counter = 0 ; //ãƒ­ã‚°å–å¾—é–‹å§‹ã‹ã‚‰ã®æ™‚é–“ç›£è¦–ç”¨ã‚«ã‚¦ãƒ³ã‚¿[ms]
  27:Src/module_test.c **** 
  28:Src/module_test.c **** typedef struct {	//ãƒ‡ãƒ¼ã‚¿æ ¼ç´ç”¨æ§‹é€ ä½“ã®å®šç¾©ï¼ˆæœ€å¤§ï¼’ï¼å€‹ã¨ã™ã‚‹ã“ã¨ï¼ˆï¼”ç§’ã
  29:Src/module_test.c **** 	
  30:Src/module_test.c **** 	
ARM GAS  C:\Temp\cc40A9B8.s 			page 2


  31:Src/module_test.c **** 	#ifdef DATA_DEFAULT
  32:Src/module_test.c **** 	float	time;				//æ¸¬å®šé–‹å§‹ã‹ã‚‰ã®æ™‚é–“[m/s]
  33:Src/module_test.c **** 	float	target_d_m;			//ç›®æ¨™ç§»å‹•è·é›¢[m]
  34:Src/module_test.c **** 	float 	ideal_d_m;			//ç†æƒ³ã®ä¸¦é€²æ–¹å‘ç§»å‹•è·é›¢[m]
  35:Src/module_test.c **** 	float	real_d_m;			//ä¸¦é€²æ–¹å‘ç§»å‹•è·é›¢[m]
  36:Src/module_test.c **** 	float   target_speed_m;		//ç›®æ¨™é€Ÿåº¦[m/s]
  37:Src/module_test.c **** 	float	speed_m;			//ä¸¦é€²æ–¹å‘ã®é€Ÿåº¦[m/s]
  38:Src/module_test.c **** 	float	speed_m_ave;		//ä¸¦é€²æ–¹å‘ã®é€Ÿåº¦å¹³å‡[m/s]
  39:Src/module_test.c **** 	float   accel_m;			//ä¸¦é€²æ–¹å‘ã®åŠ é€Ÿåº¦(m/s)
  40:Src/module_test.c **** 	float	accel_m_ave;		//ä¸¦é€²æ–¹å‘ã®åŠ é€Ÿåº¦å¹³å‡(m/s)
  41:Src/module_test.c **** 	float	target_d_w;			//ç›®æ¨™è§’åº¦
  42:Src/module_test.c **** 	float	ideal_d_w;			//ç†æƒ³è§’åº¦
  43:Src/module_test.c **** 	float	real_d_w;			//å›è»¢è§’åº¦(rad)
  44:Src/module_test.c **** 	float   target_speed_w;		//ç›®æ¨™è§’é€Ÿåº¦(rad/s)
  45:Src/module_test.c **** 	float	speed_w;			//å®Ÿéš›ã®è§’é€Ÿåº¦(rad/s)
  46:Src/module_test.c **** 	float   duty_r;				//å³ãƒ¢ãƒ¼ã‚¿æ“ä½œé‡ï¼ˆduty)
  47:Src/module_test.c **** 	float   duty_l;				//å·¦ãƒ¢ãƒ¼ã‚¿æ“ä½œé‡(duty)
  48:Src/module_test.c **** 	float   front_sensor_r;		//å³å‰å£ã‚»ãƒ³ã‚µå€¤
  49:Src/module_test.c **** 	float   front_sensor_l;		//å·¦å‰å£ã‚»ãƒ³ã‚µå€¤
  50:Src/module_test.c **** 	float   side_sensor_r;		//å³æ¨ªå£ã‚»ãƒ³ã‚µå€¤
  51:Src/module_test.c **** 	float   side_sensor_l;		//å·¦æ¨ªå£ã‚»ãƒ³ã‚µå€¤
  52:Src/module_test.c **** 	float   front_r;			//å£ã¨ã®è·é›¢ï¼ˆå³å‰ã‚»ãƒ³ã‚µï¼‰(m)
  53:Src/module_test.c **** 	float   front_l;			//å£ã¨ã®è·é›¢ï¼ˆå·¦å‰ã‚»ãƒ³ã‚µï¼‰(m)ï¼‰
  54:Src/module_test.c **** 	float   side_r;				//å£ã¨ã®è·é›¢ï¼ˆå³å‰ã‚»ãƒ³ã‚µï¼‰(m)
  55:Src/module_test.c **** 	float   side_l;				//å£ã¨ã®è·é›¢ï¼ˆå·¦å‰ã‚»ãƒ³ã‚µï¼‰(m)ï¼‰
  56:Src/module_test.c **** 	float   side_vol;			//æ¨ªå£åˆ¶å¾¡ã§ã®é›»åœ§å‡ºåŠ›
  57:Src/module_test.c **** 	float   side_mode;			//æ¨ªå£åˆ¶å¾¡ã®ãƒ¢ãƒ¼ãƒ‰
  58:Src/module_test.c **** 	float 	V_battery;			//ãƒãƒƒãƒ†ãƒªãƒ¼é›»åœ§
  59:Src/module_test.c **** 	#endif
  60:Src/module_test.c **** 
  61:Src/module_test.c **** 	#ifdef DATA_SIDE
  62:Src/module_test.c **** 	float	time;				//æ¸¬å®šé–‹å§‹ã‹ã‚‰ã®æ™‚é–“[m/s]
  63:Src/module_test.c **** 	float	real_d_m;			//ä¸¦é€²æ–¹å‘ç§»å‹•è·é›¢[m]
  64:Src/module_test.c **** 	float	speed_m_ave;		//ä¸¦é€²æ–¹å‘ã®é€Ÿåº¦å¹³å‡[m/s]
  65:Src/module_test.c **** 	float   duty_r;				//å³ãƒ¢ãƒ¼ã‚¿æ“ä½œé‡ï¼ˆduty)
  66:Src/module_test.c **** 	float   duty_l;				//å·¦ãƒ¢ãƒ¼ã‚¿æ“ä½œé‡(duty)
  67:Src/module_test.c **** 	float   front_sensor_r;		//å³å‰å£ã‚»ãƒ³ã‚µå€¤
  68:Src/module_test.c **** 	float   front_sensor_l;		//å·¦å‰å£ã‚»ãƒ³ã‚µå€¤
  69:Src/module_test.c **** 	float   side_sensor_r;		//å³æ¨ªå£ã‚»ãƒ³ã‚µå€¤
  70:Src/module_test.c **** 	float   side_sensor_l;		//å·¦æ¨ªå£ã‚»ãƒ³ã‚µå€¤
  71:Src/module_test.c **** 	float   front_r;			//å£ã¨ã®è·é›¢ï¼ˆå³å‰ã‚»ãƒ³ã‚µï¼‰(m)
  72:Src/module_test.c **** 	float   front_l;			//å£ã¨ã®è·é›¢ï¼ˆå·¦å‰ã‚»ãƒ³ã‚µï¼‰(m)
  73:Src/module_test.c **** 	float   side_r;				//å£ã¨ã®è·é›¢ï¼ˆå³å‰ã‚»ãƒ³ã‚µï¼‰(m)
  74:Src/module_test.c **** 	float   side_l;				//å£ã¨ã®è·é›¢ï¼ˆå·¦å‰ã‚»ãƒ³ã‚µï¼‰(m)
  75:Src/module_test.c **** 	float	side_r_target;		//å³å£ç›®æ¨™è·é›¢
  76:Src/module_test.c **** 	float	side_l_target;		//å·¦å£ç›®æ¨™è·é›¢
  77:Src/module_test.c **** 	float	side_r_th;			//å³å£åˆ¶å¾¡ãƒ¢ãƒ¼ãƒ‰é–¾å€¤
  78:Src/module_test.c **** 	float	side_l_th;			//å·¦å£åˆ¶å¾¡ãƒ¢ãƒ¼ãƒ‰é–¾å€¤
  79:Src/module_test.c **** 	float   side_vol;			//æ¨ªå£åˆ¶å¾¡ã§ã®é›»åœ§å‡ºåŠ›
  80:Src/module_test.c **** 	float   side_mode;			//æ¨ªå£åˆ¶å¾¡ã®ãƒ¢ãƒ¼ãƒ‰
  81:Src/module_test.c **** 	float 	V_battery;			//ãƒãƒƒãƒ†ãƒªãƒ¼é›»åœ§
  82:Src/module_test.c **** 	#endif
  83:Src/module_test.c **** 
  84:Src/module_test.c **** 	#ifdef DATA_MAZE
  85:Src/module_test.c **** 	float	time;				//æ¸¬å®šé–‹å§‹ã‹ã‚‰ã®æ™‚é–“[m/s]
  86:Src/module_test.c **** 	float 	ideal_d_m;			//ç†æƒ³ã®ä¸¦é€²æ–¹å‘ç§»å‹•è·é›¢[m]
  87:Src/module_test.c **** 	float	speed_m_ave;		//ä¸¦é€²æ–¹å‘ã®é€Ÿåº¦å¹³å‡[m/s]
ARM GAS  C:\Temp\cc40A9B8.s 			page 3


  88:Src/module_test.c **** 	float	real_d_m;			//ä¸¦é€²æ–¹å‘ç§»å‹•è·é›¢[m]
  89:Src/module_test.c **** 	float	ideal_d_w;			//ç†æƒ³è§’åº¦
  90:Src/module_test.c **** 	float	speed_w;			//å®Ÿéš›ã®è§’é€Ÿåº¦(rad/s)
  91:Src/module_test.c **** 	float	real_d_w;			//å›è»¢è§’åº¦(rad)
  92:Src/module_test.c **** 	float   duty_r;				//å³ãƒ¢ãƒ¼ã‚¿æ“ä½œé‡ï¼ˆduty)
  93:Src/module_test.c **** 	float   duty_l;				//å·¦ãƒ¢ãƒ¼ã‚¿æ“ä½œé‡(duty)
  94:Src/module_test.c **** 	float   front_sensor_r;		//å³å‰å£ã‚»ãƒ³ã‚µå€¤
  95:Src/module_test.c **** 	float   front_sensor_l;		//å·¦å‰å£ã‚»ãƒ³ã‚µå€¤
  96:Src/module_test.c **** 	float   side_sensor_r;		//å³æ¨ªå£ã‚»ãƒ³ã‚µå€¤
  97:Src/module_test.c **** 	float   side_sensor_l;		//å·¦æ¨ªå£ã‚»ãƒ³ã‚µå€¤
  98:Src/module_test.c **** 	float	maze_x;				//ãƒã‚¦ã‚¹ã®xåº§æ¨™(ãƒã‚¹)
  99:Src/module_test.c **** 	float	maze_y;				//ãƒã‚¦ã‚¹ã®yåº§æ¨™(ãƒã‚¹)
 100:Src/module_test.c **** 	float	wall_s_front;		//å‰å£åˆ¤å®šç”¨ã‚»ãƒ³ã‚µå€¤
 101:Src/module_test.c **** 	float	wall_s_right;		//å³å£åˆ¤å®šç”¨ã‚»ãƒ³ã‚µå€¤
 102:Src/module_test.c **** 	float	wall_s_left;		//å·¦å£åˆ¤å®šç”¨ã‚»ãƒ³ã‚µå€¤
 103:Src/module_test.c **** 	float 	V_battery;			//ãƒãƒƒãƒ†ãƒªãƒ¼é›»åœ§
 104:Src/module_test.c **** 	#endif
 105:Src/module_test.c **** } log_struct;
 106:Src/module_test.c **** 
 107:Src/module_test.c **** static log_struct log_store[log_count_lim / log_count_step];  // ãƒ‡ãƒ¼ã‚¿æ ¼ç´ç”¨ã®æ§‹é€ ä½“
 108:Src/module_test.c **** 
 109:Src/module_test.c **** 
 110:Src/module_test.c **** /* ---------------------------------------------------------------
 111:Src/module_test.c **** 	ãƒ­ã‚°å–å¾—ã‚«ã‚¦ãƒ³ã‚¿åˆæœŸåŒ–é–¢æ•°
 112:Src/module_test.c **** --------------------------------------------------------------- */
 113:Src/module_test.c **** void log_init (void)
 114:Src/module_test.c **** {
  29              		.loc 1 114 1 view -0
  30              		.cfi_startproc
  31              		@ args = 0, pretend = 0, frame = 0
  32              		@ frame_needed = 0, uses_anonymous_args = 0
  33              		@ link register save eliminated.
 115:Src/module_test.c **** 	log_counter = 0; //ãƒ­ã‚°ã‚«ã‚¦ãƒ³ã‚¿ã®åˆæœŸåŒ–
  34              		.loc 1 115 2 view .LVU1
  35              		.loc 1 115 14 is_stmt 0 view .LVU2
  36 0000 014B     		ldr	r3, .L2
  37 0002 0022     		movs	r2, #0
  38 0004 1A80     		strh	r2, [r3]	@ movhi
 116:Src/module_test.c **** }
  39              		.loc 1 116 1 view .LVU3
  40 0006 7047     		bx	lr
  41              	.L3:
  42              		.align	2
  43              	.L2:
  44 0008 00000000 		.word	.LANCHOR0
  45              		.cfi_endproc
  46              	.LFE133:
  48              		.section	.text.data_get,"ax",%progbits
  49              		.align	1
  50              		.global	data_get
  51              		.syntax unified
  52              		.thumb
  53              		.thumb_func
  54              		.fpu fpv4-sp-d16
  56              	data_get:
  57              	.LFB134:
 117:Src/module_test.c **** 
ARM GAS  C:\Temp\cc40A9B8.s 			page 4


 118:Src/module_test.c **** 
 119:Src/module_test.c **** /* ---------------------------------------------------------------
 120:Src/module_test.c **** 	ãƒ­ã‚°å–å¾—ç”¨é–¢æ•°ï¼ˆ1msã‚¿ã‚¹ã‚¯ï¼‰
 121:Src/module_test.c **** --------------------------------------------------------------- */
 122:Src/module_test.c **** void data_get (void)
 123:Src/module_test.c **** {
  58              		.loc 1 123 1 is_stmt 1 view -0
  59              		.cfi_startproc
  60              		@ args = 0, pretend = 0, frame = 0
  61              		@ frame_needed = 0, uses_anonymous_args = 0
  62 0000 10B5     		push	{r4, lr}
  63              	.LCFI0:
  64              		.cfi_def_cfa_offset 8
  65              		.cfi_offset 4, -8
  66              		.cfi_offset 14, -4
 124:Src/module_test.c **** 
 125:Src/module_test.c **** 	uint16_t i = 0;
  67              		.loc 1 125 2 view .LVU5
  68              	.LVL0:
 126:Src/module_test.c **** 	i = log_counter / log_count_step;
  69              		.loc 1 126 2 view .LVU6
  70              		.loc 1 126 4 is_stmt 0 view .LVU7
  71 0002 4A4B     		ldr	r3, .L9
  72 0004 1A88     		ldrh	r2, [r3]
  73 0006 4A4C     		ldr	r4, .L9+4
  74 0008 A4FB0234 		umull	r3, r4, r4, r2
  75              	.LVL1:
 127:Src/module_test.c **** 
 128:Src/module_test.c **** 	if(log_counter < log_count_lim)
  76              		.loc 1 128 2 is_stmt 1 view .LVU8
  77              		.loc 1 128 4 is_stmt 0 view .LVU9
  78 000c 40F6B733 		movw	r3, #2999
  79 0010 9A42     		cmp	r2, r3
  80 0012 09D8     		bhi	.L4
  81 0014 6408     		lsrs	r4, r4, #1
  82              	.LVL2:
 129:Src/module_test.c **** 	{
 130:Src/module_test.c **** 		if( (log_counter % log_count_step) == 0)
  83              		.loc 1 130 3 is_stmt 1 view .LVU10
  84              		.loc 1 130 38 is_stmt 0 view .LVU11
  85 0016 04EB4403 		add	r3, r4, r4, lsl #1
  86 001a D31A     		subs	r3, r2, r3
  87 001c 9BB2     		uxth	r3, r3
  88              		.loc 1 130 5 view .LVU12
  89 001e 23B1     		cbz	r3, .L8
  90              	.LVL3:
  91              	.L6:
 131:Src/module_test.c **** 		{
 132:Src/module_test.c **** 			//æ¸¬å®šãƒ¢ãƒ¼ãƒ‰ï¼‘
 133:Src/module_test.c **** 			#ifdef DATA_DEFAULT
 134:Src/module_test.c **** 			log_store[i].time = (float)log_counter;
 135:Src/module_test.c **** 			log_store[i].target_d_m = (float)get_target_length();
 136:Src/module_test.c **** 			log_store[i].ideal_d_m = (float)get_ideal_length();
 137:Src/module_test.c **** 			log_store[i].real_d_m = (float)get_move_length();
 138:Src/module_test.c **** 			log_store[i].target_speed_m =  (float)get_target_move_speed();
 139:Src/module_test.c **** 			log_store[i].speed_m = (float)get_move_speed();
 140:Src/module_test.c **** 			log_store[i].speed_m_ave = (float)get_move_speed_ave();
ARM GAS  C:\Temp\cc40A9B8.s 			page 5


 141:Src/module_test.c **** 			log_store[i].accel_m = (float)IMU_GetAccel_X();
 142:Src/module_test.c **** 			log_store[i].accel_m_ave = (float)get_move_accel_ave();
 143:Src/module_test.c **** 			log_store[i].target_d_w = (float)get_target_angle();
 144:Src/module_test.c **** 			log_store[i].ideal_d_w = (float)get_ideal_angle();
 145:Src/module_test.c **** 			log_store[i].real_d_w = (float)get_rotation_angle();
 146:Src/module_test.c **** 			log_store[i].target_speed_w = (float)get_target_rotation_speed();
 147:Src/module_test.c **** 			log_store[i].speed_w = (float)get_rotation_speed();
 148:Src/module_test.c **** 			log_store[i].duty_r = (float)get_target_duty_r();
 149:Src/module_test.c **** 			log_store[i].duty_l = (float)get_target_duty_l();
 150:Src/module_test.c **** 			log_store[i].front_sensor_r = (float)Sensor_GetValue(3);
 151:Src/module_test.c **** 			log_store[i].front_sensor_l = (float)Sensor_GetValue(0);
 152:Src/module_test.c **** 			log_store[i].side_sensor_r = (float)Sensor_GetValue(2);
 153:Src/module_test.c **** 			log_store[i].side_sensor_l = (float)Sensor_GetValue(1);
 154:Src/module_test.c **** 			log_store[i].front_r = (float)SensorValue2length(3);
 155:Src/module_test.c **** 			log_store[i].front_l = (float)SensorValue2length(0);
 156:Src/module_test.c **** 			log_store[i].side_r = (float)SensorValue2length(2);
 157:Src/module_test.c **** 			log_store[i].side_l = (float)SensorValue2length(1);
 158:Src/module_test.c **** 			log_store[i].side_vol = (float)get_target_vol_diff_sidewall();
 159:Src/module_test.c **** 			log_store[i].side_mode = (float)get_side_wall_ctrl_mode();
 160:Src/module_test.c **** 			log_store[i].V_battery =(float) Battery_GetVoltage();
 161:Src/module_test.c **** 			#endif
 162:Src/module_test.c **** 
 163:Src/module_test.c **** 			//æ¸¬å®šãƒ¢ãƒ¼ãƒ‰ï¼’
 164:Src/module_test.c **** 			#ifdef DATA_SIDE
 165:Src/module_test.c **** 			log_store[i].time = (float)log_counter;
 166:Src/module_test.c **** 			log_store[i].real_d_m = (float)get_move_length();
 167:Src/module_test.c **** 			log_store[i].speed_m_ave = (float)get_move_speed_ave();
 168:Src/module_test.c **** 			log_store[i].duty_r = (float)get_target_duty_r();
 169:Src/module_test.c **** 			log_store[i].duty_l = (float)get_target_duty_l();
 170:Src/module_test.c **** 			log_store[i].front_sensor_r = (float)Sensor_GetValue(3);
 171:Src/module_test.c **** 			log_store[i].front_sensor_l = (float)Sensor_GetValue(0);
 172:Src/module_test.c **** 			log_store[i].side_sensor_r = (float)Sensor_GetValue(2);
 173:Src/module_test.c **** 			log_store[i].side_sensor_l = (float)Sensor_GetValue(1);
 174:Src/module_test.c **** 			log_store[i].front_r = (float)SensorValue2length(3);
 175:Src/module_test.c **** 			log_store[i].front_l = (float)SensorValue2length(0);
 176:Src/module_test.c **** 			log_store[i].side_r = (float)SensorValue2length(2);
 177:Src/module_test.c **** 			log_store[i].side_l = (float)SensorValue2length(1);
 178:Src/module_test.c **** 			log_store[i].side_r_target = (float)get_target_sensor_sr();
 179:Src/module_test.c **** 			log_store[i].side_l_target = (float)get_target_sensor_sl();
 180:Src/module_test.c **** 			log_store[i].side_r_th = (float)get_side_sensor_r_th();
 181:Src/module_test.c **** 			log_store[i].side_l_th = (float)get_side_sensor_l_th();
 182:Src/module_test.c **** 			log_store[i].side_vol = (float)get_target_vol_diff_sidewall();
 183:Src/module_test.c **** 			log_store[i].side_mode = (float)get_side_wall_ctrl_mode();
 184:Src/module_test.c **** 			log_store[i].V_battery =(float) Battery_GetVoltage();
 185:Src/module_test.c **** 			#endif
 186:Src/module_test.c **** 
 187:Src/module_test.c **** 			//æ¸¬å®šãƒ¢ãƒ¼ãƒ‰ï¼“
 188:Src/module_test.c **** 			#ifdef DATA_MAZE
 189:Src/module_test.c **** 			log_store[i].time = (float)log_counter;
 190:Src/module_test.c **** 			log_store[i].ideal_d_m = (float)get_ideal_length();
 191:Src/module_test.c **** 			log_store[i].speed_m_ave = (float)get_move_speed_ave();
 192:Src/module_test.c **** 			log_store[i].real_d_m = (float)get_move_length();
 193:Src/module_test.c **** 			log_store[i].ideal_d_w = (float)get_ideal_angle();
 194:Src/module_test.c **** 			log_store[i].speed_w = (float)get_rotation_speed();
 195:Src/module_test.c **** 			log_store[i].real_d_w = (float)get_rotation_angle();
 196:Src/module_test.c **** 			log_store[i].duty_r = (float)get_target_duty_r();
 197:Src/module_test.c **** 			log_store[i].duty_l = (float)get_target_duty_l();
ARM GAS  C:\Temp\cc40A9B8.s 			page 6


 198:Src/module_test.c **** 			log_store[i].front_sensor_r = (float)Sensor_GetValue(3);
 199:Src/module_test.c **** 			log_store[i].front_sensor_l = (float)Sensor_GetValue(0);
 200:Src/module_test.c **** 			log_store[i].side_sensor_r = (float)Sensor_GetValue(2);
 201:Src/module_test.c **** 			log_store[i].side_sensor_l = (float)Sensor_GetValue(1);
 202:Src/module_test.c **** 			log_store[i].maze_x = (float)current_x.contents;		//ãƒã‚¦ã‚¹ã®xåº§æ¨™(ãƒã‚¹)
 203:Src/module_test.c **** 			log_store[i].maze_y = (float)current_y.contents;		//ãƒã‚¦ã‚¹ã®yåº§æ¨™(ãƒã‚¹)
 204:Src/module_test.c **** 			log_store[i].wall_s_front = (float)wall_sensor_front;	//å‰å£åˆ¤å®šç”¨ã‚»ãƒ³ã‚µå€¤
 205:Src/module_test.c **** 			log_store[i].wall_s_right = (float)wall_sensor_right;	//å³å£åˆ¤å®šç”¨ã‚»ãƒ³ã‚µå€¤
 206:Src/module_test.c **** 			log_store[i].wall_s_left = (float)wall_sensor_left;		//å·¦å£åˆ¤å®šç”¨ã‚»ãƒ³ã‚µå€¤
 207:Src/module_test.c **** 			log_store[i].V_battery =(float) Battery_GetVoltage();
 208:Src/module_test.c **** 			#endif
 209:Src/module_test.c **** 		}
 210:Src/module_test.c **** 		log_counter += 1; //logã‚«ã‚¦ãƒ³ã‚¿æ›´æ–°
  92              		.loc 1 210 3 is_stmt 1 view .LVU13
  93              		.loc 1 210 15 is_stmt 0 view .LVU14
  94 0020 424A     		ldr	r2, .L9
  95 0022 1388     		ldrh	r3, [r2]
  96 0024 0133     		adds	r3, r3, #1
  97 0026 1380     		strh	r3, [r2]	@ movhi
  98              	.L4:
 211:Src/module_test.c **** 	}
 212:Src/module_test.c **** }
  99              		.loc 1 212 1 view .LVU15
 100 0028 10BD     		pop	{r4, pc}
 101              	.LVL4:
 102              	.L8:
 189:Src/module_test.c **** 			log_store[i].ideal_d_m = (float)get_ideal_length();
 103              		.loc 1 189 4 is_stmt 1 view .LVU16
 189:Src/module_test.c **** 			log_store[i].ideal_d_m = (float)get_ideal_length();
 104              		.loc 1 189 24 is_stmt 0 view .LVU17
 105 002a 07EE902A 		vmov	s15, r2	@ int
 106 002e F8EE677A 		vcvt.f32.u32	s15, s15
 189:Src/module_test.c **** 			log_store[i].ideal_d_m = (float)get_ideal_length();
 107              		.loc 1 189 22 view .LVU18
 108 0032 404B     		ldr	r3, .L9+8
 109 0034 4C22     		movs	r2, #76
 110              	.LVL5:
 189:Src/module_test.c **** 			log_store[i].ideal_d_m = (float)get_ideal_length();
 111              		.loc 1 189 22 view .LVU19
 112 0036 02FB0434 		mla	r4, r2, r4, r3
 113 003a C4ED007A 		vstr.32	s15, [r4]
 190:Src/module_test.c **** 			log_store[i].speed_m_ave = (float)get_move_speed_ave();
 114              		.loc 1 190 4 is_stmt 1 view .LVU20
 190:Src/module_test.c **** 			log_store[i].speed_m_ave = (float)get_move_speed_ave();
 115              		.loc 1 190 29 is_stmt 0 view .LVU21
 116 003e FFF7FEFF 		bl	get_ideal_length
 117              	.LVL6:
 190:Src/module_test.c **** 			log_store[i].speed_m_ave = (float)get_move_speed_ave();
 118              		.loc 1 190 27 view .LVU22
 119 0042 84ED010A 		vstr.32	s0, [r4, #4]
 191:Src/module_test.c **** 			log_store[i].real_d_m = (float)get_move_length();
 120              		.loc 1 191 4 is_stmt 1 view .LVU23
 191:Src/module_test.c **** 			log_store[i].real_d_m = (float)get_move_length();
 121              		.loc 1 191 31 is_stmt 0 view .LVU24
 122 0046 FFF7FEFF 		bl	get_move_speed_ave
 123              	.LVL7:
 191:Src/module_test.c **** 			log_store[i].real_d_m = (float)get_move_length();
ARM GAS  C:\Temp\cc40A9B8.s 			page 7


 124              		.loc 1 191 29 view .LVU25
 125 004a 84ED020A 		vstr.32	s0, [r4, #8]
 192:Src/module_test.c **** 			log_store[i].ideal_d_w = (float)get_ideal_angle();
 126              		.loc 1 192 4 is_stmt 1 view .LVU26
 192:Src/module_test.c **** 			log_store[i].ideal_d_w = (float)get_ideal_angle();
 127              		.loc 1 192 28 is_stmt 0 view .LVU27
 128 004e FFF7FEFF 		bl	get_move_length
 129              	.LVL8:
 192:Src/module_test.c **** 			log_store[i].ideal_d_w = (float)get_ideal_angle();
 130              		.loc 1 192 26 view .LVU28
 131 0052 84ED030A 		vstr.32	s0, [r4, #12]
 193:Src/module_test.c **** 			log_store[i].speed_w = (float)get_rotation_speed();
 132              		.loc 1 193 4 is_stmt 1 view .LVU29
 193:Src/module_test.c **** 			log_store[i].speed_w = (float)get_rotation_speed();
 133              		.loc 1 193 29 is_stmt 0 view .LVU30
 134 0056 FFF7FEFF 		bl	get_ideal_angle
 135              	.LVL9:
 193:Src/module_test.c **** 			log_store[i].speed_w = (float)get_rotation_speed();
 136              		.loc 1 193 27 view .LVU31
 137 005a 84ED040A 		vstr.32	s0, [r4, #16]
 194:Src/module_test.c **** 			log_store[i].real_d_w = (float)get_rotation_angle();
 138              		.loc 1 194 4 is_stmt 1 view .LVU32
 194:Src/module_test.c **** 			log_store[i].real_d_w = (float)get_rotation_angle();
 139              		.loc 1 194 27 is_stmt 0 view .LVU33
 140 005e FFF7FEFF 		bl	get_rotation_speed
 141              	.LVL10:
 194:Src/module_test.c **** 			log_store[i].real_d_w = (float)get_rotation_angle();
 142              		.loc 1 194 25 view .LVU34
 143 0062 84ED050A 		vstr.32	s0, [r4, #20]
 195:Src/module_test.c **** 			log_store[i].duty_r = (float)get_target_duty_r();
 144              		.loc 1 195 4 is_stmt 1 view .LVU35
 195:Src/module_test.c **** 			log_store[i].duty_r = (float)get_target_duty_r();
 145              		.loc 1 195 28 is_stmt 0 view .LVU36
 146 0066 FFF7FEFF 		bl	get_rotation_angle
 147              	.LVL11:
 195:Src/module_test.c **** 			log_store[i].duty_r = (float)get_target_duty_r();
 148              		.loc 1 195 26 view .LVU37
 149 006a 84ED060A 		vstr.32	s0, [r4, #24]
 196:Src/module_test.c **** 			log_store[i].duty_l = (float)get_target_duty_l();
 150              		.loc 1 196 4 is_stmt 1 view .LVU38
 196:Src/module_test.c **** 			log_store[i].duty_l = (float)get_target_duty_l();
 151              		.loc 1 196 33 is_stmt 0 view .LVU39
 152 006e FFF7FEFF 		bl	get_target_duty_r
 153              	.LVL12:
 154 0072 07EE900A 		vmov	s15, r0	@ int
 196:Src/module_test.c **** 			log_store[i].duty_l = (float)get_target_duty_l();
 155              		.loc 1 196 26 view .LVU40
 156 0076 F8EEE77A 		vcvt.f32.s32	s15, s15
 196:Src/module_test.c **** 			log_store[i].duty_l = (float)get_target_duty_l();
 157              		.loc 1 196 24 view .LVU41
 158 007a C4ED077A 		vstr.32	s15, [r4, #28]
 197:Src/module_test.c **** 			log_store[i].front_sensor_r = (float)Sensor_GetValue(3);
 159              		.loc 1 197 4 is_stmt 1 view .LVU42
 197:Src/module_test.c **** 			log_store[i].front_sensor_r = (float)Sensor_GetValue(3);
 160              		.loc 1 197 33 is_stmt 0 view .LVU43
 161 007e FFF7FEFF 		bl	get_target_duty_l
 162              	.LVL13:
ARM GAS  C:\Temp\cc40A9B8.s 			page 8


 163 0082 07EE900A 		vmov	s15, r0	@ int
 197:Src/module_test.c **** 			log_store[i].front_sensor_r = (float)Sensor_GetValue(3);
 164              		.loc 1 197 26 view .LVU44
 165 0086 F8EEE77A 		vcvt.f32.s32	s15, s15
 197:Src/module_test.c **** 			log_store[i].front_sensor_r = (float)Sensor_GetValue(3);
 166              		.loc 1 197 24 view .LVU45
 167 008a C4ED087A 		vstr.32	s15, [r4, #32]
 198:Src/module_test.c **** 			log_store[i].front_sensor_l = (float)Sensor_GetValue(0);
 168              		.loc 1 198 4 is_stmt 1 view .LVU46
 198:Src/module_test.c **** 			log_store[i].front_sensor_l = (float)Sensor_GetValue(0);
 169              		.loc 1 198 41 is_stmt 0 view .LVU47
 170 008e 0320     		movs	r0, #3
 171 0090 FFF7FEFF 		bl	Sensor_GetValue
 172              	.LVL14:
 173 0094 07EE900A 		vmov	s15, r0	@ int
 198:Src/module_test.c **** 			log_store[i].front_sensor_l = (float)Sensor_GetValue(0);
 174              		.loc 1 198 34 view .LVU48
 175 0098 F8EEE77A 		vcvt.f32.s32	s15, s15
 198:Src/module_test.c **** 			log_store[i].front_sensor_l = (float)Sensor_GetValue(0);
 176              		.loc 1 198 32 view .LVU49
 177 009c C4ED097A 		vstr.32	s15, [r4, #36]
 199:Src/module_test.c **** 			log_store[i].side_sensor_r = (float)Sensor_GetValue(2);
 178              		.loc 1 199 4 is_stmt 1 view .LVU50
 199:Src/module_test.c **** 			log_store[i].side_sensor_r = (float)Sensor_GetValue(2);
 179              		.loc 1 199 41 is_stmt 0 view .LVU51
 180 00a0 0020     		movs	r0, #0
 181 00a2 FFF7FEFF 		bl	Sensor_GetValue
 182              	.LVL15:
 183 00a6 07EE900A 		vmov	s15, r0	@ int
 199:Src/module_test.c **** 			log_store[i].side_sensor_r = (float)Sensor_GetValue(2);
 184              		.loc 1 199 34 view .LVU52
 185 00aa F8EEE77A 		vcvt.f32.s32	s15, s15
 199:Src/module_test.c **** 			log_store[i].side_sensor_r = (float)Sensor_GetValue(2);
 186              		.loc 1 199 32 view .LVU53
 187 00ae C4ED0A7A 		vstr.32	s15, [r4, #40]
 200:Src/module_test.c **** 			log_store[i].side_sensor_l = (float)Sensor_GetValue(1);
 188              		.loc 1 200 4 is_stmt 1 view .LVU54
 200:Src/module_test.c **** 			log_store[i].side_sensor_l = (float)Sensor_GetValue(1);
 189              		.loc 1 200 40 is_stmt 0 view .LVU55
 190 00b2 0220     		movs	r0, #2
 191 00b4 FFF7FEFF 		bl	Sensor_GetValue
 192              	.LVL16:
 193 00b8 07EE900A 		vmov	s15, r0	@ int
 200:Src/module_test.c **** 			log_store[i].side_sensor_l = (float)Sensor_GetValue(1);
 194              		.loc 1 200 33 view .LVU56
 195 00bc F8EEE77A 		vcvt.f32.s32	s15, s15
 200:Src/module_test.c **** 			log_store[i].side_sensor_l = (float)Sensor_GetValue(1);
 196              		.loc 1 200 31 view .LVU57
 197 00c0 C4ED0B7A 		vstr.32	s15, [r4, #44]
 201:Src/module_test.c **** 			log_store[i].maze_x = (float)current_x.contents;		//ãƒã‚¦ã‚¹ã®xåº§æ¨™(ãƒã‚¹)
 198              		.loc 1 201 4 is_stmt 1 view .LVU58
 201:Src/module_test.c **** 			log_store[i].maze_x = (float)current_x.contents;		//ãƒã‚¦ã‚¹ã®xåº§æ¨™(ãƒã‚¹)
 199              		.loc 1 201 40 is_stmt 0 view .LVU59
 200 00c4 0120     		movs	r0, #1
 201 00c6 FFF7FEFF 		bl	Sensor_GetValue
 202              	.LVL17:
 203 00ca 07EE900A 		vmov	s15, r0	@ int
ARM GAS  C:\Temp\cc40A9B8.s 			page 9


 201:Src/module_test.c **** 			log_store[i].maze_x = (float)current_x.contents;		//ãƒã‚¦ã‚¹ã®xåº§æ¨™(ãƒã‚¹)
 204              		.loc 1 201 33 view .LVU60
 205 00ce F8EEE77A 		vcvt.f32.s32	s15, s15
 201:Src/module_test.c **** 			log_store[i].maze_x = (float)current_x.contents;		//ãƒã‚¦ã‚¹ã®xåº§æ¨™(ãƒã‚¹)
 206              		.loc 1 201 31 view .LVU61
 207 00d2 C4ED0C7A 		vstr.32	s15, [r4, #48]
 202:Src/module_test.c **** 			log_store[i].maze_y = (float)current_y.contents;		//ãƒã‚¦ã‚¹ã®yåº§æ¨™(ãƒã‚¹)
 208              		.loc 1 202 4 is_stmt 1 view .LVU62
 202:Src/module_test.c **** 			log_store[i].maze_y = (float)current_y.contents;		//ãƒã‚¦ã‚¹ã®yåº§æ¨™(ãƒã‚¹)
 209              		.loc 1 202 42 is_stmt 0 view .LVU63
 210 00d6 184B     		ldr	r3, .L9+12
 211 00d8 1B78     		ldrb	r3, [r3]	@ zero_extendqisi2
 212 00da 07EE903A 		vmov	s15, r3	@ int
 202:Src/module_test.c **** 			log_store[i].maze_y = (float)current_y.contents;		//ãƒã‚¦ã‚¹ã®yåº§æ¨™(ãƒã‚¹)
 213              		.loc 1 202 26 view .LVU64
 214 00de F8EE677A 		vcvt.f32.u32	s15, s15
 202:Src/module_test.c **** 			log_store[i].maze_y = (float)current_y.contents;		//ãƒã‚¦ã‚¹ã®yåº§æ¨™(ãƒã‚¹)
 215              		.loc 1 202 24 view .LVU65
 216 00e2 C4ED0D7A 		vstr.32	s15, [r4, #52]
 203:Src/module_test.c **** 			log_store[i].wall_s_front = (float)wall_sensor_front;	//å‰å£åˆ¤å®šç”¨ã‚»ãƒ³ã‚µå€¤
 217              		.loc 1 203 4 is_stmt 1 view .LVU66
 203:Src/module_test.c **** 			log_store[i].wall_s_front = (float)wall_sensor_front;	//å‰å£åˆ¤å®šç”¨ã‚»ãƒ³ã‚µå€¤
 218              		.loc 1 203 42 is_stmt 0 view .LVU67
 219 00e6 154B     		ldr	r3, .L9+16
 220 00e8 1B78     		ldrb	r3, [r3]	@ zero_extendqisi2
 221 00ea 07EE903A 		vmov	s15, r3	@ int
 203:Src/module_test.c **** 			log_store[i].wall_s_front = (float)wall_sensor_front;	//å‰å£åˆ¤å®šç”¨ã‚»ãƒ³ã‚µå€¤
 222              		.loc 1 203 26 view .LVU68
 223 00ee F8EE677A 		vcvt.f32.u32	s15, s15
 203:Src/module_test.c **** 			log_store[i].wall_s_front = (float)wall_sensor_front;	//å‰å£åˆ¤å®šç”¨ã‚»ãƒ³ã‚µå€¤
 224              		.loc 1 203 24 view .LVU69
 225 00f2 C4ED0E7A 		vstr.32	s15, [r4, #56]
 204:Src/module_test.c **** 			log_store[i].wall_s_right = (float)wall_sensor_right;	//å³å£åˆ¤å®šç”¨ã‚»ãƒ³ã‚µå€¤
 226              		.loc 1 204 4 is_stmt 1 view .LVU70
 204:Src/module_test.c **** 			log_store[i].wall_s_right = (float)wall_sensor_right;	//å³å£åˆ¤å®šç”¨ã‚»ãƒ³ã‚µå€¤
 227              		.loc 1 204 32 is_stmt 0 view .LVU71
 228 00f6 124B     		ldr	r3, .L9+20
 229 00f8 D3ED007A 		vldr.32	s15, [r3]	@ int
 230 00fc F8EEE77A 		vcvt.f32.s32	s15, s15
 204:Src/module_test.c **** 			log_store[i].wall_s_right = (float)wall_sensor_right;	//å³å£åˆ¤å®šç”¨ã‚»ãƒ³ã‚µå€¤
 231              		.loc 1 204 30 view .LVU72
 232 0100 C4ED0F7A 		vstr.32	s15, [r4, #60]
 205:Src/module_test.c **** 			log_store[i].wall_s_left = (float)wall_sensor_left;		//å·¦å£åˆ¤å®šç”¨ã‚»ãƒ³ã‚µå€¤
 233              		.loc 1 205 4 is_stmt 1 view .LVU73
 205:Src/module_test.c **** 			log_store[i].wall_s_left = (float)wall_sensor_left;		//å·¦å£åˆ¤å®šç”¨ã‚»ãƒ³ã‚µå€¤
 234              		.loc 1 205 32 is_stmt 0 view .LVU74
 235 0104 0F4B     		ldr	r3, .L9+24
 236 0106 D3ED007A 		vldr.32	s15, [r3]	@ int
 237 010a F8EEE77A 		vcvt.f32.s32	s15, s15
 205:Src/module_test.c **** 			log_store[i].wall_s_left = (float)wall_sensor_left;		//å·¦å£åˆ¤å®šç”¨ã‚»ãƒ³ã‚µå€¤
 238              		.loc 1 205 30 view .LVU75
 239 010e C4ED107A 		vstr.32	s15, [r4, #64]
 206:Src/module_test.c **** 			log_store[i].V_battery =(float) Battery_GetVoltage();
 240              		.loc 1 206 4 is_stmt 1 view .LVU76
 206:Src/module_test.c **** 			log_store[i].V_battery =(float) Battery_GetVoltage();
 241              		.loc 1 206 31 is_stmt 0 view .LVU77
 242 0112 0D4B     		ldr	r3, .L9+28
ARM GAS  C:\Temp\cc40A9B8.s 			page 10


 243 0114 D3ED007A 		vldr.32	s15, [r3]	@ int
 244 0118 F8EEE77A 		vcvt.f32.s32	s15, s15
 206:Src/module_test.c **** 			log_store[i].V_battery =(float) Battery_GetVoltage();
 245              		.loc 1 206 29 view .LVU78
 246 011c C4ED117A 		vstr.32	s15, [r4, #68]
 207:Src/module_test.c **** 			#endif
 247              		.loc 1 207 4 is_stmt 1 view .LVU79
 207:Src/module_test.c **** 			#endif
 248              		.loc 1 207 28 is_stmt 0 view .LVU80
 249 0120 FFF7FEFF 		bl	Battery_GetVoltage
 250              	.LVL18:
 207:Src/module_test.c **** 			#endif
 251              		.loc 1 207 27 view .LVU81
 252 0124 84ED120A 		vstr.32	s0, [r4, #72]
 253 0128 7AE7     		b	.L6
 254              	.L10:
 255 012a 00BF     		.align	2
 256              	.L9:
 257 012c 00000000 		.word	.LANCHOR0
 258 0130 ABAAAAAA 		.word	-1431655765
 259 0134 00000000 		.word	log_store
 260 0138 00000000 		.word	current_x
 261 013c 00000000 		.word	current_y
 262 0140 00000000 		.word	wall_sensor_front
 263 0144 00000000 		.word	wall_sensor_right
 264 0148 00000000 		.word	wall_sensor_left
 265              		.cfi_endproc
 266              	.LFE134:
 268              		.section	.rodata.data_read.str1.4,"aMS",%progbits,1
 269              		.align	2
 270              	.LC0:
 271 0000 54494D45 		.ascii	"TIME[ms],ideal_distance[m],current_distance[m],SPEE"
 271      5B6D735D 
 271      2C696465 
 271      616C5F64 
 271      69737461 
 272 0033 445F6D5F 		.ascii	"D_m_ave[m/s],ideal_angle[rad],speed_w[rad/s],curren"
 272      6176655B 
 272      6D2F735D 
 272      2C696465 
 272      616C5F61 
 273 0066 745F616E 		.ascii	"t_angle[rad],DUTY_R[%%],Duty_L[%%],front_r,front_l,"
 273      676C655B 
 273      7261645D 
 273      2C445554 
 273      595F525B 
 274 0099 73696465 		.ascii	"side_r,side_l,maze_x,maze_y,wall_jud_front,wall_jud"
 274      5F722C73 
 274      6964655F 
 274      6C2C6D61 
 274      7A655F78 
 275 00cc 5F726967 		.ascii	"_right,wall_jud_left,V_battery[V]\015\012\000"
 275      68742C77 
 275      616C6C5F 
 275      6A75645F 
 275      6C656674 
 276              		.global	__aeabi_f2d
ARM GAS  C:\Temp\cc40A9B8.s 			page 11


 277              		.align	2
 278              	.LC1:
 279 00f0 25662C00 		.ascii	"%f,\000"
 280              		.align	2
 281              	.LC2:
 282 00f4 256600   		.ascii	"%f\000"
 283 00f7 00       		.align	2
 284              	.LC3:
 285 00f8 0D00     		.ascii	"\015\000"
 286              		.section	.text.data_read,"ax",%progbits
 287              		.align	1
 288              		.global	data_read
 289              		.syntax unified
 290              		.thumb
 291              		.thumb_func
 292              		.fpu fpv4-sp-d16
 294              	data_read:
 295              	.LFB135:
 213:Src/module_test.c **** 
 214:Src/module_test.c **** /* ---------------------------------------------------------------
 215:Src/module_test.c **** 	ãƒ­ã‚°åãå‡ºã—ç”¨é–¢æ•°
 216:Src/module_test.c **** --------------------------------------------------------------- */
 217:Src/module_test.c **** void data_read(void)
 218:Src/module_test.c **** {
 296              		.loc 1 218 1 is_stmt 1 view -0
 297              		.cfi_startproc
 298              		@ args = 0, pretend = 0, frame = 0
 299              		@ frame_needed = 0, uses_anonymous_args = 0
 300 0000 70B5     		push	{r4, r5, r6, lr}
 301              	.LCFI1:
 302              		.cfi_def_cfa_offset 16
 303              		.cfi_offset 4, -16
 304              		.cfi_offset 5, -12
 305              		.cfi_offset 6, -8
 306              		.cfi_offset 14, -4
 219:Src/module_test.c **** 
 220:Src/module_test.c **** 	uint16_t i = 0;
 307              		.loc 1 220 2 view .LVU83
 308              	.LVL19:
 221:Src/module_test.c **** 	uint16_t j = 0;
 309              		.loc 1 221 2 view .LVU84
 222:Src/module_test.c **** 
 223:Src/module_test.c **** 	j =  log_count_lim / log_count_step - 1 ;
 310              		.loc 1 223 2 view .LVU85
 224:Src/module_test.c **** 
 225:Src/module_test.c **** 	//printfã§ä¸€è¡Œã¥ã¤æ›¸ãå‡ºã—ã¦ã„ãã€‚
 226:Src/module_test.c **** 	//ä¸€è¡Œç›®ã¯ãƒ‘ãƒ©ãƒ¡ãƒ¼ã‚¿å
 227:Src/module_test.c **** 	#ifdef DATA_DEFAULT
 228:Src/module_test.c **** 	printf ("TIME[ms],target_distance[m],ideal_distance[m],current_distance[m],TARGET_SPEED_m[m/s],SPE
 229:Src/module_test.c **** 			"accel_m[m/s2],accel_m_ave[m/s2],target_angle[rad],ideal_angle[rad],current_angle[rad],target_sp
 230:Src/module_test.c **** 			"speed_w[rad/s],DUTY_R[%%],Duty_L[%%],front_r,front_l,side_r,side_l,front_r[m],front_l[m],side_r
 231:Src/module_test.c **** 	#endif
 232:Src/module_test.c **** 
 233:Src/module_test.c **** 	#ifdef DATA_SIDE
 234:Src/module_test.c **** 	printf ("TIME[ms],current_distance[m],SPEED_m_ave[m/s],"
 235:Src/module_test.c **** 			"DUTY_R[%%],Duty_L[%%],front_r,front_l,side_r,side_l,"
 236:Src/module_test.c **** 			"front_r[m],front_l[m],side_r[m],side_l[m],side_r_target[m],side_l_target[m],"
ARM GAS  C:\Temp\cc40A9B8.s 			page 12


 237:Src/module_test.c **** 			"side_r_th,side_l_th,side_vol[V],side_mode,V_battery[V]\r\n");	//ãƒ‘ãƒ©ãƒ¡ãƒ¼ã‚¿åã‚’è¨˜è¿°
 238:Src/module_test.c **** 	#endif
 239:Src/module_test.c **** 
 240:Src/module_test.c **** 	#ifdef DATA_MAZE
 241:Src/module_test.c **** 	printf ("TIME[ms],ideal_distance[m],current_distance[m],SPEED_m_ave[m/s],"
 311              		.loc 1 241 2 view .LVU86
 312 0002 5648     		ldr	r0, .L16
 313 0004 FFF7FEFF 		bl	printf
 314              	.LVL20:
 242:Src/module_test.c **** 			"ideal_angle[rad],speed_w[rad/s],current_angle[rad],"
 243:Src/module_test.c **** 			"DUTY_R[%%],Duty_L[%%],front_r,front_l,side_r,side_l,"
 244:Src/module_test.c **** 			"maze_x,maze_y,wall_jud_front,wall_jud_right,wall_jud_left,"
 245:Src/module_test.c **** 			"V_battery[V]\r\n");	//ãƒ‘ãƒ©ãƒ¡ãƒ¼ã‚¿åã‚’è¨˜è¿°
 246:Src/module_test.c **** 	#endif
 247:Src/module_test.c **** 
 248:Src/module_test.c **** 	for(i = 0; i <= j ; i++)
 315              		.loc 1 248 2 view .LVU87
 316              		.loc 1 248 8 is_stmt 0 view .LVU88
 317 0008 0026     		movs	r6, #0
 318              	.LVL21:
 319              	.L12:
 320              		.loc 1 248 13 is_stmt 1 discriminator 1 view .LVU89
 321              		.loc 1 248 2 is_stmt 0 discriminator 1 view .LVU90
 322 000a B6F57A7F 		cmp	r6, #1000
 323 000e 80F0A380 		bcs	.L15
 249:Src/module_test.c **** 	{
 250:Src/module_test.c **** 		#ifdef DATA_DEFAULT
 251:Src/module_test.c **** 		printf("%f,",log_store[i].time);
 252:Src/module_test.c **** 		printf("%f,",log_store[i].target_d_m);
 253:Src/module_test.c **** 		printf("%f,",log_store[i].ideal_d_m);
 254:Src/module_test.c **** 		printf("%f,",log_store[i].real_d_m);
 255:Src/module_test.c **** 		printf("%f,",log_store[i].target_speed_m);
 256:Src/module_test.c **** 		printf("%f,",log_store[i].speed_m);
 257:Src/module_test.c **** 		printf("%f,",log_store[i].speed_m_ave);
 258:Src/module_test.c **** 		printf("%f,",log_store[i].accel_m);
 259:Src/module_test.c **** 		printf("%f,",log_store[i].accel_m_ave);
 260:Src/module_test.c **** 		printf("%f,",log_store[i].target_d_w);
 261:Src/module_test.c **** 		printf("%f,",log_store[i].ideal_d_w);
 262:Src/module_test.c **** 		printf("%f,",log_store[i].real_d_w);
 263:Src/module_test.c **** 		printf("%f,",log_store[i].target_speed_w);
 264:Src/module_test.c **** 		printf("%f,",log_store[i].speed_w);
 265:Src/module_test.c **** 		printf("%f,",log_store[i].duty_r);
 266:Src/module_test.c **** 		printf("%f,",log_store[i].duty_l);
 267:Src/module_test.c **** 		printf("%f,",log_store[i].front_sensor_r);
 268:Src/module_test.c **** 		printf("%f,",log_store[i].front_sensor_l);
 269:Src/module_test.c **** 		printf("%f,",log_store[i].side_sensor_r);
 270:Src/module_test.c **** 		printf("%f,",log_store[i].side_sensor_l);
 271:Src/module_test.c **** 		printf("%f,",log_store[i].front_r);
 272:Src/module_test.c **** 		printf("%f,",log_store[i].front_l);
 273:Src/module_test.c **** 		printf("%f,",log_store[i].side_r);
 274:Src/module_test.c **** 		printf("%f,",log_store[i].side_l);
 275:Src/module_test.c **** 		printf("%f,",log_store[i].side_vol);
 276:Src/module_test.c **** 		printf("%f,",log_store[i].side_mode);
 277:Src/module_test.c **** 		printf("%f",log_store[i].V_battery);			//æœ€å¾Œã¯ã‚«ãƒ³ãƒãªã—
 278:Src/module_test.c **** 		printf("\r\n"); //m æ”¹è¡Œ
 279:Src/module_test.c **** 		#endif
 280:Src/module_test.c **** 
ARM GAS  C:\Temp\cc40A9B8.s 			page 13


 281:Src/module_test.c **** 		#ifdef DATA_SIDE
 282:Src/module_test.c **** 		printf("%f,",log_store[i].time);
 283:Src/module_test.c **** 		printf("%f,",log_store[i].real_d_m);
 284:Src/module_test.c **** 		printf("%f,",log_store[i].speed_m_ave);
 285:Src/module_test.c **** 		printf("%f,",log_store[i].duty_r);
 286:Src/module_test.c **** 		printf("%f,",log_store[i].duty_l);
 287:Src/module_test.c **** 		printf("%f,",log_store[i].front_sensor_r);
 288:Src/module_test.c **** 		printf("%f,",log_store[i].front_sensor_l);
 289:Src/module_test.c **** 		printf("%f,",log_store[i].side_sensor_r);
 290:Src/module_test.c **** 		printf("%f,",log_store[i].side_sensor_l);
 291:Src/module_test.c **** 		printf("%f,",log_store[i].front_r);
 292:Src/module_test.c **** 		printf("%f,",log_store[i].front_l);
 293:Src/module_test.c **** 		printf("%f,",log_store[i].side_r);
 294:Src/module_test.c **** 		printf("%f,",log_store[i].side_l);
 295:Src/module_test.c **** 		printf("%f,",log_store[i].side_r_target);
 296:Src/module_test.c **** 		printf("%f,",log_store[i].side_l_target);
 297:Src/module_test.c **** 		printf("%f,",log_store[i].side_r_th);
 298:Src/module_test.c **** 		printf("%f,",log_store[i].side_l_th);
 299:Src/module_test.c **** 		printf("%f,",log_store[i].side_vol);
 300:Src/module_test.c **** 		printf("%f,",log_store[i].side_mode);
 301:Src/module_test.c **** 		printf("%f",log_store[i].V_battery);			//æœ€å¾Œã¯ã‚«ãƒ³ãƒãªã—
 302:Src/module_test.c **** 		printf("\r\n"); // æ”¹è¡Œ
 303:Src/module_test.c **** 		#endif
 304:Src/module_test.c **** 
 305:Src/module_test.c **** 		#ifdef DATA_MAZE
 306:Src/module_test.c **** 		printf("%f,",log_store[i].time);
 324              		.loc 1 306 3 is_stmt 1 discriminator 3 view .LVU91
 325              		.loc 1 306 28 is_stmt 0 discriminator 3 view .LVU92
 326 0012 534B     		ldr	r3, .L16+4
 327 0014 4C24     		movs	r4, #76
 328 0016 04FB0634 		mla	r4, r4, r6, r3
 329              		.loc 1 306 3 discriminator 3 view .LVU93
 330 001a 2068     		ldr	r0, [r4]	@ float
 331 001c FFF7FEFF 		bl	__aeabi_f2d
 332              	.LVL22:
 333 0020 0246     		mov	r2, r0
 334 0022 0B46     		mov	r3, r1
 335 0024 4F4D     		ldr	r5, .L16+8
 336 0026 2846     		mov	r0, r5
 337 0028 FFF7FEFF 		bl	printf
 338              	.LVL23:
 307:Src/module_test.c **** 		printf("%f,",log_store[i].ideal_d_m);
 339              		.loc 1 307 3 is_stmt 1 discriminator 3 view .LVU94
 340 002c 6068     		ldr	r0, [r4, #4]	@ float
 341 002e FFF7FEFF 		bl	__aeabi_f2d
 342              	.LVL24:
 343 0032 0246     		mov	r2, r0
 344 0034 0B46     		mov	r3, r1
 345 0036 2846     		mov	r0, r5
 346 0038 FFF7FEFF 		bl	printf
 347              	.LVL25:
 308:Src/module_test.c **** 		printf("%f,",log_store[i].real_d_m);
 348              		.loc 1 308 3 discriminator 3 view .LVU95
 349 003c E068     		ldr	r0, [r4, #12]	@ float
 350 003e FFF7FEFF 		bl	__aeabi_f2d
 351              	.LVL26:
 352 0042 0246     		mov	r2, r0
ARM GAS  C:\Temp\cc40A9B8.s 			page 14


 353 0044 0B46     		mov	r3, r1
 354 0046 2846     		mov	r0, r5
 355 0048 FFF7FEFF 		bl	printf
 356              	.LVL27:
 309:Src/module_test.c **** 		printf("%f,",log_store[i].speed_m_ave);
 357              		.loc 1 309 3 discriminator 3 view .LVU96
 358 004c A068     		ldr	r0, [r4, #8]	@ float
 359 004e FFF7FEFF 		bl	__aeabi_f2d
 360              	.LVL28:
 361 0052 0246     		mov	r2, r0
 362 0054 0B46     		mov	r3, r1
 363 0056 2846     		mov	r0, r5
 364 0058 FFF7FEFF 		bl	printf
 365              	.LVL29:
 310:Src/module_test.c **** 		printf("%f,",log_store[i].ideal_d_w);
 366              		.loc 1 310 3 discriminator 3 view .LVU97
 367 005c 2069     		ldr	r0, [r4, #16]	@ float
 368 005e FFF7FEFF 		bl	__aeabi_f2d
 369              	.LVL30:
 370 0062 0246     		mov	r2, r0
 371 0064 0B46     		mov	r3, r1
 372 0066 2846     		mov	r0, r5
 373 0068 FFF7FEFF 		bl	printf
 374              	.LVL31:
 311:Src/module_test.c **** 		printf("%f,",log_store[i].speed_w);
 375              		.loc 1 311 3 discriminator 3 view .LVU98
 376 006c 6069     		ldr	r0, [r4, #20]	@ float
 377 006e FFF7FEFF 		bl	__aeabi_f2d
 378              	.LVL32:
 379 0072 0246     		mov	r2, r0
 380 0074 0B46     		mov	r3, r1
 381 0076 2846     		mov	r0, r5
 382 0078 FFF7FEFF 		bl	printf
 383              	.LVL33:
 312:Src/module_test.c **** 		printf("%f,",log_store[i].real_d_w);
 384              		.loc 1 312 3 discriminator 3 view .LVU99
 385 007c A069     		ldr	r0, [r4, #24]	@ float
 386 007e FFF7FEFF 		bl	__aeabi_f2d
 387              	.LVL34:
 388 0082 0246     		mov	r2, r0
 389 0084 0B46     		mov	r3, r1
 390 0086 2846     		mov	r0, r5
 391 0088 FFF7FEFF 		bl	printf
 392              	.LVL35:
 313:Src/module_test.c **** 		printf("%f,",log_store[i].duty_r);
 393              		.loc 1 313 3 discriminator 3 view .LVU100
 394 008c E069     		ldr	r0, [r4, #28]	@ float
 395 008e FFF7FEFF 		bl	__aeabi_f2d
 396              	.LVL36:
 397 0092 0246     		mov	r2, r0
 398 0094 0B46     		mov	r3, r1
 399 0096 2846     		mov	r0, r5
 400 0098 FFF7FEFF 		bl	printf
 401              	.LVL37:
 314:Src/module_test.c **** 		printf("%f,",log_store[i].duty_l);
 402              		.loc 1 314 3 discriminator 3 view .LVU101
 403 009c 206A     		ldr	r0, [r4, #32]	@ float
ARM GAS  C:\Temp\cc40A9B8.s 			page 15


 404 009e FFF7FEFF 		bl	__aeabi_f2d
 405              	.LVL38:
 406 00a2 0246     		mov	r2, r0
 407 00a4 0B46     		mov	r3, r1
 408 00a6 2846     		mov	r0, r5
 409 00a8 FFF7FEFF 		bl	printf
 410              	.LVL39:
 315:Src/module_test.c **** 		printf("%f,",log_store[i].front_sensor_r);
 411              		.loc 1 315 3 discriminator 3 view .LVU102
 412 00ac 606A     		ldr	r0, [r4, #36]	@ float
 413 00ae FFF7FEFF 		bl	__aeabi_f2d
 414              	.LVL40:
 415 00b2 0246     		mov	r2, r0
 416 00b4 0B46     		mov	r3, r1
 417 00b6 2846     		mov	r0, r5
 418 00b8 FFF7FEFF 		bl	printf
 419              	.LVL41:
 316:Src/module_test.c **** 		printf("%f,",log_store[i].front_sensor_l);
 420              		.loc 1 316 3 discriminator 3 view .LVU103
 421 00bc A06A     		ldr	r0, [r4, #40]	@ float
 422 00be FFF7FEFF 		bl	__aeabi_f2d
 423              	.LVL42:
 424 00c2 0246     		mov	r2, r0
 425 00c4 0B46     		mov	r3, r1
 426 00c6 2846     		mov	r0, r5
 427 00c8 FFF7FEFF 		bl	printf
 428              	.LVL43:
 317:Src/module_test.c **** 		printf("%f,",log_store[i].side_sensor_r);
 429              		.loc 1 317 3 discriminator 3 view .LVU104
 430 00cc E06A     		ldr	r0, [r4, #44]	@ float
 431 00ce FFF7FEFF 		bl	__aeabi_f2d
 432              	.LVL44:
 433 00d2 0246     		mov	r2, r0
 434 00d4 0B46     		mov	r3, r1
 435 00d6 2846     		mov	r0, r5
 436 00d8 FFF7FEFF 		bl	printf
 437              	.LVL45:
 318:Src/module_test.c **** 		printf("%f,",log_store[i].side_sensor_l);
 438              		.loc 1 318 3 discriminator 3 view .LVU105
 439 00dc 206B     		ldr	r0, [r4, #48]	@ float
 440 00de FFF7FEFF 		bl	__aeabi_f2d
 441              	.LVL46:
 442 00e2 0246     		mov	r2, r0
 443 00e4 0B46     		mov	r3, r1
 444 00e6 2846     		mov	r0, r5
 445 00e8 FFF7FEFF 		bl	printf
 446              	.LVL47:
 319:Src/module_test.c **** 		printf("%f,",log_store[i].maze_x);
 447              		.loc 1 319 3 discriminator 3 view .LVU106
 448 00ec 606B     		ldr	r0, [r4, #52]	@ float
 449 00ee FFF7FEFF 		bl	__aeabi_f2d
 450              	.LVL48:
 451 00f2 0246     		mov	r2, r0
 452 00f4 0B46     		mov	r3, r1
 453 00f6 2846     		mov	r0, r5
 454 00f8 FFF7FEFF 		bl	printf
 455              	.LVL49:
ARM GAS  C:\Temp\cc40A9B8.s 			page 16


 320:Src/module_test.c **** 		printf("%f,",log_store[i].maze_y);
 456              		.loc 1 320 3 discriminator 3 view .LVU107
 457 00fc A06B     		ldr	r0, [r4, #56]	@ float
 458 00fe FFF7FEFF 		bl	__aeabi_f2d
 459              	.LVL50:
 460 0102 0246     		mov	r2, r0
 461 0104 0B46     		mov	r3, r1
 462 0106 2846     		mov	r0, r5
 463 0108 FFF7FEFF 		bl	printf
 464              	.LVL51:
 321:Src/module_test.c **** 		printf("%f,",log_store[i].wall_s_front);
 465              		.loc 1 321 3 discriminator 3 view .LVU108
 466 010c E06B     		ldr	r0, [r4, #60]	@ float
 467 010e FFF7FEFF 		bl	__aeabi_f2d
 468              	.LVL52:
 469 0112 0246     		mov	r2, r0
 470 0114 0B46     		mov	r3, r1
 471 0116 2846     		mov	r0, r5
 472 0118 FFF7FEFF 		bl	printf
 473              	.LVL53:
 322:Src/module_test.c **** 		printf("%f,",log_store[i].wall_s_right);
 474              		.loc 1 322 3 discriminator 3 view .LVU109
 475 011c 206C     		ldr	r0, [r4, #64]	@ float
 476 011e FFF7FEFF 		bl	__aeabi_f2d
 477              	.LVL54:
 478 0122 0246     		mov	r2, r0
 479 0124 0B46     		mov	r3, r1
 480 0126 2846     		mov	r0, r5
 481 0128 FFF7FEFF 		bl	printf
 482              	.LVL55:
 323:Src/module_test.c **** 		printf("%f,",log_store[i].wall_s_left);
 483              		.loc 1 323 3 discriminator 3 view .LVU110
 484 012c 606C     		ldr	r0, [r4, #68]	@ float
 485 012e FFF7FEFF 		bl	__aeabi_f2d
 486              	.LVL56:
 487 0132 0246     		mov	r2, r0
 488 0134 0B46     		mov	r3, r1
 489 0136 2846     		mov	r0, r5
 490 0138 FFF7FEFF 		bl	printf
 491              	.LVL57:
 324:Src/module_test.c **** 		printf("%f",log_store[i].V_battery);		
 492              		.loc 1 324 3 discriminator 3 view .LVU111
 493 013c A06C     		ldr	r0, [r4, #72]	@ float
 494 013e FFF7FEFF 		bl	__aeabi_f2d
 495              	.LVL58:
 496 0142 0246     		mov	r2, r0
 497 0144 0B46     		mov	r3, r1
 498 0146 0848     		ldr	r0, .L16+12
 499 0148 FFF7FEFF 		bl	printf
 500              	.LVL59:
 325:Src/module_test.c **** 		printf("\r\n"); // æ”¹è¡Œ	
 501              		.loc 1 325 3 discriminator 3 view .LVU112
 502 014c 0748     		ldr	r0, .L16+16
 503 014e FFF7FEFF 		bl	puts
 504              	.LVL60:
 248:Src/module_test.c **** 	{
 505              		.loc 1 248 22 discriminator 3 view .LVU113
ARM GAS  C:\Temp\cc40A9B8.s 			page 17


 248:Src/module_test.c **** 	{
 506              		.loc 1 248 23 is_stmt 0 discriminator 3 view .LVU114
 507 0152 0136     		adds	r6, r6, #1
 508              	.LVL61:
 248:Src/module_test.c **** 	{
 509              		.loc 1 248 23 discriminator 3 view .LVU115
 510 0154 B6B2     		uxth	r6, r6
 511              	.LVL62:
 248:Src/module_test.c **** 	{
 512              		.loc 1 248 23 discriminator 3 view .LVU116
 513 0156 58E7     		b	.L12
 514              	.L15:
 326:Src/module_test.c **** 		#endif
 327:Src/module_test.c **** 	}
 328:Src/module_test.c **** 
 329:Src/module_test.c **** }
 515              		.loc 1 329 1 view .LVU117
 516 0158 70BD     		pop	{r4, r5, r6, pc}
 517              	.LVL63:
 518              	.L17:
 519              		.loc 1 329 1 view .LVU118
 520 015a 00BF     		.align	2
 521              	.L16:
 522 015c 00000000 		.word	.LC0
 523 0160 00000000 		.word	log_store
 524 0164 F0000000 		.word	.LC1
 525 0168 F4000000 		.word	.LC2
 526 016c F8000000 		.word	.LC3
 527              		.cfi_endproc
 528              	.LFE135:
 530              		.section	.rodata.module_test.str1.4,"aMS",%progbits,1
 531              		.align	2
 532              	.LC4:
 533 0000 3C426F6F 		.ascii	"<Boot Time> %8.3f[s]\015\012\000"
 533      74205469 
 533      6D653E20 
 533      25382E33 
 533      665B735D 
 534 0017 00       		.align	2
 535              	.LC5:
 536 0018 3C496E74 		.ascii	"<Interrupt> %3.1f[%%] (MAX : %3.1f[%%])\015\012\000"
 536      65727275 
 536      70743E20 
 536      25332E31 
 536      665B2525 
 537 0042 0000     		.align	2
 538              	.LC6:
 539 0044 3C50574D 		.ascii	"<PWM Duty> L: %4.1f[%%],  R: %4.1f[%%]\015\012\000"
 539      20447574 
 539      793E204C 
 539      3A202534 
 539      2E31665B 
 540 006d 000000   		.align	2
 541              	.LC7:
 542 0070 3C456E63 		.ascii	"<Encoder> L: %5.1f[deg],  R: %5.1f[deg]\015\012\000"
 542      6F646572 
 542      3E204C3A 
ARM GAS  C:\Temp\cc40A9B8.s 			page 18


 542      2025352E 
 542      31665B64 
 543 009a 0000     		.align	2
 544              	.LC8:
 545 009c 3C6D6F75 		.ascii	"<mouse_speed> speed_m : %5.3f[m/s]  spwwd_w : %5.3f"
 545      73655F73 
 545      70656564 
 545      3E207370 
 545      6565645F 
 546 00cf 5B6D2F73 		.ascii	"[m/s] \015\012 \000"
 546      5D200D0A 
 546      2000
 547 00d9 000000   		.align	2
 548              	.LC9:
 549 00dc 3C426174 		.ascii	"<Battery> %3.2f[V]\015\012\000"
 549      74657279 
 549      3E202533 
 549      2E32665B 
 549      565D0D0A 
 550 00f1 000000   		.align	2
 551              	.LC10:
 552 00f4 3C495220 		.ascii	"<IR Sensor> Front_R: %4d, Side_R: %4d, Side_L: %4d,"
 552      53656E73 
 552      6F723E20 
 552      46726F6E 
 552      745F523A 
 553 0127 2046726F 		.ascii	" Front_L: %4d\015\012\000"
 553      6E745F4C 
 553      3A202534 
 553      640D0A00 
 554 0137 00       		.align	2
 555              	.LC11:
 556 0138 3C495220 		.ascii	"<IR Sensor_length> Front_R: %8.8f, Front_L: %8.8f\015"
 556      53656E73 
 556      6F725F6C 
 556      656E6774 
 556      683E2046 
 557 016a 0A00     		.ascii	"\012\000"
 558              		.align	2
 559              	.LC12:
 560 016c 3C494D55 		.ascii	"<IMU> Accel_X: %5.3f[m/s^2], Gyro_Z: %6.3f[rad/s]\015"
 560      3E204163 
 560      63656C5F 
 560      583A2025 
 560      352E3366 
 561 019e 0A00     		.ascii	"\012\000"
 562              		.align	2
 563              	.LC13:
 564 01a0 66726F6E 		.ascii	"front_sensor, fr: %5.8f  fl: %5.8f \015\012\000"
 564      745F7365 
 564      6E736F72 
 564      2C206672 
 564      3A202535 
 565 01c6 0000     		.align	2
 566              	.LC14:
 567 01c8 73696465 		.ascii	"side_sensor, sl: %5.8f  sr: %5.8f \015\012\000"
 567      5F73656E 
ARM GAS  C:\Temp\cc40A9B8.s 			page 19


 567      736F722C 
 567      20736C3A 
 567      2025352E 
 568 01ed 000000   		.align	2
 569              	.LC15:
 570 01f0 73696465 		.ascii	"side_wall_ctrl_mode %d \015\012\000"
 570      5F77616C 
 570      6C5F6374 
 570      726C5F6D 
 570      6F646520 
 571 020a 0000     		.align	2
 572              	.LC16:
 573 020c 725F7461 		.ascii	"r_target sl: %5.8f  sr: %5.8f \015\012\000"
 573      72676574 
 573      20736C3A 
 573      2025352E 
 573      38662020 
 574 022d 000000   		.align	2
 575              	.LC17:
 576 0230 25635B30 		.ascii	"%c[0J\000"
 576      4A00
 577 0236 0000     		.align	2
 578              	.LC18:
 579 0238 25635B25 		.ascii	"%c[%dA\000"
 579      644100
 580              		.section	.text.module_test,"ax",%progbits
 581              		.align	1
 582              		.global	module_test
 583              		.syntax unified
 584              		.thumb
 585              		.thumb_func
 586              		.fpu fpv4-sp-d16
 588              	module_test:
 589              	.LFB136:
 330:Src/module_test.c **** 
 331:Src/module_test.c **** 
 332:Src/module_test.c **** 
 333:Src/module_test.c **** /* ---------------------------------------------------------------
 334:Src/module_test.c **** 	å„æ©Ÿèƒ½ã®å‹•ä½œç¢ºèªç”¨é–¢æ•°
 335:Src/module_test.c **** --------------------------------------------------------------- */
 336:Src/module_test.c **** void module_test( void )
 337:Src/module_test.c **** {
 590              		.loc 1 337 1 is_stmt 1 view -0
 591              		.cfi_startproc
 592              		@ args = 0, pretend = 0, frame = 0
 593              		@ frame_needed = 0, uses_anonymous_args = 0
 594 0000 F0B5     		push	{r4, r5, r6, r7, lr}
 595              	.LCFI2:
 596              		.cfi_def_cfa_offset 20
 597              		.cfi_offset 4, -20
 598              		.cfi_offset 5, -16
 599              		.cfi_offset 6, -12
 600              		.cfi_offset 7, -8
 601              		.cfi_offset 14, -4
 602 0002 2DED048B 		vpush.64	{d8, d9}
 603              	.LCFI3:
 604              		.cfi_def_cfa_offset 36
ARM GAS  C:\Temp\cc40A9B8.s 			page 20


 605              		.cfi_offset 80, -36
 606              		.cfi_offset 81, -32
 607              		.cfi_offset 82, -28
 608              		.cfi_offset 83, -24
 609 0006 83B0     		sub	sp, sp, #12
 610              	.LCFI4:
 611              		.cfi_def_cfa_offset 48
 338:Src/module_test.c **** 	uint16_t	line 	  = 0;
 612              		.loc 1 338 2 view .LVU120
 613              	.LVL64:
 339:Src/module_test.c **** 	int16_t		duty_l	  = 0;
 614              		.loc 1 339 2 view .LVU121
 340:Src/module_test.c **** 	int16_t		duty_r	  = 0;
 615              		.loc 1 340 2 view .LVU122
 341:Src/module_test.c **** 
 342:Src/module_test.c **** 	// aã‚¨ãƒ³ã‚³ãƒ¼ãƒ€ã®ã‚«ã‚¦ãƒ³ãƒˆã‚’ãƒªã‚»ãƒƒãƒˆ
 343:Src/module_test.c **** 	Encoder_ResetCount_Left();
 616              		.loc 1 343 2 view .LVU123
 617 0008 FFF7FEFF 		bl	Encoder_ResetCount_Left
 618              	.LVL65:
 344:Src/module_test.c **** 	Encoder_ResetCount_Right();
 619              		.loc 1 344 2 view .LVU124
 620 000c FFF7FEFF 		bl	Encoder_ResetCount_Right
 621              	.LVL66:
 338:Src/module_test.c **** 	int16_t		duty_l	  = 0;
 622              		.loc 1 338 11 is_stmt 0 view .LVU125
 623 0010 0024     		movs	r4, #0
 624              	.LVL67:
 625              	.L19:
 345:Src/module_test.c **** 
 346:Src/module_test.c **** 	while( 1 ) {
 626              		.loc 1 346 2 is_stmt 1 discriminator 1 view .LVU126
 347:Src/module_test.c **** //		__disable_irq();
 348:Src/module_test.c **** 		// aå‰²ã‚Šè¾¼ã¿å‡¦ç†ç‡ã‚’è¡¨ç¤º
 349:Src/module_test.c **** 		printf("<Boot Time> %8.3f[s]\r\n", Interrupt_GetBootTime()); line++;
 627              		.loc 1 349 3 discriminator 1 view .LVU127
 628              		.loc 1 349 38 is_stmt 0 discriminator 1 view .LVU128
 629 0012 FFF7FEFF 		bl	Interrupt_GetBootTime
 630              	.LVL68:
 631 0016 10EE100A 		vmov	r0, s0
 632              		.loc 1 349 3 discriminator 1 view .LVU129
 633 001a FFF7FEFF 		bl	__aeabi_f2d
 634              	.LVL69:
 635 001e 0246     		mov	r2, r0
 636 0020 0B46     		mov	r3, r1
 637 0022 8D48     		ldr	r0, .L21
 638 0024 FFF7FEFF 		bl	printf
 639              	.LVL70:
 640              		.loc 1 349 64 is_stmt 1 discriminator 1 view .LVU130
 350:Src/module_test.c **** 		printf("<Interrupt> %3.1f[%%] (MAX : %3.1f[%%])\r\n",
 641              		.loc 1 350 3 discriminator 1 view .LVU131
 351:Src/module_test.c **** 				(float)Interrupt_GetDuty()/10.f, (float)Interrupt_GetDuty_Max()/10.f); line++;
 642              		.loc 1 351 12 is_stmt 0 discriminator 1 view .LVU132
 643 0028 FFF7FEFF 		bl	Interrupt_GetDuty
 644              	.LVL71:
 645 002c 07EE900A 		vmov	s15, r0	@ int
 646              		.loc 1 351 5 discriminator 1 view .LVU133
ARM GAS  C:\Temp\cc40A9B8.s 			page 21


 647 0030 F8EE677A 		vcvt.f32.u32	s15, s15
 648              		.loc 1 351 31 discriminator 1 view .LVU134
 649 0034 B2EE048A 		vmov.f32	s16, #1.0e+1
 650 0038 87EE889A 		vdiv.f32	s18, s15, s16
 651              		.loc 1 351 45 discriminator 1 view .LVU135
 652 003c FFF7FEFF 		bl	Interrupt_GetDuty_Max
 653              	.LVL72:
 654 0040 07EE900A 		vmov	s15, r0	@ int
 655              		.loc 1 351 38 discriminator 1 view .LVU136
 656 0044 F8EE677A 		vcvt.f32.u32	s15, s15
 657              		.loc 1 351 68 discriminator 1 view .LVU137
 658 0048 C7EE888A 		vdiv.f32	s17, s15, s16
 350:Src/module_test.c **** 		printf("<Interrupt> %3.1f[%%] (MAX : %3.1f[%%])\r\n",
 659              		.loc 1 350 3 discriminator 1 view .LVU138
 660 004c 19EE100A 		vmov	r0, s18
 661 0050 FFF7FEFF 		bl	__aeabi_f2d
 662              	.LVL73:
 663 0054 0646     		mov	r6, r0
 664 0056 0F46     		mov	r7, r1
 665 0058 18EE900A 		vmov	r0, s17
 666 005c FFF7FEFF 		bl	__aeabi_f2d
 667              	.LVL74:
 668 0060 CDE90001 		strd	r0, [sp]
 669 0064 3246     		mov	r2, r6
 670 0066 3B46     		mov	r3, r7
 671 0068 7C48     		ldr	r0, .L21+4
 672 006a FFF7FEFF 		bl	printf
 673              	.LVL75:
 674              		.loc 1 351 76 is_stmt 1 discriminator 1 view .LVU139
 352:Src/module_test.c **** 
 353:Src/module_test.c **** 		// aãƒ¢ãƒ¼ã‚¿ã‚’æŒ‡å®šã®Dutyã‚’è¡¨ç¤º
 354:Src/module_test.c **** 		printf("<PWM Duty> L: %4.1f[%%],  R: %4.1f[%%]\r\n",
 675              		.loc 1 354 3 discriminator 1 view .LVU140
 676 006e 0022     		movs	r2, #0
 677 0070 0023     		movs	r3, #0
 678 0072 CDE90023 		strd	r2, [sp]
 679 0076 7A48     		ldr	r0, .L21+8
 680 0078 FFF7FEFF 		bl	printf
 681              	.LVL76:
 355:Src/module_test.c **** 				(float)duty_l/10.f, (float)duty_r/10.f); line++;
 682              		.loc 1 355 46 discriminator 1 view .LVU141
 356:Src/module_test.c **** 
 357:Src/module_test.c **** 		// aã‚¨ãƒ³ã‚³ãƒ¼ãƒ€ã®è§’åº¦è¡¨ç¤º
 358:Src/module_test.c **** 		printf("<Encoder> L: %5.1f[deg],  R: %5.1f[deg]\r\n",
 683              		.loc 1 358 3 discriminator 1 view .LVU142
 359:Src/module_test.c **** 				RAD2DEG(Encoder_GetAngle_Left()), RAD2DEG(Encoder_GetAngle_Right())); line++;
 684              		.loc 1 359 5 is_stmt 0 discriminator 1 view .LVU143
 685 007c FFF7FEFF 		bl	Encoder_GetAngle_Left
 686              	.LVL77:
 687 0080 DFED789A 		vldr.32	s19, .L21+12
 688 0084 C0EE298A 		vdiv.f32	s17, s0, s19
 689 0088 9FED779A 		vldr.32	s18, .L21+16
 690 008c 68EE898A 		vmul.f32	s17, s17, s18
 691              		.loc 1 359 39 discriminator 1 view .LVU144
 692 0090 FFF7FEFF 		bl	Encoder_GetAngle_Right
 693              	.LVL78:
 694 0094 80EE298A 		vdiv.f32	s16, s0, s19
ARM GAS  C:\Temp\cc40A9B8.s 			page 22


 695 0098 28EE098A 		vmul.f32	s16, s16, s18
 358:Src/module_test.c **** 				RAD2DEG(Encoder_GetAngle_Left()), RAD2DEG(Encoder_GetAngle_Right())); line++;
 696              		.loc 1 358 3 discriminator 1 view .LVU145
 697 009c 18EE900A 		vmov	r0, s17
 698 00a0 FFF7FEFF 		bl	__aeabi_f2d
 699              	.LVL79:
 700 00a4 0646     		mov	r6, r0
 701 00a6 0F46     		mov	r7, r1
 702 00a8 18EE100A 		vmov	r0, s16
 703 00ac FFF7FEFF 		bl	__aeabi_f2d
 704              	.LVL80:
 705 00b0 CDE90001 		strd	r0, [sp]
 706 00b4 3246     		mov	r2, r6
 707 00b6 3B46     		mov	r3, r7
 708 00b8 6C48     		ldr	r0, .L21+20
 709 00ba FFF7FEFF 		bl	printf
 710              	.LVL81:
 711              		.loc 1 359 75 is_stmt 1 discriminator 1 view .LVU146
 360:Src/module_test.c **** 
 361:Src/module_test.c **** 		// aãƒã‚¦ã‚¹ã®ã‚¹ãƒ”ãƒ¼ãƒ‰è¡¨ç¤º from encoder
 362:Src/module_test.c **** 		printf("<mouse_speed> speed_m : %5.3f[m/s]  spwwd_w : %5.3f[m/s] \r\n ",
 712              		.loc 1 362 3 discriminator 1 view .LVU147
 363:Src/module_test.c **** 				get_move_speed(),IMU_GetGyro_Z());line++;
 713              		.loc 1 363 5 is_stmt 0 discriminator 1 view .LVU148
 714 00be FFF7FEFF 		bl	get_move_speed
 715              	.LVL82:
 716 00c2 10EE106A 		vmov	r6, s0
 717              		.loc 1 363 22 discriminator 1 view .LVU149
 718 00c6 FFF7FEFF 		bl	IMU_GetGyro_Z
 719              	.LVL83:
 720 00ca 10EE105A 		vmov	r5, s0
 362:Src/module_test.c **** 				get_move_speed(),IMU_GetGyro_Z());line++;
 721              		.loc 1 362 3 discriminator 1 view .LVU150
 722 00ce 3046     		mov	r0, r6	@ float
 723 00d0 FFF7FEFF 		bl	__aeabi_f2d
 724              	.LVL84:
 725 00d4 0646     		mov	r6, r0
 726 00d6 0F46     		mov	r7, r1
 727 00d8 2846     		mov	r0, r5	@ float
 728 00da FFF7FEFF 		bl	__aeabi_f2d
 729              	.LVL85:
 730 00de CDE90001 		strd	r0, [sp]
 731 00e2 3246     		mov	r2, r6
 732 00e4 3B46     		mov	r3, r7
 733 00e6 6248     		ldr	r0, .L21+24
 734 00e8 FFF7FEFF 		bl	printf
 735              	.LVL86:
 736              		.loc 1 363 39 is_stmt 1 discriminator 1 view .LVU151
 364:Src/module_test.c **** 
 365:Src/module_test.c **** 		// aãƒãƒƒãƒ†ãƒªãƒ¼é›»åœ§ã®è¡¨ç¤º
 366:Src/module_test.c **** 		printf("<Battery> %3.2f[V]\r\n", Battery_GetVoltage()); line++;
 737              		.loc 1 366 3 discriminator 1 view .LVU152
 738              		.loc 1 366 36 is_stmt 0 discriminator 1 view .LVU153
 739 00ec FFF7FEFF 		bl	Battery_GetVoltage
 740              	.LVL87:
 741 00f0 10EE100A 		vmov	r0, s0
 742              		.loc 1 366 3 discriminator 1 view .LVU154
ARM GAS  C:\Temp\cc40A9B8.s 			page 23


 743 00f4 FFF7FEFF 		bl	__aeabi_f2d
 744              	.LVL88:
 745 00f8 0246     		mov	r2, r0
 746 00fa 0B46     		mov	r3, r1
 747 00fc 5D48     		ldr	r0, .L21+28
 748 00fe FFF7FEFF 		bl	printf
 749              	.LVL89:
 750              		.loc 1 366 59 is_stmt 1 discriminator 1 view .LVU155
 367:Src/module_test.c **** 
 368:Src/module_test.c **** 		// aå£ã‚»ãƒ³ã‚µã®ADå€¤è¡¨ç¤º
 369:Src/module_test.c **** 		printf("<IR Sensor> Front_R: %4d, Side_R: %4d, Side_L: %4d, Front_L: %4d\r\n",
 751              		.loc 1 369 3 discriminator 1 view .LVU156
 370:Src/module_test.c **** 				Sensor_GetValue(3), Sensor_GetValue(2), Sensor_GetValue(1), Sensor_GetValue(0)); line++;
 752              		.loc 1 370 5 is_stmt 0 discriminator 1 view .LVU157
 753 0102 0320     		movs	r0, #3
 754 0104 FFF7FEFF 		bl	Sensor_GetValue
 755              	.LVL90:
 756 0108 0546     		mov	r5, r0
 757              		.loc 1 370 25 discriminator 1 view .LVU158
 758 010a 0220     		movs	r0, #2
 759 010c FFF7FEFF 		bl	Sensor_GetValue
 760              	.LVL91:
 761 0110 0646     		mov	r6, r0
 762              		.loc 1 370 45 discriminator 1 view .LVU159
 763 0112 0120     		movs	r0, #1
 764 0114 FFF7FEFF 		bl	Sensor_GetValue
 765              	.LVL92:
 766 0118 0746     		mov	r7, r0
 767              		.loc 1 370 65 discriminator 1 view .LVU160
 768 011a 0020     		movs	r0, #0
 769 011c FFF7FEFF 		bl	Sensor_GetValue
 770              	.LVL93:
 369:Src/module_test.c **** 				Sensor_GetValue(3), Sensor_GetValue(2), Sensor_GetValue(1), Sensor_GetValue(0)); line++;
 771              		.loc 1 369 3 discriminator 1 view .LVU161
 772 0120 0090     		str	r0, [sp]
 773 0122 3B46     		mov	r3, r7
 774 0124 3246     		mov	r2, r6
 775 0126 2946     		mov	r1, r5
 776 0128 5348     		ldr	r0, .L21+32
 777 012a FFF7FEFF 		bl	printf
 778              	.LVL94:
 779              		.loc 1 370 86 is_stmt 1 discriminator 1 view .LVU162
 371:Src/module_test.c **** 		Sensor_DebugPrintf();line++;
 780              		.loc 1 371 3 discriminator 1 view .LVU163
 781 012e FFF7FEFF 		bl	Sensor_DebugPrintf
 782              	.LVL95:
 783              		.loc 1 371 24 discriminator 1 view .LVU164
 372:Src/module_test.c **** 
 373:Src/module_test.c **** 		//å£ã‚»ãƒ³ã‚µã®è·é›¢å¤‰æ›çµæœç¢ºèª
 374:Src/module_test.c **** 		printf("<IR Sensor_length> Front_R: %8.8f, Front_L: %8.8f\r\n",
 784              		.loc 1 374 3 discriminator 1 view .LVU165
 785 0132 0320     		movs	r0, #3
 786 0134 FFF7FEFF 		bl	SensorValue2length
 787              	.LVL96:
 788 0138 57EC106B 		vmov	r6, r7, d0
 789 013c 0020     		movs	r0, #0
 790 013e FFF7FEFF 		bl	SensorValue2length
ARM GAS  C:\Temp\cc40A9B8.s 			page 24


 791              	.LVL97:
 792 0142 8DED000B 		vstr.64	d0, [sp]
 793 0146 3246     		mov	r2, r6
 794 0148 3B46     		mov	r3, r7
 795 014a 4C48     		ldr	r0, .L21+36
 796 014c FFF7FEFF 		bl	printf
 797              	.LVL98:
 375:Src/module_test.c **** 				SensorValue2length(3),SensorValue2length(0)); line++;
 798              		.loc 1 375 51 discriminator 1 view .LVU166
 376:Src/module_test.c **** 		// IMUï¼ˆåŠ é€Ÿåº¦è¨ˆã¨ã‚¸ãƒ£ã‚¤ãƒ­ï¼‰ã®è¨ˆæ¸¬å€¤è¡¨ç¤º
 377:Src/module_test.c **** 		printf("<IMU> Accel_X: %5.3f[m/s^2], Gyro_Z: %6.3f[rad/s]\r\n",
 799              		.loc 1 377 3 discriminator 1 view .LVU167
 378:Src/module_test.c **** 				IMU_GetAccel_X(), IMU_GetGyro_Z()); line++;
 800              		.loc 1 378 5 is_stmt 0 discriminator 1 view .LVU168
 801 0150 FFF7FEFF 		bl	IMU_GetAccel_X
 802              	.LVL99:
 803 0154 10EE106A 		vmov	r6, s0
 804              		.loc 1 378 23 discriminator 1 view .LVU169
 805 0158 FFF7FEFF 		bl	IMU_GetGyro_Z
 806              	.LVL100:
 807 015c 10EE105A 		vmov	r5, s0
 377:Src/module_test.c **** 				IMU_GetAccel_X(), IMU_GetGyro_Z()); line++;
 808              		.loc 1 377 3 discriminator 1 view .LVU170
 809 0160 3046     		mov	r0, r6	@ float
 810 0162 FFF7FEFF 		bl	__aeabi_f2d
 811              	.LVL101:
 812 0166 0646     		mov	r6, r0
 813 0168 0F46     		mov	r7, r1
 814 016a 2846     		mov	r0, r5	@ float
 815 016c FFF7FEFF 		bl	__aeabi_f2d
 816              	.LVL102:
 817 0170 CDE90001 		strd	r0, [sp]
 818 0174 3246     		mov	r2, r6
 819 0176 3B46     		mov	r3, r7
 820 0178 4148     		ldr	r0, .L21+40
 821 017a FFF7FEFF 		bl	printf
 822              	.LVL103:
 823              		.loc 1 378 41 is_stmt 1 discriminator 1 view .LVU171
 379:Src/module_test.c **** 		// aå£ã‚»ãƒ³ã‚µç”¨ã‚¿ã‚¤ãƒ
 380:Src/module_test.c **** 		// printf("<IR Sensor_tim> tim: %5.8f\r\n",ABS(front_sensor_ref - SensorValue2length(3)) );line++
 381:Src/module_test.c **** 		// å£ã‚»ãƒ³ã‚µ
 382:Src/module_test.c **** 		printf("front_sensor, fr: %5.8f  fl: %5.8f \r\n",get_frontrightwall_dis_table(Sensor_GetValue(3))
 824              		.loc 1 382 3 discriminator 1 view .LVU172
 825              		.loc 1 382 52 is_stmt 0 discriminator 1 view .LVU173
 826 017e 0320     		movs	r0, #3
 827 0180 FFF7FEFF 		bl	Sensor_GetValue
 828              	.LVL104:
 829 0184 FFF7FEFF 		bl	get_frontrightwall_dis_table
 830              	.LVL105:
 831 0188 10EE106A 		vmov	r6, s0
 832              		.loc 1 382 101 discriminator 1 view .LVU174
 833 018c 0020     		movs	r0, #0
 834 018e FFF7FEFF 		bl	Sensor_GetValue
 835              	.LVL106:
 836 0192 FFF7FEFF 		bl	get_frontleftwall_dis_table
 837              	.LVL107:
 838 0196 10EE105A 		vmov	r5, s0
ARM GAS  C:\Temp\cc40A9B8.s 			page 25


 839              		.loc 1 382 3 discriminator 1 view .LVU175
 840 019a 3046     		mov	r0, r6	@ float
 841 019c FFF7FEFF 		bl	__aeabi_f2d
 842              	.LVL108:
 843 01a0 0646     		mov	r6, r0
 844 01a2 0F46     		mov	r7, r1
 845 01a4 2846     		mov	r0, r5	@ float
 846 01a6 FFF7FEFF 		bl	__aeabi_f2d
 847              	.LVL109:
 848 01aa CDE90001 		strd	r0, [sp]
 849 01ae 3246     		mov	r2, r6
 850 01b0 3B46     		mov	r3, r7
 851 01b2 3448     		ldr	r0, .L21+44
 852 01b4 FFF7FEFF 		bl	printf
 853              	.LVL110:
 854              		.loc 1 382 150 is_stmt 1 discriminator 1 view .LVU176
 383:Src/module_test.c **** 		printf("side_sensor, sl: %5.8f  sr: %5.8f \r\n",get_sidewall_dis_table(Sensor_GetValue(1)),get_si
 855              		.loc 1 383 3 discriminator 1 view .LVU177
 856              		.loc 1 383 51 is_stmt 0 discriminator 1 view .LVU178
 857 01b8 0120     		movs	r0, #1
 858 01ba FFF7FEFF 		bl	Sensor_GetValue
 859              	.LVL111:
 860 01be FFF7FEFF 		bl	get_sidewall_dis_table
 861              	.LVL112:
 862 01c2 10EE106A 		vmov	r6, s0
 863              		.loc 1 383 94 discriminator 1 view .LVU179
 864 01c6 0220     		movs	r0, #2
 865 01c8 FFF7FEFF 		bl	Sensor_GetValue
 866              	.LVL113:
 867 01cc FFF7FEFF 		bl	get_sidewall_dis_table
 868              	.LVL114:
 869 01d0 10EE105A 		vmov	r5, s0
 870              		.loc 1 383 3 discriminator 1 view .LVU180
 871 01d4 3046     		mov	r0, r6	@ float
 872 01d6 FFF7FEFF 		bl	__aeabi_f2d
 873              	.LVL115:
 874 01da 0646     		mov	r6, r0
 875 01dc 0F46     		mov	r7, r1
 876 01de 2846     		mov	r0, r5	@ float
 877 01e0 FFF7FEFF 		bl	__aeabi_f2d
 878              	.LVL116:
 879 01e4 CDE90001 		strd	r0, [sp]
 880 01e8 3246     		mov	r2, r6
 881 01ea 3B46     		mov	r3, r7
 882 01ec 2648     		ldr	r0, .L21+48
 883 01ee FFF7FEFF 		bl	printf
 884              	.LVL117:
 885              		.loc 1 383 138 is_stmt 1 discriminator 1 view .LVU181
 384:Src/module_test.c **** 
 385:Src/module_test.c **** 		// æ¨ªå£åˆ¶å¾¡
 386:Src/module_test.c **** 		printf("side_wall_ctrl_mode %d \r\n",get_side_wall_ctrl_mode());line++;
 886              		.loc 1 386 3 discriminator 1 view .LVU182
 887              		.loc 1 386 40 is_stmt 0 discriminator 1 view .LVU183
 888 01f2 FFF7FEFF 		bl	get_side_wall_ctrl_mode
 889              	.LVL118:
 890 01f6 0146     		mov	r1, r0
 891              		.loc 1 386 3 discriminator 1 view .LVU184
ARM GAS  C:\Temp\cc40A9B8.s 			page 26


 892 01f8 2448     		ldr	r0, .L21+52
 893 01fa FFF7FEFF 		bl	printf
 894              	.LVL119:
 895              		.loc 1 386 67 is_stmt 1 discriminator 1 view .LVU185
 387:Src/module_test.c **** 		printf("r_target sl: %5.8f  sr: %5.8f \r\n",get_target_sensor_sl(),get_target_sensor_sr());line++
 896              		.loc 1 387 3 discriminator 1 view .LVU186
 897              		.loc 1 387 47 is_stmt 0 discriminator 1 view .LVU187
 898 01fe FFF7FEFF 		bl	get_target_sensor_sl
 899              	.LVL120:
 900 0202 10EE106A 		vmov	r6, s0
 901              		.loc 1 387 70 discriminator 1 view .LVU188
 902 0206 FFF7FEFF 		bl	get_target_sensor_sr
 903              	.LVL121:
 904 020a 10EE105A 		vmov	r5, s0
 905              		.loc 1 387 3 discriminator 1 view .LVU189
 906 020e 3046     		mov	r0, r6	@ float
 907 0210 FFF7FEFF 		bl	__aeabi_f2d
 908              	.LVL122:
 909 0214 0646     		mov	r6, r0
 910 0216 0F46     		mov	r7, r1
 911 0218 2846     		mov	r0, r5	@ float
 912 021a FFF7FEFF 		bl	__aeabi_f2d
 913              	.LVL123:
 914 021e CDE90001 		strd	r0, [sp]
 915 0222 3246     		mov	r2, r6
 916 0224 3B46     		mov	r3, r7
 917 0226 1A48     		ldr	r0, .L21+56
 918 0228 FFF7FEFF 		bl	printf
 919              	.LVL124:
 920              		.loc 1 387 94 is_stmt 1 discriminator 1 view .LVU190
 921              		.loc 1 387 98 is_stmt 0 discriminator 1 view .LVU191
 922 022c 0E34     		adds	r4, r4, #14
 923              	.LVL125:
 924              		.loc 1 387 98 discriminator 1 view .LVU192
 925 022e A4B2     		uxth	r4, r4
 926              	.LVL126:
 388:Src/module_test.c **** 		
 389:Src/module_test.c **** 		fflush(stdout);
 927              		.loc 1 389 3 is_stmt 1 discriminator 1 view .LVU193
 928              		.loc 1 389 10 is_stmt 0 discriminator 1 view .LVU194
 929 0230 184B     		ldr	r3, .L21+60
 930 0232 1B68     		ldr	r3, [r3]
 931              		.loc 1 389 3 discriminator 1 view .LVU195
 932 0234 9868     		ldr	r0, [r3, #8]
 933 0236 FFF7FEFF 		bl	fflush
 934              	.LVL127:
 390:Src/module_test.c **** 		HAL_Delay(500);
 935              		.loc 1 390 3 is_stmt 1 discriminator 1 view .LVU196
 936 023a 4FF4FA70 		mov	r0, #500
 937 023e FFF7FEFF 		bl	HAL_Delay
 938              	.LVL128:
 391:Src/module_test.c **** 		// aç”»é¢ã®ã‚¯ãƒªã‚¢
 392:Src/module_test.c **** 		printf("%c[0J", 0x1b);
 939              		.loc 1 392 3 discriminator 1 view .LVU197
 940 0242 1B21     		movs	r1, #27
 941 0244 1448     		ldr	r0, .L21+64
 942 0246 FFF7FEFF 		bl	printf
ARM GAS  C:\Temp\cc40A9B8.s 			page 27


 943              	.LVL129:
 393:Src/module_test.c **** 		printf("%c[%dA", 0x1b, line);
 944              		.loc 1 393 3 discriminator 1 view .LVU198
 945 024a 2246     		mov	r2, r4
 946 024c 1B21     		movs	r1, #27
 947 024e 1348     		ldr	r0, .L21+68
 948 0250 FFF7FEFF 		bl	printf
 949              	.LVL130:
 346:Src/module_test.c **** //		__disable_irq();
 950              		.loc 1 346 7 discriminator 1 view .LVU199
 951 0254 DDE6     		b	.L19
 952              	.L22:
 953 0256 00BF     		.align	2
 954              	.L21:
 955 0258 00000000 		.word	.LC4
 956 025c 18000000 		.word	.LC5
 957 0260 44000000 		.word	.LC6
 958 0264 DA0F4940 		.word	1078530010
 959 0268 00003443 		.word	1127481344
 960 026c 70000000 		.word	.LC7
 961 0270 9C000000 		.word	.LC8
 962 0274 DC000000 		.word	.LC9
 963 0278 F4000000 		.word	.LC10
 964 027c 38010000 		.word	.LC11
 965 0280 6C010000 		.word	.LC12
 966 0284 A0010000 		.word	.LC13
 967 0288 C8010000 		.word	.LC14
 968 028c F0010000 		.word	.LC15
 969 0290 0C020000 		.word	.LC16
 970 0294 00000000 		.word	_impure_ptr
 971 0298 30020000 		.word	.LC17
 972 029c 38020000 		.word	.LC18
 973              		.cfi_endproc
 974              	.LFE136:
 976              		.section	.bss.log_counter,"aw",%nobits
 977              		.align	1
 978              		.set	.LANCHOR0,. + 0
 981              	log_counter:
 982 0000 0000     		.space	2
 983              		.section	.bss.log_store,"aw",%nobits
 984              		.align	2
 987              	log_store:
 988 0000 00000000 		.space	76000
 988      00000000 
 988      00000000 
 988      00000000 
 988      00000000 
 989              		.text
 990              	.Letext0:
 991              		.file 2 "c:\\tools\\gcc-arm-none-eabi-9-2019-q4-major\\arm-none-eabi\\include\\machine\\_default_t
 992              		.file 3 "c:\\tools\\gcc-arm-none-eabi-9-2019-q4-major\\arm-none-eabi\\include\\sys\\lock.h"
 993              		.file 4 "c:\\tools\\gcc-arm-none-eabi-9-2019-q4-major\\arm-none-eabi\\include\\sys\\_types.h"
 994              		.file 5 "c:\\tools\\gcc-arm-none-eabi-9-2019-q4-major\\lib\\gcc\\arm-none-eabi\\9.2.1\\include\\st
 995              		.file 6 "c:\\tools\\gcc-arm-none-eabi-9-2019-q4-major\\arm-none-eabi\\include\\sys\\reent.h"
 996              		.file 7 "c:\\tools\\gcc-arm-none-eabi-9-2019-q4-major\\arm-none-eabi\\include\\sys\\_stdint.h"
 997              		.file 8 "c:\\tools\\gcc-arm-none-eabi-9-2019-q4-major\\arm-none-eabi\\include\\math.h"
 998              		.file 9 "Drivers/CMSIS/Include/core_cm4.h"
ARM GAS  C:\Temp\cc40A9B8.s 			page 28


 999              		.file 10 "Drivers/CMSIS/Device/ST/STM32F4xx/Include/system_stm32f4xx.h"
 1000              		.file 11 "Drivers/CMSIS/Device/ST/STM32F4xx/Include/stm32f413xx.h"
 1001              		.file 12 "Drivers/CMSIS/Device/ST/STM32F4xx/Include/stm32f4xx.h"
 1002              		.file 13 "Drivers/STM32F4xx_HAL_Driver/Inc/stm32f4xx_hal_def.h"
 1003              		.file 14 "Drivers/STM32F4xx_HAL_Driver/Inc/stm32f4xx_hal_dma.h"
 1004              		.file 15 "Drivers/STM32F4xx_HAL_Driver/Inc/stm32f4xx_hal_adc.h"
 1005              		.file 16 "Drivers/STM32F4xx_HAL_Driver/Inc/stm32f4xx_hal_spi.h"
 1006              		.file 17 "Drivers/STM32F4xx_HAL_Driver/Inc/stm32f4xx_hal_tim.h"
 1007              		.file 18 "Drivers/STM32F4xx_HAL_Driver/Inc/stm32f4xx_hal_uart.h"
 1008              		.file 19 "Inc/adc.h"
 1009              		.file 20 "Inc/spi.h"
 1010              		.file 21 "Inc/tim.h"
 1011              		.file 22 "Inc/usart.h"
 1012              		.file 23 "c:\\tools\\gcc-arm-none-eabi-9-2019-q4-major\\arm-none-eabi\\include\\stdlib.h"
 1013              		.file 24 "Inc/maze_solve.h"
 1014              		.file 25 "Inc/encorder.h"
 1015              		.file 26 "Inc/interrupt.h"
 1016              		.file 27 "c:\\tools\\gcc-arm-none-eabi-9-2019-q4-major\\arm-none-eabi\\include\\stdio.h"
 1017              		.file 28 "Inc/mouse_state.h"
 1018              		.file 29 "Inc/imu.h"
 1019              		.file 30 "Inc/battery.h"
 1020              		.file 31 "Inc/ir_sensor.h"
 1021              		.file 32 "Inc/lookuptable.h"
 1022              		.file 33 "Inc/adjust.h"
 1023              		.file 34 "Drivers/STM32F4xx_HAL_Driver/Inc/stm32f4xx_hal.h"
 1024              		.file 35 "Inc/target.h"
 1025              		.file 36 "Inc/exvol.h"
 1026              		.file 37 "<built-in>"
ARM GAS  C:\Temp\cc40A9B8.s 			page 29


DEFINED SYMBOLS
                            *ABS*:00000000 module_test.c
  C:\Temp\cc40A9B8.s:18     .text.log_init:00000000 $t
  C:\Temp\cc40A9B8.s:26     .text.log_init:00000000 log_init
  C:\Temp\cc40A9B8.s:44     .text.log_init:00000008 $d
  C:\Temp\cc40A9B8.s:49     .text.data_get:00000000 $t
  C:\Temp\cc40A9B8.s:56     .text.data_get:00000000 data_get
  C:\Temp\cc40A9B8.s:257    .text.data_get:0000012c $d
  C:\Temp\cc40A9B8.s:987    .bss.log_store:00000000 log_store
  C:\Temp\cc40A9B8.s:269    .rodata.data_read.str1.4:00000000 $d
  C:\Temp\cc40A9B8.s:287    .text.data_read:00000000 $t
  C:\Temp\cc40A9B8.s:294    .text.data_read:00000000 data_read
  C:\Temp\cc40A9B8.s:522    .text.data_read:0000015c $d
  C:\Temp\cc40A9B8.s:531    .rodata.module_test.str1.4:00000000 $d
  C:\Temp\cc40A9B8.s:581    .text.module_test:00000000 $t
  C:\Temp\cc40A9B8.s:588    .text.module_test:00000000 module_test
  C:\Temp\cc40A9B8.s:955    .text.module_test:00000258 $d
  C:\Temp\cc40A9B8.s:977    .bss.log_counter:00000000 $d
  C:\Temp\cc40A9B8.s:981    .bss.log_counter:00000000 log_counter
  C:\Temp\cc40A9B8.s:984    .bss.log_store:00000000 $d

UNDEFINED SYMBOLS
get_ideal_length
get_move_speed_ave
get_move_length
get_ideal_angle
get_rotation_speed
get_rotation_angle
get_target_duty_r
get_target_duty_l
Sensor_GetValue
Battery_GetVoltage
current_x
current_y
wall_sensor_front
wall_sensor_right
wall_sensor_left
__aeabi_f2d
printf
puts
Encoder_ResetCount_Left
Encoder_ResetCount_Right
Interrupt_GetBootTime
Interrupt_GetDuty
Interrupt_GetDuty_Max
Encoder_GetAngle_Left
Encoder_GetAngle_Right
get_move_speed
IMU_GetGyro_Z
Sensor_DebugPrintf
SensorValue2length
IMU_GetAccel_X
get_frontrightwall_dis_table
get_frontleftwall_dis_table
get_sidewall_dis_table
get_side_wall_ctrl_mode
get_target_sensor_sl
ARM GAS  C:\Temp\cc40A9B8.s 			page 30


get_target_sensor_sr
fflush
HAL_Delay
_impure_ptr
