ARM GAS  C:\Temp\cco4uphb.s 			page 1


   1              		.cpu cortex-m4
   2              		.eabi_attribute 27, 1
   3              		.eabi_attribute 28, 1
   4              		.eabi_attribute 20, 1
   5              		.eabi_attribute 21, 1
   6              		.eabi_attribute 23, 3
   7              		.eabi_attribute 24, 1
   8              		.eabi_attribute 25, 1
   9              		.eabi_attribute 26, 1
  10              		.eabi_attribute 30, 1
  11              		.eabi_attribute 34, 1
  12              		.eabi_attribute 18, 4
  13              		.file	"movement.c"
  14              		.text
  15              	.Ltext0:
  16              		.cfi_sections	.debug_frame
  17              		.section	.text.move_comp_jud,"ax",%progbits
  18              		.align	1
  19              		.global	move_comp_jud
  20              		.arch armv7e-m
  21              		.syntax unified
  22              		.thumb
  23              		.thumb_func
  24              		.fpu fpv4-sp-d16
  26              	move_comp_jud:
  27              	.LFB3:
  28              		.file 1 "Src/movement.c"
   1:Src/movement.c **** //動作方法を記述予定(move_back)など
   2:Src/movement.c **** 
   3:Src/movement.c **** 
   4:Src/movement.c **** 
   5:Src/movement.c **** #include <stdio.h>
   6:Src/movement.c **** #include "param.h"
   7:Src/movement.c **** #include "target.h"
   8:Src/movement.c **** #include "movement.h"
   9:Src/movement.c **** #include "adjust.h"
  10:Src/movement.c **** #include "exvol.h"
  11:Src/movement.c **** 
  12:Src/movement.c **** static run_start run_first_flg = 0;			// 走行開始フラグ 0:走行開始時　1:それ以外
  13:Src/movement.c **** static wall_flg	front_wall_flg = nowall;	//　前壁の有無フラグ
  14:Src/movement.c **** static wall_flg	right_wall_flg = nowall;	//　右壁の有無フラグ
  15:Src/movement.c **** static wall_flg	left_wall_flg = nowall;		//　左壁の有無フラグ
  16:Src/movement.c **** 
  17:Src/movement.c **** 
  18:Src/movement.c **** //機能	: 移動完了判断
  19:Src/movement.c **** //引数	: なし
  20:Src/movement.c **** //返り値	: 判断結果(0:未完,1:完了)
  21:Src/movement.c **** uint8_t move_comp_jud ( void )
  22:Src/movement.c **** {
  29              		.loc 1 22 1 view -0
  30              		.cfi_startproc
  31              		@ args = 0, pretend = 0, frame = 0
  32              		@ frame_needed = 0, uses_anonymous_args = 0
  33 0000 08B5     		push	{r3, lr}
  34              	.LCFI0:
  35              		.cfi_def_cfa_offset 8
  36              		.cfi_offset 3, -8
ARM GAS  C:\Temp\cco4uphb.s 			page 2


  37              		.cfi_offset 14, -4
  38 0002 2DED028B 		vpush.64	{d8}
  39              	.LCFI1:
  40              		.cfi_def_cfa_offset 16
  41              		.cfi_offset 80, -16
  42              		.cfi_offset 81, -12
  23:Src/movement.c ****     return (uint8_t)(ABS(get_target_length() - get_ideal_length()) < move_comp_th);
  43              		.loc 1 23 5 view .LVU1
  44              		.loc 1 23 22 is_stmt 0 view .LVU2
  45 0006 FFF7FEFF 		bl	get_target_length
  46              	.LVL0:
  47 000a B0EE408A 		vmov.f32	s16, s0
  48 000e FFF7FEFF 		bl	get_ideal_length
  49              	.LVL1:
  50 0012 38EE408A 		vsub.f32	s16, s16, s0
  51              		.loc 1 23 12 view .LVU3
  52 0016 B5EEC08A 		vcmpe.f32	s16, #0
  53 001a F1EE10FA 		vmrs	APSR_nzcv, FPSCR
  54 001e 13D4     		bmi	.L8
  55              		.loc 1 23 22 discriminator 2 view .LVU4
  56 0020 FFF7FEFF 		bl	get_target_length
  57              	.LVL2:
  58 0024 B0EE408A 		vmov.f32	s16, s0
  59 0028 FFF7FEFF 		bl	get_ideal_length
  60              	.LVL3:
  61 002c 38EE408A 		vsub.f32	s16, s16, s0
  62              		.loc 1 23 12 discriminator 2 view .LVU5
  63 0030 DFED0E7A 		vldr.32	s15, .L9
  64 0034 B4EEE78A 		vcmpe.f32	s16, s15
  65 0038 F1EE10FA 		vmrs	APSR_nzcv, FPSCR
  66 003c 4CBF     		ite	mi
  67 003e 0120     		movmi	r0, #1
  68 0040 0020     		movpl	r0, #0
  69              	.L4:
  24:Src/movement.c **** }
  70              		.loc 1 24 1 discriminator 4 view .LVU6
  71 0042 BDEC028B 		vldm	sp!, {d8}
  72              	.LCFI2:
  73              		.cfi_remember_state
  74              		.cfi_restore 80
  75              		.cfi_restore 81
  76              		.cfi_def_cfa_offset 8
  77 0046 08BD     		pop	{r3, pc}
  78              	.L8:
  79              	.LCFI3:
  80              		.cfi_restore_state
  23:Src/movement.c ****     return (uint8_t)(ABS(get_target_length() - get_ideal_length()) < move_comp_th);
  81              		.loc 1 23 22 discriminator 1 view .LVU7
  82 0048 FFF7FEFF 		bl	get_target_length
  83              	.LVL4:
  84 004c B0EE408A 		vmov.f32	s16, s0
  85 0050 FFF7FEFF 		bl	get_ideal_length
  86              	.LVL5:
  87 0054 38EE408A 		vsub.f32	s16, s16, s0
  23:Src/movement.c ****     return (uint8_t)(ABS(get_target_length() - get_ideal_length()) < move_comp_th);
  88              		.loc 1 23 12 discriminator 1 view .LVU8
  89 0058 DFED057A 		vldr.32	s15, .L9+4
ARM GAS  C:\Temp\cco4uphb.s 			page 3


  90 005c B4EEE78A 		vcmpe.f32	s16, s15
  91 0060 F1EE10FA 		vmrs	APSR_nzcv, FPSCR
  92 0064 CCBF     		ite	gt
  93 0066 0120     		movgt	r0, #1
  94 0068 0020     		movle	r0, #0
  95 006a EAE7     		b	.L4
  96              	.L10:
  97              		.align	2
  98              	.L9:
  99 006c 17B75139 		.word	961656599
 100 0070 17B751B9 		.word	-1185827049
 101              		.cfi_endproc
 102              	.LFE3:
 104              		.section	.text.rotate_comp_jud,"ax",%progbits
 105              		.align	1
 106              		.global	rotate_comp_jud
 107              		.syntax unified
 108              		.thumb
 109              		.thumb_func
 110              		.fpu fpv4-sp-d16
 112              	rotate_comp_jud:
 113              	.LFB4:
  25:Src/movement.c **** 
  26:Src/movement.c **** //機能	: 回転完了判断
  27:Src/movement.c **** //引数	: なし
  28:Src/movement.c **** //返り値	: 判断結果(0:未完,1:完了)
  29:Src/movement.c **** uint8_t rotate_comp_jud ( void )
  30:Src/movement.c **** {
 114              		.loc 1 30 1 is_stmt 1 view -0
 115              		.cfi_startproc
 116              		@ args = 0, pretend = 0, frame = 0
 117              		@ frame_needed = 0, uses_anonymous_args = 0
 118 0000 08B5     		push	{r3, lr}
 119              	.LCFI4:
 120              		.cfi_def_cfa_offset 8
 121              		.cfi_offset 3, -8
 122              		.cfi_offset 14, -4
 123 0002 2DED028B 		vpush.64	{d8}
 124              	.LCFI5:
 125              		.cfi_def_cfa_offset 16
 126              		.cfi_offset 80, -16
 127              		.cfi_offset 81, -12
  31:Src/movement.c ****     return (uint8_t)(ABS(get_target_angle() - get_ideal_angle()) < rotate_comp_th);
 128              		.loc 1 31 5 view .LVU10
 129              		.loc 1 31 22 is_stmt 0 view .LVU11
 130 0006 FFF7FEFF 		bl	get_target_angle
 131              	.LVL6:
 132 000a B0EE408A 		vmov.f32	s16, s0
 133 000e FFF7FEFF 		bl	get_ideal_angle
 134              	.LVL7:
 135 0012 38EE408A 		vsub.f32	s16, s16, s0
 136              		.loc 1 31 12 view .LVU12
 137 0016 B5EEC08A 		vcmpe.f32	s16, #0
 138 001a F1EE10FA 		vmrs	APSR_nzcv, FPSCR
 139 001e 13D4     		bmi	.L18
 140              		.loc 1 31 22 discriminator 2 view .LVU13
 141 0020 FFF7FEFF 		bl	get_target_angle
ARM GAS  C:\Temp\cco4uphb.s 			page 4


 142              	.LVL8:
 143 0024 B0EE408A 		vmov.f32	s16, s0
 144 0028 FFF7FEFF 		bl	get_ideal_angle
 145              	.LVL9:
 146 002c 38EE408A 		vsub.f32	s16, s16, s0
 147              		.loc 1 31 12 discriminator 2 view .LVU14
 148 0030 DFED0E7A 		vldr.32	s15, .L19
 149 0034 B4EEE78A 		vcmpe.f32	s16, s15
 150 0038 F1EE10FA 		vmrs	APSR_nzcv, FPSCR
 151 003c 4CBF     		ite	mi
 152 003e 0120     		movmi	r0, #1
 153 0040 0020     		movpl	r0, #0
 154              	.L14:
  32:Src/movement.c **** }
 155              		.loc 1 32 1 discriminator 4 view .LVU15
 156 0042 BDEC028B 		vldm	sp!, {d8}
 157              	.LCFI6:
 158              		.cfi_remember_state
 159              		.cfi_restore 80
 160              		.cfi_restore 81
 161              		.cfi_def_cfa_offset 8
 162 0046 08BD     		pop	{r3, pc}
 163              	.L18:
 164              	.LCFI7:
 165              		.cfi_restore_state
  31:Src/movement.c ****     return (uint8_t)(ABS(get_target_angle() - get_ideal_angle()) < rotate_comp_th);
 166              		.loc 1 31 22 discriminator 1 view .LVU16
 167 0048 FFF7FEFF 		bl	get_target_angle
 168              	.LVL10:
 169 004c B0EE408A 		vmov.f32	s16, s0
 170 0050 FFF7FEFF 		bl	get_ideal_angle
 171              	.LVL11:
 172 0054 38EE408A 		vsub.f32	s16, s16, s0
  31:Src/movement.c ****     return (uint8_t)(ABS(get_target_angle() - get_ideal_angle()) < rotate_comp_th);
 173              		.loc 1 31 12 discriminator 1 view .LVU17
 174 0058 DFED057A 		vldr.32	s15, .L19+4
 175 005c B4EEE78A 		vcmpe.f32	s16, s15
 176 0060 F1EE10FA 		vmrs	APSR_nzcv, FPSCR
 177 0064 CCBF     		ite	gt
 178 0066 0120     		movgt	r0, #1
 179 0068 0020     		movle	r0, #0
 180 006a EAE7     		b	.L14
 181              	.L20:
 182              		.align	2
 183              	.L19:
 184 006c 0AD7A33B 		.word	1000593162
 185 0070 0AD7A3BB 		.word	-1146890486
 186              		.cfi_endproc
 187              	.LFE4:
 189              		.section	.text.start_acceleration,"ax",%progbits
 190              		.align	1
 191              		.global	start_acceleration
 192              		.syntax unified
 193              		.thumb
 194              		.thumb_func
 195              		.fpu fpv4-sp-d16
 197              	start_acceleration:
ARM GAS  C:\Temp\cco4uphb.s 			page 5


 198              	.LFB5:
  33:Src/movement.c **** 
  34:Src/movement.c **** //機能	: スタート時加速
  35:Src/movement.c **** //引数	: なし
  36:Src/movement.c **** //返り値	: なし
  37:Src/movement.c **** void start_acceleration (void)
  38:Src/movement.c **** {
 199              		.loc 1 38 1 is_stmt 1 view -0
 200              		.cfi_startproc
 201              		@ args = 0, pretend = 0, frame = 0
 202              		@ frame_needed = 0, uses_anonymous_args = 0
 203 0000 08B5     		push	{r3, lr}
 204              	.LCFI8:
 205              		.cfi_def_cfa_offset 8
 206              		.cfi_offset 3, -8
 207              		.cfi_offset 14, -4
  39:Src/movement.c **** 	/*移動方向、加速モード設定*/
  40:Src/movement.c **** 	set_direction_mode(forward_mode);
 208              		.loc 1 40 2 view .LVU19
 209 0002 0020     		movs	r0, #0
 210 0004 FFF7FEFF 		bl	set_direction_mode
 211              	.LVL12:
  41:Src/movement.c **** 	set_accel_mode(acceleration);
 212              		.loc 1 41 2 view .LVU20
 213 0008 0020     		movs	r0, #0
 214 000a FFF7FEFF 		bl	set_accel_mode
 215              	.LVL13:
  42:Src/movement.c ****     set_target_length(0.060286-0.045);
 216              		.loc 1 42 5 view .LVU21
 217 000e 9FED040A 		vldr.32	s0, .L24
 218 0012 FFF7FEFF 		bl	set_target_length
 219              	.LVL14:
 220              	.L22:
  43:Src/movement.c **** 
  44:Src/movement.c ****     /*半区画進むまで待機*/
  45:Src/movement.c ****     while (1)
 221              		.loc 1 45 5 view .LVU22
  46:Src/movement.c ****     {
  47:Src/movement.c ****     	if(move_comp_jud())
 222              		.loc 1 47 6 view .LVU23
 223              		.loc 1 47 9 is_stmt 0 view .LVU24
 224 0016 FFF7FEFF 		bl	move_comp_jud
 225              	.LVL15:
 226              		.loc 1 47 8 view .LVU25
 227 001a 0028     		cmp	r0, #0
 228 001c FBD0     		beq	.L22
  48:Src/movement.c **** 	 	{
  49:Src/movement.c ****     		break;
  50:Src/movement.c ****     	}
  51:Src/movement.c ****     }
  52:Src/movement.c **** }
 229              		.loc 1 52 1 view .LVU26
 230 001e 08BD     		pop	{r3, pc}
 231              	.L25:
 232              		.align	2
 233              	.L24:
 234 0020 22727A3C 		.word	1014657570
ARM GAS  C:\Temp\cco4uphb.s 			page 6


 235              		.cfi_endproc
 236              	.LFE5:
 238              		.section	.text.half_acceleration,"ax",%progbits
 239              		.align	1
 240              		.global	half_acceleration
 241              		.syntax unified
 242              		.thumb
 243              		.thumb_func
 244              		.fpu fpv4-sp-d16
 246              	half_acceleration:
 247              	.LFB6:
  53:Src/movement.c **** 
  54:Src/movement.c **** //機能	: 半分区画加速
  55:Src/movement.c **** //引数	: なし
  56:Src/movement.c **** //返り値	: なし
  57:Src/movement.c **** void half_acceleration (void)
  58:Src/movement.c **** {
 248              		.loc 1 58 1 is_stmt 1 view -0
 249              		.cfi_startproc
 250              		@ args = 0, pretend = 0, frame = 0
 251              		@ frame_needed = 0, uses_anonymous_args = 0
 252 0000 08B5     		push	{r3, lr}
 253              	.LCFI9:
 254              		.cfi_def_cfa_offset 8
 255              		.cfi_offset 3, -8
 256              		.cfi_offset 14, -4
  59:Src/movement.c **** 	/*移動方向、加速モード設定*/
  60:Src/movement.c **** 	set_direction_mode(forward_mode);
 257              		.loc 1 60 2 view .LVU28
 258 0002 0020     		movs	r0, #0
 259 0004 FFF7FEFF 		bl	set_direction_mode
 260              	.LVL16:
  61:Src/movement.c **** 	set_accel_mode(acceleration);
 261              		.loc 1 61 2 view .LVU29
 262 0008 0020     		movs	r0, #0
 263 000a FFF7FEFF 		bl	set_accel_mode
 264              	.LVL17:
  62:Src/movement.c ****     set_target_length(0.045);
 265              		.loc 1 62 5 view .LVU30
 266 000e 9FED040A 		vldr.32	s0, .L29
 267 0012 FFF7FEFF 		bl	set_target_length
 268              	.LVL18:
 269              	.L27:
  63:Src/movement.c **** 
  64:Src/movement.c ****     /*半区画進むまで待機*/
  65:Src/movement.c ****     while (1)
 270              		.loc 1 65 5 view .LVU31
  66:Src/movement.c ****     {
  67:Src/movement.c ****     	if(move_comp_jud())
 271              		.loc 1 67 6 view .LVU32
 272              		.loc 1 67 9 is_stmt 0 view .LVU33
 273 0016 FFF7FEFF 		bl	move_comp_jud
 274              	.LVL19:
 275              		.loc 1 67 8 view .LVU34
 276 001a 0028     		cmp	r0, #0
 277 001c FBD0     		beq	.L27
  68:Src/movement.c ****     	{
ARM GAS  C:\Temp\cco4uphb.s 			page 7


  69:Src/movement.c ****     		break;
  70:Src/movement.c ****     	}
  71:Src/movement.c ****     }
  72:Src/movement.c **** }
 278              		.loc 1 72 1 view .LVU35
 279 001e 08BD     		pop	{r3, pc}
 280              	.L30:
 281              		.align	2
 282              	.L29:
 283 0020 EC51383D 		.word	1027101164
 284              		.cfi_endproc
 285              	.LFE6:
 287              		.section	.text.half_deceleration,"ax",%progbits
 288              		.align	1
 289              		.global	half_deceleration
 290              		.syntax unified
 291              		.thumb
 292              		.thumb_func
 293              		.fpu fpv4-sp-d16
 295              	half_deceleration:
 296              	.LFB7:
  73:Src/movement.c **** 
  74:Src/movement.c **** 
  75:Src/movement.c **** //機能	: 反区画減速
  76:Src/movement.c **** //引数	: なし
  77:Src/movement.c **** //返り値	: なし
  78:Src/movement.c **** void half_deceleration (void)
  79:Src/movement.c **** {
 297              		.loc 1 79 1 is_stmt 1 view -0
 298              		.cfi_startproc
 299              		@ args = 0, pretend = 0, frame = 0
 300              		@ frame_needed = 0, uses_anonymous_args = 0
 301 0000 08B5     		push	{r3, lr}
 302              	.LCFI10:
 303              		.cfi_def_cfa_offset 8
 304              		.cfi_offset 3, -8
 305              		.cfi_offset 14, -4
  80:Src/movement.c **** 	/*移動方向、加速モード設定*/
  81:Src/movement.c **** 	set_direction_mode(forward_mode);
 306              		.loc 1 81 2 view .LVU37
 307 0002 0020     		movs	r0, #0
 308 0004 FFF7FEFF 		bl	set_direction_mode
 309              	.LVL20:
  82:Src/movement.c **** 	set_accel_mode(deceleration);
 310              		.loc 1 82 2 view .LVU38
 311 0008 0120     		movs	r0, #1
 312 000a FFF7FEFF 		bl	set_accel_mode
 313              	.LVL21:
  83:Src/movement.c ****     set_target_length(0.045);
 314              		.loc 1 83 5 view .LVU39
 315 000e 9FED040A 		vldr.32	s0, .L34
 316 0012 FFF7FEFF 		bl	set_target_length
 317              	.LVL22:
 318              	.L32:
  84:Src/movement.c **** 
  85:Src/movement.c ****     /*半区画進むまで待機*/
  86:Src/movement.c ****     while (1)
ARM GAS  C:\Temp\cco4uphb.s 			page 8


 319              		.loc 1 86 5 view .LVU40
  87:Src/movement.c ****     {
  88:Src/movement.c ****     	if(move_comp_jud())
 320              		.loc 1 88 6 view .LVU41
 321              		.loc 1 88 9 is_stmt 0 view .LVU42
 322 0016 FFF7FEFF 		bl	move_comp_jud
 323              	.LVL23:
 324              		.loc 1 88 8 view .LVU43
 325 001a 0028     		cmp	r0, #0
 326 001c FBD0     		beq	.L32
  89:Src/movement.c ****     	{
  90:Src/movement.c ****     		break;
  91:Src/movement.c ****     	}
  92:Src/movement.c ****     }
  93:Src/movement.c **** }
 327              		.loc 1 93 1 view .LVU44
 328 001e 08BD     		pop	{r3, pc}
 329              	.L35:
 330              		.align	2
 331              	.L34:
 332 0020 EC51383D 		.word	1027101164
 333              		.cfi_endproc
 334              	.LFE7:
 336              		.section	.text.constant_speed,"ax",%progbits
 337              		.align	1
 338              		.global	constant_speed
 339              		.syntax unified
 340              		.thumb
 341              		.thumb_func
 342              		.fpu fpv4-sp-d16
 344              	constant_speed:
 345              	.LFB8:
  94:Src/movement.c **** 
  95:Src/movement.c **** //機能	: 一区画定速
  96:Src/movement.c **** //引数	: なし
  97:Src/movement.c **** //返り値	: なし
  98:Src/movement.c **** void constant_speed (void)
  99:Src/movement.c **** {
 346              		.loc 1 99 1 is_stmt 1 view -0
 347              		.cfi_startproc
 348              		@ args = 0, pretend = 0, frame = 0
 349              		@ frame_needed = 0, uses_anonymous_args = 0
 350 0000 08B5     		push	{r3, lr}
 351              	.LCFI11:
 352              		.cfi_def_cfa_offset 8
 353              		.cfi_offset 3, -8
 354              		.cfi_offset 14, -4
 100:Src/movement.c **** 	/*移動方向、加速モード設定*/
 101:Src/movement.c **** 	set_direction_mode(forward_mode);
 355              		.loc 1 101 2 view .LVU46
 356 0002 0020     		movs	r0, #0
 357 0004 FFF7FEFF 		bl	set_direction_mode
 358              	.LVL24:
 102:Src/movement.c ****     set_accel_mode(acceleration);
 359              		.loc 1 102 5 view .LVU47
 360 0008 0020     		movs	r0, #0
 361 000a FFF7FEFF 		bl	set_accel_mode
ARM GAS  C:\Temp\cco4uphb.s 			page 9


 362              	.LVL25:
 103:Src/movement.c ****     set_target_length(0.09);
 363              		.loc 1 103 5 view .LVU48
 364 000e 9FED040A 		vldr.32	s0, .L39
 365 0012 FFF7FEFF 		bl	set_target_length
 366              	.LVL26:
 367              	.L37:
 104:Src/movement.c **** 
 105:Src/movement.c ****     /*一区画進むまで待機*/
 106:Src/movement.c ****     while (1)
 368              		.loc 1 106 5 view .LVU49
 107:Src/movement.c ****     {
 108:Src/movement.c ****     	if(move_comp_jud())
 369              		.loc 1 108 6 view .LVU50
 370              		.loc 1 108 9 is_stmt 0 view .LVU51
 371 0016 FFF7FEFF 		bl	move_comp_jud
 372              	.LVL27:
 373              		.loc 1 108 8 view .LVU52
 374 001a 0028     		cmp	r0, #0
 375 001c FBD0     		beq	.L37
 109:Src/movement.c ****     	{
 110:Src/movement.c ****     		break;
 111:Src/movement.c ****     	}
 112:Src/movement.c ****     }
 113:Src/movement.c **** }
 376              		.loc 1 113 1 view .LVU53
 377 001e 08BD     		pop	{r3, pc}
 378              	.L40:
 379              		.align	2
 380              	.L39:
 381 0020 EC51B83D 		.word	1035489772
 382              		.cfi_endproc
 383              	.LFE8:
 385              		.section	.text.turn_clk_90,"ax",%progbits
 386              		.align	1
 387              		.global	turn_clk_90
 388              		.syntax unified
 389              		.thumb
 390              		.thumb_func
 391              		.fpu fpv4-sp-d16
 393              	turn_clk_90:
 394              	.LFB9:
 114:Src/movement.c **** 
 115:Src/movement.c **** //機能	: 時計回りに90度回転
 116:Src/movement.c **** //引数	: なし
 117:Src/movement.c **** //返り値	: なし
 118:Src/movement.c **** void turn_clk_90 (void)
 119:Src/movement.c **** {
 395              		.loc 1 119 1 is_stmt 1 view -0
 396              		.cfi_startproc
 397              		@ args = 0, pretend = 0, frame = 0
 398              		@ frame_needed = 0, uses_anonymous_args = 0
 399 0000 08B5     		push	{r3, lr}
 400              	.LCFI12:
 401              		.cfi_def_cfa_offset 8
 402              		.cfi_offset 3, -8
 403              		.cfi_offset 14, -4
ARM GAS  C:\Temp\cco4uphb.s 			page 10


 120:Src/movement.c **** 	/*回転方向設定*/
 121:Src/movement.c **** 	set_rotation_mode(clockwise);
 404              		.loc 1 121 2 view .LVU55
 405 0002 0120     		movs	r0, #1
 406 0004 FFF7FEFF 		bl	set_rotation_mode
 407              	.LVL28:
 122:Src/movement.c ****     set_target_angle(-PI/2);
 408              		.loc 1 122 5 view .LVU56
 409 0008 9FED040A 		vldr.32	s0, .L44
 410 000c FFF7FEFF 		bl	set_target_angle
 411              	.LVL29:
 412              	.L42:
 123:Src/movement.c **** 
 124:Src/movement.c ****     /*90度回転するまで待機*/
 125:Src/movement.c ****     while (1)
 413              		.loc 1 125 5 view .LVU57
 126:Src/movement.c ****     {
 127:Src/movement.c ****     	if(rotate_comp_jud())
 414              		.loc 1 127 6 view .LVU58
 415              		.loc 1 127 9 is_stmt 0 view .LVU59
 416 0010 FFF7FEFF 		bl	rotate_comp_jud
 417              	.LVL30:
 418              		.loc 1 127 8 view .LVU60
 419 0014 0028     		cmp	r0, #0
 420 0016 FBD0     		beq	.L42
 128:Src/movement.c ****     	{
 129:Src/movement.c ****     		break;
 130:Src/movement.c ****     	}
 131:Src/movement.c ****     }
 132:Src/movement.c **** 
 133:Src/movement.c **** }
 421              		.loc 1 133 1 view .LVU61
 422 0018 08BD     		pop	{r3, pc}
 423              	.L45:
 424 001a 00BF     		.align	2
 425              	.L44:
 426 001c DA0FC9BF 		.word	-1077342246
 427              		.cfi_endproc
 428              	.LFE9:
 430              		.section	.text.turn_conclk_90,"ax",%progbits
 431              		.align	1
 432              		.global	turn_conclk_90
 433              		.syntax unified
 434              		.thumb
 435              		.thumb_func
 436              		.fpu fpv4-sp-d16
 438              	turn_conclk_90:
 439              	.LFB10:
 134:Src/movement.c **** 
 135:Src/movement.c **** //機能	: 反時計回りに90度回転
 136:Src/movement.c **** //引数	: なし
 137:Src/movement.c **** //返り値	: なし
 138:Src/movement.c **** void turn_conclk_90 (void)
 139:Src/movement.c **** {
 440              		.loc 1 139 1 is_stmt 1 view -0
 441              		.cfi_startproc
 442              		@ args = 0, pretend = 0, frame = 0
ARM GAS  C:\Temp\cco4uphb.s 			page 11


 443              		@ frame_needed = 0, uses_anonymous_args = 0
 444 0000 08B5     		push	{r3, lr}
 445              	.LCFI13:
 446              		.cfi_def_cfa_offset 8
 447              		.cfi_offset 3, -8
 448              		.cfi_offset 14, -4
 140:Src/movement.c **** 	/*回転方向設定*/
 141:Src/movement.c **** 	set_rotation_mode(counter_clockwise);
 449              		.loc 1 141 2 view .LVU63
 450 0002 0020     		movs	r0, #0
 451 0004 FFF7FEFF 		bl	set_rotation_mode
 452              	.LVL31:
 142:Src/movement.c ****     set_target_angle(PI/2);
 453              		.loc 1 142 5 view .LVU64
 454 0008 9FED040A 		vldr.32	s0, .L49
 455 000c FFF7FEFF 		bl	set_target_angle
 456              	.LVL32:
 457              	.L47:
 143:Src/movement.c **** 
 144:Src/movement.c ****     /*90度回転するまで待機*/
 145:Src/movement.c ****     while (1)
 458              		.loc 1 145 5 view .LVU65
 146:Src/movement.c ****     {
 147:Src/movement.c ****     	if(rotate_comp_jud())
 459              		.loc 1 147 6 view .LVU66
 460              		.loc 1 147 9 is_stmt 0 view .LVU67
 461 0010 FFF7FEFF 		bl	rotate_comp_jud
 462              	.LVL33:
 463              		.loc 1 147 8 view .LVU68
 464 0014 0028     		cmp	r0, #0
 465 0016 FBD0     		beq	.L47
 148:Src/movement.c ****     	{
 149:Src/movement.c ****     		break;
 150:Src/movement.c ****     	}
 151:Src/movement.c ****     }
 152:Src/movement.c **** 
 153:Src/movement.c **** }
 466              		.loc 1 153 1 view .LVU69
 467 0018 08BD     		pop	{r3, pc}
 468              	.L50:
 469 001a 00BF     		.align	2
 470              	.L49:
 471 001c DA0FC93F 		.word	1070141402
 472              		.cfi_endproc
 473              	.LFE10:
 475              		.section	.text.turn_conclk_180,"ax",%progbits
 476              		.align	1
 477              		.global	turn_conclk_180
 478              		.syntax unified
 479              		.thumb
 480              		.thumb_func
 481              		.fpu fpv4-sp-d16
 483              	turn_conclk_180:
 484              	.LFB11:
 154:Src/movement.c **** 
 155:Src/movement.c **** //機能	: 反時計回りに180度回転
 156:Src/movement.c **** //引数	: なし
ARM GAS  C:\Temp\cco4uphb.s 			page 12


 157:Src/movement.c **** //返り値	: なし
 158:Src/movement.c **** void turn_conclk_180 (void)
 159:Src/movement.c **** {
 485              		.loc 1 159 1 is_stmt 1 view -0
 486              		.cfi_startproc
 487              		@ args = 0, pretend = 0, frame = 0
 488              		@ frame_needed = 0, uses_anonymous_args = 0
 489 0000 08B5     		push	{r3, lr}
 490              	.LCFI14:
 491              		.cfi_def_cfa_offset 8
 492              		.cfi_offset 3, -8
 493              		.cfi_offset 14, -4
 160:Src/movement.c **** 	/*回転方向設定*/
 161:Src/movement.c **** 	set_rotation_mode(counter_clockwise);
 494              		.loc 1 161 2 view .LVU71
 495 0002 0020     		movs	r0, #0
 496 0004 FFF7FEFF 		bl	set_rotation_mode
 497              	.LVL34:
 162:Src/movement.c ****     set_target_angle(PI);
 498              		.loc 1 162 5 view .LVU72
 499 0008 9FED040A 		vldr.32	s0, .L54
 500 000c FFF7FEFF 		bl	set_target_angle
 501              	.LVL35:
 502              	.L52:
 163:Src/movement.c **** 
 164:Src/movement.c ****     /*180度回転するまで待機*/
 165:Src/movement.c ****     while (1)
 503              		.loc 1 165 5 view .LVU73
 166:Src/movement.c ****     {
 167:Src/movement.c ****     	if(rotate_comp_jud())//0.3deg手前まできたらブレイク
 504              		.loc 1 167 6 view .LVU74
 505              		.loc 1 167 9 is_stmt 0 view .LVU75
 506 0010 FFF7FEFF 		bl	rotate_comp_jud
 507              	.LVL36:
 508              		.loc 1 167 8 view .LVU76
 509 0014 0028     		cmp	r0, #0
 510 0016 FBD0     		beq	.L52
 168:Src/movement.c ****     	{
 169:Src/movement.c ****     		break;
 170:Src/movement.c ****     	}
 171:Src/movement.c ****     }
 172:Src/movement.c **** 
 173:Src/movement.c **** }
 511              		.loc 1 173 1 view .LVU77
 512 0018 08BD     		pop	{r3, pc}
 513              	.L55:
 514 001a 00BF     		.align	2
 515              	.L54:
 516 001c DA0F4940 		.word	1078530010
 517              		.cfi_endproc
 518              	.LFE11:
 520              		.section	.text.clr_run_first_flg,"ax",%progbits
 521              		.align	1
 522              		.global	clr_run_first_flg
 523              		.syntax unified
 524              		.thumb
 525              		.thumb_func
ARM GAS  C:\Temp\cco4uphb.s 			page 13


 526              		.fpu fpv4-sp-d16
 528              	clr_run_first_flg:
 529              	.LFB12:
 174:Src/movement.c **** 
 175:Src/movement.c **** //機能	: 走行開始フラグのクリア
 176:Src/movement.c **** //引数	: なし
 177:Src/movement.c **** //返り値	: なし
 178:Src/movement.c **** void clr_run_first_flg (void)
 179:Src/movement.c **** {
 530              		.loc 1 179 1 is_stmt 1 view -0
 531              		.cfi_startproc
 532              		@ args = 0, pretend = 0, frame = 0
 533              		@ frame_needed = 0, uses_anonymous_args = 0
 534              		@ link register save eliminated.
 180:Src/movement.c **** 	run_first_flg = start;
 535              		.loc 1 180 2 view .LVU79
 536              		.loc 1 180 16 is_stmt 0 view .LVU80
 537 0000 014B     		ldr	r3, .L57
 538 0002 0022     		movs	r2, #0
 539 0004 1A70     		strb	r2, [r3]
 181:Src/movement.c **** }
 540              		.loc 1 181 1 view .LVU81
 541 0006 7047     		bx	lr
 542              	.L58:
 543              		.align	2
 544              	.L57:
 545 0008 00000000 		.word	.LANCHOR0
 546              		.cfi_endproc
 547              	.LFE12:
 549              		.section	.text.set_run_first_flg,"ax",%progbits
 550              		.align	1
 551              		.global	set_run_first_flg
 552              		.syntax unified
 553              		.thumb
 554              		.thumb_func
 555              		.fpu fpv4-sp-d16
 557              	set_run_first_flg:
 558              	.LFB13:
 182:Src/movement.c **** 
 183:Src/movement.c **** //機能	: 走行開始フラグセット
 184:Src/movement.c **** //引数	: なし
 185:Src/movement.c **** //返り値	: なし
 186:Src/movement.c **** void set_run_first_flg (void)
 187:Src/movement.c **** {
 559              		.loc 1 187 1 is_stmt 1 view -0
 560              		.cfi_startproc
 561              		@ args = 0, pretend = 0, frame = 0
 562              		@ frame_needed = 0, uses_anonymous_args = 0
 563              		@ link register save eliminated.
 188:Src/movement.c **** 	run_first_flg = already;
 564              		.loc 1 188 2 view .LVU83
 565              		.loc 1 188 16 is_stmt 0 view .LVU84
 566 0000 014B     		ldr	r3, .L60
 567 0002 0122     		movs	r2, #1
 568 0004 1A70     		strb	r2, [r3]
 189:Src/movement.c **** }
 569              		.loc 1 189 1 view .LVU85
ARM GAS  C:\Temp\cco4uphb.s 			page 14


 570 0006 7047     		bx	lr
 571              	.L61:
 572              		.align	2
 573              	.L60:
 574 0008 00000000 		.word	.LANCHOR0
 575              		.cfi_endproc
 576              	.LFE13:
 578              		.section	.text.clr_wall_flg,"ax",%progbits
 579              		.align	1
 580              		.global	clr_wall_flg
 581              		.syntax unified
 582              		.thumb
 583              		.thumb_func
 584              		.fpu fpv4-sp-d16
 586              	clr_wall_flg:
 587              	.LFB14:
 190:Src/movement.c **** 
 191:Src/movement.c **** 
 192:Src/movement.c **** //機能	: 壁の有無フラグのクリア
 193:Src/movement.c **** //引数	: なし
 194:Src/movement.c **** //返り値	: なし
 195:Src/movement.c **** void clr_wall_flg (void)
 196:Src/movement.c **** {
 588              		.loc 1 196 1 is_stmt 1 view -0
 589              		.cfi_startproc
 590              		@ args = 0, pretend = 0, frame = 0
 591              		@ frame_needed = 0, uses_anonymous_args = 0
 592              		@ link register save eliminated.
 197:Src/movement.c **** 	front_wall_flg = nowall;
 593              		.loc 1 197 2 view .LVU87
 594              		.loc 1 197 17 is_stmt 0 view .LVU88
 595 0000 0023     		movs	r3, #0
 596 0002 034A     		ldr	r2, .L63
 597 0004 1370     		strb	r3, [r2]
 198:Src/movement.c **** 	right_wall_flg = nowall;
 598              		.loc 1 198 2 is_stmt 1 view .LVU89
 599              		.loc 1 198 17 is_stmt 0 view .LVU90
 600 0006 034A     		ldr	r2, .L63+4
 601 0008 1370     		strb	r3, [r2]
 199:Src/movement.c **** 	left_wall_flg = nowall;
 602              		.loc 1 199 2 is_stmt 1 view .LVU91
 603              		.loc 1 199 16 is_stmt 0 view .LVU92
 604 000a 034A     		ldr	r2, .L63+8
 605 000c 1370     		strb	r3, [r2]
 200:Src/movement.c **** }
 606              		.loc 1 200 1 view .LVU93
 607 000e 7047     		bx	lr
 608              	.L64:
 609              		.align	2
 610              	.L63:
 611 0010 00000000 		.word	.LANCHOR1
 612 0014 00000000 		.word	.LANCHOR2
 613 0018 00000000 		.word	.LANCHOR3
 614              		.cfi_endproc
 615              	.LFE14:
 617              		.section	.text.set_front_wall_flg,"ax",%progbits
 618              		.align	1
ARM GAS  C:\Temp\cco4uphb.s 			page 15


 619              		.global	set_front_wall_flg
 620              		.syntax unified
 621              		.thumb
 622              		.thumb_func
 623              		.fpu fpv4-sp-d16
 625              	set_front_wall_flg:
 626              	.LFB15:
 201:Src/movement.c **** 
 202:Src/movement.c **** //機能	: 前壁フラグセット
 203:Src/movement.c **** //引数	: なし
 204:Src/movement.c **** //返り値	: なし
 205:Src/movement.c **** void set_front_wall_flg ( void )
 206:Src/movement.c **** {
 627              		.loc 1 206 1 is_stmt 1 view -0
 628              		.cfi_startproc
 629              		@ args = 0, pretend = 0, frame = 0
 630              		@ frame_needed = 0, uses_anonymous_args = 0
 631              		@ link register save eliminated.
 207:Src/movement.c **** 	front_wall_flg = wall;
 632              		.loc 1 207 2 view .LVU95
 633              		.loc 1 207 17 is_stmt 0 view .LVU96
 634 0000 014B     		ldr	r3, .L66
 635 0002 0122     		movs	r2, #1
 636 0004 1A70     		strb	r2, [r3]
 208:Src/movement.c **** }
 637              		.loc 1 208 1 view .LVU97
 638 0006 7047     		bx	lr
 639              	.L67:
 640              		.align	2
 641              	.L66:
 642 0008 00000000 		.word	.LANCHOR1
 643              		.cfi_endproc
 644              	.LFE15:
 646              		.section	.text.set_rigth_wall_flg,"ax",%progbits
 647              		.align	1
 648              		.global	set_rigth_wall_flg
 649              		.syntax unified
 650              		.thumb
 651              		.thumb_func
 652              		.fpu fpv4-sp-d16
 654              	set_rigth_wall_flg:
 655              	.LFB16:
 209:Src/movement.c **** 
 210:Src/movement.c **** //機能	: 右壁フラグセット
 211:Src/movement.c **** //引数	: なし
 212:Src/movement.c **** //返り値	: なし
 213:Src/movement.c **** void set_rigth_wall_flg ( void )
 214:Src/movement.c **** {
 656              		.loc 1 214 1 is_stmt 1 view -0
 657              		.cfi_startproc
 658              		@ args = 0, pretend = 0, frame = 0
 659              		@ frame_needed = 0, uses_anonymous_args = 0
 660              		@ link register save eliminated.
 215:Src/movement.c **** 	right_wall_flg = wall;
 661              		.loc 1 215 2 view .LVU99
 662              		.loc 1 215 17 is_stmt 0 view .LVU100
 663 0000 014B     		ldr	r3, .L69
ARM GAS  C:\Temp\cco4uphb.s 			page 16


 664 0002 0122     		movs	r2, #1
 665 0004 1A70     		strb	r2, [r3]
 216:Src/movement.c **** }
 666              		.loc 1 216 1 view .LVU101
 667 0006 7047     		bx	lr
 668              	.L70:
 669              		.align	2
 670              	.L69:
 671 0008 00000000 		.word	.LANCHOR2
 672              		.cfi_endproc
 673              	.LFE16:
 675              		.section	.text.set_left_wall_flg,"ax",%progbits
 676              		.align	1
 677              		.global	set_left_wall_flg
 678              		.syntax unified
 679              		.thumb
 680              		.thumb_func
 681              		.fpu fpv4-sp-d16
 683              	set_left_wall_flg:
 684              	.LFB17:
 217:Src/movement.c **** 
 218:Src/movement.c **** //機能	: 左壁フラグセット
 219:Src/movement.c **** //引数	: なし
 220:Src/movement.c **** //返り値	: なし
 221:Src/movement.c **** void set_left_wall_flg ( void )
 222:Src/movement.c **** {
 685              		.loc 1 222 1 is_stmt 1 view -0
 686              		.cfi_startproc
 687              		@ args = 0, pretend = 0, frame = 0
 688              		@ frame_needed = 0, uses_anonymous_args = 0
 689              		@ link register save eliminated.
 223:Src/movement.c **** 	left_wall_flg = wall;
 690              		.loc 1 223 2 view .LVU103
 691              		.loc 1 223 16 is_stmt 0 view .LVU104
 692 0000 014B     		ldr	r3, .L72
 693 0002 0122     		movs	r2, #1
 694 0004 1A70     		strb	r2, [r3]
 224:Src/movement.c **** }
 695              		.loc 1 224 1 view .LVU105
 696 0006 7047     		bx	lr
 697              	.L73:
 698              		.align	2
 699              	.L72:
 700 0008 00000000 		.word	.LANCHOR3
 701              		.cfi_endproc
 702              	.LFE17:
 704              		.section	.text.move_front,"ax",%progbits
 705              		.align	1
 706              		.global	move_front
 707              		.syntax unified
 708              		.thumb
 709              		.thumb_func
 710              		.fpu fpv4-sp-d16
 712              	move_front:
 713              	.LFB18:
 225:Src/movement.c **** 
 226:Src/movement.c **** 
ARM GAS  C:\Temp\cco4uphb.s 			page 17


 227:Src/movement.c **** ////////////////////////////////////////
 228:Src/movement.c **** /* 軌跡生成関数						*/
 229:Src/movement.c **** ////////////////////////////////////////
 230:Src/movement.c **** 
 231:Src/movement.c **** 
 232:Src/movement.c **** //機能	: 前進
 233:Src/movement.c **** //引数	: なし
 234:Src/movement.c **** //返り値	: なし
 235:Src/movement.c **** void move_front (void)
 236:Src/movement.c **** {
 714              		.loc 1 236 1 is_stmt 1 view -0
 715              		.cfi_startproc
 716              		@ args = 0, pretend = 0, frame = 0
 717              		@ frame_needed = 0, uses_anonymous_args = 0
 718 0000 08B5     		push	{r3, lr}
 719              	.LCFI15:
 720              		.cfi_def_cfa_offset 8
 721              		.cfi_offset 3, -8
 722              		.cfi_offset 14, -4
 237:Src/movement.c **** 	if(run_first_flg == start)
 723              		.loc 1 237 2 view .LVU107
 724              		.loc 1 237 19 is_stmt 0 view .LVU108
 725 0002 0C4B     		ldr	r3, .L80
 726 0004 1B78     		ldrb	r3, [r3]	@ zero_extendqisi2
 727              		.loc 1 237 4 view .LVU109
 728 0006 4BB1     		cbz	r3, .L78
 729              	.L75:
 238:Src/movement.c **** 	{
 239:Src/movement.c **** 		half_acceleration();//半区画加速
 240:Src/movement.c **** 	}
 241:Src/movement.c **** 	if(run_first_flg == already)
 730              		.loc 1 241 2 is_stmt 1 view .LVU110
 731              		.loc 1 241 19 is_stmt 0 view .LVU111
 732 0008 0A4B     		ldr	r3, .L80
 733 000a 1B78     		ldrb	r3, [r3]	@ zero_extendqisi2
 734              		.loc 1 241 4 view .LVU112
 735 000c 012B     		cmp	r3, #1
 736 000e 08D0     		beq	.L79
 737              	.L76:
 242:Src/movement.c **** 	{
 243:Src/movement.c **** 		set_mode_ctrl(side_wall);
 244:Src/movement.c **** 		constant_speed();//定速で一マス前進
 245:Src/movement.c **** 		set_mode_ctrl(trace);
 246:Src/movement.c **** 	}
 247:Src/movement.c **** 	run_first_flg = already;
 738              		.loc 1 247 2 is_stmt 1 view .LVU113
 739              		.loc 1 247 16 is_stmt 0 view .LVU114
 740 0010 084B     		ldr	r3, .L80
 741 0012 0122     		movs	r2, #1
 742 0014 1A70     		strb	r2, [r3]
 248:Src/movement.c **** 	clr_wall_flg();
 743              		.loc 1 248 2 is_stmt 1 view .LVU115
 744 0016 FFF7FEFF 		bl	clr_wall_flg
 745              	.LVL37:
 249:Src/movement.c **** }
 746              		.loc 1 249 1 is_stmt 0 view .LVU116
 747 001a 08BD     		pop	{r3, pc}
ARM GAS  C:\Temp\cco4uphb.s 			page 18


 748              	.L78:
 239:Src/movement.c **** 	}
 749              		.loc 1 239 3 is_stmt 1 view .LVU117
 750 001c FFF7FEFF 		bl	half_acceleration
 751              	.LVL38:
 752 0020 F2E7     		b	.L75
 753              	.L79:
 243:Src/movement.c **** 		constant_speed();//定速で一マス前進
 754              		.loc 1 243 3 view .LVU118
 755 0022 0220     		movs	r0, #2
 756 0024 FFF7FEFF 		bl	set_mode_ctrl
 757              	.LVL39:
 244:Src/movement.c **** 		set_mode_ctrl(trace);
 758              		.loc 1 244 3 view .LVU119
 759 0028 FFF7FEFF 		bl	constant_speed
 760              	.LVL40:
 245:Src/movement.c **** 	}
 761              		.loc 1 245 3 view .LVU120
 762 002c 0020     		movs	r0, #0
 763 002e FFF7FEFF 		bl	set_mode_ctrl
 764              	.LVL41:
 765 0032 EDE7     		b	.L76
 766              	.L81:
 767              		.align	2
 768              	.L80:
 769 0034 00000000 		.word	.LANCHOR0
 770              		.cfi_endproc
 771              	.LFE18:
 773              		.section	.text.move_right,"ax",%progbits
 774              		.align	1
 775              		.global	move_right
 776              		.syntax unified
 777              		.thumb
 778              		.thumb_func
 779              		.fpu fpv4-sp-d16
 781              	move_right:
 782              	.LFB19:
 250:Src/movement.c **** 
 251:Src/movement.c **** //機能	: 右折
 252:Src/movement.c **** //引数	: なし
 253:Src/movement.c **** //返り値	: なし
 254:Src/movement.c **** void move_right (void)
 255:Src/movement.c **** {
 783              		.loc 1 255 1 view -0
 784              		.cfi_startproc
 785              		@ args = 0, pretend = 0, frame = 0
 786              		@ frame_needed = 0, uses_anonymous_args = 0
 787 0000 08B5     		push	{r3, lr}
 788              	.LCFI16:
 789              		.cfi_def_cfa_offset 8
 790              		.cfi_offset 3, -8
 791              		.cfi_offset 14, -4
 256:Src/movement.c **** 	if(run_first_flg == start){
 792              		.loc 1 256 2 view .LVU122
 793              		.loc 1 256 19 is_stmt 0 view .LVU123
 794 0002 134B     		ldr	r3, .L91
 795 0004 1B78     		ldrb	r3, [r3]	@ zero_extendqisi2
ARM GAS  C:\Temp\cco4uphb.s 			page 19


 796              		.loc 1 256 4 view .LVU124
 797 0006 3BB9     		cbnz	r3, .L83
 257:Src/movement.c **** 		if(front_wall_flg == wall){
 798              		.loc 1 257 3 is_stmt 1 view .LVU125
 799              		.loc 1 257 21 is_stmt 0 view .LVU126
 800 0008 124B     		ldr	r3, .L91+4
 801 000a 1B78     		ldrb	r3, [r3]	@ zero_extendqisi2
 802              		.loc 1 257 5 view .LVU127
 803 000c 012B     		cmp	r3, #1
 804 000e 0DD0     		beq	.L88
 805              	.L84:
 258:Src/movement.c **** 			fornt_wall_calibrate();
 259:Src/movement.c **** 		}
 260:Src/movement.c **** 		turn_clk_90();		//時計回りに90度回転
 806              		.loc 1 260 3 is_stmt 1 view .LVU128
 807 0010 FFF7FEFF 		bl	turn_clk_90
 808              	.LVL42:
 261:Src/movement.c **** 		half_acceleration();//半区画加速
 809              		.loc 1 261 3 view .LVU129
 810 0014 FFF7FEFF 		bl	half_acceleration
 811              	.LVL43:
 812              	.L83:
 262:Src/movement.c **** 	}
 263:Src/movement.c **** 	if(run_first_flg == already){
 813              		.loc 1 263 2 view .LVU130
 814              		.loc 1 263 19 is_stmt 0 view .LVU131
 815 0018 0D4B     		ldr	r3, .L91
 816 001a 1B78     		ldrb	r3, [r3]	@ zero_extendqisi2
 817              		.loc 1 263 4 view .LVU132
 818 001c 012B     		cmp	r3, #1
 819 001e 08D0     		beq	.L89
 820              	.L85:
 264:Src/movement.c **** 		half_deceleration();//半区画減速で中央に停止
 265:Src/movement.c **** 		if(front_wall_flg == wall){
 266:Src/movement.c **** 			fornt_wall_calibrate();
 267:Src/movement.c **** 		}
 268:Src/movement.c **** 		turn_clk_90();		//時計回りに90度回転
 269:Src/movement.c **** 		half_acceleration();//半区画加速
 270:Src/movement.c **** 	}
 271:Src/movement.c **** 	run_first_flg = already;
 821              		.loc 1 271 2 is_stmt 1 view .LVU133
 822              		.loc 1 271 16 is_stmt 0 view .LVU134
 823 0020 0B4B     		ldr	r3, .L91
 824 0022 0122     		movs	r2, #1
 825 0024 1A70     		strb	r2, [r3]
 272:Src/movement.c **** 	clr_wall_flg();
 826              		.loc 1 272 2 is_stmt 1 view .LVU135
 827 0026 FFF7FEFF 		bl	clr_wall_flg
 828              	.LVL44:
 273:Src/movement.c **** }
 829              		.loc 1 273 1 is_stmt 0 view .LVU136
 830 002a 08BD     		pop	{r3, pc}
 831              	.L88:
 258:Src/movement.c **** 		}
 832              		.loc 1 258 4 is_stmt 1 view .LVU137
 833 002c FFF7FEFF 		bl	fornt_wall_calibrate
 834              	.LVL45:
ARM GAS  C:\Temp\cco4uphb.s 			page 20


 835 0030 EEE7     		b	.L84
 836              	.L89:
 264:Src/movement.c **** 		if(front_wall_flg == wall){
 837              		.loc 1 264 3 view .LVU138
 838 0032 FFF7FEFF 		bl	half_deceleration
 839              	.LVL46:
 265:Src/movement.c **** 			fornt_wall_calibrate();
 840              		.loc 1 265 3 view .LVU139
 265:Src/movement.c **** 			fornt_wall_calibrate();
 841              		.loc 1 265 21 is_stmt 0 view .LVU140
 842 0036 074B     		ldr	r3, .L91+4
 843 0038 1B78     		ldrb	r3, [r3]	@ zero_extendqisi2
 265:Src/movement.c **** 			fornt_wall_calibrate();
 844              		.loc 1 265 5 view .LVU141
 845 003a 012B     		cmp	r3, #1
 846 003c 04D0     		beq	.L90
 847              	.L86:
 268:Src/movement.c **** 		half_acceleration();//半区画加速
 848              		.loc 1 268 3 is_stmt 1 view .LVU142
 849 003e FFF7FEFF 		bl	turn_clk_90
 850              	.LVL47:
 269:Src/movement.c **** 	}
 851              		.loc 1 269 3 view .LVU143
 852 0042 FFF7FEFF 		bl	half_acceleration
 853              	.LVL48:
 854 0046 EBE7     		b	.L85
 855              	.L90:
 266:Src/movement.c **** 		}
 856              		.loc 1 266 4 view .LVU144
 857 0048 FFF7FEFF 		bl	fornt_wall_calibrate
 858              	.LVL49:
 859 004c F7E7     		b	.L86
 860              	.L92:
 861 004e 00BF     		.align	2
 862              	.L91:
 863 0050 00000000 		.word	.LANCHOR0
 864 0054 00000000 		.word	.LANCHOR1
 865              		.cfi_endproc
 866              	.LFE19:
 868              		.section	.text.move_left,"ax",%progbits
 869              		.align	1
 870              		.global	move_left
 871              		.syntax unified
 872              		.thumb
 873              		.thumb_func
 874              		.fpu fpv4-sp-d16
 876              	move_left:
 877              	.LFB20:
 274:Src/movement.c **** 
 275:Src/movement.c **** //機能	: 左折
 276:Src/movement.c **** //引数	: なし
 277:Src/movement.c **** //返り値	: なし
 278:Src/movement.c **** void move_left (void)
 279:Src/movement.c **** {
 878              		.loc 1 279 1 view -0
 879              		.cfi_startproc
 880              		@ args = 0, pretend = 0, frame = 0
ARM GAS  C:\Temp\cco4uphb.s 			page 21


 881              		@ frame_needed = 0, uses_anonymous_args = 0
 882 0000 08B5     		push	{r3, lr}
 883              	.LCFI17:
 884              		.cfi_def_cfa_offset 8
 885              		.cfi_offset 3, -8
 886              		.cfi_offset 14, -4
 280:Src/movement.c **** 	if(run_first_flg == start){
 887              		.loc 1 280 2 view .LVU146
 888              		.loc 1 280 19 is_stmt 0 view .LVU147
 889 0002 134B     		ldr	r3, .L102
 890 0004 1B78     		ldrb	r3, [r3]	@ zero_extendqisi2
 891              		.loc 1 280 4 view .LVU148
 892 0006 3BB9     		cbnz	r3, .L94
 281:Src/movement.c **** 		if(front_wall_flg == wall){
 893              		.loc 1 281 3 is_stmt 1 view .LVU149
 894              		.loc 1 281 21 is_stmt 0 view .LVU150
 895 0008 124B     		ldr	r3, .L102+4
 896 000a 1B78     		ldrb	r3, [r3]	@ zero_extendqisi2
 897              		.loc 1 281 5 view .LVU151
 898 000c 012B     		cmp	r3, #1
 899 000e 0DD0     		beq	.L99
 900              	.L95:
 282:Src/movement.c **** 			fornt_wall_calibrate();
 283:Src/movement.c **** 		}
 284:Src/movement.c **** 		turn_conclk_90();	//m反時計回りに90度回転
 901              		.loc 1 284 3 is_stmt 1 view .LVU152
 902 0010 FFF7FEFF 		bl	turn_conclk_90
 903              	.LVL50:
 285:Src/movement.c **** 		half_acceleration();//m半区画加速
 904              		.loc 1 285 3 view .LVU153
 905 0014 FFF7FEFF 		bl	half_acceleration
 906              	.LVL51:
 907              	.L94:
 286:Src/movement.c **** 	}
 287:Src/movement.c **** 	if(run_first_flg == already){
 908              		.loc 1 287 2 view .LVU154
 909              		.loc 1 287 19 is_stmt 0 view .LVU155
 910 0018 0D4B     		ldr	r3, .L102
 911 001a 1B78     		ldrb	r3, [r3]	@ zero_extendqisi2
 912              		.loc 1 287 4 view .LVU156
 913 001c 012B     		cmp	r3, #1
 914 001e 08D0     		beq	.L100
 915              	.L96:
 288:Src/movement.c **** 		half_deceleration();//m半区画減速で中央に停止
 289:Src/movement.c **** 		if(front_wall_flg == wall){
 290:Src/movement.c **** 			fornt_wall_calibrate();
 291:Src/movement.c **** 		}
 292:Src/movement.c **** 		turn_conclk_90();	//m反時計回りに90度回転
 293:Src/movement.c **** 		half_acceleration();//m半区画加速
 294:Src/movement.c **** 	}
 295:Src/movement.c **** 	run_first_flg = already;
 916              		.loc 1 295 2 is_stmt 1 view .LVU157
 917              		.loc 1 295 16 is_stmt 0 view .LVU158
 918 0020 0B4B     		ldr	r3, .L102
 919 0022 0122     		movs	r2, #1
 920 0024 1A70     		strb	r2, [r3]
 296:Src/movement.c **** 	clr_wall_flg();
ARM GAS  C:\Temp\cco4uphb.s 			page 22


 921              		.loc 1 296 2 is_stmt 1 view .LVU159
 922 0026 FFF7FEFF 		bl	clr_wall_flg
 923              	.LVL52:
 297:Src/movement.c **** }
 924              		.loc 1 297 1 is_stmt 0 view .LVU160
 925 002a 08BD     		pop	{r3, pc}
 926              	.L99:
 282:Src/movement.c **** 		}
 927              		.loc 1 282 4 is_stmt 1 view .LVU161
 928 002c FFF7FEFF 		bl	fornt_wall_calibrate
 929              	.LVL53:
 930 0030 EEE7     		b	.L95
 931              	.L100:
 288:Src/movement.c **** 		if(front_wall_flg == wall){
 932              		.loc 1 288 3 view .LVU162
 933 0032 FFF7FEFF 		bl	half_deceleration
 934              	.LVL54:
 289:Src/movement.c **** 			fornt_wall_calibrate();
 935              		.loc 1 289 3 view .LVU163
 289:Src/movement.c **** 			fornt_wall_calibrate();
 936              		.loc 1 289 21 is_stmt 0 view .LVU164
 937 0036 074B     		ldr	r3, .L102+4
 938 0038 1B78     		ldrb	r3, [r3]	@ zero_extendqisi2
 289:Src/movement.c **** 			fornt_wall_calibrate();
 939              		.loc 1 289 5 view .LVU165
 940 003a 012B     		cmp	r3, #1
 941 003c 04D0     		beq	.L101
 942              	.L97:
 292:Src/movement.c **** 		half_acceleration();//m半区画加速
 943              		.loc 1 292 3 is_stmt 1 view .LVU166
 944 003e FFF7FEFF 		bl	turn_conclk_90
 945              	.LVL55:
 293:Src/movement.c **** 	}
 946              		.loc 1 293 3 view .LVU167
 947 0042 FFF7FEFF 		bl	half_acceleration
 948              	.LVL56:
 949 0046 EBE7     		b	.L96
 950              	.L101:
 290:Src/movement.c **** 		}
 951              		.loc 1 290 4 view .LVU168
 952 0048 FFF7FEFF 		bl	fornt_wall_calibrate
 953              	.LVL57:
 954 004c F7E7     		b	.L97
 955              	.L103:
 956 004e 00BF     		.align	2
 957              	.L102:
 958 0050 00000000 		.word	.LANCHOR0
 959 0054 00000000 		.word	.LANCHOR1
 960              		.cfi_endproc
 961              	.LFE20:
 963              		.section	.text.move_back,"ax",%progbits
 964              		.align	1
 965              		.global	move_back
 966              		.syntax unified
 967              		.thumb
 968              		.thumb_func
 969              		.fpu fpv4-sp-d16
ARM GAS  C:\Temp\cco4uphb.s 			page 23


 971              	move_back:
 972              	.LFB21:
 298:Src/movement.c **** 
 299:Src/movement.c **** //機能	: 後進
 300:Src/movement.c **** //引数	: なし
 301:Src/movement.c **** //返り値	: なし
 302:Src/movement.c **** void move_back (void)
 303:Src/movement.c **** {
 973              		.loc 1 303 1 view -0
 974              		.cfi_startproc
 975              		@ args = 0, pretend = 0, frame = 0
 976              		@ frame_needed = 0, uses_anonymous_args = 0
 977 0000 08B5     		push	{r3, lr}
 978              	.LCFI18:
 979              		.cfi_def_cfa_offset 8
 980              		.cfi_offset 3, -8
 981              		.cfi_offset 14, -4
 304:Src/movement.c **** 	if(run_first_flg == start){
 982              		.loc 1 304 2 view .LVU170
 983              		.loc 1 304 19 is_stmt 0 view .LVU171
 984 0002 2B4B     		ldr	r3, .L123
 985 0004 1B78     		ldrb	r3, [r3]	@ zero_extendqisi2
 986              		.loc 1 304 4 view .LVU172
 987 0006 3BB9     		cbnz	r3, .L105
 305:Src/movement.c **** 
 306:Src/movement.c **** 		if(front_wall_flg == wall){
 988              		.loc 1 306 3 is_stmt 1 view .LVU173
 989              		.loc 1 306 21 is_stmt 0 view .LVU174
 990 0008 2A4B     		ldr	r3, .L123+4
 991 000a 1B78     		ldrb	r3, [r3]	@ zero_extendqisi2
 992              		.loc 1 306 5 view .LVU175
 993 000c 012B     		cmp	r3, #1
 994 000e 0DD0     		beq	.L116
 307:Src/movement.c **** 			fornt_wall_calibrate();
 308:Src/movement.c **** 			if(right_wall_flg == wall){
 309:Src/movement.c **** 				turn_clk_90();
 310:Src/movement.c **** 				fornt_wall_calibrate();
 311:Src/movement.c **** 				turn_clk_90();
 312:Src/movement.c **** 			}
 313:Src/movement.c **** 			else if(left_wall_flg == wall){
 314:Src/movement.c **** 					turn_conclk_90();
 315:Src/movement.c **** 					fornt_wall_calibrate();
 316:Src/movement.c **** 					turn_conclk_90();
 317:Src/movement.c **** 			}
 318:Src/movement.c **** 			else {
 319:Src/movement.c **** 				turn_conclk_180();	//反時計回りに180度回転
 320:Src/movement.c **** 			}
 321:Src/movement.c **** 		}
 322:Src/movement.c **** 		else{
 323:Src/movement.c **** 			turn_conclk_180();	//反時計回りに180度回転
 995              		.loc 1 323 4 is_stmt 1 view .LVU176
 996 0010 FFF7FEFF 		bl	turn_conclk_180
 997              	.LVL58:
 998              	.L108:
 324:Src/movement.c **** 		}
 325:Src/movement.c **** 		half_acceleration();//半区画加速
 999              		.loc 1 325 3 view .LVU177
ARM GAS  C:\Temp\cco4uphb.s 			page 24


 1000 0014 FFF7FEFF 		bl	half_acceleration
 1001              	.LVL59:
 1002              	.L105:
 326:Src/movement.c **** 	}
 327:Src/movement.c **** 	if(run_first_flg == already){
 1003              		.loc 1 327 2 view .LVU178
 1004              		.loc 1 327 19 is_stmt 0 view .LVU179
 1005 0018 254B     		ldr	r3, .L123
 1006 001a 1B78     		ldrb	r3, [r3]	@ zero_extendqisi2
 1007              		.loc 1 327 4 view .LVU180
 1008 001c 012B     		cmp	r3, #1
 1009 001e 20D0     		beq	.L117
 1010              	.L110:
 328:Src/movement.c **** 		half_deceleration();//m半区画減速で中央に停止
 329:Src/movement.c **** 		if(front_wall_flg == wall){
 330:Src/movement.c **** 			fornt_wall_calibrate();
 331:Src/movement.c **** 			if(right_wall_flg == wall){
 332:Src/movement.c **** 				turn_clk_90();
 333:Src/movement.c **** 				fornt_wall_calibrate();
 334:Src/movement.c **** 				turn_clk_90();
 335:Src/movement.c **** 			}
 336:Src/movement.c **** 			else if(left_wall_flg == wall){
 337:Src/movement.c **** 				turn_conclk_90();
 338:Src/movement.c **** 				fornt_wall_calibrate();
 339:Src/movement.c **** 				turn_conclk_90();
 340:Src/movement.c **** 			}
 341:Src/movement.c **** 			else {
 342:Src/movement.c **** 				turn_conclk_180();	//反時計回りに180度回転
 343:Src/movement.c **** 			}
 344:Src/movement.c **** 		}
 345:Src/movement.c **** 		else{
 346:Src/movement.c **** 			turn_conclk_180();	//m反時計回りに180度回転
 347:Src/movement.c **** 		}
 348:Src/movement.c **** 		half_acceleration();//半区画加速
 349:Src/movement.c **** 	}
 350:Src/movement.c **** 	run_first_flg = already;
 1011              		.loc 1 350 2 is_stmt 1 view .LVU181
 1012              		.loc 1 350 16 is_stmt 0 view .LVU182
 1013 0020 234B     		ldr	r3, .L123
 1014 0022 0122     		movs	r2, #1
 1015 0024 1A70     		strb	r2, [r3]
 351:Src/movement.c **** 	clr_wall_flg();
 1016              		.loc 1 351 2 is_stmt 1 view .LVU183
 1017 0026 FFF7FEFF 		bl	clr_wall_flg
 1018              	.LVL60:
 352:Src/movement.c **** }
 1019              		.loc 1 352 1 is_stmt 0 view .LVU184
 1020 002a 08BD     		pop	{r3, pc}
 1021              	.L116:
 307:Src/movement.c **** 			if(right_wall_flg == wall){
 1022              		.loc 1 307 4 is_stmt 1 view .LVU185
 1023 002c FFF7FEFF 		bl	fornt_wall_calibrate
 1024              	.LVL61:
 308:Src/movement.c **** 				turn_clk_90();
 1025              		.loc 1 308 4 view .LVU186
 308:Src/movement.c **** 				turn_clk_90();
 1026              		.loc 1 308 22 is_stmt 0 view .LVU187
ARM GAS  C:\Temp\cco4uphb.s 			page 25


 1027 0030 214B     		ldr	r3, .L123+8
 1028 0032 1B78     		ldrb	r3, [r3]	@ zero_extendqisi2
 308:Src/movement.c **** 				turn_clk_90();
 1029              		.loc 1 308 6 view .LVU188
 1030 0034 012B     		cmp	r3, #1
 1031 0036 06D0     		beq	.L118
 313:Src/movement.c **** 					turn_conclk_90();
 1032              		.loc 1 313 9 is_stmt 1 view .LVU189
 313:Src/movement.c **** 					turn_conclk_90();
 1033              		.loc 1 313 26 is_stmt 0 view .LVU190
 1034 0038 204B     		ldr	r3, .L123+12
 1035 003a 1B78     		ldrb	r3, [r3]	@ zero_extendqisi2
 313:Src/movement.c **** 					turn_conclk_90();
 1036              		.loc 1 313 11 view .LVU191
 1037 003c 012B     		cmp	r3, #1
 1038 003e 09D0     		beq	.L119
 319:Src/movement.c **** 			}
 1039              		.loc 1 319 5 is_stmt 1 view .LVU192
 1040 0040 FFF7FEFF 		bl	turn_conclk_180
 1041              	.LVL62:
 1042 0044 E6E7     		b	.L108
 1043              	.L118:
 309:Src/movement.c **** 				fornt_wall_calibrate();
 1044              		.loc 1 309 5 view .LVU193
 1045 0046 FFF7FEFF 		bl	turn_clk_90
 1046              	.LVL63:
 310:Src/movement.c **** 				turn_clk_90();
 1047              		.loc 1 310 5 view .LVU194
 1048 004a FFF7FEFF 		bl	fornt_wall_calibrate
 1049              	.LVL64:
 311:Src/movement.c **** 			}
 1050              		.loc 1 311 5 view .LVU195
 1051 004e FFF7FEFF 		bl	turn_clk_90
 1052              	.LVL65:
 1053 0052 DFE7     		b	.L108
 1054              	.L119:
 314:Src/movement.c **** 					fornt_wall_calibrate();
 1055              		.loc 1 314 6 view .LVU196
 1056 0054 FFF7FEFF 		bl	turn_conclk_90
 1057              	.LVL66:
 315:Src/movement.c **** 					turn_conclk_90();
 1058              		.loc 1 315 6 view .LVU197
 1059 0058 FFF7FEFF 		bl	fornt_wall_calibrate
 1060              	.LVL67:
 316:Src/movement.c **** 			}
 1061              		.loc 1 316 6 view .LVU198
 1062 005c FFF7FEFF 		bl	turn_conclk_90
 1063              	.LVL68:
 1064 0060 D8E7     		b	.L108
 1065              	.L117:
 328:Src/movement.c **** 		if(front_wall_flg == wall){
 1066              		.loc 1 328 3 view .LVU199
 1067 0062 FFF7FEFF 		bl	half_deceleration
 1068              	.LVL69:
 329:Src/movement.c **** 			fornt_wall_calibrate();
 1069              		.loc 1 329 3 view .LVU200
 329:Src/movement.c **** 			fornt_wall_calibrate();
ARM GAS  C:\Temp\cco4uphb.s 			page 26


 1070              		.loc 1 329 21 is_stmt 0 view .LVU201
 1071 0066 134B     		ldr	r3, .L123+4
 1072 0068 1B78     		ldrb	r3, [r3]	@ zero_extendqisi2
 329:Src/movement.c **** 			fornt_wall_calibrate();
 1073              		.loc 1 329 5 view .LVU202
 1074 006a 012B     		cmp	r3, #1
 1075 006c 04D0     		beq	.L120
 346:Src/movement.c **** 		}
 1076              		.loc 1 346 4 is_stmt 1 view .LVU203
 1077 006e FFF7FEFF 		bl	turn_conclk_180
 1078              	.LVL70:
 1079              	.L113:
 348:Src/movement.c **** 	}
 1080              		.loc 1 348 3 view .LVU204
 1081 0072 FFF7FEFF 		bl	half_acceleration
 1082              	.LVL71:
 1083 0076 D3E7     		b	.L110
 1084              	.L120:
 330:Src/movement.c **** 			if(right_wall_flg == wall){
 1085              		.loc 1 330 4 view .LVU205
 1086 0078 FFF7FEFF 		bl	fornt_wall_calibrate
 1087              	.LVL72:
 331:Src/movement.c **** 				turn_clk_90();
 1088              		.loc 1 331 4 view .LVU206
 331:Src/movement.c **** 				turn_clk_90();
 1089              		.loc 1 331 22 is_stmt 0 view .LVU207
 1090 007c 0E4B     		ldr	r3, .L123+8
 1091 007e 1B78     		ldrb	r3, [r3]	@ zero_extendqisi2
 331:Src/movement.c **** 				turn_clk_90();
 1092              		.loc 1 331 6 view .LVU208
 1093 0080 012B     		cmp	r3, #1
 1094 0082 06D0     		beq	.L121
 336:Src/movement.c **** 				turn_conclk_90();
 1095              		.loc 1 336 9 is_stmt 1 view .LVU209
 336:Src/movement.c **** 				turn_conclk_90();
 1096              		.loc 1 336 26 is_stmt 0 view .LVU210
 1097 0084 0D4B     		ldr	r3, .L123+12
 1098 0086 1B78     		ldrb	r3, [r3]	@ zero_extendqisi2
 336:Src/movement.c **** 				turn_conclk_90();
 1099              		.loc 1 336 11 view .LVU211
 1100 0088 012B     		cmp	r3, #1
 1101 008a 09D0     		beq	.L122
 342:Src/movement.c **** 			}
 1102              		.loc 1 342 5 is_stmt 1 view .LVU212
 1103 008c FFF7FEFF 		bl	turn_conclk_180
 1104              	.LVL73:
 1105 0090 EFE7     		b	.L113
 1106              	.L121:
 332:Src/movement.c **** 				fornt_wall_calibrate();
 1107              		.loc 1 332 5 view .LVU213
 1108 0092 FFF7FEFF 		bl	turn_clk_90
 1109              	.LVL74:
 333:Src/movement.c **** 				turn_clk_90();
 1110              		.loc 1 333 5 view .LVU214
 1111 0096 FFF7FEFF 		bl	fornt_wall_calibrate
 1112              	.LVL75:
 334:Src/movement.c **** 			}
ARM GAS  C:\Temp\cco4uphb.s 			page 27


 1113              		.loc 1 334 5 view .LVU215
 1114 009a FFF7FEFF 		bl	turn_clk_90
 1115              	.LVL76:
 1116 009e E8E7     		b	.L113
 1117              	.L122:
 337:Src/movement.c **** 				fornt_wall_calibrate();
 1118              		.loc 1 337 5 view .LVU216
 1119 00a0 FFF7FEFF 		bl	turn_conclk_90
 1120              	.LVL77:
 338:Src/movement.c **** 				turn_conclk_90();
 1121              		.loc 1 338 5 view .LVU217
 1122 00a4 FFF7FEFF 		bl	fornt_wall_calibrate
 1123              	.LVL78:
 339:Src/movement.c **** 			}
 1124              		.loc 1 339 5 view .LVU218
 1125 00a8 FFF7FEFF 		bl	turn_conclk_90
 1126              	.LVL79:
 1127 00ac E1E7     		b	.L113
 1128              	.L124:
 1129 00ae 00BF     		.align	2
 1130              	.L123:
 1131 00b0 00000000 		.word	.LANCHOR0
 1132 00b4 00000000 		.word	.LANCHOR1
 1133 00b8 00000000 		.word	.LANCHOR2
 1134 00bc 00000000 		.word	.LANCHOR3
 1135              		.cfi_endproc
 1136              	.LFE21:
 1138              		.section	.bss.front_wall_flg,"aw",%nobits
 1139              		.set	.LANCHOR1,. + 0
 1142              	front_wall_flg:
 1143 0000 00       		.space	1
 1144              		.section	.bss.left_wall_flg,"aw",%nobits
 1145              		.set	.LANCHOR3,. + 0
 1148              	left_wall_flg:
 1149 0000 00       		.space	1
 1150              		.section	.bss.right_wall_flg,"aw",%nobits
 1151              		.set	.LANCHOR2,. + 0
 1154              	right_wall_flg:
 1155 0000 00       		.space	1
 1156              		.section	.bss.run_first_flg,"aw",%nobits
 1157              		.set	.LANCHOR0,. + 0
 1160              	run_first_flg:
 1161 0000 00       		.space	1
 1162              		.text
 1163              	.Letext0:
 1164              		.file 2 "c:\\tools\\gcc-arm-none-eabi-9-2019-q4-major\\arm-none-eabi\\include\\machine\\_default_t
 1165              		.file 3 "c:\\tools\\gcc-arm-none-eabi-9-2019-q4-major\\arm-none-eabi\\include\\sys\\lock.h"
 1166              		.file 4 "c:\\tools\\gcc-arm-none-eabi-9-2019-q4-major\\arm-none-eabi\\include\\sys\\_types.h"
 1167              		.file 5 "c:\\tools\\gcc-arm-none-eabi-9-2019-q4-major\\lib\\gcc\\arm-none-eabi\\9.2.1\\include\\st
 1168              		.file 6 "c:\\tools\\gcc-arm-none-eabi-9-2019-q4-major\\arm-none-eabi\\include\\sys\\reent.h"
 1169              		.file 7 "c:\\tools\\gcc-arm-none-eabi-9-2019-q4-major\\arm-none-eabi\\include\\sys\\_stdint.h"
 1170              		.file 8 "Inc/target.h"
 1171              		.file 9 "Inc/movement.h"
 1172              		.file 10 "Inc/exvol.h"
 1173              		.file 11 "Inc/adjust.h"
ARM GAS  C:\Temp\cco4uphb.s 			page 28


DEFINED SYMBOLS
                            *ABS*:00000000 movement.c
  C:\Temp\cco4uphb.s:18     .text.move_comp_jud:00000000 $t
  C:\Temp\cco4uphb.s:26     .text.move_comp_jud:00000000 move_comp_jud
  C:\Temp\cco4uphb.s:99     .text.move_comp_jud:0000006c $d
  C:\Temp\cco4uphb.s:105    .text.rotate_comp_jud:00000000 $t
  C:\Temp\cco4uphb.s:112    .text.rotate_comp_jud:00000000 rotate_comp_jud
  C:\Temp\cco4uphb.s:184    .text.rotate_comp_jud:0000006c $d
  C:\Temp\cco4uphb.s:190    .text.start_acceleration:00000000 $t
  C:\Temp\cco4uphb.s:197    .text.start_acceleration:00000000 start_acceleration
  C:\Temp\cco4uphb.s:234    .text.start_acceleration:00000020 $d
  C:\Temp\cco4uphb.s:239    .text.half_acceleration:00000000 $t
  C:\Temp\cco4uphb.s:246    .text.half_acceleration:00000000 half_acceleration
  C:\Temp\cco4uphb.s:283    .text.half_acceleration:00000020 $d
  C:\Temp\cco4uphb.s:288    .text.half_deceleration:00000000 $t
  C:\Temp\cco4uphb.s:295    .text.half_deceleration:00000000 half_deceleration
  C:\Temp\cco4uphb.s:332    .text.half_deceleration:00000020 $d
  C:\Temp\cco4uphb.s:337    .text.constant_speed:00000000 $t
  C:\Temp\cco4uphb.s:344    .text.constant_speed:00000000 constant_speed
  C:\Temp\cco4uphb.s:381    .text.constant_speed:00000020 $d
  C:\Temp\cco4uphb.s:386    .text.turn_clk_90:00000000 $t
  C:\Temp\cco4uphb.s:393    .text.turn_clk_90:00000000 turn_clk_90
  C:\Temp\cco4uphb.s:426    .text.turn_clk_90:0000001c $d
  C:\Temp\cco4uphb.s:431    .text.turn_conclk_90:00000000 $t
  C:\Temp\cco4uphb.s:438    .text.turn_conclk_90:00000000 turn_conclk_90
  C:\Temp\cco4uphb.s:471    .text.turn_conclk_90:0000001c $d
  C:\Temp\cco4uphb.s:476    .text.turn_conclk_180:00000000 $t
  C:\Temp\cco4uphb.s:483    .text.turn_conclk_180:00000000 turn_conclk_180
  C:\Temp\cco4uphb.s:516    .text.turn_conclk_180:0000001c $d
  C:\Temp\cco4uphb.s:521    .text.clr_run_first_flg:00000000 $t
  C:\Temp\cco4uphb.s:528    .text.clr_run_first_flg:00000000 clr_run_first_flg
  C:\Temp\cco4uphb.s:545    .text.clr_run_first_flg:00000008 $d
  C:\Temp\cco4uphb.s:550    .text.set_run_first_flg:00000000 $t
  C:\Temp\cco4uphb.s:557    .text.set_run_first_flg:00000000 set_run_first_flg
  C:\Temp\cco4uphb.s:574    .text.set_run_first_flg:00000008 $d
  C:\Temp\cco4uphb.s:579    .text.clr_wall_flg:00000000 $t
  C:\Temp\cco4uphb.s:586    .text.clr_wall_flg:00000000 clr_wall_flg
  C:\Temp\cco4uphb.s:611    .text.clr_wall_flg:00000010 $d
  C:\Temp\cco4uphb.s:618    .text.set_front_wall_flg:00000000 $t
  C:\Temp\cco4uphb.s:625    .text.set_front_wall_flg:00000000 set_front_wall_flg
  C:\Temp\cco4uphb.s:642    .text.set_front_wall_flg:00000008 $d
  C:\Temp\cco4uphb.s:647    .text.set_rigth_wall_flg:00000000 $t
  C:\Temp\cco4uphb.s:654    .text.set_rigth_wall_flg:00000000 set_rigth_wall_flg
  C:\Temp\cco4uphb.s:671    .text.set_rigth_wall_flg:00000008 $d
  C:\Temp\cco4uphb.s:676    .text.set_left_wall_flg:00000000 $t
  C:\Temp\cco4uphb.s:683    .text.set_left_wall_flg:00000000 set_left_wall_flg
  C:\Temp\cco4uphb.s:700    .text.set_left_wall_flg:00000008 $d
  C:\Temp\cco4uphb.s:705    .text.move_front:00000000 $t
  C:\Temp\cco4uphb.s:712    .text.move_front:00000000 move_front
  C:\Temp\cco4uphb.s:769    .text.move_front:00000034 $d
  C:\Temp\cco4uphb.s:774    .text.move_right:00000000 $t
  C:\Temp\cco4uphb.s:781    .text.move_right:00000000 move_right
  C:\Temp\cco4uphb.s:863    .text.move_right:00000050 $d
  C:\Temp\cco4uphb.s:869    .text.move_left:00000000 $t
  C:\Temp\cco4uphb.s:876    .text.move_left:00000000 move_left
  C:\Temp\cco4uphb.s:958    .text.move_left:00000050 $d
  C:\Temp\cco4uphb.s:964    .text.move_back:00000000 $t
ARM GAS  C:\Temp\cco4uphb.s 			page 29


  C:\Temp\cco4uphb.s:971    .text.move_back:00000000 move_back
  C:\Temp\cco4uphb.s:1131   .text.move_back:000000b0 $d
  C:\Temp\cco4uphb.s:1142   .bss.front_wall_flg:00000000 front_wall_flg
  C:\Temp\cco4uphb.s:1143   .bss.front_wall_flg:00000000 $d
  C:\Temp\cco4uphb.s:1148   .bss.left_wall_flg:00000000 left_wall_flg
  C:\Temp\cco4uphb.s:1149   .bss.left_wall_flg:00000000 $d
  C:\Temp\cco4uphb.s:1154   .bss.right_wall_flg:00000000 right_wall_flg
  C:\Temp\cco4uphb.s:1155   .bss.right_wall_flg:00000000 $d
  C:\Temp\cco4uphb.s:1160   .bss.run_first_flg:00000000 run_first_flg
  C:\Temp\cco4uphb.s:1161   .bss.run_first_flg:00000000 $d

UNDEFINED SYMBOLS
get_target_length
get_ideal_length
get_target_angle
get_ideal_angle
set_direction_mode
set_accel_mode
set_target_length
set_rotation_mode
set_target_angle
set_mode_ctrl
fornt_wall_calibrate
