ARM GAS  C:\Temp\cc3kh2wP.s 			page 1


   1              		.cpu cortex-m4
   2              		.eabi_attribute 27, 1
   3              		.eabi_attribute 28, 1
   4              		.eabi_attribute 20, 1
   5              		.eabi_attribute 21, 1
   6              		.eabi_attribute 23, 3
   7              		.eabi_attribute 24, 1
   8              		.eabi_attribute 25, 1
   9              		.eabi_attribute 26, 1
  10              		.eabi_attribute 30, 1
  11              		.eabi_attribute 34, 1
  12              		.eabi_attribute 18, 4
  13              		.file	"target.c"
  14              		.text
  15              	.Ltext0:
  16              		.cfi_sections	.debug_frame
  17              		.global	__aeabi_f2d
  18              		.global	__aeabi_dmul
  19              		.global	__aeabi_dadd
  20              		.global	__aeabi_d2f
  21              		.section	.text.real_distance_m_calc,"ax",%progbits
  22              		.align	1
  23              		.global	real_distance_m_calc
  24              		.arch armv7e-m
  25              		.syntax unified
  26              		.thumb
  27              		.thumb_func
  28              		.fpu fpv4-sp-d16
  30              	real_distance_m_calc:
  31              	.LFB133:
  32              		.file 1 "Src/target.c"
   1:Src/target.c  **** /*
   2:Src/target.c  ****  * target.c
   3:Src/target.c  ****  *
   4:Src/target.c  ****  *  Created on: Aug 7, 2019
   5:Src/target.c  ****  *      Author: å²¡ç”° æ³°è£•
   6:Src/target.c  ****  */
   7:Src/target.c  **** 
   8:Src/target.c  **** #include "index.h"
   9:Src/target.c  **** 
  10:Src/target.c  **** float target_speed_m = 0; 		//m ä¸¦é€²æ–¹å‘ã®ç›®æ¨™é€Ÿåº¦[m/s]
  11:Src/target.c  **** float target_speed_m_fin = 0;	//m åŒºé–“çµ‚äº†æ™‚ã®ç›®æ¨™é€Ÿåº¦[ m/s]
  12:Src/target.c  **** float target_speed_w = 0;		//m ç›®æ¨™è§’é€Ÿåº¦[rad/s]
  13:Src/target.c  **** float g_accelation_m = 0;		//m åŠ é€Ÿåº¦ãƒãƒƒãƒ•ã‚¡[m/s^2]
  14:Src/target.c  **** float g_accelation_w = 0;		//m è§’åŠ é€Ÿåº¦ãƒãƒƒãƒ•ã‚¡[m/s^2]
  15:Src/target.c  **** float target_distance_m = 0; 	//mã€€ç›®æ¨™è·é›¢[m]
  16:Src/target.c  **** float target_distance_w = 0; 	//mã€€ç›®æ¨™è§’åº¦[rad]
  17:Src/target.c  **** float ideal_distance_m = 0; 	//m ç†æƒ³ã®ä¸¦é€²æ–¹å‘ç§»å‹•è·é›¢[m]
  18:Src/target.c  **** float ideal_distance_w = 0; 	//m ç†æƒ³ã®å®Ÿè§’åº¦[rad]
  19:Src/target.c  **** 
  20:Src/target.c  **** float operation_amount_r = 0; 		//m å³ã‚¿ã‚¤ãƒ¤ã®æ“ä½œé‡[ duty % ]
  21:Src/target.c  **** float operation_amount_l = 0;		//m å·¦ã‚¿ã‚¤ãƒ¤ã®æ“ä½œé‡[ duty % ]
  22:Src/target.c  **** 
  23:Src/target.c  **** float real_distance_m = 0;			//m ä¸¦é€²æ–¹å‘ç§»å‹•è·é›¢[ m ]
  24:Src/target.c  **** float real_distance_w = 0;			//m å›è»¢æ–¹å‘ç§»å‹•è·é›¢[ rad]
  25:Src/target.c  **** 
  26:Src/target.c  **** uint8_t move_dir_flg = 0;			//mã€€ç§»å‹•æ–¹å‘ãƒ•ãƒ©ã‚°ã€€0:å‰é€² 1:å¾Œé€²
ARM GAS  C:\Temp\cc3kh2wP.s 			page 2


  27:Src/target.c  **** uint8_t rotation_dir_flg = 0;		//mã€€å›è»¢æ–¹å‘ãƒ•ãƒ©ã‚°ã€€0:æ™‚è¨ˆå‘¨ã‚Š 1:åæ™‚è¨ˆå‘¨ã‚Š
  28:Src/target.c  **** uint8_t accel_dir_flg = 0;		    //mã€€åŠ é€Ÿæ–¹å‘ãƒ•ãƒ©ã‚°ã€€0:åŠ é€Ÿ 1:æ¸›é€Ÿ
  29:Src/target.c  **** uint8_t run_first_flg = 0;			//m èµ°è¡Œé–‹å§‹ãƒ•ãƒ©ã‚° 0:èµ°è¡Œé–‹å§‹æ™‚ã€€1:ãã‚Œä»¥å¤–
  30:Src/target.c  **** uint8_t correction_mode = 0;		//m è£œæ­£ãƒ¢ãƒ¼ãƒ‰ãƒ•ãƒ©ã‚° 0:ç›®æ¨™é€Ÿåº¦ã€€1:å‰å£ã‚»ãƒ³ã‚µå€¤
  31:Src/target.c  **** 
  32:Src/target.c  **** uint16_t fornt_wall_calibrate_tim = 0; //m å‰å£è£œæ­£ç”¨ã‚«ã‚¦ãƒ³ã‚¿
  33:Src/target.c  **** 
  34:Src/target.c  **** 
  35:Src/target.c  **** ///////////////////////
  36:Src/target.c  **** /* a å„ãƒ¢ãƒ¼ãƒ‰ãƒ•ãƒ©ã‚°å®šç¾©	 */
  37:Src/target.c  **** ///////////////////////
  38:Src/target.c  **** 
  39:Src/target.c  **** typedef enum {
  40:Src/target.c  **** 	forward_mode 	= 0,
  41:Src/target.c  **** 	backward_mode 	= 1,
  42:Src/target.c  **** } direction_mode;
  43:Src/target.c  **** 
  44:Src/target.c  **** typedef enum {
  45:Src/target.c  **** 	counter_clockwise 	= 0,
  46:Src/target.c  **** 	clockwise 	= 1,
  47:Src/target.c  **** } rotation_mode;
  48:Src/target.c  **** 
  49:Src/target.c  **** typedef enum {
  50:Src/target.c  **** 	acceleration 	= 0, //måŠ é€Ÿ
  51:Src/target.c  **** 	deceleration 	= 1, //mæ¸›é€Ÿ
  52:Src/target.c  **** } accel_mode;
  53:Src/target.c  **** 
  54:Src/target.c  **** typedef enum {
  55:Src/target.c  **** 	start 	= 0, //mèµ°è¡Œé–‹å§‹
  56:Src/target.c  **** 	other 	= 1, //mãã‚Œä»¥å¤–
  57:Src/target.c  **** } serch_start;
  58:Src/target.c  **** 
  59:Src/target.c  **** 
  60:Src/target.c  **** 
  61:Src/target.c  **** ////////////////////////////////
  62:Src/target.c  **** /* a ãƒ‘ãƒ©ãƒ¡ãƒ¼ã‚¿æ›´æ–°é–¢æ•°(1msã‚¿ã‚¹ã‚¯)	 */
  63:Src/target.c  **** ////////////////////////////////
  64:Src/target.c  **** 
  65:Src/target.c  **** /* memo:ä¸¦é€²æ–¹å‘ç§»å‹•è·é›¢æ›´æ–°(1msã‚¿ã‚¹ã‚¯)
  66:Src/target.c  ****  * param
  67:Src/target.c  ****  */
  68:Src/target.c  **** void real_distance_m_calc (void)
  69:Src/target.c  **** {
  33              		.loc 1 69 1 view -0
  34              		.cfi_startproc
  35              		@ args = 0, pretend = 0, frame = 0
  36              		@ frame_needed = 0, uses_anonymous_args = 0
  37 0000 70B5     		push	{r4, r5, r6, lr}
  38              	.LCFI0:
  39              		.cfi_def_cfa_offset 16
  40              		.cfi_offset 4, -16
  41              		.cfi_offset 5, -12
  42              		.cfi_offset 6, -8
  43              		.cfi_offset 14, -4
  70:Src/target.c  **** 	real_distance_m += g_ave_speed_m * 0.001; // [m/s] * [s]
  44              		.loc 1 70 2 view .LVU1
  45              		.loc 1 70 35 is_stmt 0 view .LVU2
ARM GAS  C:\Temp\cc3kh2wP.s 			page 3


  46 0002 0D4B     		ldr	r3, .L3+8
  47 0004 1868     		ldr	r0, [r3]	@ float
  48 0006 FFF7FEFF 		bl	__aeabi_f2d
  49              	.LVL0:
  50 000a 09A3     		adr	r3, .L3
  51 000c D3E90023 		ldrd	r2, [r3]
  52 0010 FFF7FEFF 		bl	__aeabi_dmul
  53              	.LVL1:
  54 0014 0446     		mov	r4, r0
  55 0016 0D46     		mov	r5, r1
  56              		.loc 1 70 18 view .LVU3
  57 0018 084E     		ldr	r6, .L3+12
  58 001a 3068     		ldr	r0, [r6]	@ float
  59 001c FFF7FEFF 		bl	__aeabi_f2d
  60              	.LVL2:
  61 0020 2246     		mov	r2, r4
  62 0022 2B46     		mov	r3, r5
  63 0024 FFF7FEFF 		bl	__aeabi_dadd
  64              	.LVL3:
  65 0028 FFF7FEFF 		bl	__aeabi_d2f
  66              	.LVL4:
  67 002c 3060     		str	r0, [r6]	@ float
  71:Src/target.c  **** }
  68              		.loc 1 71 1 view .LVU4
  69 002e 70BD     		pop	{r4, r5, r6, pc}
  70              	.L4:
  71              		.align	3
  72              	.L3:
  73 0030 FCA9F1D2 		.word	-755914244
  74 0034 4D62503F 		.word	1062232653
  75 0038 00000000 		.word	g_ave_speed_m
  76 003c 00000000 		.word	.LANCHOR0
  77              		.cfi_endproc
  78              	.LFE133:
  80              		.section	.text.real_distance_w_calc,"ax",%progbits
  81              		.align	1
  82              		.global	real_distance_w_calc
  83              		.syntax unified
  84              		.thumb
  85              		.thumb_func
  86              		.fpu fpv4-sp-d16
  88              	real_distance_w_calc:
  89              	.LFB134:
  72:Src/target.c  **** 
  73:Src/target.c  **** /* memo:å›è»¢æ–¹å‘ç§»å‹•è§’åº¦å–å¾—(1msã‚¿ã‚¹ã‚¯)
  74:Src/target.c  ****  * param
  75:Src/target.c  ****  */
  76:Src/target.c  **** void real_distance_w_calc (void)
  77:Src/target.c  **** {
  90              		.loc 1 77 1 is_stmt 1 view -0
  91              		.cfi_startproc
  92              		@ args = 0, pretend = 0, frame = 0
  93              		@ frame_needed = 0, uses_anonymous_args = 0
  94 0000 70B5     		push	{r4, r5, r6, lr}
  95              	.LCFI1:
  96              		.cfi_def_cfa_offset 16
  97              		.cfi_offset 4, -16
ARM GAS  C:\Temp\cc3kh2wP.s 			page 4


  98              		.cfi_offset 5, -12
  99              		.cfi_offset 6, -8
 100              		.cfi_offset 14, -4
  78:Src/target.c  **** 	real_distance_w += IMU_GetGyro_Z() * 0.001; // [rad/s] * [s]
 101              		.loc 1 78 2 view .LVU6
 102              		.loc 1 78 21 is_stmt 0 view .LVU7
 103 0002 FFF7FEFF 		bl	IMU_GetGyro_Z
 104              	.LVL5:
 105 0006 10EE100A 		vmov	r0, s0
 106 000a FFF7FEFF 		bl	__aeabi_f2d
 107              	.LVL6:
 108              		.loc 1 78 37 view .LVU8
 109 000e 0BA3     		adr	r3, .L7+4
 110 0010 D3E90023 		ldrd	r2, [r3]
 111 0014 FFF7FEFF 		bl	__aeabi_dmul
 112              	.LVL7:
 113 0018 0446     		mov	r4, r0
 114 001a 0D46     		mov	r5, r1
 115              		.loc 1 78 18 view .LVU9
 116 001c 064E     		ldr	r6, .L7
 117 001e 3068     		ldr	r0, [r6]	@ float
 118 0020 FFF7FEFF 		bl	__aeabi_f2d
 119              	.LVL8:
 120 0024 2246     		mov	r2, r4
 121 0026 2B46     		mov	r3, r5
 122 0028 FFF7FEFF 		bl	__aeabi_dadd
 123              	.LVL9:
 124 002c FFF7FEFF 		bl	__aeabi_d2f
 125              	.LVL10:
 126 0030 3060     		str	r0, [r6]	@ float
  79:Src/target.c  **** }
 127              		.loc 1 79 1 view .LVU10
 128 0032 70BD     		pop	{r4, r5, r6, pc}
 129              	.L8:
 130 0034 AFF30080 		.align	3
 131              	.L7:
 132 0038 00000000 		.word	.LANCHOR1
 133 003c FCA9F1D2 		.word	-755914244
 134 0040 4D62503F 		.word	1062232653
 135              		.cfi_endproc
 136              	.LFE134:
 138              		.section	.text.target_speed_inc,"ax",%progbits
 139              		.align	1
 140              		.global	target_speed_inc
 141              		.syntax unified
 142              		.thumb
 143              		.thumb_func
 144              		.fpu fpv4-sp-d16
 146              	target_speed_inc:
 147              	.LFB135:
  80:Src/target.c  **** 
  81:Src/target.c  **** 
  82:Src/target.c  **** /* memo:ç›®æ¨™é€Ÿåº¦æ›´æ–°å‡¦ç†(1msã‚¿ã‚¹ã‚¯)
  83:Src/target.c  ****  * ç¾åœ¨ç›®æ¨™é€Ÿåº¦ã«1ms*åŠ é€Ÿåº¦ã‚’åŠ ç®—ã—ã€åŠ é€Ÿã€å›è»¢ãƒ¢ãƒ¼ãƒ‰ã”ã¨ã«ãƒªãƒŸãƒƒãƒˆå‡
  84:Src/target.c  ****  * param:
  85:Src/target.c  ****  *  * */
  86:Src/target.c  **** void target_speed_inc(void)
ARM GAS  C:\Temp\cc3kh2wP.s 			page 5


  87:Src/target.c  **** {
 148              		.loc 1 87 1 is_stmt 1 view -0
 149              		.cfi_startproc
 150              		@ args = 0, pretend = 0, frame = 0
 151              		@ frame_needed = 0, uses_anonymous_args = 0
 152 0000 70B5     		push	{r4, r5, r6, lr}
 153              	.LCFI2:
 154              		.cfi_def_cfa_offset 16
 155              		.cfi_offset 4, -16
 156              		.cfi_offset 5, -12
 157              		.cfi_offset 6, -8
 158              		.cfi_offset 14, -4
 159 0002 2DED028B 		vpush.64	{d8}
 160              	.LCFI3:
 161              		.cfi_def_cfa_offset 24
 162              		.cfi_offset 80, -24
 163              		.cfi_offset 81, -20
  88:Src/target.c  **** 
  89:Src/target.c  **** 	/*måŠ é€Ÿå‡¦ç†*/
  90:Src/target.c  **** 	target_speed_m += g_accelation_m * 0.001; //1msåˆ†ã®åŠ é€Ÿåº¦åŠ ç®—
 164              		.loc 1 90 2 view .LVU12
 165              		.loc 1 90 35 is_stmt 0 view .LVU13
 166 0006 604B     		ldr	r3, .L43+8
 167 0008 1868     		ldr	r0, [r3]	@ float
 168 000a FFF7FEFF 		bl	__aeabi_f2d
 169              	.LVL11:
 170 000e 5CA3     		adr	r3, .L43
 171 0010 D3E90023 		ldrd	r2, [r3]
 172 0014 FFF7FEFF 		bl	__aeabi_dmul
 173              	.LVL12:
 174 0018 0446     		mov	r4, r0
 175 001a 0D46     		mov	r5, r1
 176              		.loc 1 90 17 view .LVU14
 177 001c 5B4E     		ldr	r6, .L43+12
 178 001e 3068     		ldr	r0, [r6]	@ float
 179 0020 FFF7FEFF 		bl	__aeabi_f2d
 180              	.LVL13:
 181 0024 2246     		mov	r2, r4
 182 0026 2B46     		mov	r3, r5
 183 0028 FFF7FEFF 		bl	__aeabi_dadd
 184              	.LVL14:
 185 002c FFF7FEFF 		bl	__aeabi_d2f
 186              	.LVL15:
 187 0030 08EE100A 		vmov	s16, r0
 188 0034 3060     		str	r0, [r6]	@ float
  91:Src/target.c  **** 	target_speed_w += g_accelation_w * 0.001; //1msåˆ†ã®è§’åŠ é€Ÿåº¦åŠ ç®—
 189              		.loc 1 91 2 is_stmt 1 view .LVU15
 190              		.loc 1 91 35 is_stmt 0 view .LVU16
 191 0036 564B     		ldr	r3, .L43+16
 192 0038 1868     		ldr	r0, [r3]	@ float
 193 003a FFF7FEFF 		bl	__aeabi_f2d
 194              	.LVL16:
 195 003e 50A3     		adr	r3, .L43
 196 0040 D3E90023 		ldrd	r2, [r3]
 197 0044 FFF7FEFF 		bl	__aeabi_dmul
 198              	.LVL17:
 199 0048 0446     		mov	r4, r0
ARM GAS  C:\Temp\cc3kh2wP.s 			page 6


 200 004a 0D46     		mov	r5, r1
 201              		.loc 1 91 17 view .LVU17
 202 004c 514E     		ldr	r6, .L43+20
 203 004e 3068     		ldr	r0, [r6]	@ float
 204 0050 FFF7FEFF 		bl	__aeabi_f2d
 205              	.LVL18:
 206 0054 2246     		mov	r2, r4
 207 0056 2B46     		mov	r3, r5
 208 0058 FFF7FEFF 		bl	__aeabi_dadd
 209              	.LVL19:
 210 005c FFF7FEFF 		bl	__aeabi_d2f
 211              	.LVL20:
 212 0060 07EE900A 		vmov	s15, r0
 213 0064 3060     		str	r0, [r6]	@ float
  92:Src/target.c  **** 
  93:Src/target.c  **** 	/*limitå‡¦ç†*/
  94:Src/target.c  **** 	switch(move_dir_flg)
 214              		.loc 1 94 2 is_stmt 1 view .LVU18
 215 0066 4C4B     		ldr	r3, .L43+24
 216 0068 1B78     		ldrb	r3, [r3]	@ zero_extendqisi2
 217 006a 002B     		cmp	r3, #0
 218 006c 36D0     		beq	.L10
 219 006e 012B     		cmp	r3, #1
 220 0070 48D0     		beq	.L11
 221              	.L12:
  95:Src/target.c  **** 	{
  96:Src/target.c  **** 		case forward_mode:
  97:Src/target.c  **** 
  98:Src/target.c  **** 			if (target_speed_m < 0)	//m ä¸‹é™ã‚¹ãƒ”ãƒ¼ãƒ‰å‡¦ç†
  99:Src/target.c  **** 					{
 100:Src/target.c  **** 						target_speed_m = 0;
 101:Src/target.c  **** 					}
 102:Src/target.c  **** 					else if (target_speed_m > speed_m_max)//ä¸Šé™ã‚¹ãƒ”ãƒ¼ãƒ‰å‡¦ç†
 103:Src/target.c  **** 					{
 104:Src/target.c  **** 						target_speed_m = speed_m_max;
 105:Src/target.c  **** 					}
 106:Src/target.c  **** 			break;
 107:Src/target.c  **** 
 108:Src/target.c  **** 		case backward_mode:
 109:Src/target.c  **** 			if (target_speed_m > 0)	//m ä¸Šé™ã‚¹ãƒ”ãƒ¼ãƒ‰å‡¦ç†
 110:Src/target.c  **** 				{
 111:Src/target.c  **** 					target_speed_m = 0;
 112:Src/target.c  **** 				}
 113:Src/target.c  **** 				else if (target_speed_m < -1 * speed_m_max)//ä¸‹é™ã‚¹ãƒ”ãƒ¼ãƒ‰å‡¦ç†
 114:Src/target.c  **** 				{
 115:Src/target.c  **** 					target_speed_m = -1 * speed_m_max;
 116:Src/target.c  **** 				}
 117:Src/target.c  **** 			break;
 118:Src/target.c  **** 	}
 119:Src/target.c  **** 
 120:Src/target.c  **** 	switch(rotation_dir_flg)
 222              		.loc 1 120 2 view .LVU19
 223 0072 4A4B     		ldr	r3, .L43+28
 224 0074 1B78     		ldrb	r3, [r3]	@ zero_extendqisi2
 225 0076 002B     		cmp	r3, #0
 226 0078 58D0     		beq	.L19
 227 007a 012B     		cmp	r3, #1
ARM GAS  C:\Temp\cc3kh2wP.s 			page 7


 228 007c 6AD0     		beq	.L20
 229              	.L21:
 121:Src/target.c  **** 		{
 122:Src/target.c  **** 			case counter_clockwise:
 123:Src/target.c  **** 
 124:Src/target.c  **** 				if (target_speed_w < 0)	//m ä¸‹é™ã‚¹ãƒ”ãƒ¼ãƒ‰å‡¦ç†
 125:Src/target.c  **** 						{
 126:Src/target.c  **** 							target_speed_w = 0;
 127:Src/target.c  **** 						}
 128:Src/target.c  **** 						else if (target_speed_w > speed_w_max)//ä¸Šé™ã‚¹ãƒ”ãƒ¼ãƒ‰å‡¦ç†
 129:Src/target.c  **** 						{
 130:Src/target.c  **** 							target_speed_w = speed_w_max;
 131:Src/target.c  **** 						}
 132:Src/target.c  **** 				break;
 133:Src/target.c  **** 
 134:Src/target.c  **** 			case clockwise:
 135:Src/target.c  **** 				if (target_speed_w > 0)	//m ä¸Šé™ã‚¹ãƒ”ãƒ¼ãƒ‰å‡¦ç†
 136:Src/target.c  **** 					{
 137:Src/target.c  **** 						target_speed_w = 0;
 138:Src/target.c  **** 					}
 139:Src/target.c  **** 					else if (target_speed_w < -1 * speed_w_max)//ä¸‹é™ã‚¹ãƒ”ãƒ¼ãƒ‰å‡¦ç†
 140:Src/target.c  **** 					{
 141:Src/target.c  **** 						target_speed_w = -1 * speed_w_max;
 142:Src/target.c  **** 					}
 143:Src/target.c  **** 				break;
 144:Src/target.c  **** 		}
 145:Src/target.c  **** 
 146:Src/target.c  **** 
 147:Src/target.c  **** 	/*mç§»å‹•è·é›¢ã€è§’åº¦ç®—å‡º*/
 148:Src/target.c  **** 	ideal_distance_m += target_speed_m * 0.001;
 230              		.loc 1 148 2 view .LVU20
 231              		.loc 1 148 37 is_stmt 0 view .LVU21
 232 007e 434B     		ldr	r3, .L43+12
 233 0080 1868     		ldr	r0, [r3]	@ float
 234 0082 FFF7FEFF 		bl	__aeabi_f2d
 235              	.LVL21:
 236 0086 3EA3     		adr	r3, .L43
 237 0088 D3E90023 		ldrd	r2, [r3]
 238 008c FFF7FEFF 		bl	__aeabi_dmul
 239              	.LVL22:
 240 0090 0446     		mov	r4, r0
 241 0092 0D46     		mov	r5, r1
 242              		.loc 1 148 19 view .LVU22
 243 0094 424E     		ldr	r6, .L43+32
 244 0096 3068     		ldr	r0, [r6]	@ float
 245 0098 FFF7FEFF 		bl	__aeabi_f2d
 246              	.LVL23:
 247 009c 2246     		mov	r2, r4
 248 009e 2B46     		mov	r3, r5
 249 00a0 FFF7FEFF 		bl	__aeabi_dadd
 250              	.LVL24:
 251 00a4 FFF7FEFF 		bl	__aeabi_d2f
 252              	.LVL25:
 253 00a8 3060     		str	r0, [r6]	@ float
 149:Src/target.c  **** 	ideal_distance_w += target_speed_w * 0.001;
 254              		.loc 1 149 2 is_stmt 1 view .LVU23
 255              		.loc 1 149 37 is_stmt 0 view .LVU24
ARM GAS  C:\Temp\cc3kh2wP.s 			page 8


 256 00aa 3A4B     		ldr	r3, .L43+20
 257 00ac 1868     		ldr	r0, [r3]	@ float
 258 00ae FFF7FEFF 		bl	__aeabi_f2d
 259              	.LVL26:
 260 00b2 33A3     		adr	r3, .L43
 261 00b4 D3E90023 		ldrd	r2, [r3]
 262 00b8 FFF7FEFF 		bl	__aeabi_dmul
 263              	.LVL27:
 264 00bc 0446     		mov	r4, r0
 265 00be 0D46     		mov	r5, r1
 266              		.loc 1 149 19 view .LVU25
 267 00c0 384E     		ldr	r6, .L43+36
 268 00c2 3068     		ldr	r0, [r6]	@ float
 269 00c4 FFF7FEFF 		bl	__aeabi_f2d
 270              	.LVL28:
 271 00c8 2246     		mov	r2, r4
 272 00ca 2B46     		mov	r3, r5
 273 00cc FFF7FEFF 		bl	__aeabi_dadd
 274              	.LVL29:
 275 00d0 FFF7FEFF 		bl	__aeabi_d2f
 276              	.LVL30:
 277 00d4 3060     		str	r0, [r6]	@ float
 150:Src/target.c  **** 
 151:Src/target.c  **** 
 152:Src/target.c  **** }
 278              		.loc 1 152 1 view .LVU26
 279 00d6 BDEC028B 		vldm	sp!, {d8}
 280              	.LCFI4:
 281              		.cfi_remember_state
 282              		.cfi_restore 80
 283              		.cfi_restore 81
 284              		.cfi_def_cfa_offset 16
 285 00da 70BD     		pop	{r4, r5, r6, pc}
 286              	.L10:
 287              	.LCFI5:
 288              		.cfi_restore_state
  98:Src/target.c  **** 					{
 289              		.loc 1 98 4 is_stmt 1 view .LVU27
  98:Src/target.c  **** 					{
 290              		.loc 1 98 7 is_stmt 0 view .LVU28
 291 00dc B5EEC08A 		vcmpe.f32	s16, #0
 292 00e0 F1EE10FA 		vmrs	APSR_nzcv, FPSCR
 293 00e4 0AD4     		bmi	.L41
 102:Src/target.c  **** 					{
 294              		.loc 1 102 11 is_stmt 1 view .LVU29
 102:Src/target.c  **** 					{
 295              		.loc 1 102 14 is_stmt 0 view .LVU30
 296 00e6 9FED307A 		vldr.32	s14, .L43+40
 297 00ea B4EEC78A 		vcmpe.f32	s16, s14
 298 00ee F1EE10FA 		vmrs	APSR_nzcv, FPSCR
 299 00f2 BEDD     		ble	.L12
 104:Src/target.c  **** 					}
 300              		.loc 1 104 7 is_stmt 1 view .LVU31
 104:Src/target.c  **** 					}
 301              		.loc 1 104 22 is_stmt 0 view .LVU32
 302 00f4 254B     		ldr	r3, .L43+12
 303 00f6 83ED007A 		vstr.32	s14, [r3]
ARM GAS  C:\Temp\cc3kh2wP.s 			page 9


 304 00fa BAE7     		b	.L12
 305              	.L41:
 100:Src/target.c  **** 					}
 306              		.loc 1 100 7 is_stmt 1 view .LVU33
 100:Src/target.c  **** 					}
 307              		.loc 1 100 22 is_stmt 0 view .LVU34
 308 00fc 234B     		ldr	r3, .L43+12
 309 00fe 0022     		movs	r2, #0
 310 0100 1A60     		str	r2, [r3]	@ float
 311 0102 B6E7     		b	.L12
 312              	.L11:
 109:Src/target.c  **** 				{
 313              		.loc 1 109 4 is_stmt 1 view .LVU35
 109:Src/target.c  **** 				{
 314              		.loc 1 109 7 is_stmt 0 view .LVU36
 315 0104 B5EEC08A 		vcmpe.f32	s16, #0
 316 0108 F1EE10FA 		vmrs	APSR_nzcv, FPSCR
 317 010c 03DD     		ble	.L37
 111:Src/target.c  **** 				}
 318              		.loc 1 111 6 is_stmt 1 view .LVU37
 111:Src/target.c  **** 				}
 319              		.loc 1 111 21 is_stmt 0 view .LVU38
 320 010e 1F4B     		ldr	r3, .L43+12
 321 0110 0022     		movs	r2, #0
 322 0112 1A60     		str	r2, [r3]	@ float
 323 0114 ADE7     		b	.L12
 324              	.L37:
 113:Src/target.c  **** 				{
 325              		.loc 1 113 10 is_stmt 1 view .LVU39
 113:Src/target.c  **** 				{
 326              		.loc 1 113 13 is_stmt 0 view .LVU40
 327 0116 9FED257A 		vldr.32	s14, .L43+44
 328 011a B4EEC78A 		vcmpe.f32	s16, s14
 329 011e F1EE10FA 		vmrs	APSR_nzcv, FPSCR
 330 0122 A6D5     		bpl	.L12
 115:Src/target.c  **** 				}
 331              		.loc 1 115 6 is_stmt 1 view .LVU41
 115:Src/target.c  **** 				}
 332              		.loc 1 115 21 is_stmt 0 view .LVU42
 333 0124 194B     		ldr	r3, .L43+12
 334 0126 83ED007A 		vstr.32	s14, [r3]
 335 012a A2E7     		b	.L12
 336              	.L19:
 124:Src/target.c  **** 						{
 337              		.loc 1 124 5 is_stmt 1 view .LVU43
 124:Src/target.c  **** 						{
 338              		.loc 1 124 8 is_stmt 0 view .LVU44
 339 012c F5EEC07A 		vcmpe.f32	s15, #0
 340 0130 F1EE10FA 		vmrs	APSR_nzcv, FPSCR
 341 0134 0AD4     		bmi	.L42
 128:Src/target.c  **** 						{
 342              		.loc 1 128 12 is_stmt 1 view .LVU45
 128:Src/target.c  **** 						{
 343              		.loc 1 128 15 is_stmt 0 view .LVU46
 344 0136 9FED1E7A 		vldr.32	s14, .L43+48
 345 013a F4EEC77A 		vcmpe.f32	s15, s14
 346 013e F1EE10FA 		vmrs	APSR_nzcv, FPSCR
ARM GAS  C:\Temp\cc3kh2wP.s 			page 10


 347 0142 9CDD     		ble	.L21
 130:Src/target.c  **** 						}
 348              		.loc 1 130 8 is_stmt 1 view .LVU47
 130:Src/target.c  **** 						}
 349              		.loc 1 130 23 is_stmt 0 view .LVU48
 350 0144 134B     		ldr	r3, .L43+20
 351 0146 83ED007A 		vstr.32	s14, [r3]
 352 014a 98E7     		b	.L21
 353              	.L42:
 126:Src/target.c  **** 						}
 354              		.loc 1 126 8 is_stmt 1 view .LVU49
 126:Src/target.c  **** 						}
 355              		.loc 1 126 23 is_stmt 0 view .LVU50
 356 014c 114B     		ldr	r3, .L43+20
 357 014e 0022     		movs	r2, #0
 358 0150 1A60     		str	r2, [r3]	@ float
 359 0152 94E7     		b	.L21
 360              	.L20:
 135:Src/target.c  **** 					{
 361              		.loc 1 135 5 is_stmt 1 view .LVU51
 135:Src/target.c  **** 					{
 362              		.loc 1 135 8 is_stmt 0 view .LVU52
 363 0154 F5EEC07A 		vcmpe.f32	s15, #0
 364 0158 F1EE10FA 		vmrs	APSR_nzcv, FPSCR
 365 015c 03DD     		ble	.L39
 137:Src/target.c  **** 					}
 366              		.loc 1 137 7 is_stmt 1 view .LVU53
 137:Src/target.c  **** 					}
 367              		.loc 1 137 22 is_stmt 0 view .LVU54
 368 015e 0D4B     		ldr	r3, .L43+20
 369 0160 0022     		movs	r2, #0
 370 0162 1A60     		str	r2, [r3]	@ float
 371 0164 8BE7     		b	.L21
 372              	.L39:
 139:Src/target.c  **** 					{
 373              		.loc 1 139 11 is_stmt 1 view .LVU55
 139:Src/target.c  **** 					{
 374              		.loc 1 139 14 is_stmt 0 view .LVU56
 375 0166 9FED137A 		vldr.32	s14, .L43+52
 376 016a F4EEC77A 		vcmpe.f32	s15, s14
 377 016e F1EE10FA 		vmrs	APSR_nzcv, FPSCR
 378 0172 84D5     		bpl	.L21
 141:Src/target.c  **** 					}
 379              		.loc 1 141 7 is_stmt 1 view .LVU57
 141:Src/target.c  **** 					}
 380              		.loc 1 141 22 is_stmt 0 view .LVU58
 381 0174 074B     		ldr	r3, .L43+20
 382 0176 83ED007A 		vstr.32	s14, [r3]
 383 017a 80E7     		b	.L21
 384              	.L44:
 385 017c AFF30080 		.align	3
 386              	.L43:
 387 0180 FCA9F1D2 		.word	-755914244
 388 0184 4D62503F 		.word	1062232653
 389 0188 00000000 		.word	.LANCHOR2
 390 018c 00000000 		.word	.LANCHOR3
 391 0190 00000000 		.word	.LANCHOR4
ARM GAS  C:\Temp\cc3kh2wP.s 			page 11


 392 0194 00000000 		.word	.LANCHOR5
 393 0198 00000000 		.word	.LANCHOR6
 394 019c 00000000 		.word	.LANCHOR7
 395 01a0 00000000 		.word	.LANCHOR8
 396 01a4 00000000 		.word	.LANCHOR9
 397 01a8 9A99993E 		.word	1050253722
 398 01ac 9A9999BE 		.word	-1097229926
 399 01b0 DA0FC940 		.word	1086918618
 400 01b4 DA0FC9C0 		.word	-1060565030
 401              		.cfi_endproc
 402              	.LFE135:
 404              		.section	.text.target_speed_m_calc,"ax",%progbits
 405              		.align	1
 406              		.global	target_speed_m_calc
 407              		.syntax unified
 408              		.thumb
 409              		.thumb_func
 410              		.fpu fpv4-sp-d16
 412              	target_speed_m_calc:
 413              	.LFB136:
 153:Src/target.c  **** 
 154:Src/target.c  **** /* memo:åŠ é€Ÿåº¦æ›´æ–°(1msã‚¿ã‚¹ã‚¯)
 155:Src/target.c  ****  * ç¾åœ¨ç§»å‹•è·é›¢ã¨ç›®æ¨™ç§»å‹•è·é›¢ã«å¿œã˜ã¦ã€åŠ é€Ÿåº¦ã‚’ã‚¹ã‚¤ãƒƒãƒ
 156:Src/target.c  ****  * param:
 157:Src/target.c  ****  *  * */
 158:Src/target.c  **** void target_speed_m_calc(void)
 159:Src/target.c  **** {
 414              		.loc 1 159 1 is_stmt 1 view -0
 415              		.cfi_startproc
 416              		@ args = 0, pretend = 0, frame = 0
 417              		@ frame_needed = 0, uses_anonymous_args = 0
 418              		@ link register save eliminated.
 160:Src/target.c  **** 	float l_target_distance_m = 0;		//m ç›®æ¨™è·é›¢(ãƒ­ãƒ¼ã‚«ãƒ«) [m]
 419              		.loc 1 160 2 view .LVU60
 420              	.LVL31:
 161:Src/target.c  **** 	float l_accelation_m = 0; 			//m ç›®æ¨™åŠ é€Ÿåº¦ï¼ˆãƒ­ãƒ¼ã‚«ãƒ«) [m/s^2]
 421              		.loc 1 161 2 view .LVU61
 162:Src/target.c  **** 	float l_speed_m = 0;				//m ç›®æ¨™é€Ÿåº¦(ãƒ­ãƒ¼ã‚«ãƒ«)[m/s]
 422              		.loc 1 162 2 view .LVU62
 163:Src/target.c  **** 	float l_speed_m_fin= 0;				//m ç›®æ¨™çµ‚ç«¯é€Ÿåº¦(ãƒ­ãƒ¼ã‚«ãƒ«)[m/s]
 423              		.loc 1 163 2 view .LVU63
 164:Src/target.c  **** 	float l_distance_m = 0;				//m ç¾åœ¨ç§»å‹•è·é›¢[m]
 424              		.loc 1 164 2 view .LVU64
 165:Src/target.c  **** 	float l_deccel_distance_m = 0;		//m æ¸›é€Ÿé–‹å§‹è·é›¢[m]
 425              		.loc 1 165 2 view .LVU65
 166:Src/target.c  **** 
 167:Src/target.c  **** 	/*m ã‚°ãƒ­ãƒ¼ãƒãƒ«å¤‰æ•°å‚ç…§*/
 168:Src/target.c  **** 	l_speed_m = target_speed_m;									//m ç›®æ¨™ä¸¦é€²é€Ÿåº¦ã§åˆ¶å¾¡
 426              		.loc 1 168 2 view .LVU66
 427              		.loc 1 168 12 is_stmt 0 view .LVU67
 428 0000 294B     		ldr	r3, .L61
 429 0002 D3ED007A 		vldr.32	s15, [r3]
 430              	.LVL32:
 169:Src/target.c  **** 	l_speed_m_fin = target_speed_m_fin;							//m ç›®æ¨™è·é›¢åˆ°é”æ™‚ã®ç›®æ¨™é€Ÿåº¦
 431              		.loc 1 169 2 is_stmt 1 view .LVU68
 432              		.loc 1 169 16 is_stmt 0 view .LVU69
 433 0006 294B     		ldr	r3, .L61+4
ARM GAS  C:\Temp\cc3kh2wP.s 			page 12


 434 0008 93ED007A 		vldr.32	s14, [r3]
 435              	.LVL33:
 170:Src/target.c  **** 	l_distance_m = 	ideal_distance_m;							//m ç†æƒ³ç§»å‹•è·é›¢ã§åˆ¶å¾¡
 436              		.loc 1 170 2 is_stmt 1 view .LVU70
 437              		.loc 1 170 15 is_stmt 0 view .LVU71
 438 000c 284B     		ldr	r3, .L61+8
 439 000e 93ED006A 		vldr.32	s12, [r3]
 440              	.LVL34:
 171:Src/target.c  **** 	l_target_distance_m = target_distance_m;					//m ç›®æ¨™ä¸¦é€²è·é›¢
 441              		.loc 1 171 2 is_stmt 1 view .LVU72
 442              		.loc 1 171 22 is_stmt 0 view .LVU73
 443 0012 284B     		ldr	r3, .L61+12
 444 0014 D3ED006A 		vldr.32	s13, [r3]
 445              	.LVL35:
 172:Src/target.c  **** 
 173:Src/target.c  **** 
 174:Src/target.c  **** 	switch(accel_dir_flg)
 446              		.loc 1 174 2 is_stmt 1 view .LVU74
 447 0018 274B     		ldr	r3, .L61+16
 448 001a 1B78     		ldrb	r3, [r3]	@ zero_extendqisi2
 449 001c 2BB1     		cbz	r3, .L46
 450 001e 012B     		cmp	r3, #1
 451 0020 0AD0     		beq	.L47
 452 0022 0023     		movs	r3, #0
 453              	.LVL36:
 454              	.L48:
 175:Src/target.c  **** 	{
 176:Src/target.c  **** 		case acceleration: //m åŠ é€Ÿãƒ¢ãƒ¼ãƒ‰æ™‚ã€å¸¸ã«åŠ é€Ÿ(ãƒªãƒŸãƒƒãƒˆã«å¼•ã£æ›ã‹ã‚Šç¶šã‘ã‚‹)
 177:Src/target.c  **** 			switch(move_dir_flg)
 178:Src/target.c  **** 			{
 179:Src/target.c  **** 			case forward_mode:
 180:Src/target.c  **** 				l_accelation_m = 1 * accelation_m;
 181:Src/target.c  **** 				break;
 182:Src/target.c  **** 			case backward_mode:
 183:Src/target.c  **** 				l_accelation_m = -1 * accelation_m;
 184:Src/target.c  **** 				break;
 185:Src/target.c  **** 			}
 186:Src/target.c  **** 			break;
 187:Src/target.c  **** 
 188:Src/target.c  **** 		case deceleration:
 189:Src/target.c  **** 			switch(move_dir_flg)
 190:Src/target.c  **** 			{
 191:Src/target.c  **** 			case forward_mode:
 192:Src/target.c  **** 				/*m æ¸›é€Ÿã«å¿…è¦ãªè·é›¢ç®—å‡º*/
 193:Src/target.c  **** 				l_deccel_distance_m = ((l_speed_m*l_speed_m)-(l_speed_m_fin*l_speed_m_fin)) / (2*accelation_m);
 194:Src/target.c  **** 				if(l_distance_m < (l_target_distance_m - l_deccel_distance_m)){			//mæ¸›é€Ÿé–‹å§‹å‰
 195:Src/target.c  **** 					l_accelation_m =  1 * accelation_m; //mãƒªãƒŸãƒƒãƒˆã«ã‹ã‹ã‚‹ã¾ã§åŠ é€Ÿ
 196:Src/target.c  **** 				}
 197:Src/target.c  **** 				else{																	//mæ¸›é€Ÿé–‹å§‹å¾Œ
 198:Src/target.c  **** 					l_accelation_m = -1 * accelation_m;
 199:Src/target.c  **** 				}
 200:Src/target.c  **** 				break;
 201:Src/target.c  **** 			case backward_mode:
 202:Src/target.c  **** 				/*m åŠ é€Ÿã«å¿…è¦ãªè·é›¢ç®—å‡º*/
 203:Src/target.c  **** 				l_deccel_distance_m = ((l_speed_m*l_speed_m)-(l_speed_m_fin*l_speed_m_fin)) / (2*accelation_m);
 204:Src/target.c  **** 				if(l_distance_m > (l_target_distance_m + l_deccel_distance_m)){			//måŠ é€Ÿé–‹å§‹å‰
 205:Src/target.c  **** 					l_accelation_m = -1 * accelation_m; //mãƒªãƒŸãƒƒãƒˆã«ã‹ã‹ã‚‹ã¾ã§æ¸›é€Ÿ
ARM GAS  C:\Temp\cc3kh2wP.s 			page 13


 206:Src/target.c  **** 				}
 207:Src/target.c  **** 				else{																	//måŠ é€Ÿé–‹å§‹å¾Œ
 208:Src/target.c  **** 					l_accelation_m = 1 * accelation_m;
 209:Src/target.c  **** 				}
 210:Src/target.c  **** 				break;
 211:Src/target.c  **** 			}
 212:Src/target.c  **** 			break;
 213:Src/target.c  **** 	}
 214:Src/target.c  **** 
 215:Src/target.c  **** 	/*m ã‚°ãƒ­ãƒ¼ãƒãƒ«å¤‰æ•°ã«å‡ºåŠ›*/
 216:Src/target.c  **** 
 217:Src/target.c  **** 	g_accelation_m = l_accelation_m;
 455              		.loc 1 217 2 view .LVU75
 456              		.loc 1 217 17 is_stmt 0 view .LVU76
 457 0024 254A     		ldr	r2, .L61+20
 458 0026 1360     		str	r3, [r2]	@ float
 218:Src/target.c  **** 
 219:Src/target.c  **** }
 459              		.loc 1 219 1 view .LVU77
 460 0028 7047     		bx	lr
 461              	.LVL37:
 462              	.L46:
 177:Src/target.c  **** 			{
 463              		.loc 1 177 4 is_stmt 1 view .LVU78
 464 002a 254B     		ldr	r3, .L61+24
 465 002c 1B78     		ldrb	r3, [r3]	@ zero_extendqisi2
 466 002e 8BB3     		cbz	r3, .L53
 467 0030 012B     		cmp	r3, #1
 468 0032 32D1     		bne	.L54
 183:Src/target.c  **** 				break;
 469              		.loc 1 183 20 is_stmt 0 view .LVU79
 470 0034 234B     		ldr	r3, .L61+28
 471 0036 F5E7     		b	.L48
 472              	.L47:
 189:Src/target.c  **** 			{
 473              		.loc 1 189 4 is_stmt 1 view .LVU80
 474 0038 214B     		ldr	r3, .L61+24
 475 003a 1B78     		ldrb	r3, [r3]	@ zero_extendqisi2
 476 003c 1BB1     		cbz	r3, .L49
 477 003e 012B     		cmp	r3, #1
 478 0040 15D0     		beq	.L50
 479 0042 0023     		movs	r3, #0
 480 0044 EEE7     		b	.L48
 481              	.L49:
 193:Src/target.c  **** 				if(l_distance_m < (l_target_distance_m - l_deccel_distance_m)){			//mæ¸›é€Ÿé–‹å§‹å‰
 482              		.loc 1 193 5 view .LVU81
 193:Src/target.c  **** 				if(l_distance_m < (l_target_distance_m - l_deccel_distance_m)){			//mæ¸›é€Ÿé–‹å§‹å‰
 483              		.loc 1 193 38 is_stmt 0 view .LVU82
 484 0046 67EEA77A 		vmul.f32	s15, s15, s15
 485              	.LVL38:
 193:Src/target.c  **** 				if(l_distance_m < (l_target_distance_m - l_deccel_distance_m)){			//mæ¸›é€Ÿé–‹å§‹å‰
 486              		.loc 1 193 64 view .LVU83
 487 004a 27EE077A 		vmul.f32	s14, s14, s14
 488              	.LVL39:
 193:Src/target.c  **** 				if(l_distance_m < (l_target_distance_m - l_deccel_distance_m)){			//mæ¸›é€Ÿé–‹å§‹å‰
 489              		.loc 1 193 49 view .LVU84
 490 004e 77EEC77A 		vsub.f32	s15, s15, s14
ARM GAS  C:\Temp\cc3kh2wP.s 			page 14


 193:Src/target.c  **** 				if(l_distance_m < (l_target_distance_m - l_deccel_distance_m)){			//mæ¸›é€Ÿé–‹å§‹å‰
 491              		.loc 1 193 25 view .LVU85
 492 0052 F0EE085A 		vmov.f32	s11, #3.0e+0
 493 0056 87EEA57A 		vdiv.f32	s14, s15, s11
 494              	.LVL40:
 194:Src/target.c  **** 					l_accelation_m =  1 * accelation_m; //mãƒªãƒŸãƒƒãƒˆã«ã‹ã‹ã‚‹ã¾ã§åŠ é€Ÿ
 495              		.loc 1 194 5 is_stmt 1 view .LVU86
 194:Src/target.c  **** 					l_accelation_m =  1 * accelation_m; //mãƒªãƒŸãƒƒãƒˆã«ã‹ã‹ã‚‹ã¾ã§åŠ é€Ÿ
 496              		.loc 1 194 44 is_stmt 0 view .LVU87
 497 005a 76EEC76A 		vsub.f32	s13, s13, s14
 498              	.LVL41:
 194:Src/target.c  **** 					l_accelation_m =  1 * accelation_m; //mãƒªãƒŸãƒƒãƒˆã«ã‹ã‹ã‚‹ã¾ã§åŠ é€Ÿ
 499              		.loc 1 194 7 view .LVU88
 500 005e F4EEC66A 		vcmpe.f32	s13, s12
 501 0062 F1EE10FA 		vmrs	APSR_nzcv, FPSCR
 502 0066 1ADD     		ble	.L59
 195:Src/target.c  **** 				}
 503              		.loc 1 195 21 view .LVU89
 504 0068 4FF07F53 		mov	r3, #1069547520
 505 006c DAE7     		b	.L48
 506              	.LVL42:
 507              	.L50:
 203:Src/target.c  **** 				if(l_distance_m > (l_target_distance_m + l_deccel_distance_m)){			//måŠ é€Ÿé–‹å§‹å‰
 508              		.loc 1 203 5 is_stmt 1 view .LVU90
 203:Src/target.c  **** 				if(l_distance_m > (l_target_distance_m + l_deccel_distance_m)){			//måŠ é€Ÿé–‹å§‹å‰
 509              		.loc 1 203 38 is_stmt 0 view .LVU91
 510 006e 67EEA77A 		vmul.f32	s15, s15, s15
 511              	.LVL43:
 203:Src/target.c  **** 				if(l_distance_m > (l_target_distance_m + l_deccel_distance_m)){			//måŠ é€Ÿé–‹å§‹å‰
 512              		.loc 1 203 64 view .LVU92
 513 0072 27EE077A 		vmul.f32	s14, s14, s14
 514              	.LVL44:
 203:Src/target.c  **** 				if(l_distance_m > (l_target_distance_m + l_deccel_distance_m)){			//måŠ é€Ÿé–‹å§‹å‰
 515              		.loc 1 203 49 view .LVU93
 516 0076 77EEC77A 		vsub.f32	s15, s15, s14
 203:Src/target.c  **** 				if(l_distance_m > (l_target_distance_m + l_deccel_distance_m)){			//måŠ é€Ÿé–‹å§‹å‰
 517              		.loc 1 203 25 view .LVU94
 518 007a F0EE085A 		vmov.f32	s11, #3.0e+0
 519 007e 87EEA57A 		vdiv.f32	s14, s15, s11
 520              	.LVL45:
 204:Src/target.c  **** 					l_accelation_m = -1 * accelation_m; //mãƒªãƒŸãƒƒãƒˆã«ã‹ã‹ã‚‹ã¾ã§æ¸›é€Ÿ
 521              		.loc 1 204 5 is_stmt 1 view .LVU95
 204:Src/target.c  **** 					l_accelation_m = -1 * accelation_m; //mãƒªãƒŸãƒƒãƒˆã«ã‹ã‹ã‚‹ã¾ã§æ¸›é€Ÿ
 522              		.loc 1 204 44 is_stmt 0 view .LVU96
 523 0082 76EE876A 		vadd.f32	s13, s13, s14
 524              	.LVL46:
 204:Src/target.c  **** 					l_accelation_m = -1 * accelation_m; //mãƒªãƒŸãƒƒãƒˆã«ã‹ã‹ã‚‹ã¾ã§æ¸›é€Ÿ
 525              		.loc 1 204 7 view .LVU97
 526 0086 F4EEC66A 		vcmpe.f32	s13, s12
 527 008a F1EE10FA 		vmrs	APSR_nzcv, FPSCR
 528 008e 08D5     		bpl	.L60
 205:Src/target.c  **** 				}
 529              		.loc 1 205 21 view .LVU98
 530 0090 0C4B     		ldr	r3, .L61+28
 531 0092 C7E7     		b	.L48
 532              	.LVL47:
 533              	.L53:
ARM GAS  C:\Temp\cc3kh2wP.s 			page 15


 180:Src/target.c  **** 				break;
 534              		.loc 1 180 20 view .LVU99
 535 0094 4FF07F53 		mov	r3, #1069547520
 536 0098 C4E7     		b	.L48
 537              	.L54:
 538 009a 0023     		movs	r3, #0
 539 009c C2E7     		b	.L48
 540              	.LVL48:
 541              	.L59:
 198:Src/target.c  **** 				}
 542              		.loc 1 198 21 view .LVU100
 543 009e 094B     		ldr	r3, .L61+28
 544 00a0 C0E7     		b	.L48
 545              	.L60:
 208:Src/target.c  **** 				}
 546              		.loc 1 208 21 view .LVU101
 547 00a2 4FF07F53 		mov	r3, #1069547520
 548 00a6 BDE7     		b	.L48
 549              	.L62:
 550              		.align	2
 551              	.L61:
 552 00a8 00000000 		.word	.LANCHOR3
 553 00ac 00000000 		.word	.LANCHOR10
 554 00b0 00000000 		.word	.LANCHOR8
 555 00b4 00000000 		.word	.LANCHOR11
 556 00b8 00000000 		.word	.LANCHOR12
 557 00bc 00000000 		.word	.LANCHOR2
 558 00c0 00000000 		.word	.LANCHOR6
 559 00c4 0000C0BF 		.word	-1077936128
 560              		.cfi_endproc
 561              	.LFE136:
 563              		.global	__aeabi_ddiv
 564              		.section	.text.target_speed_w_calc,"ax",%progbits
 565              		.align	1
 566              		.global	target_speed_w_calc
 567              		.syntax unified
 568              		.thumb
 569              		.thumb_func
 570              		.fpu fpv4-sp-d16
 572              	target_speed_w_calc:
 573              	.LFB137:
 220:Src/target.c  **** 
 221:Src/target.c  **** 
 222:Src/target.c  **** /* memo:è§’åŠ é€Ÿåº¦æ›´æ–°(1msã‚¿ã‚¹ã‚¯)
 223:Src/target.c  ****  * ç¾åœ¨è§’åº¦ã¨ç›®æ¨™è§’åº¦ã«å¿œã˜ã¦ã€è§’åŠ é€Ÿåº¦ã‚’ã‚¹ã‚¤ãƒƒãƒ
 224:Src/target.c  ****  * param:
 225:Src/target.c  ****  *  * */
 226:Src/target.c  **** void target_speed_w_calc(void)
 227:Src/target.c  **** {
 574              		.loc 1 227 1 is_stmt 1 view -0
 575              		.cfi_startproc
 576              		@ args = 0, pretend = 0, frame = 0
 577              		@ frame_needed = 0, uses_anonymous_args = 0
 578 0000 38B5     		push	{r3, r4, r5, lr}
 579              	.LCFI6:
 580              		.cfi_def_cfa_offset 16
 581              		.cfi_offset 3, -16
ARM GAS  C:\Temp\cc3kh2wP.s 			page 16


 582              		.cfi_offset 4, -12
 583              		.cfi_offset 5, -8
 584              		.cfi_offset 14, -4
 585 0002 2DED028B 		vpush.64	{d8}
 586              	.LCFI7:
 587              		.cfi_def_cfa_offset 24
 588              		.cfi_offset 80, -24
 589              		.cfi_offset 81, -20
 228:Src/target.c  **** 	float l_target_distance_w = 0;		//mç›®æ¨™è§’åº¦(ãƒ­ãƒ¼ã‚«ãƒ«) [rad]
 590              		.loc 1 228 2 view .LVU103
 591              	.LVL49:
 229:Src/target.c  **** 	float l_accelation_w = 0; 			//mç›®æ¨™è§’åŠ é€Ÿåº¦ï¼ˆãƒ­ãƒ¼ã‚«ãƒ«) [rad/s^2]
 592              		.loc 1 229 2 view .LVU104
 230:Src/target.c  **** 	float l_speed_w = 0;				//mç¾åœ¨è§’é€Ÿåº¦(ãƒ­ãƒ¼ã‚«ãƒ«)[rad/s]
 593              		.loc 1 230 2 view .LVU105
 231:Src/target.c  **** 	float l_distance_w = 0;				//mç¾åœ¨è§’åº¦[rad]
 594              		.loc 1 231 2 view .LVU106
 232:Src/target.c  **** 	float l_deccel_distance_w = 0;		//mæ¸›é€Ÿé–‹å§‹è§’åº¦[rad]
 595              		.loc 1 232 2 view .LVU107
 233:Src/target.c  **** 
 234:Src/target.c  **** 	/*mã‚°ãƒ­ãƒ¼ãƒãƒ«å¤‰æ•°å‚ç…§*/
 235:Src/target.c  **** 	l_speed_w = target_speed_w;									//mç›®æ¨™ä¸¦é€²é€Ÿåº¦ã§åˆ¶å¾¡
 596              		.loc 1 235 2 view .LVU108
 597              		.loc 1 235 12 is_stmt 0 view .LVU109
 598 0006 2E4B     		ldr	r3, .L76+8
 599 0008 1868     		ldr	r0, [r3]	@ float
 600              	.LVL50:
 236:Src/target.c  **** 	l_distance_w = 	ideal_distance_w;							//mç†æƒ³ç§»å‹•è·é›¢ã§åˆ¶å¾¡
 601              		.loc 1 236 2 is_stmt 1 view .LVU110
 602              		.loc 1 236 15 is_stmt 0 view .LVU111
 603 000a 2E4B     		ldr	r3, .L76+12
 604 000c D3ED008A 		vldr.32	s17, [r3]
 605              	.LVL51:
 237:Src/target.c  **** 	l_target_distance_w = target_distance_w;					//mç›®æ¨™è§’åº¦
 606              		.loc 1 237 2 is_stmt 1 view .LVU112
 607              		.loc 1 237 22 is_stmt 0 view .LVU113
 608 0010 2D4B     		ldr	r3, .L76+16
 609 0012 93ED008A 		vldr.32	s16, [r3]
 610              	.LVL52:
 238:Src/target.c  **** 
 239:Src/target.c  **** 	switch(rotation_dir_flg)
 611              		.loc 1 239 2 is_stmt 1 view .LVU114
 612 0016 2D4B     		ldr	r3, .L76+20
 613 0018 1B78     		ldrb	r3, [r3]	@ zero_extendqisi2
 614 001a 3BB1     		cbz	r3, .L64
 615 001c 012B     		cmp	r3, #1
 616 001e 25D0     		beq	.L65
 617 0020 0023     		movs	r3, #0
 618              	.LVL53:
 619              	.L66:
 240:Src/target.c  **** 	{
 241:Src/target.c  **** 	case counter_clockwise:
 242:Src/target.c  **** 		/*mæ¸›é€Ÿã«å¿…è¦ãªè§’åº¦ç®—å‡º*/
 243:Src/target.c  **** 		l_deccel_distance_w = 0.5 * l_speed_w * l_speed_w / accelation_w;
 244:Src/target.c  **** 
 245:Src/target.c  **** 		if(l_distance_w < (l_target_distance_w - l_deccel_distance_w)){			//mæ¸›é€Ÿé–‹å§‹å‰
 246:Src/target.c  **** 			l_accelation_w =  1 * accelation_w;
ARM GAS  C:\Temp\cc3kh2wP.s 			page 17


 247:Src/target.c  **** 		}
 248:Src/target.c  **** 		else{																	//mæ¸›é€Ÿé–‹å§‹å¾Œ
 249:Src/target.c  **** 			l_accelation_w = -1 * accelation_w;
 250:Src/target.c  **** 		}
 251:Src/target.c  **** 		break;
 252:Src/target.c  **** 	case clockwise:
 253:Src/target.c  **** 		/*måŠ é€Ÿã«å¿…è¦ãªè§’åº¦ç®—å‡º*/
 254:Src/target.c  **** 		l_deccel_distance_w = 0.5 * l_speed_w * l_speed_w / accelation_w;
 255:Src/target.c  **** 
 256:Src/target.c  **** 		if(l_distance_w > (l_target_distance_w + l_deccel_distance_w)){			//måŠ é€Ÿé–‹å§‹å‰
 257:Src/target.c  **** 			l_accelation_w =  -1 * accelation_w;
 258:Src/target.c  **** 		}
 259:Src/target.c  **** 		else{																	//måŠ é€Ÿé–‹å§‹å¾Œ
 260:Src/target.c  **** 			l_accelation_w = 1 * accelation_w;
 261:Src/target.c  **** 		}
 262:Src/target.c  **** 		break;
 263:Src/target.c  **** 
 264:Src/target.c  **** 		break;
 620              		.loc 1 264 3 view .LVU115
 265:Src/target.c  **** 	}
 266:Src/target.c  **** 
 267:Src/target.c  **** 	/*mã‚°ãƒ­ãƒ¼ãƒãƒ«å¤‰æ•°ã«å‡ºåŠ›*/
 268:Src/target.c  **** 
 269:Src/target.c  **** 	g_accelation_w = l_accelation_w;
 621              		.loc 1 269 2 view .LVU116
 622              		.loc 1 269 17 is_stmt 0 view .LVU117
 623 0022 2B4A     		ldr	r2, .L76+24
 624 0024 1360     		str	r3, [r2]	@ float
 270:Src/target.c  **** 
 271:Src/target.c  **** }
 625              		.loc 1 271 1 view .LVU118
 626 0026 BDEC028B 		vldm	sp!, {d8}
 627              	.LCFI8:
 628              		.cfi_remember_state
 629              		.cfi_restore 80
 630              		.cfi_restore 81
 631              		.cfi_def_cfa_offset 16
 632 002a 38BD     		pop	{r3, r4, r5, pc}
 633              	.LVL54:
 634              	.L64:
 635              	.LCFI9:
 636              		.cfi_restore_state
 243:Src/target.c  **** 
 637              		.loc 1 243 3 is_stmt 1 view .LVU119
 243:Src/target.c  **** 
 638              		.loc 1 243 29 is_stmt 0 view .LVU120
 639 002c FFF7FEFF 		bl	__aeabi_f2d
 640              	.LVL55:
 243:Src/target.c  **** 
 641              		.loc 1 243 29 view .LVU121
 642 0030 0446     		mov	r4, r0
 643 0032 0D46     		mov	r5, r1
 644 0034 0022     		movs	r2, #0
 645 0036 274B     		ldr	r3, .L76+28
 646 0038 FFF7FEFF 		bl	__aeabi_dmul
 647              	.LVL56:
 648 003c 0246     		mov	r2, r0
ARM GAS  C:\Temp\cc3kh2wP.s 			page 18


 649 003e 0B46     		mov	r3, r1
 243:Src/target.c  **** 
 650              		.loc 1 243 41 view .LVU122
 651 0040 2046     		mov	r0, r4
 652 0042 2946     		mov	r1, r5
 653 0044 FFF7FEFF 		bl	__aeabi_dmul
 654              	.LVL57:
 243:Src/target.c  **** 
 655              		.loc 1 243 53 view .LVU123
 656 0048 1BA3     		adr	r3, .L76
 657 004a D3E90023 		ldrd	r2, [r3]
 658 004e FFF7FEFF 		bl	__aeabi_ddiv
 659              	.LVL58:
 243:Src/target.c  **** 
 660              		.loc 1 243 23 view .LVU124
 661 0052 FFF7FEFF 		bl	__aeabi_d2f
 662              	.LVL59:
 663 0056 07EE900A 		vmov	s15, r0
 664              	.LVL60:
 245:Src/target.c  **** 			l_accelation_w =  1 * accelation_w;
 665              		.loc 1 245 3 is_stmt 1 view .LVU125
 245:Src/target.c  **** 			l_accelation_w =  1 * accelation_w;
 666              		.loc 1 245 42 is_stmt 0 view .LVU126
 667 005a 38EE678A 		vsub.f32	s16, s16, s15
 668              	.LVL61:
 245:Src/target.c  **** 			l_accelation_w =  1 * accelation_w;
 669              		.loc 1 245 5 view .LVU127
 670 005e B4EEE88A 		vcmpe.f32	s16, s17
 671 0062 F1EE10FA 		vmrs	APSR_nzcv, FPSCR
 672 0066 21DD     		ble	.L73
 246:Src/target.c  **** 		}
 673              		.loc 1 246 19 view .LVU128
 674 0068 1B4B     		ldr	r3, .L76+32
 675 006a DAE7     		b	.L66
 676              	.LVL62:
 677              	.L65:
 254:Src/target.c  **** 
 678              		.loc 1 254 3 is_stmt 1 view .LVU129
 254:Src/target.c  **** 
 679              		.loc 1 254 29 is_stmt 0 view .LVU130
 680 006c FFF7FEFF 		bl	__aeabi_f2d
 681              	.LVL63:
 254:Src/target.c  **** 
 682              		.loc 1 254 29 view .LVU131
 683 0070 0446     		mov	r4, r0
 684 0072 0D46     		mov	r5, r1
 685 0074 0022     		movs	r2, #0
 686 0076 174B     		ldr	r3, .L76+28
 687 0078 FFF7FEFF 		bl	__aeabi_dmul
 688              	.LVL64:
 689 007c 0246     		mov	r2, r0
 690 007e 0B46     		mov	r3, r1
 254:Src/target.c  **** 
 691              		.loc 1 254 41 view .LVU132
 692 0080 2046     		mov	r0, r4
 693 0082 2946     		mov	r1, r5
 694 0084 FFF7FEFF 		bl	__aeabi_dmul
ARM GAS  C:\Temp\cc3kh2wP.s 			page 19


 695              	.LVL65:
 254:Src/target.c  **** 
 696              		.loc 1 254 53 view .LVU133
 697 0088 0BA3     		adr	r3, .L76
 698 008a D3E90023 		ldrd	r2, [r3]
 699 008e FFF7FEFF 		bl	__aeabi_ddiv
 700              	.LVL66:
 254:Src/target.c  **** 
 701              		.loc 1 254 23 view .LVU134
 702 0092 FFF7FEFF 		bl	__aeabi_d2f
 703              	.LVL67:
 704 0096 07EE900A 		vmov	s15, r0
 705              	.LVL68:
 256:Src/target.c  **** 			l_accelation_w =  -1 * accelation_w;
 706              		.loc 1 256 3 is_stmt 1 view .LVU135
 256:Src/target.c  **** 			l_accelation_w =  -1 * accelation_w;
 707              		.loc 1 256 42 is_stmt 0 view .LVU136
 708 009a 38EE278A 		vadd.f32	s16, s16, s15
 709              	.LVL69:
 256:Src/target.c  **** 			l_accelation_w =  -1 * accelation_w;
 710              		.loc 1 256 5 view .LVU137
 711 009e B4EEE88A 		vcmpe.f32	s16, s17
 712 00a2 F1EE10FA 		vmrs	APSR_nzcv, FPSCR
 713 00a6 03D5     		bpl	.L74
 257:Src/target.c  **** 		}
 714              		.loc 1 257 19 view .LVU138
 715 00a8 0C4B     		ldr	r3, .L76+36
 716 00aa BAE7     		b	.L66
 717              	.L73:
 249:Src/target.c  **** 		}
 718              		.loc 1 249 19 view .LVU139
 719 00ac 0B4B     		ldr	r3, .L76+36
 720 00ae B8E7     		b	.L66
 721              	.L74:
 260:Src/target.c  **** 		}
 722              		.loc 1 260 19 view .LVU140
 723 00b0 094B     		ldr	r3, .L76+32
 724 00b2 B6E7     		b	.L66
 725              	.L77:
 726 00b4 AFF30080 		.align	3
 727              	.L76:
 728 00b8 00000040 		.word	1073741824
 729 00bc FB211940 		.word	1075388923
 730 00c0 00000000 		.word	.LANCHOR5
 731 00c4 00000000 		.word	.LANCHOR9
 732 00c8 00000000 		.word	.LANCHOR13
 733 00cc 00000000 		.word	.LANCHOR7
 734 00d0 00000000 		.word	.LANCHOR4
 735 00d4 0000E03F 		.word	1071644672
 736 00d8 DA0FC940 		.word	1086918618
 737 00dc DA0FC9C0 		.word	-1060565030
 738              		.cfi_endproc
 739              	.LFE137:
 741              		.global	__aeabi_dsub
 742              		.section	.text.Operation_amount_calc,"ax",%progbits
 743              		.align	1
 744              		.global	Operation_amount_calc
ARM GAS  C:\Temp\cc3kh2wP.s 			page 20


 745              		.syntax unified
 746              		.thumb
 747              		.thumb_func
 748              		.fpu fpv4-sp-d16
 750              	Operation_amount_calc:
 751              	.LFB138:
 272:Src/target.c  **** 
 273:Src/target.c  **** 
 274:Src/target.c  **** /* memo:å°åŠ é›»åœ§æ›´æ–°(1msã‚¿ã‚¹ã‚¯)
 275:Src/target.c  ****  *ã€€ç›®æ¨™åŠ é€Ÿåº¦ã€ç¾åœ¨é€Ÿåº¦ã§FFåˆ¶å¾¡
 276:Src/target.c  ****  *ã€€ç›®æ¨™é€Ÿåº¦ã¨ã®åå·®ã§FBåˆ¶å¾¡
 277:Src/target.c  ****  * param:
 278:Src/target.c  ****  *  * */
 279:Src/target.c  **** 
 280:Src/target.c  **** void Operation_amount_calc(void)
 281:Src/target.c  **** {
 752              		.loc 1 281 1 is_stmt 1 view -0
 753              		.cfi_startproc
 754              		@ args = 0, pretend = 0, frame = 16
 755              		@ frame_needed = 0, uses_anonymous_args = 0
 756 0000 2DE9F04F 		push	{r4, r5, r6, r7, r8, r9, r10, fp, lr}
 757              	.LCFI10:
 758              		.cfi_def_cfa_offset 36
 759              		.cfi_offset 4, -36
 760              		.cfi_offset 5, -32
 761              		.cfi_offset 6, -28
 762              		.cfi_offset 7, -24
 763              		.cfi_offset 8, -20
 764              		.cfi_offset 9, -16
 765              		.cfi_offset 10, -12
 766              		.cfi_offset 11, -8
 767              		.cfi_offset 14, -4
 768 0004 2DED088B 		vpush.64	{d8, d9, d10, d11}
 769              	.LCFI11:
 770              		.cfi_def_cfa_offset 68
 771              		.cfi_offset 80, -68
 772              		.cfi_offset 81, -64
 773              		.cfi_offset 82, -60
 774              		.cfi_offset 83, -56
 775              		.cfi_offset 84, -52
 776              		.cfi_offset 85, -48
 777              		.cfi_offset 86, -44
 778              		.cfi_offset 87, -40
 779 0008 85B0     		sub	sp, sp, #20
 780              	.LCFI12:
 781              		.cfi_def_cfa_offset 88
 282:Src/target.c  **** //	static float target_acceleration_m = 0;		//m ç›®æ¨™ä¸¦é€²æ–¹å‘åŠ é€Ÿåº¦[ m/s^2]
 283:Src/target.c  **** //	static float target_acceleration_w = 0;		//m ç›®æ¨™ä¸¦é€²æ–¹å‘åŠ é€Ÿåº¦[ rad/s^2]
 284:Src/target.c  **** 
 285:Src/target.c  **** //	static int8_t offset_flg_r = 0;				//å³ãƒ¢ãƒ¼ã‚¿é›»åœ§ã‚ªãƒ•ã‚»ãƒƒãƒˆé›»åœ§ãƒ•ãƒ©ã‚°
 286:Src/target.c  **** //	static int8_t offset_flg_l = 0;				//å³ãƒ¢ãƒ¼ã‚¿é›»åœ§ã‚ªãƒ•ã‚»ãƒƒãƒˆé›»åœ§ãƒ•ãƒ©ã‚°
 287:Src/target.c  **** 
 288:Src/target.c  **** 	static float target_vol_r = 0;	 			//m å³ãƒ¢ãƒ¼ã‚¿ã®ç›®æ¨™é›»åœ§[ V]
 782              		.loc 1 288 2 view .LVU142
 289:Src/target.c  **** 	static float target_vol_l = 0; 				//m å·¦ãƒ¢ãƒ¼ã‚¿ã®ç›®æ¨™é›»åœ§[ V]
 783              		.loc 1 289 2 view .LVU143
 290:Src/target.c  **** 
ARM GAS  C:\Temp\cc3kh2wP.s 			page 21


 291:Src/target.c  **** //	static float ff_target_vol_r = 0;			//ffåˆ¶å¾¡ã®å³ãƒ¢ãƒ¼ã‚¿é›»åœ§[V]
 292:Src/target.c  **** //	static float ff_target_vol_l = 0;			//ffåˆ¶å¾¡ã®å·¦ãƒ¢ãƒ¼ã‚¿é›»åœ§[V]
 293:Src/target.c  **** 
 294:Src/target.c  **** 	static float fb_target_vol_r = 0;			//fbåˆ¶å¾¡ã®å³ãƒ¢ãƒ¼ã‚¿é›»åœ§[V]
 784              		.loc 1 294 2 view .LVU144
 295:Src/target.c  **** 	static float fb_target_vol_l = 0;			//fbåˆ¶å¾¡ã®å³ãƒ¢ãƒ¼ã‚¿é›»åœ§[V]
 785              		.loc 1 295 2 view .LVU145
 296:Src/target.c  **** 
 297:Src/target.c  **** 	static float speed_m_err = 0; 				//m ä¸¦é€²æ–¹å‘ã®ç›®æ¨™é€Ÿåº¦åå·®
 786              		.loc 1 297 2 view .LVU146
 298:Src/target.c  **** 	static float speed_w_err = 0;				//m ç›®æ¨™è§’é€Ÿåº¦åå·®
 787              		.loc 1 298 2 view .LVU147
 299:Src/target.c  **** 	static float speed_w_err_D = 0;				//m è§’é€Ÿåº¦åå·®å¾®åˆ†
 788              		.loc 1 299 2 view .LVU148
 300:Src/target.c  **** 	static float speed_w_err_prev = 0;			//m å‰å›è§’é€Ÿåº¦åå·®
 789              		.loc 1 300 2 view .LVU149
 301:Src/target.c  **** 	static float speed_w_err_D_prev = 0;		//m å‰å›è§’é€Ÿåº¦åå·®å¾®åˆ†
 790              		.loc 1 301 2 view .LVU150
 302:Src/target.c  **** 	static float speed_m_err_I = 0; 			//m é€Ÿåº¦å’Œã®åå·®ã®ç©åˆ†
 791              		.loc 1 302 2 view .LVU151
 303:Src/target.c  **** 	static float speed_w_err_I = 0;				//m é€Ÿåº¦å·®ã®åå·®ã®ç©åˆ†
 792              		.loc 1 303 2 view .LVU152
 304:Src/target.c  **** 
 305:Src/target.c  **** 
 306:Src/target.c  **** 
 307:Src/target.c  **** 	static float speed_m_err_PID = 0; 			//mã€€ä¸¦é€²æ–¹å‘é€Ÿåº¦å·®ã®PIDé‡
 793              		.loc 1 307 2 view .LVU153
 308:Src/target.c  **** 	static float speed_w_err_PID = 0;			//m å›è»¢æ–¹å‘é€Ÿåº¦å·®ã®PIDé‡
 794              		.loc 1 308 2 view .LVU154
 309:Src/target.c  **** 
 310:Src/target.c  **** 	/*m å£è£œæ­£ç”¨*/
 311:Src/target.c  ****     double l_front_sensor_r = 0; 		//m å³å‰ã‚»ãƒ³ã‚µå€¤ã®ãƒãƒƒãƒ•ã‚¡
 795              		.loc 1 311 5 view .LVU155
 796              	.LVL70:
 312:Src/target.c  ****     double l_front_sensor_l = 0; 		//m å·¦å‰ã‚»ãƒ³ã‚µå€¤ã®ãƒãƒƒãƒ•ã‚¡
 797              		.loc 1 312 5 view .LVU156
 313:Src/target.c  ****     double l_front_sensor_r_err = 0;   //m å³å‰ã‚»ãƒ³ã‚µã®åå·®
 798              		.loc 1 313 5 view .LVU157
 314:Src/target.c  ****     double l_front_sensor_l_err = 0;	//m å·¦å‰ã‚»ãƒ³ã‚µã®åå·®
 799              		.loc 1 314 5 view .LVU158
 315:Src/target.c  ****     double l_front_sensor_m_err = 0;   //m ã‚»ãƒ³ã‚µã®åå·®ã®å’Œ
 800              		.loc 1 315 5 view .LVU159
 316:Src/target.c  ****     double l_front_sensor_w_err = 0;	//m ã‚»ãƒ³ã‚µã®åå·®ã®å·®
 801              		.loc 1 316 5 view .LVU160
 317:Src/target.c  ****     static double l_front_sensor_m_err_I = 0;   	//m åå·®å’Œç©åˆ†
 802              		.loc 1 317 5 view .LVU161
 318:Src/target.c  ****     static double l_front_sensor_w_err_I = 0;   	//m åå·®å·®ç©åˆ†
 803              		.loc 1 318 5 view .LVU162
 319:Src/target.c  ****     static double l_front_sensor_m_err_prev = 0;   	//m å‰å›åå·®å’Œ
 804              		.loc 1 319 5 view .LVU163
 320:Src/target.c  ****     static double l_front_sensor_w_err_prev = 0;   	//m å‰å›åå·®å·®
 805              		.loc 1 320 5 view .LVU164
 321:Src/target.c  ****     static double l_front_sensor_m_D_prev = 0;   	//m å‰å›åå·®å’Œå¾®åˆ†
 806              		.loc 1 321 5 view .LVU165
 322:Src/target.c  ****     static double l_front_sensor_w_D_prev = 0;   	//m å‰å›åå·®å·®å¾®åˆ†
 807              		.loc 1 322 5 view .LVU166
 323:Src/target.c  **** 
ARM GAS  C:\Temp\cc3kh2wP.s 			page 22


 324:Src/target.c  ****     double l_front_sensor_m_err_P = 0;
 808              		.loc 1 324 5 view .LVU167
 325:Src/target.c  ****     double l_front_sensor_w_err_P = 0;
 809              		.loc 1 325 5 view .LVU168
 326:Src/target.c  ****     double l_front_sensor_m_err_D = 0;
 810              		.loc 1 326 5 view .LVU169
 327:Src/target.c  ****     double l_front_sensor_w_err_D = 0;
 811              		.loc 1 327 5 view .LVU170
 328:Src/target.c  **** 
 329:Src/target.c  ****     double l_front_sensor_m_PID = 0;
 812              		.loc 1 329 5 view .LVU171
 330:Src/target.c  ****     double l_front_sensor_w_PID = 0;
 813              		.loc 1 330 5 view .LVU172
 331:Src/target.c  **** 
 332:Src/target.c  **** 
 333:Src/target.c  **** 	/*m ç›®æ¨™é€Ÿåº¦ã«ã‚ˆã‚‹åˆ¶å¾¡*/
 334:Src/target.c  **** 	if (correction_mode == 0){
 814              		.loc 1 334 2 view .LVU173
 815              		.loc 1 334 22 is_stmt 0 view .LVU174
 816 000a 6B4B     		ldr	r3, .L94+24
 817 000c 1B78     		ldrb	r3, [r3]	@ zero_extendqisi2
 818              		.loc 1 334 5 view .LVU175
 819 000e 002B     		cmp	r3, #0
 820 0010 4FD0     		beq	.L92
 821              	.L79:
 335:Src/target.c  **** 
 336:Src/target.c  **** 		/*m åå·®å–å¾—*/
 337:Src/target.c  **** 		speed_m_err = target_speed_m - g_ave_speed_m;		//m ç›®æ¨™ã‚¹ãƒ”ãƒ¼ãƒ‰ãƒ¼å®Ÿé€Ÿåº¦(ã‚¨ãƒ³ã‚³ãƒ¼ãƒ€
 338:Src/target.c  **** 		speed_w_err = target_speed_w - IMU_GetGyro_Z();		//m ç›®æ¨™è§’é€Ÿåº¦ãƒ¼å®Ÿé€Ÿåº¦ï¼ˆIMUã‹ã‚‰ï¼‰[r
 339:Src/target.c  **** 
 340:Src/target.c  **** 		/*m åå·®ç©åˆ†*/
 341:Src/target.c  **** 		speed_m_err_I = speed_m_err_I + speed_m_KI*0.001*speed_m_err;
 342:Src/target.c  **** 		speed_w_err_I = speed_w_err_I + speed_w_KI*0.001*speed_w_err;
 343:Src/target.c  **** 		//speed_w_err_I += speed_w_err;
 344:Src/target.c  **** 		/*m åå·®å¾®åˆ†*/
 345:Src/target.c  **** 		speed_w_err_D  = (speed_w_err_D_prev + speed_w_KD*speed_w_fil*(speed_w_err-speed_w_err_prev))
 346:Src/target.c  **** 		                 /(1+speed_w_fil*0.001);
 347:Src/target.c  **** 		//2è‡ªç”±åº¦åˆ¶å¾¡(PI2)
 348:Src/target.c  **** 		//p(b*r-y) + I*Ts*z/(z-1)(r-y)
 349:Src/target.c  **** 		//=P(r-y)+P(b-1)*r + I*Ts*z/(z-1)(r-y)
 350:Src/target.c  **** 		//=P*e+P(b-1)r + I*Ts*z/(z-1)(r-y)
 351:Src/target.c  **** 		speed_m_err_PID = speed_m_KP * speed_m_err + speed_m_err_I;
 352:Src/target.c  **** 		//speed_w_err_PID = speed_w_KP * (speed_w_b*target_speed_w - IMU_GetGyro_Z()) + speed_w_err_I;
 353:Src/target.c  **** 		speed_w_err_PID = speed_w_KP * speed_w_err + speed_w_err_I;
 354:Src/target.c  **** 				//+ speed_w_err_D;
 355:Src/target.c  **** 
 356:Src/target.c  **** 
 357:Src/target.c  **** //		/*m PIåˆ¶å¾¡*/
 358:Src/target.c  **** //		speed_m_err_PID = (speed_m_KP * speed_m_err) + (speed_m_KI * speed_m_err_I);   //PIDã¨ã¯ã„ã
 359:Src/target.c  **** //		speed_w_err_PID = (speed_w_KP * speed_w_err) + (speed_w_KI * speed_w_err_I);	 //PIDã¨ã¯ã„ãˆ
 360:Src/target.c  **** //
 361:Src/target.c  **** //		/*0929_Moore-Penrose ç–‘ä¼¼é€†è¡Œåˆ—ã‚ˆã‚Šæ±‚ã‚ã‚‰ã‚ŒãŸãƒ‘ãƒ©ãƒ¡ãƒ¼ã‚¿ã‚’ä½¿ç”¨ã™ã‚‹ã€‚*/
 362:Src/target.c  **** //		ff_target_vol_r = ((ff_m_a_gain * target_acceleration_m ) + (ff_m_v_gain * target_speed_m) + ff
 363:Src/target.c  **** //							+((ff_w_a_gain * target_acceleration_w ) + (ff_w_v_gain * target_speed_w) + ff_w_f_gain * 
 364:Src/target.c  **** //		ff_target_vol_l = ((ff_m_a_gain * target_acceleration_m ) + (ff_m_v_gain * target_speed_m) + ff
 365:Src/target.c  **** //							-((ff_w_a_gain * target_acceleration_w ) + (ff_w_v_gain * target_speed_w) + ff_w_f_gain * 
 366:Src/target.c  **** 
ARM GAS  C:\Temp\cc3kh2wP.s 			page 23


 367:Src/target.c  **** 		/*FBé …æ¼”ç®—*/
 368:Src/target.c  **** 		fb_target_vol_r = speed_m_err_PID + speed_w_err_PID;
 369:Src/target.c  **** 		fb_target_vol_l = speed_m_err_PID - speed_w_err_PID;
 370:Src/target.c  **** 
 371:Src/target.c  **** 		/*m å°åŠ é›»åœ§ç®—å‡º*/
 372:Src/target.c  **** 		target_vol_r = (fb_gain * fb_target_vol_r);
 373:Src/target.c  **** 		target_vol_l = (fb_gain * fb_target_vol_l);
 374:Src/target.c  **** 
 375:Src/target.c  **** 		/*m å‰å›åå·®æ›´æ–°*/
 376:Src/target.c  **** 		speed_w_err_prev = speed_w_err;			//m å‰å›è§’é€Ÿåº¦åå·®
 377:Src/target.c  **** 		speed_w_err_D_prev = speed_w_err_D;			//m å‰å›è§’é€Ÿåº¦åå·®å¾®åˆ†
 378:Src/target.c  **** 
 379:Src/target.c  **** 	}
 380:Src/target.c  **** 
 381:Src/target.c  **** 	/*m å‰å£è£œæ­£*/
 382:Src/target.c  **** 	if(correction_mode == 1){
 822              		.loc 1 382 2 is_stmt 1 view .LVU176
 823              		.loc 1 382 21 is_stmt 0 view .LVU177
 824 0012 694B     		ldr	r3, .L94+24
 825 0014 1B78     		ldrb	r3, [r3]	@ zero_extendqisi2
 826              		.loc 1 382 4 view .LVU178
 827 0016 012B     		cmp	r3, #1
 828 0018 00F0F280 		beq	.L93
 829              	.LVL71:
 830              	.L80:
 383:Src/target.c  **** 		l_front_sensor_l = SensorValue2length(0);
 384:Src/target.c  **** 		l_front_sensor_r = SensorValue2length(3);
 385:Src/target.c  **** 
 386:Src/target.c  **** 		/*m åå·®å–å¾—*/
 387:Src/target.c  **** 		l_front_sensor_l_err = l_front_sensor_l - front_sensor_l_ref ;		//m ç›®æ¨™è·é›¢ã€€ï¼ã€€ã‚»ãƒ³ã‚
 388:Src/target.c  **** 		l_front_sensor_r_err = l_front_sensor_r - front_sensor_r_ref ;		//m ç›®æ¨™è·é›¢ã€€ï¼ã€€ã‚»ãƒ³ã‚
 389:Src/target.c  **** 
 390:Src/target.c  **** 		/* m åå·®å¤‰æ›*/
 391:Src/target.c  **** 		l_front_sensor_m_err = l_front_sensor_r_err + l_front_sensor_l_err;
 392:Src/target.c  **** 		l_front_sensor_w_err = (l_front_sensor_r_err - l_front_sensor_l_err)/chassis_width; //è§’åº¦ã«å¤
 393:Src/target.c  **** 
 394:Src/target.c  **** 		/*m åå·®ç©åˆ†(Ié …)*/
 395:Src/target.c  **** 		l_front_sensor_m_err_I  += front_sensor_m_KI * 0.001 * l_front_sensor_m_err;
 396:Src/target.c  **** 		l_front_sensor_w_err_I  += front_sensor_w_KI * 0.001 * l_front_sensor_w_err;
 397:Src/target.c  **** 
 398:Src/target.c  **** 		/*Pé …*/
 399:Src/target.c  **** 		l_front_sensor_m_err_P = front_sensor_m_KP * l_front_sensor_m_err;
 400:Src/target.c  **** 		l_front_sensor_w_err_P = front_sensor_w_KP * l_front_sensor_w_err;
 401:Src/target.c  **** 
 402:Src/target.c  **** 		/*Dé …*/
 403:Src/target.c  **** 		l_front_sensor_m_err_D = (l_front_sensor_m_D_prev+front_sensor_m_KD*front_sensor_m_fil*(l_front_s
 404:Src/target.c  **** 									/(1+front_sensor_m_fil*0.001);
 405:Src/target.c  **** 		l_front_sensor_w_err_D = (l_front_sensor_w_D_prev+front_sensor_w_KD*front_sensor_w_fil*(l_front_s
 406:Src/target.c  **** 									/(1+front_sensor_w_fil*0.001);
 407:Src/target.c  **** 
 408:Src/target.c  **** 		/*PID*/
 409:Src/target.c  **** 		l_front_sensor_m_PID = l_front_sensor_m_err_P + l_front_sensor_m_err_I + l_front_sensor_m_err_D;
 410:Src/target.c  **** 	    l_front_sensor_w_PID = l_front_sensor_w_err_P + l_front_sensor_w_err_I + l_front_sensor_w_err_
 411:Src/target.c  **** 
 412:Src/target.c  **** 	    /*m å°åŠ é›»åœ§ç®—å‡º*/
 413:Src/target.c  **** 		target_vol_r = (l_front_sensor_m_PID + l_front_sensor_w_PID)/2;
 414:Src/target.c  **** 		target_vol_l = (l_front_sensor_m_PID - l_front_sensor_w_PID)/2;
ARM GAS  C:\Temp\cc3kh2wP.s 			page 24


 415:Src/target.c  **** 
 416:Src/target.c  **** 		/*m ãƒ‘ãƒ©ãƒ¡ãƒ¼ã‚¿æ›´æ–°*/
 417:Src/target.c  **** 	    l_front_sensor_m_err_prev = l_front_sensor_m_err;   		//m å‰å›åå·®å’Œ
 418:Src/target.c  **** 	    l_front_sensor_w_err_prev = l_front_sensor_w_err;   		//m å‰å›åå·®å·®
 419:Src/target.c  **** 	    l_front_sensor_m_D_prev = l_front_sensor_m_err_D;		   	//m å‰å›åå·®å’Œå¾®åˆ†
 420:Src/target.c  **** 	    l_front_sensor_w_D_prev = l_front_sensor_w_err_D;		   	//m å‰å›åå·®å·®å¾®åˆ†
 421:Src/target.c  **** 
 422:Src/target.c  **** 	}
 423:Src/target.c  **** 
 424:Src/target.c  **** //	/*m ç›®æ¨™é›»åœ§ã«å¿œã˜ã¦è£œæ­£*/
 425:Src/target.c  **** //	/*m ã‚ªãƒ•ã‚»ãƒƒãƒˆé›»åœ§åŠ ç®—å‡¦ç†*/
 426:Src/target.c  **** //	/*m å³ãƒ¢ãƒ¼ã‚¿*/
 427:Src/target.c  **** //	if(target_vol_r > 0)
 428:Src/target.c  **** //	{
 429:Src/target.c  **** //		target_vol_r += offset_voltage;
 430:Src/target.c  **** //		offset_flg_r = 1;
 431:Src/target.c  **** //	}
 432:Src/target.c  **** //	else if(target_vol_r < 0)
 433:Src/target.c  **** //	{
 434:Src/target.c  **** //		target_vol_r -= offset_voltage;
 435:Src/target.c  **** //		offset_flg_r = -1;
 436:Src/target.c  **** //	}
 437:Src/target.c  **** //	else /*target_vol_r = 0ã®ã¨ãã€å‰å›ã‚ªãƒ•ã‚»ãƒƒãƒˆæ–¹å‘ã‚’å¼•ãç¶™ã*/
 438:Src/target.c  **** //	{
 439:Src/target.c  **** //		target_vol_r += offset_flg_r * offset_voltage;
 440:Src/target.c  **** //	}
 441:Src/target.c  **** //
 442:Src/target.c  **** //	/*må·¦ãƒ¢ãƒ¼ã‚¿*/
 443:Src/target.c  **** //	if(target_vol_l > 0)
 444:Src/target.c  **** //	{
 445:Src/target.c  **** //		target_vol_l += offset_voltage;
 446:Src/target.c  **** //		offset_flg_l = 1;
 447:Src/target.c  **** //	}
 448:Src/target.c  **** //	else if(target_vol_l < 0)
 449:Src/target.c  **** //	{
 450:Src/target.c  **** //		target_vol_l -= offset_voltage;
 451:Src/target.c  **** //		offset_flg_l = -1;
 452:Src/target.c  **** //	}
 453:Src/target.c  **** //	else /*target_speed_l = 0ã®ã¨ãã€å‰å›ã‚ªãƒ•ã‚»ãƒƒãƒˆæ–¹å‘ã‚’å¼•ãç¶™ã*/
 454:Src/target.c  **** //	{
 455:Src/target.c  **** //		target_vol_l += offset_flg_l * offset_voltage;
 456:Src/target.c  **** //	}
 457:Src/target.c  **** 
 458:Src/target.c  **** 
 459:Src/target.c  **** 	/* m ãƒãƒƒãƒ†ãƒªãƒ¼é›»åœ§ã¨ãƒ¢ãƒ¼ã‚¿ã«å°åŠ ã™ã‚‹é›»åœ§ã‹ã‚‰ã€duty[*0.1%]ã‚’ç®—å‡º	*/
 460:Src/target.c  **** 	operation_amount_r = target_vol_r / (Battery_GetVoltage()) * 1000;
 831              		.loc 1 460 2 is_stmt 1 view .LVU179
 832              		.loc 1 460 36 is_stmt 0 view .LVU180
 833 001c 674B     		ldr	r3, .L94+28
 834 001e 93ED008A 		vldr.32	s16, [r3]
 835              		.loc 1 460 39 view .LVU181
 836 0022 FFF7FEFF 		bl	Battery_GetVoltage
 837              	.LVL72:
 838              		.loc 1 460 36 view .LVU182
 839 0026 C8EE007A 		vdiv.f32	s15, s16, s0
 840              		.loc 1 460 61 view .LVU183
 841 002a 9FED658A 		vldr.32	s16, .L94+32
ARM GAS  C:\Temp\cc3kh2wP.s 			page 25


 842 002e 67EE887A 		vmul.f32	s15, s15, s16
 843              		.loc 1 460 21 view .LVU184
 844 0032 644C     		ldr	r4, .L94+36
 845 0034 C4ED007A 		vstr.32	s15, [r4]
 461:Src/target.c  **** 	operation_amount_l = target_vol_l / (Battery_GetVoltage()) * 1000;
 846              		.loc 1 461 2 is_stmt 1 view .LVU185
 847              		.loc 1 461 36 is_stmt 0 view .LVU186
 848 0038 634B     		ldr	r3, .L94+40
 849 003a D3ED008A 		vldr.32	s17, [r3]
 850              		.loc 1 461 39 view .LVU187
 851 003e FFF7FEFF 		bl	Battery_GetVoltage
 852              	.LVL73:
 853              		.loc 1 461 36 view .LVU188
 854 0042 C8EE807A 		vdiv.f32	s15, s17, s0
 855              		.loc 1 461 61 view .LVU189
 856 0046 67EE887A 		vmul.f32	s15, s15, s16
 462:Src/target.c  **** 
 463:Src/target.c  **** 
 464:Src/target.c  **** 	if( operation_amount_r > 0){
 857              		.loc 1 464 2 is_stmt 1 view .LVU190
 858              		.loc 1 464 25 is_stmt 0 view .LVU191
 859 004a 94ED007A 		vldr.32	s14, [r4]
 860              		.loc 1 464 4 view .LVU192
 861 004e B5EEC07A 		vcmpe.f32	s14, #0
 862 0052 F1EE10FA 		vmrs	APSR_nzcv, FPSCR
 863 0056 40F3AB81 		ble	.L89
 465:Src/target.c  **** 		operation_amount_r = operation_amount_r + 40;  //40->30
 864              		.loc 1 465 3 is_stmt 1 view .LVU193
 865              		.loc 1 465 43 is_stmt 0 view .LVU194
 866 005a DFED5C6A 		vldr.32	s13, .L94+44
 867 005e 37EE267A 		vadd.f32	s14, s14, s13
 868              		.loc 1 465 22 view .LVU195
 869 0062 84ED007A 		vstr.32	s14, [r4]
 870              	.L83:
 466:Src/target.c  **** 	}
 467:Src/target.c  **** 	else{
 468:Src/target.c  **** 		operation_amount_r = operation_amount_r - 45; //45 ->35
 469:Src/target.c  **** 	}
 470:Src/target.c  **** 
 471:Src/target.c  **** 	if( operation_amount_l > 0){
 871              		.loc 1 471 2 is_stmt 1 view .LVU196
 872              		.loc 1 471 4 is_stmt 0 view .LVU197
 873 0066 F5EEC07A 		vcmpe.f32	s15, #0
 874 006a F1EE10FA 		vmrs	APSR_nzcv, FPSCR
 875 006e 40F3A781 		ble	.L90
 472:Src/target.c  **** 		operation_amount_l = operation_amount_l + 40;  //40->30
 876              		.loc 1 472 3 is_stmt 1 view .LVU198
 877              		.loc 1 472 43 is_stmt 0 view .LVU199
 878 0072 9FED567A 		vldr.32	s14, .L94+44
 879 0076 77EE877A 		vadd.f32	s15, s15, s14
 880              		.loc 1 472 22 view .LVU200
 881 007a 554B     		ldr	r3, .L94+48
 882 007c C3ED007A 		vstr.32	s15, [r3]
 883              	.L86:
 473:Src/target.c  **** 	}
 474:Src/target.c  **** 	else{
 475:Src/target.c  **** 		operation_amount_l = operation_amount_l - 45; //45 ->35
ARM GAS  C:\Temp\cc3kh2wP.s 			page 26


 476:Src/target.c  **** 	}
 477:Src/target.c  **** 
 478:Src/target.c  **** 	/*mãƒ¢ãƒ¼ã‚¿ã«é›»åœ§ã‚’å°åŠ  */
 479:Src/target.c  **** 	Motor_SetDuty_Left((int16_t)operation_amount_l);
 884              		.loc 1 479 2 is_stmt 1 view .LVU201
 885 0080 534B     		ldr	r3, .L94+48
 886 0082 D3ED007A 		vldr.32	s15, [r3]
 887 0086 FDEEE77A 		vcvt.s32.f32	s15, s15
 888 008a 17EE903A 		vmov	r3, s15	@ int
 889 008e 18B2     		sxth	r0, r3
 890 0090 FFF7FEFF 		bl	Motor_SetDuty_Left
 891              	.LVL74:
 480:Src/target.c  **** 	Motor_SetDuty_Right((int16_t)operation_amount_r);
 892              		.loc 1 480 2 view .LVU202
 893 0094 4B4B     		ldr	r3, .L94+36
 894 0096 D3ED007A 		vldr.32	s15, [r3]
 895 009a FDEEE77A 		vcvt.s32.f32	s15, s15
 896 009e 17EE903A 		vmov	r3, s15	@ int
 897 00a2 18B2     		sxth	r0, r3
 898 00a4 FFF7FEFF 		bl	Motor_SetDuty_Right
 899              	.LVL75:
 481:Src/target.c  **** 
 482:Src/target.c  **** 
 483:Src/target.c  **** }
 900              		.loc 1 483 1 is_stmt 0 view .LVU203
 901 00a8 05B0     		add	sp, sp, #20
 902              	.LCFI13:
 903              		.cfi_remember_state
 904              		.cfi_def_cfa_offset 68
 905              		@ sp needed
 906 00aa BDEC088B 		vldm	sp!, {d8-d11}
 907              	.LCFI14:
 908              		.cfi_restore 86
 909              		.cfi_restore 87
 910              		.cfi_restore 84
 911              		.cfi_restore 85
 912              		.cfi_restore 82
 913              		.cfi_restore 83
 914              		.cfi_restore 80
 915              		.cfi_restore 81
 916              		.cfi_def_cfa_offset 36
 917 00ae BDE8F08F 		pop	{r4, r5, r6, r7, r8, r9, r10, fp, pc}
 918              	.LVL76:
 919              	.L92:
 920              	.LCFI15:
 921              		.cfi_restore_state
 337:Src/target.c  **** 		speed_w_err = target_speed_w - IMU_GetGyro_Z();		//m ç›®æ¨™è§’é€Ÿåº¦ãƒ¼å®Ÿé€Ÿåº¦ï¼ˆIMUã‹ã‚‰ï¼‰[r
 922              		.loc 1 337 3 is_stmt 1 view .LVU204
 337:Src/target.c  **** 		speed_w_err = target_speed_w - IMU_GetGyro_Z();		//m ç›®æ¨™è§’é€Ÿåº¦ãƒ¼å®Ÿé€Ÿåº¦ï¼ˆIMUã‹ã‚‰ï¼‰[r
 923              		.loc 1 337 32 is_stmt 0 view .LVU205
 924 00b2 484B     		ldr	r3, .L94+52
 925 00b4 D3ED007A 		vldr.32	s15, [r3]
 926 00b8 474B     		ldr	r3, .L94+56
 927 00ba 93ED007A 		vldr.32	s14, [r3]
 928 00be 77EEC77A 		vsub.f32	s15, s15, s14
 337:Src/target.c  **** 		speed_w_err = target_speed_w - IMU_GetGyro_Z();		//m ç›®æ¨™è§’é€Ÿåº¦ãƒ¼å®Ÿé€Ÿåº¦ï¼ˆIMUã‹ã‚‰ï¼‰[r
 929              		.loc 1 337 15 view .LVU206
ARM GAS  C:\Temp\cc3kh2wP.s 			page 27


 930 00c2 464C     		ldr	r4, .L94+60
 931 00c4 C4ED007A 		vstr.32	s15, [r4]
 338:Src/target.c  **** 
 932              		.loc 1 338 3 is_stmt 1 view .LVU207
 338:Src/target.c  **** 
 933              		.loc 1 338 32 is_stmt 0 view .LVU208
 934 00c8 454B     		ldr	r3, .L94+64
 935 00ca 93ED009A 		vldr.32	s18, [r3]
 338:Src/target.c  **** 
 936              		.loc 1 338 34 view .LVU209
 937 00ce FFF7FEFF 		bl	IMU_GetGyro_Z
 938              	.LVL77:
 338:Src/target.c  **** 
 939              		.loc 1 338 32 view .LVU210
 940 00d2 39EE409A 		vsub.f32	s18, s18, s0
 341:Src/target.c  **** 		speed_w_err_I = speed_w_err_I + speed_w_KI*0.001*speed_w_err;
 941              		.loc 1 341 3 is_stmt 1 view .LVU211
 341:Src/target.c  **** 		speed_w_err_I = speed_w_err_I + speed_w_KI*0.001*speed_w_err;
 942              		.loc 1 341 51 is_stmt 0 view .LVU212
 943 00d6 D4ED009A 		vldr.32	s19, [r4]
 944 00da 19EE900A 		vmov	r0, s19
 945 00de FFF7FEFF 		bl	__aeabi_f2d
 946              	.LVL78:
 947 00e2 2FA3     		adr	r3, .L94
 948 00e4 D3E90023 		ldrd	r2, [r3]
 949 00e8 FFF7FEFF 		bl	__aeabi_dmul
 950              	.LVL79:
 951 00ec 0446     		mov	r4, r0
 952 00ee 0D46     		mov	r5, r1
 341:Src/target.c  **** 		speed_w_err_I = speed_w_err_I + speed_w_KI*0.001*speed_w_err;
 953              		.loc 1 341 33 view .LVU213
 954 00f0 3C4E     		ldr	r6, .L94+68
 955 00f2 3068     		ldr	r0, [r6]	@ float
 956 00f4 FFF7FEFF 		bl	__aeabi_f2d
 957              	.LVL80:
 958 00f8 2246     		mov	r2, r4
 959 00fa 2B46     		mov	r3, r5
 960 00fc FFF7FEFF 		bl	__aeabi_dadd
 961              	.LVL81:
 962 0100 FFF7FEFF 		bl	__aeabi_d2f
 963              	.LVL82:
 964 0104 08EE100A 		vmov	s16, r0
 341:Src/target.c  **** 		speed_w_err_I = speed_w_err_I + speed_w_KI*0.001*speed_w_err;
 965              		.loc 1 341 17 view .LVU214
 966 0108 3060     		str	r0, [r6]	@ float
 342:Src/target.c  **** 		//speed_w_err_I += speed_w_err;
 967              		.loc 1 342 3 is_stmt 1 view .LVU215
 342:Src/target.c  **** 		//speed_w_err_I += speed_w_err;
 968              		.loc 1 342 51 is_stmt 0 view .LVU216
 969 010a 19EE100A 		vmov	r0, s18
 970 010e FFF7FEFF 		bl	__aeabi_f2d
 971              	.LVL83:
 972 0112 25A3     		adr	r3, .L94+8
 973 0114 D3E90023 		ldrd	r2, [r3]
 974 0118 FFF7FEFF 		bl	__aeabi_dmul
 975              	.LVL84:
 976 011c 0446     		mov	r4, r0
ARM GAS  C:\Temp\cc3kh2wP.s 			page 28


 977 011e 0D46     		mov	r5, r1
 342:Src/target.c  **** 		//speed_w_err_I += speed_w_err;
 978              		.loc 1 342 33 view .LVU217
 979 0120 314E     		ldr	r6, .L94+72
 980 0122 3068     		ldr	r0, [r6]	@ float
 981 0124 FFF7FEFF 		bl	__aeabi_f2d
 982              	.LVL85:
 983 0128 2246     		mov	r2, r4
 984 012a 2B46     		mov	r3, r5
 985 012c FFF7FEFF 		bl	__aeabi_dadd
 986              	.LVL86:
 987 0130 FFF7FEFF 		bl	__aeabi_d2f
 988              	.LVL87:
 989 0134 08EE900A 		vmov	s17, r0
 342:Src/target.c  **** 		//speed_w_err_I += speed_w_err;
 990              		.loc 1 342 17 view .LVU218
 991 0138 3060     		str	r0, [r6]	@ float
 345:Src/target.c  **** 		                 /(1+speed_w_fil*0.001);
 992              		.loc 1 345 3 is_stmt 1 view .LVU219
 345:Src/target.c  **** 		                 /(1+speed_w_fil*0.001);
 993              		.loc 1 345 77 is_stmt 0 view .LVU220
 994 013a 2C4D     		ldr	r5, .L94+76
 995 013c D5ED007A 		vldr.32	s15, [r5]
 996 0140 79EE677A 		vsub.f32	s15, s18, s15
 345:Src/target.c  **** 		                 /(1+speed_w_fil*0.001);
 997              		.loc 1 345 64 view .LVU221
 998 0144 9FED2A7A 		vldr.32	s14, .L94+80
 999 0148 67EE877A 		vmul.f32	s15, s15, s14
 345:Src/target.c  **** 		                 /(1+speed_w_fil*0.001);
 1000              		.loc 1 345 40 view .LVU222
 1001 014c 294C     		ldr	r4, .L94+84
 1002 014e 94ED007A 		vldr.32	s14, [r4]
 1003 0152 77EE877A 		vadd.f32	s15, s15, s14
 1004 0156 17EE900A 		vmov	r0, s15
 1005 015a FFF7FEFF 		bl	__aeabi_f2d
 1006              	.LVL88:
 346:Src/target.c  **** 		//2è‡ªç”±åº¦åˆ¶å¾¡(PI2)
 1007              		.loc 1 346 20 view .LVU223
 1008 015e 14A3     		adr	r3, .L94+16
 1009 0160 D3E90023 		ldrd	r2, [r3]
 1010 0164 FFF7FEFF 		bl	__aeabi_ddiv
 1011              	.LVL89:
 1012 0168 FFF7FEFF 		bl	__aeabi_d2f
 1013              	.LVL90:
 351:Src/target.c  **** 		//speed_w_err_PID = speed_w_KP * (speed_w_b*target_speed_w - IMU_GetGyro_Z()) + speed_w_err_I;
 1014              		.loc 1 351 3 is_stmt 1 view .LVU224
 351:Src/target.c  **** 		//speed_w_err_PID = speed_w_KP * (speed_w_b*target_speed_w - IMU_GetGyro_Z()) + speed_w_err_I;
 1015              		.loc 1 351 32 is_stmt 0 view .LVU225
 1016 016c DFED227A 		vldr.32	s15, .L94+88
 1017 0170 69EEA79A 		vmul.f32	s19, s19, s15
 351:Src/target.c  **** 		//speed_w_err_PID = speed_w_KP * (speed_w_b*target_speed_w - IMU_GetGyro_Z()) + speed_w_err_I;
 1018              		.loc 1 351 46 view .LVU226
 1019 0174 38EE298A 		vadd.f32	s16, s16, s19
 353:Src/target.c  **** 				//+ speed_w_err_D;
 1020              		.loc 1 353 3 is_stmt 1 view .LVU227
 353:Src/target.c  **** 				//+ speed_w_err_D;
 1021              		.loc 1 353 32 is_stmt 0 view .LVU228
ARM GAS  C:\Temp\cc3kh2wP.s 			page 29


 1022 0178 DFED207A 		vldr.32	s15, .L94+92
 1023 017c 69EE277A 		vmul.f32	s15, s18, s15
 353:Src/target.c  **** 				//+ speed_w_err_D;
 1024              		.loc 1 353 46 view .LVU229
 1025 0180 78EEA78A 		vadd.f32	s17, s17, s15
 368:Src/target.c  **** 		fb_target_vol_l = speed_m_err_PID - speed_w_err_PID;
 1026              		.loc 1 368 3 is_stmt 1 view .LVU230
 368:Src/target.c  **** 		fb_target_vol_l = speed_m_err_PID - speed_w_err_PID;
 1027              		.loc 1 368 37 is_stmt 0 view .LVU231
 1028 0184 78EE287A 		vadd.f32	s15, s16, s17
 369:Src/target.c  **** 
 1029              		.loc 1 369 3 is_stmt 1 view .LVU232
 369:Src/target.c  **** 
 1030              		.loc 1 369 37 is_stmt 0 view .LVU233
 1031 0188 38EE688A 		vsub.f32	s16, s16, s17
 372:Src/target.c  **** 		target_vol_l = (fb_gain * fb_target_vol_l);
 1032              		.loc 1 372 3 is_stmt 1 view .LVU234
 372:Src/target.c  **** 		target_vol_l = (fb_gain * fb_target_vol_l);
 1033              		.loc 1 372 16 is_stmt 0 view .LVU235
 1034 018c 0B4B     		ldr	r3, .L94+28
 1035 018e C3ED007A 		vstr.32	s15, [r3]
 373:Src/target.c  **** 
 1036              		.loc 1 373 3 is_stmt 1 view .LVU236
 373:Src/target.c  **** 
 1037              		.loc 1 373 16 is_stmt 0 view .LVU237
 1038 0192 0D4B     		ldr	r3, .L94+40
 1039 0194 83ED008A 		vstr.32	s16, [r3]
 376:Src/target.c  **** 		speed_w_err_D_prev = speed_w_err_D;			//m å‰å›è§’é€Ÿåº¦åå·®å¾®åˆ†
 1040              		.loc 1 376 3 is_stmt 1 view .LVU238
 376:Src/target.c  **** 		speed_w_err_D_prev = speed_w_err_D;			//m å‰å›è§’é€Ÿåº¦åå·®å¾®åˆ†
 1041              		.loc 1 376 20 is_stmt 0 view .LVU239
 1042 0198 85ED009A 		vstr.32	s18, [r5]
 377:Src/target.c  **** 
 1043              		.loc 1 377 3 is_stmt 1 view .LVU240
 377:Src/target.c  **** 
 1044              		.loc 1 377 22 is_stmt 0 view .LVU241
 1045 019c 2060     		str	r0, [r4]	@ float
 1046 019e 38E7     		b	.L79
 1047              	.L95:
 1048              		.align	3
 1049              	.L94:
 1050 01a0 8B6CE7FB 		.word	-68719477
 1051 01a4 B935A43F 		.word	1067726265
 1052 01a8 FCA9F1D2 		.word	-755914244
 1053 01ac 3DC9823F 		.word	1065535805
 1054 01b0 5839B4C8 		.word	-927712936
 1055 01b4 7652F33F 		.word	1072910966
 1056 01b8 00000000 		.word	.LANCHOR14
 1057 01bc 00000000 		.word	.LANCHOR20
 1058 01c0 00007A44 		.word	1148846080
 1059 01c4 00000000 		.word	.LANCHOR28
 1060 01c8 00000000 		.word	.LANCHOR21
 1061 01cc 00002042 		.word	1109393408
 1062 01d0 00000000 		.word	.LANCHOR29
 1063 01d4 00000000 		.word	.LANCHOR3
 1064 01d8 00000000 		.word	g_ave_speed_m
 1065 01dc 00000000 		.word	.LANCHOR15
ARM GAS  C:\Temp\cc3kh2wP.s 			page 30


 1066 01e0 00000000 		.word	.LANCHOR5
 1067 01e4 00000000 		.word	.LANCHOR16
 1068 01e8 00000000 		.word	.LANCHOR17
 1069 01ec 00000000 		.word	.LANCHOR18
 1070 01f0 00000000 		.word	0
 1071 01f4 00000000 		.word	.LANCHOR19
 1072 01f8 D1222B40 		.word	1076568785
 1073 01fc AD2FB23E 		.word	1051865005
 1074              	.L93:
 383:Src/target.c  **** 		l_front_sensor_r = SensorValue2length(3);
 1075              		.loc 1 383 3 is_stmt 1 view .LVU242
 383:Src/target.c  **** 		l_front_sensor_r = SensorValue2length(3);
 1076              		.loc 1 383 22 is_stmt 0 view .LVU243
 1077 0200 0020     		movs	r0, #0
 1078 0202 FFF7FEFF 		bl	SensorValue2length
 1079              	.LVL91:
 1080 0206 57EC106B 		vmov	r6, r7, d0
 1081              	.LVL92:
 384:Src/target.c  **** 
 1082              		.loc 1 384 3 is_stmt 1 view .LVU244
 384:Src/target.c  **** 
 1083              		.loc 1 384 22 is_stmt 0 view .LVU245
 1084 020a 0320     		movs	r0, #3
 1085 020c FFF7FEFF 		bl	SensorValue2length
 1086              	.LVL93:
 1087 0210 55EC104B 		vmov	r4, r5, d0
 1088              	.LVL94:
 387:Src/target.c  **** 		l_front_sensor_r_err = l_front_sensor_r - front_sensor_r_ref ;		//m ç›®æ¨™è·é›¢ã€€ï¼ã€€ã‚»ãƒ³ã‚
 1089              		.loc 1 387 3 is_stmt 1 view .LVU246
 387:Src/target.c  **** 		l_front_sensor_r_err = l_front_sensor_r - front_sensor_r_ref ;		//m ç›®æ¨™è·é›¢ã€€ï¼ã€€ã‚»ãƒ³ã‚
 1090              		.loc 1 387 24 is_stmt 0 view .LVU247
 1091 0214 84A3     		adr	r3, .L96+88
 1092 0216 D3E90023 		ldrd	r2, [r3]
 1093 021a 3046     		mov	r0, r6
 1094 021c 3946     		mov	r1, r7
 1095 021e FFF7FEFF 		bl	__aeabi_dsub
 1096              	.LVL95:
 1097 0222 0646     		mov	r6, r0
 1098              	.LVL96:
 387:Src/target.c  **** 		l_front_sensor_r_err = l_front_sensor_r - front_sensor_r_ref ;		//m ç›®æ¨™è·é›¢ã€€ï¼ã€€ã‚»ãƒ³ã‚
 1099              		.loc 1 387 24 view .LVU248
 1100 0224 0F46     		mov	r7, r1
 1101              	.LVL97:
 388:Src/target.c  **** 
 1102              		.loc 1 388 3 is_stmt 1 view .LVU249
 388:Src/target.c  **** 
 1103              		.loc 1 388 24 is_stmt 0 view .LVU250
 1104 0226 82A3     		adr	r3, .L96+96
 1105 0228 D3E90023 		ldrd	r2, [r3]
 1106 022c 2046     		mov	r0, r4
 1107 022e 2946     		mov	r1, r5
 1108 0230 FFF7FEFF 		bl	__aeabi_dsub
 1109              	.LVL98:
 1110 0234 0446     		mov	r4, r0
 1111              	.LVL99:
 388:Src/target.c  **** 
 1112              		.loc 1 388 24 view .LVU251
ARM GAS  C:\Temp\cc3kh2wP.s 			page 31


 1113 0236 0D46     		mov	r5, r1
 1114              	.LVL100:
 391:Src/target.c  **** 		l_front_sensor_w_err = (l_front_sensor_r_err - l_front_sensor_l_err)/chassis_width; //è§’åº¦ã«å¤
 1115              		.loc 1 391 3 is_stmt 1 view .LVU252
 391:Src/target.c  **** 		l_front_sensor_w_err = (l_front_sensor_r_err - l_front_sensor_l_err)/chassis_width; //è§’åº¦ã«å¤
 1116              		.loc 1 391 24 is_stmt 0 view .LVU253
 1117 0238 0246     		mov	r2, r0
 1118 023a 0B46     		mov	r3, r1
 1119 023c 3046     		mov	r0, r6
 1120 023e 3946     		mov	r1, r7
 1121 0240 FFF7FEFF 		bl	__aeabi_dadd
 1122              	.LVL101:
 1123 0244 8046     		mov	r8, r0
 1124 0246 8946     		mov	r9, r1
 1125              	.LVL102:
 392:Src/target.c  **** 
 1126              		.loc 1 392 3 is_stmt 1 view .LVU254
 392:Src/target.c  **** 
 1127              		.loc 1 392 48 is_stmt 0 view .LVU255
 1128 0248 3246     		mov	r2, r6
 1129 024a 3B46     		mov	r3, r7
 1130 024c 2046     		mov	r0, r4
 1131 024e 2946     		mov	r1, r5
 1132 0250 FFF7FEFF 		bl	__aeabi_dsub
 1133              	.LVL103:
 392:Src/target.c  **** 
 1134              		.loc 1 392 24 view .LVU256
 1135 0254 78A3     		adr	r3, .L96+104
 1136 0256 D3E90023 		ldrd	r2, [r3]
 1137 025a FFF7FEFF 		bl	__aeabi_ddiv
 1138              	.LVL104:
 1139 025e 0646     		mov	r6, r0
 1140              	.LVL105:
 392:Src/target.c  **** 
 1141              		.loc 1 392 24 view .LVU257
 1142 0260 0F46     		mov	r7, r1
 1143              	.LVL106:
 395:Src/target.c  **** 		l_front_sensor_w_err_I  += front_sensor_w_KI * 0.001 * l_front_sensor_w_err;
 1144              		.loc 1 395 3 is_stmt 1 view .LVU258
 395:Src/target.c  **** 		l_front_sensor_w_err_I  += front_sensor_w_KI * 0.001 * l_front_sensor_w_err;
 1145              		.loc 1 395 56 is_stmt 0 view .LVU259
 1146 0262 77A3     		adr	r3, .L96+112
 1147 0264 D3E90023 		ldrd	r2, [r3]
 1148 0268 4046     		mov	r0, r8
 1149 026a 4946     		mov	r1, r9
 1150 026c FFF7FEFF 		bl	__aeabi_dmul
 1151              	.LVL107:
 395:Src/target.c  **** 		l_front_sensor_w_err_I  += front_sensor_w_KI * 0.001 * l_front_sensor_w_err;
 1152              		.loc 1 395 27 view .LVU260
 1153 0270 654C     		ldr	r4, .L96+56
 1154              	.LVL108:
 395:Src/target.c  **** 		l_front_sensor_w_err_I  += front_sensor_w_KI * 0.001 * l_front_sensor_w_err;
 1155              		.loc 1 395 27 view .LVU261
 1156 0272 D4E90023 		ldrd	r2, [r4]
 1157 0276 FFF7FEFF 		bl	__aeabi_dadd
 1158              	.LVL109:
 1159 027a 41EC1B0B 		vmov	d11, r0, r1
ARM GAS  C:\Temp\cc3kh2wP.s 			page 32


 1160 027e C4E90001 		strd	r0, [r4]
 396:Src/target.c  **** 
 1161              		.loc 1 396 3 is_stmt 1 view .LVU262
 396:Src/target.c  **** 
 1162              		.loc 1 396 56 is_stmt 0 view .LVU263
 1163 0282 53A3     		adr	r3, .L96
 1164 0284 D3E90023 		ldrd	r2, [r3]
 1165 0288 3046     		mov	r0, r6
 1166 028a 3946     		mov	r1, r7
 1167 028c FFF7FEFF 		bl	__aeabi_dmul
 1168              	.LVL110:
 396:Src/target.c  **** 
 1169              		.loc 1 396 27 view .LVU264
 1170 0290 5E4C     		ldr	r4, .L96+60
 1171 0292 D4E90023 		ldrd	r2, [r4]
 1172 0296 FFF7FEFF 		bl	__aeabi_dadd
 1173              	.LVL111:
 1174 029a 41EC1A0B 		vmov	d10, r0, r1
 1175 029e C4E90001 		strd	r0, [r4]
 399:Src/target.c  **** 		l_front_sensor_w_err_P = front_sensor_w_KP * l_front_sensor_w_err;
 1176              		.loc 1 399 3 is_stmt 1 view .LVU265
 399:Src/target.c  **** 		l_front_sensor_w_err_P = front_sensor_w_KP * l_front_sensor_w_err;
 1177              		.loc 1 399 26 is_stmt 0 view .LVU266
 1178 02a2 4DA3     		adr	r3, .L96+8
 1179 02a4 D3E90023 		ldrd	r2, [r3]
 1180 02a8 4046     		mov	r0, r8
 1181 02aa 4946     		mov	r1, r9
 1182 02ac FFF7FEFF 		bl	__aeabi_dmul
 1183              	.LVL112:
 1184 02b0 0446     		mov	r4, r0
 1185 02b2 0D46     		mov	r5, r1
 1186              	.LVL113:
 400:Src/target.c  **** 
 1187              		.loc 1 400 3 is_stmt 1 view .LVU267
 400:Src/target.c  **** 
 1188              		.loc 1 400 26 is_stmt 0 view .LVU268
 1189 02b4 4AA3     		adr	r3, .L96+16
 1190 02b6 D3E90023 		ldrd	r2, [r3]
 1191 02ba 3046     		mov	r0, r6
 1192 02bc 3946     		mov	r1, r7
 1193 02be FFF7FEFF 		bl	__aeabi_dmul
 1194              	.LVL114:
 1195 02c2 CDE90201 		strd	r0, [sp, #8]
 1196              	.LVL115:
 403:Src/target.c  **** 									/(1+front_sensor_m_fil*0.001);
 1197              		.loc 1 403 3 is_stmt 1 view .LVU269
 403:Src/target.c  **** 									/(1+front_sensor_m_fil*0.001);
 1198              		.loc 1 403 112 is_stmt 0 view .LVU270
 1199 02c6 DFF880B1 		ldr	fp, .L96+120
 1200 02ca DBE90023 		ldrd	r2, [fp]
 1201 02ce CDE90089 		strd	r8, [sp]
 1202 02d2 4046     		mov	r0, r8
 1203              	.LVL116:
 403:Src/target.c  **** 									/(1+front_sensor_m_fil*0.001);
 1204              		.loc 1 403 112 view .LVU271
 1205 02d4 4946     		mov	r1, r9
 1206 02d6 FFF7FEFF 		bl	__aeabi_dsub
ARM GAS  C:\Temp\cc3kh2wP.s 			page 33


 1207              	.LVL117:
 403:Src/target.c  **** 									/(1+front_sensor_m_fil*0.001);
 1208              		.loc 1 403 89 view .LVU272
 1209 02da 43A3     		adr	r3, .L96+24
 1210 02dc D3E90023 		ldrd	r2, [r3]
 1211 02e0 FFF7FEFF 		bl	__aeabi_dmul
 1212              	.LVL118:
 403:Src/target.c  **** 									/(1+front_sensor_m_fil*0.001);
 1213              		.loc 1 403 52 view .LVU273
 1214 02e4 DFF86491 		ldr	r9, .L96+124
 1215 02e8 D9E90023 		ldrd	r2, [r9]
 1216 02ec FFF7FEFF 		bl	__aeabi_dadd
 1217              	.LVL119:
 403:Src/target.c  **** 									/(1+front_sensor_m_fil*0.001);
 1218              		.loc 1 403 26 view .LVU274
 1219 02f0 3FA3     		adr	r3, .L96+32
 1220 02f2 D3E90023 		ldrd	r2, [r3]
 1221 02f6 FFF7FEFF 		bl	__aeabi_ddiv
 1222              	.LVL120:
 1223 02fa 41EC190B 		vmov	d9, r0, r1
 1224              	.LVL121:
 405:Src/target.c  **** 									/(1+front_sensor_w_fil*0.001);
 1225              		.loc 1 405 3 is_stmt 1 view .LVU275
 405:Src/target.c  **** 									/(1+front_sensor_w_fil*0.001);
 1226              		.loc 1 405 112 is_stmt 0 view .LVU276
 1227 02fe DFF850A1 		ldr	r10, .L96+128
 1228 0302 DAE90023 		ldrd	r2, [r10]
 1229 0306 3046     		mov	r0, r6
 1230              	.LVL122:
 405:Src/target.c  **** 									/(1+front_sensor_w_fil*0.001);
 1231              		.loc 1 405 112 view .LVU277
 1232 0308 3946     		mov	r1, r7
 1233 030a FFF7FEFF 		bl	__aeabi_dsub
 1234              	.LVL123:
 405:Src/target.c  **** 									/(1+front_sensor_w_fil*0.001);
 1235              		.loc 1 405 89 view .LVU278
 1236 030e 3AA3     		adr	r3, .L96+40
 1237 0310 D3E90023 		ldrd	r2, [r3]
 1238 0314 FFF7FEFF 		bl	__aeabi_dmul
 1239              	.LVL124:
 405:Src/target.c  **** 									/(1+front_sensor_w_fil*0.001);
 1240              		.loc 1 405 52 view .LVU279
 1241 0318 DFF83881 		ldr	r8, .L96+132
 1242              	.LVL125:
 405:Src/target.c  **** 									/(1+front_sensor_w_fil*0.001);
 1243              		.loc 1 405 52 view .LVU280
 1244 031c D8E90023 		ldrd	r2, [r8]
 1245 0320 FFF7FEFF 		bl	__aeabi_dadd
 1246              	.LVL126:
 405:Src/target.c  **** 									/(1+front_sensor_w_fil*0.001);
 1247              		.loc 1 405 26 view .LVU281
 1248 0324 36A3     		adr	r3, .L96+48
 1249 0326 D3E90023 		ldrd	r2, [r3]
 1250 032a FFF7FEFF 		bl	__aeabi_ddiv
 1251              	.LVL127:
 1252 032e 41EC180B 		vmov	d8, r0, r1
 1253              	.LVL128:
ARM GAS  C:\Temp\cc3kh2wP.s 			page 34


 409:Src/target.c  **** 	    l_front_sensor_w_PID = l_front_sensor_w_err_P + l_front_sensor_w_err_I + l_front_sensor_w_err_
 1254              		.loc 1 409 3 is_stmt 1 view .LVU282
 409:Src/target.c  **** 	    l_front_sensor_w_PID = l_front_sensor_w_err_P + l_front_sensor_w_err_I + l_front_sensor_w_err_
 1255              		.loc 1 409 49 is_stmt 0 view .LVU283
 1256 0332 2246     		mov	r2, r4
 1257 0334 2B46     		mov	r3, r5
 1258 0336 51EC1B0B 		vmov	r0, r1, d11
 1259              	.LVL129:
 409:Src/target.c  **** 	    l_front_sensor_w_PID = l_front_sensor_w_err_P + l_front_sensor_w_err_I + l_front_sensor_w_err_
 1260              		.loc 1 409 49 view .LVU284
 1261 033a FFF7FEFF 		bl	__aeabi_dadd
 1262              	.LVL130:
 409:Src/target.c  **** 	    l_front_sensor_w_PID = l_front_sensor_w_err_P + l_front_sensor_w_err_I + l_front_sensor_w_err_
 1263              		.loc 1 409 24 view .LVU285
 1264 033e 53EC192B 		vmov	r2, r3, d9
 1265 0342 FFF7FEFF 		bl	__aeabi_dadd
 1266              	.LVL131:
 1267 0346 0446     		mov	r4, r0
 1268              	.LVL132:
 409:Src/target.c  **** 	    l_front_sensor_w_PID = l_front_sensor_w_err_P + l_front_sensor_w_err_I + l_front_sensor_w_err_
 1269              		.loc 1 409 24 view .LVU286
 1270 0348 0D46     		mov	r5, r1
 1271              	.LVL133:
 410:Src/target.c  **** 
 1272              		.loc 1 410 6 is_stmt 1 view .LVU287
 410:Src/target.c  **** 
 1273              		.loc 1 410 52 is_stmt 0 view .LVU288
 1274 034a DDE90223 		ldrd	r2, [sp, #8]
 1275 034e 51EC1A0B 		vmov	r0, r1, d10
 1276 0352 FFF7FEFF 		bl	__aeabi_dadd
 1277              	.LVL134:
 410:Src/target.c  **** 
 1278              		.loc 1 410 27 view .LVU289
 1279 0356 53EC182B 		vmov	r2, r3, d8
 1280 035a FFF7FEFF 		bl	__aeabi_dadd
 1281              	.LVL135:
 413:Src/target.c  **** 		target_vol_l = (l_front_sensor_m_PID - l_front_sensor_w_PID)/2;
 1282              		.loc 1 413 3 is_stmt 1 view .LVU290
 413:Src/target.c  **** 		target_vol_l = (l_front_sensor_m_PID - l_front_sensor_w_PID)/2;
 1283              		.loc 1 413 40 is_stmt 0 view .LVU291
 1284 035e CDE90201 		strd	r0, [sp, #8]
 1285              	.LVL136:
 413:Src/target.c  **** 		target_vol_l = (l_front_sensor_m_PID - l_front_sensor_w_PID)/2;
 1286              		.loc 1 413 40 view .LVU292
 1287 0362 0246     		mov	r2, r0
 1288 0364 0B46     		mov	r3, r1
 1289 0366 2046     		mov	r0, r4
 1290              	.LVL137:
 413:Src/target.c  **** 		target_vol_l = (l_front_sensor_m_PID - l_front_sensor_w_PID)/2;
 1291              		.loc 1 413 40 view .LVU293
 1292 0368 2946     		mov	r1, r5
 1293 036a FFF7FEFF 		bl	__aeabi_dadd
 1294              	.LVL138:
 413:Src/target.c  **** 		target_vol_l = (l_front_sensor_m_PID - l_front_sensor_w_PID)/2;
 1295              		.loc 1 413 63 view .LVU294
 1296 036e 0022     		movs	r2, #0
 1297 0370 274B     		ldr	r3, .L96+64
ARM GAS  C:\Temp\cc3kh2wP.s 			page 35


 1298 0372 FFF7FEFF 		bl	__aeabi_dmul
 1299              	.LVL139:
 1300 0376 FFF7FEFF 		bl	__aeabi_d2f
 1301              	.LVL140:
 413:Src/target.c  **** 		target_vol_l = (l_front_sensor_m_PID - l_front_sensor_w_PID)/2;
 1302              		.loc 1 413 16 view .LVU295
 1303 037a 264B     		ldr	r3, .L96+68
 1304 037c 1860     		str	r0, [r3]	@ float
 414:Src/target.c  **** 
 1305              		.loc 1 414 3 is_stmt 1 view .LVU296
 414:Src/target.c  **** 
 1306              		.loc 1 414 40 is_stmt 0 view .LVU297
 1307 037e DDE90223 		ldrd	r2, [sp, #8]
 1308 0382 2046     		mov	r0, r4
 1309 0384 2946     		mov	r1, r5
 1310 0386 FFF7FEFF 		bl	__aeabi_dsub
 1311              	.LVL141:
 414:Src/target.c  **** 
 1312              		.loc 1 414 63 view .LVU298
 1313 038a 0022     		movs	r2, #0
 1314 038c 204B     		ldr	r3, .L96+64
 1315 038e FFF7FEFF 		bl	__aeabi_dmul
 1316              	.LVL142:
 1317 0392 FFF7FEFF 		bl	__aeabi_d2f
 1318              	.LVL143:
 414:Src/target.c  **** 
 1319              		.loc 1 414 16 view .LVU299
 1320 0396 204B     		ldr	r3, .L96+72
 1321 0398 1860     		str	r0, [r3]	@ float
 417:Src/target.c  **** 	    l_front_sensor_w_err_prev = l_front_sensor_w_err;   		//m å‰å›åå·®å·®
 1322              		.loc 1 417 6 is_stmt 1 view .LVU300
 417:Src/target.c  **** 	    l_front_sensor_w_err_prev = l_front_sensor_w_err;   		//m å‰å›åå·®å·®
 1323              		.loc 1 417 32 is_stmt 0 view .LVU301
 1324 039a 9DED007B 		vldr.64	d7, [sp]
 1325 039e 8BED007B 		vstr.64	d7, [fp]
 418:Src/target.c  **** 	    l_front_sensor_m_D_prev = l_front_sensor_m_err_D;		   	//m å‰å›åå·®å’Œå¾®åˆ†
 1326              		.loc 1 418 6 is_stmt 1 view .LVU302
 418:Src/target.c  **** 	    l_front_sensor_m_D_prev = l_front_sensor_m_err_D;		   	//m å‰å›åå·®å’Œå¾®åˆ†
 1327              		.loc 1 418 32 is_stmt 0 view .LVU303
 1328 03a2 CAE90067 		strd	r6, [r10]
 419:Src/target.c  **** 	    l_front_sensor_w_D_prev = l_front_sensor_w_err_D;		   	//m å‰å›åå·®å·®å¾®åˆ†
 1329              		.loc 1 419 6 is_stmt 1 view .LVU304
 419:Src/target.c  **** 	    l_front_sensor_w_D_prev = l_front_sensor_w_err_D;		   	//m å‰å›åå·®å·®å¾®åˆ†
 1330              		.loc 1 419 30 is_stmt 0 view .LVU305
 1331 03a6 89ED009B 		vstr.64	d9, [r9]
 420:Src/target.c  **** 
 1332              		.loc 1 420 6 is_stmt 1 view .LVU306
 420:Src/target.c  **** 
 1333              		.loc 1 420 30 is_stmt 0 view .LVU307
 1334 03aa 88ED008B 		vstr.64	d8, [r8]
 1335 03ae 35E6     		b	.L80
 1336              	.LVL144:
 1337              	.L89:
 468:Src/target.c  **** 	}
 1338              		.loc 1 468 3 is_stmt 1 view .LVU308
 468:Src/target.c  **** 	}
 1339              		.loc 1 468 43 is_stmt 0 view .LVU309
ARM GAS  C:\Temp\cc3kh2wP.s 			page 36


 1340 03b0 DFED1A6A 		vldr.32	s13, .L96+76
 1341 03b4 37EE667A 		vsub.f32	s14, s14, s13
 468:Src/target.c  **** 	}
 1342              		.loc 1 468 22 view .LVU310
 1343 03b8 194B     		ldr	r3, .L96+80
 1344 03ba 83ED007A 		vstr.32	s14, [r3]
 1345 03be 52E6     		b	.L83
 1346              	.L90:
 475:Src/target.c  **** 	}
 1347              		.loc 1 475 3 is_stmt 1 view .LVU311
 475:Src/target.c  **** 	}
 1348              		.loc 1 475 43 is_stmt 0 view .LVU312
 1349 03c0 9FED167A 		vldr.32	s14, .L96+76
 1350 03c4 77EEC77A 		vsub.f32	s15, s15, s14
 475:Src/target.c  **** 	}
 1351              		.loc 1 475 22 view .LVU313
 1352 03c8 164B     		ldr	r3, .L96+84
 1353 03ca C3ED007A 		vstr.32	s15, [r3]
 1354 03ce 57E6     		b	.L86
 1355              	.L97:
 1356              		.align	3
 1357              	.L96:
 1358 03d0 60E5D022 		.word	584115552
 1359 03d4 9BA5643F 		.word	1063560603
 1360 03d8 00000000 		.word	0
 1361 03dc 631A5F40 		.word	1079974499
 1362 03e0 000000E0 		.word	-536870912
 1363 03e4 8A9E1940 		.word	1075420810
 1364 03e8 00000060 		.word	1610612736
 1365 03ec A2AB5340 		.word	1079225250
 1366 03f0 C1CAA185 		.word	-2052994367
 1367 03f4 2062F03F 		.word	1072718368
 1368 03f8 00000000 		.word	0
 1369 03fc 236C2240 		.word	1075997731
 1370 0400 7368916D 		.word	1838246003
 1371 0404 81B6F03F 		.word	1072739969
 1372 0408 00000000 		.word	.LANCHOR22
 1373 040c 00000000 		.word	.LANCHOR23
 1374 0410 0000E03F 		.word	1071644672
 1375 0414 00000000 		.word	.LANCHOR20
 1376 0418 00000000 		.word	.LANCHOR21
 1377 041c 00003442 		.word	1110704128
 1378 0420 00000000 		.word	.LANCHOR28
 1379 0424 00000000 		.word	.LANCHOR29
 1380 0428 00000060 		.word	1610612736
 1381 042c BC74833F 		.word	1065579708
 1382 0430 000000E0 		.word	-536870912
 1383 0434 4F8D873F 		.word	1065848143
 1384 0438 000000E0 		.word	-536870912
 1385 043c BED5A23F 		.word	1067636158
 1386 0440 08AC1C5A 		.word	1511828488
 1387 0444 D4DF9A3F 		.word	1067114452
 1388 0448 00000000 		.word	.LANCHOR24
 1389 044c 00000000 		.word	.LANCHOR25
 1390 0450 00000000 		.word	.LANCHOR26
 1391 0454 00000000 		.word	.LANCHOR27
 1392              		.cfi_endproc
ARM GAS  C:\Temp\cc3kh2wP.s 			page 37


 1393              	.LFE138:
 1395              		.section	.text.real_distance_m_clr,"ax",%progbits
 1396              		.align	1
 1397              		.global	real_distance_m_clr
 1398              		.syntax unified
 1399              		.thumb
 1400              		.thumb_func
 1401              		.fpu fpv4-sp-d16
 1403              	real_distance_m_clr:
 1404              	.LFB139:
 484:Src/target.c  **** 
 485:Src/target.c  **** 
 486:Src/target.c  **** 
 487:Src/target.c  **** 
 488:Src/target.c  **** ////////////////////////////////
 489:Src/target.c  **** /* a ãƒ‘ãƒ©ãƒ¡ãƒ¼ã‚¿è¨­å®šé–¢æ•°			 */
 490:Src/target.c  **** ////////////////////////////////
 491:Src/target.c  **** 
 492:Src/target.c  **** /* memo:ä¸¦é€²æ–¹å‘ç§»å‹•è·é›¢ã‚¯ãƒªã‚¢
 493:Src/target.c  ****  * param
 494:Src/target.c  ****  */
 495:Src/target.c  **** void real_distance_m_clr (void)
 496:Src/target.c  **** {
 1405              		.loc 1 496 1 is_stmt 1 view -0
 1406              		.cfi_startproc
 1407              		@ args = 0, pretend = 0, frame = 0
 1408              		@ frame_needed = 0, uses_anonymous_args = 0
 1409              		@ link register save eliminated.
 497:Src/target.c  **** 	real_distance_m = 0; // [m/s] * [s]
 1410              		.loc 1 497 2 view .LVU315
 1411              		.loc 1 497 18 is_stmt 0 view .LVU316
 1412 0000 014B     		ldr	r3, .L99
 1413 0002 0022     		movs	r2, #0
 1414 0004 1A60     		str	r2, [r3]	@ float
 498:Src/target.c  **** }
 1415              		.loc 1 498 1 view .LVU317
 1416 0006 7047     		bx	lr
 1417              	.L100:
 1418              		.align	2
 1419              	.L99:
 1420 0008 00000000 		.word	.LANCHOR0
 1421              		.cfi_endproc
 1422              	.LFE139:
 1424              		.section	.text.real_distance_w_clr,"ax",%progbits
 1425              		.align	1
 1426              		.global	real_distance_w_clr
 1427              		.syntax unified
 1428              		.thumb
 1429              		.thumb_func
 1430              		.fpu fpv4-sp-d16
 1432              	real_distance_w_clr:
 1433              	.LFB140:
 499:Src/target.c  **** 
 500:Src/target.c  **** /* memo:å›è»¢æ–¹å‘ç§»å‹•è§’åº¦ã‚¯ãƒªã‚¢
 501:Src/target.c  ****  * param
 502:Src/target.c  ****  */
 503:Src/target.c  **** void real_distance_w_clr (void)
ARM GAS  C:\Temp\cc3kh2wP.s 			page 38


 504:Src/target.c  **** {
 1434              		.loc 1 504 1 is_stmt 1 view -0
 1435              		.cfi_startproc
 1436              		@ args = 0, pretend = 0, frame = 0
 1437              		@ frame_needed = 0, uses_anonymous_args = 0
 1438              		@ link register save eliminated.
 505:Src/target.c  **** 	real_distance_w= 0; // [rad/s] * [s]
 1439              		.loc 1 505 2 view .LVU319
 1440              		.loc 1 505 17 is_stmt 0 view .LVU320
 1441 0000 014B     		ldr	r3, .L102
 1442 0002 0022     		movs	r2, #0
 1443 0004 1A60     		str	r2, [r3]	@ float
 506:Src/target.c  **** }
 1444              		.loc 1 506 1 view .LVU321
 1445 0006 7047     		bx	lr
 1446              	.L103:
 1447              		.align	2
 1448              	.L102:
 1449 0008 00000000 		.word	.LANCHOR1
 1450              		.cfi_endproc
 1451              	.LFE140:
 1453              		.section	.text.target_distance_m_set,"ax",%progbits
 1454              		.align	1
 1455              		.global	target_distance_m_set
 1456              		.syntax unified
 1457              		.thumb
 1458              		.thumb_func
 1459              		.fpu fpv4-sp-d16
 1461              	target_distance_m_set:
 1462              	.LVL145:
 1463              	.LFB141:
 507:Src/target.c  **** 
 508:Src/target.c  **** /* memo:ä¸¦é€²æ–¹å‘ç›®æ¨™è·é›¢æ›´æ–°
 509:Src/target.c  ****  * param:
 510:Src/target.c  ****  */
 511:Src/target.c  **** void target_distance_m_set(float distance_m)
 512:Src/target.c  **** {
 1464              		.loc 1 512 1 is_stmt 1 view -0
 1465              		.cfi_startproc
 1466              		@ args = 0, pretend = 0, frame = 0
 1467              		@ frame_needed = 0, uses_anonymous_args = 0
 1468              		@ link register save eliminated.
 513:Src/target.c  **** 	target_distance_m += distance_m;
 1469              		.loc 1 513 2 view .LVU323
 1470              		.loc 1 513 20 is_stmt 0 view .LVU324
 1471 0000 034B     		ldr	r3, .L105
 1472 0002 D3ED007A 		vldr.32	s15, [r3]
 1473 0006 77EE807A 		vadd.f32	s15, s15, s0
 1474 000a C3ED007A 		vstr.32	s15, [r3]
 514:Src/target.c  **** }
 1475              		.loc 1 514 1 view .LVU325
 1476 000e 7047     		bx	lr
 1477              	.L106:
 1478              		.align	2
 1479              	.L105:
 1480 0010 00000000 		.word	.LANCHOR11
 1481              		.cfi_endproc
ARM GAS  C:\Temp\cc3kh2wP.s 			page 39


 1482              	.LFE141:
 1484              		.section	.text.target_distance_w_set,"ax",%progbits
 1485              		.align	1
 1486              		.global	target_distance_w_set
 1487              		.syntax unified
 1488              		.thumb
 1489              		.thumb_func
 1490              		.fpu fpv4-sp-d16
 1492              	target_distance_w_set:
 1493              	.LVL146:
 1494              	.LFB142:
 515:Src/target.c  **** 
 516:Src/target.c  **** /* memo:ç›®æ¨™è§’åº¦æ›´æ–°
 517:Src/target.c  ****  * param:
 518:Src/target.c  ****  */
 519:Src/target.c  **** void target_distance_w_set(float distance_w)
 520:Src/target.c  **** {
 1495              		.loc 1 520 1 is_stmt 1 view -0
 1496              		.cfi_startproc
 1497              		@ args = 0, pretend = 0, frame = 0
 1498              		@ frame_needed = 0, uses_anonymous_args = 0
 1499              		@ link register save eliminated.
 521:Src/target.c  **** 	target_distance_w += distance_w;
 1500              		.loc 1 521 2 view .LVU327
 1501              		.loc 1 521 20 is_stmt 0 view .LVU328
 1502 0000 034B     		ldr	r3, .L108
 1503 0002 D3ED007A 		vldr.32	s15, [r3]
 1504 0006 77EE807A 		vadd.f32	s15, s15, s0
 1505 000a C3ED007A 		vstr.32	s15, [r3]
 522:Src/target.c  **** }
 1506              		.loc 1 522 1 view .LVU329
 1507 000e 7047     		bx	lr
 1508              	.L109:
 1509              		.align	2
 1510              	.L108:
 1511 0010 00000000 		.word	.LANCHOR13
 1512              		.cfi_endproc
 1513              	.LFE142:
 1515              		.section	.text.target_distance_m_clr,"ax",%progbits
 1516              		.align	1
 1517              		.global	target_distance_m_clr
 1518              		.syntax unified
 1519              		.thumb
 1520              		.thumb_func
 1521              		.fpu fpv4-sp-d16
 1523              	target_distance_m_clr:
 1524              	.LFB143:
 523:Src/target.c  **** 
 524:Src/target.c  **** /* memo:ä¸¦é€²æ–¹å‘ç›®æ¨™è·é›¢ã‚¯ãƒªã‚¢
 525:Src/target.c  ****  * param:
 526:Src/target.c  ****  *  * */
 527:Src/target.c  **** void target_distance_m_clr(void)
 528:Src/target.c  **** {
 1525              		.loc 1 528 1 is_stmt 1 view -0
 1526              		.cfi_startproc
 1527              		@ args = 0, pretend = 0, frame = 0
 1528              		@ frame_needed = 0, uses_anonymous_args = 0
ARM GAS  C:\Temp\cc3kh2wP.s 			page 40


 1529              		@ link register save eliminated.
 529:Src/target.c  **** 	target_distance_m = 0;
 1530              		.loc 1 529 2 view .LVU331
 1531              		.loc 1 529 20 is_stmt 0 view .LVU332
 1532 0000 014B     		ldr	r3, .L111
 1533 0002 0022     		movs	r2, #0
 1534 0004 1A60     		str	r2, [r3]	@ float
 530:Src/target.c  **** }
 1535              		.loc 1 530 1 view .LVU333
 1536 0006 7047     		bx	lr
 1537              	.L112:
 1538              		.align	2
 1539              	.L111:
 1540 0008 00000000 		.word	.LANCHOR11
 1541              		.cfi_endproc
 1542              	.LFE143:
 1544              		.section	.text.target_distance_w_clr,"ax",%progbits
 1545              		.align	1
 1546              		.global	target_distance_w_clr
 1547              		.syntax unified
 1548              		.thumb
 1549              		.thumb_func
 1550              		.fpu fpv4-sp-d16
 1552              	target_distance_w_clr:
 1553              	.LFB144:
 531:Src/target.c  **** 
 532:Src/target.c  **** 
 533:Src/target.c  **** /* memo:ç›®æ¨™è§’åº¦ã‚¯ãƒªã‚¢
 534:Src/target.c  ****  * param:
 535:Src/target.c  ****  *  * */
 536:Src/target.c  **** void target_distance_w_clr(void)
 537:Src/target.c  **** {
 1554              		.loc 1 537 1 is_stmt 1 view -0
 1555              		.cfi_startproc
 1556              		@ args = 0, pretend = 0, frame = 0
 1557              		@ frame_needed = 0, uses_anonymous_args = 0
 1558              		@ link register save eliminated.
 538:Src/target.c  **** 	target_distance_w = 0;
 1559              		.loc 1 538 2 view .LVU335
 1560              		.loc 1 538 20 is_stmt 0 view .LVU336
 1561 0000 014B     		ldr	r3, .L114
 1562 0002 0022     		movs	r2, #0
 1563 0004 1A60     		str	r2, [r3]	@ float
 539:Src/target.c  **** }
 1564              		.loc 1 539 1 view .LVU337
 1565 0006 7047     		bx	lr
 1566              	.L115:
 1567              		.align	2
 1568              	.L114:
 1569 0008 00000000 		.word	.LANCHOR13
 1570              		.cfi_endproc
 1571              	.LFE144:
 1573              		.section	.text.ideal_distance_m_clr,"ax",%progbits
 1574              		.align	1
 1575              		.global	ideal_distance_m_clr
 1576              		.syntax unified
 1577              		.thumb
ARM GAS  C:\Temp\cc3kh2wP.s 			page 41


 1578              		.thumb_func
 1579              		.fpu fpv4-sp-d16
 1581              	ideal_distance_m_clr:
 1582              	.LFB145:
 540:Src/target.c  **** 
 541:Src/target.c  **** /* memo:ç†æƒ³ä¸¦é€²æ–¹å‘ç›®æ¨™è·é›¢ã‚¯ãƒªã‚¢
 542:Src/target.c  ****  * param:
 543:Src/target.c  ****  *  * */
 544:Src/target.c  **** void ideal_distance_m_clr(void)
 545:Src/target.c  **** {
 1583              		.loc 1 545 1 is_stmt 1 view -0
 1584              		.cfi_startproc
 1585              		@ args = 0, pretend = 0, frame = 0
 1586              		@ frame_needed = 0, uses_anonymous_args = 0
 1587              		@ link register save eliminated.
 546:Src/target.c  **** 	ideal_distance_m = 0;
 1588              		.loc 1 546 2 view .LVU339
 1589              		.loc 1 546 19 is_stmt 0 view .LVU340
 1590 0000 014B     		ldr	r3, .L117
 1591 0002 0022     		movs	r2, #0
 1592 0004 1A60     		str	r2, [r3]	@ float
 547:Src/target.c  **** }
 1593              		.loc 1 547 1 view .LVU341
 1594 0006 7047     		bx	lr
 1595              	.L118:
 1596              		.align	2
 1597              	.L117:
 1598 0008 00000000 		.word	.LANCHOR8
 1599              		.cfi_endproc
 1600              	.LFE145:
 1602              		.section	.text.ideal_distance_w_clr,"ax",%progbits
 1603              		.align	1
 1604              		.global	ideal_distance_w_clr
 1605              		.syntax unified
 1606              		.thumb
 1607              		.thumb_func
 1608              		.fpu fpv4-sp-d16
 1610              	ideal_distance_w_clr:
 1611              	.LFB146:
 548:Src/target.c  **** 
 549:Src/target.c  **** 
 550:Src/target.c  **** /* memo:ç†æƒ³ç¾åœ¨è§’åº¦ã‚¯ãƒªã‚¢
 551:Src/target.c  ****  * param:
 552:Src/target.c  ****  *  * */
 553:Src/target.c  **** void ideal_distance_w_clr(void)
 554:Src/target.c  **** {
 1612              		.loc 1 554 1 is_stmt 1 view -0
 1613              		.cfi_startproc
 1614              		@ args = 0, pretend = 0, frame = 0
 1615              		@ frame_needed = 0, uses_anonymous_args = 0
 1616              		@ link register save eliminated.
 555:Src/target.c  **** 	ideal_distance_w = 0;
 1617              		.loc 1 555 2 view .LVU343
 1618              		.loc 1 555 19 is_stmt 0 view .LVU344
 1619 0000 014B     		ldr	r3, .L120
 1620 0002 0022     		movs	r2, #0
 1621 0004 1A60     		str	r2, [r3]	@ float
ARM GAS  C:\Temp\cc3kh2wP.s 			page 42


 556:Src/target.c  **** }
 1622              		.loc 1 556 1 view .LVU345
 1623 0006 7047     		bx	lr
 1624              	.L121:
 1625              		.align	2
 1626              	.L120:
 1627 0008 00000000 		.word	.LANCHOR9
 1628              		.cfi_endproc
 1629              	.LFE146:
 1631              		.section	.text.front_wall_calib_flg_clr,"ax",%progbits
 1632              		.align	1
 1633              		.global	front_wall_calib_flg_clr
 1634              		.syntax unified
 1635              		.thumb
 1636              		.thumb_func
 1637              		.fpu fpv4-sp-d16
 1639              	front_wall_calib_flg_clr:
 1640              	.LFB147:
 557:Src/target.c  **** 
 558:Src/target.c  **** 
 559:Src/target.c  **** ////////////////////////////////
 560:Src/target.c  **** /* a ãƒ•ãƒ©ã‚°è¨­å®šé–¢æ•°				 */
 561:Src/target.c  **** ////////////////////////////////
 562:Src/target.c  **** 
 563:Src/target.c  **** /* memo:å‰å£è£œæ­£ãƒ•ãƒ©ã‚°ã‚¯ãƒªã‚¢
 564:Src/target.c  ****  * param:
 565:Src/target.c  ****  *  * */
 566:Src/target.c  **** void front_wall_calib_flg_clr(void)
 567:Src/target.c  **** {
 1641              		.loc 1 567 1 is_stmt 1 view -0
 1642              		.cfi_startproc
 1643              		@ args = 0, pretend = 0, frame = 0
 1644              		@ frame_needed = 0, uses_anonymous_args = 0
 1645              		@ link register save eliminated.
 568:Src/target.c  **** 	  front_calib_flg = 0; //mã€€å‰å£è£œæ­£ãƒ•ãƒ©ã‚°ã®åˆæœŸåŒ–
 1646              		.loc 1 568 4 view .LVU347
 1647              		.loc 1 568 20 is_stmt 0 view .LVU348
 1648 0000 0023     		movs	r3, #0
 1649 0002 034A     		ldr	r2, .L123
 1650 0004 1370     		strb	r3, [r2]
 569:Src/target.c  **** 	  right_calib_flg = 0; //mã€€å‰å£è£œæ­£ãƒ•ãƒ©ã‚°ã®åˆæœŸåŒ–
 1651              		.loc 1 569 4 is_stmt 1 view .LVU349
 1652              		.loc 1 569 20 is_stmt 0 view .LVU350
 1653 0006 034A     		ldr	r2, .L123+4
 1654 0008 1370     		strb	r3, [r2]
 570:Src/target.c  **** 	  left_calib_flg = 0; //mã€€å‰å£è£œæ­£ãƒ•ãƒ©ã‚°ã®åˆæœŸåŒ–
 1655              		.loc 1 570 4 is_stmt 1 view .LVU351
 1656              		.loc 1 570 19 is_stmt 0 view .LVU352
 1657 000a 034A     		ldr	r2, .L123+8
 1658 000c 1370     		strb	r3, [r2]
 571:Src/target.c  **** }
 1659              		.loc 1 571 1 view .LVU353
 1660 000e 7047     		bx	lr
 1661              	.L124:
 1662              		.align	2
 1663              	.L123:
 1664 0010 00000000 		.word	front_calib_flg
ARM GAS  C:\Temp\cc3kh2wP.s 			page 43


 1665 0014 00000000 		.word	right_calib_flg
 1666 0018 00000000 		.word	left_calib_flg
 1667              		.cfi_endproc
 1668              	.LFE147:
 1670              		.global	__aeabi_dcmplt
 1671              		.section	.text.start_acceleration,"ax",%progbits
 1672              		.align	1
 1673              		.global	start_acceleration
 1674              		.syntax unified
 1675              		.thumb
 1676              		.thumb_func
 1677              		.fpu fpv4-sp-d16
 1679              	start_acceleration:
 1680              	.LFB148:
 572:Src/target.c  **** 
 573:Src/target.c  **** 
 574:Src/target.c  **** 
 575:Src/target.c  **** 
 576:Src/target.c  **** ////////////////////////////////////////
 577:Src/target.c  **** /* a ãƒã‚¦ã‚¹å‹•ä½œè¨­å®šé–¢æ•°			 		*/
 578:Src/target.c  **** /* a è·é›¢ã€è§’åº¦ã«å¿œã˜ãŸé€Ÿåº¦ã®åŠ æ¸›é€Ÿã‚’è¨­å®šã™ã‚‹ã€‚ */
 579:Src/target.c  **** ////////////////////////////////////////
 580:Src/target.c  **** 
 581:Src/target.c  **** /* memo:ã‚¹ã‚¿ãƒ¼ãƒˆæ™‚åŠ é€Ÿ
 582:Src/target.c  ****  * param:
 583:Src/target.c  ****  *  * */
 584:Src/target.c  **** void start_acceleration (void)
 585:Src/target.c  **** {
 1681              		.loc 1 585 1 is_stmt 1 view -0
 1682              		.cfi_startproc
 1683              		@ args = 0, pretend = 0, frame = 0
 1684              		@ frame_needed = 0, uses_anonymous_args = 0
 1685 0000 08B5     		push	{r3, lr}
 1686              	.LCFI16:
 1687              		.cfi_def_cfa_offset 8
 1688              		.cfi_offset 3, -8
 1689              		.cfi_offset 14, -4
 586:Src/target.c  **** 	/*mç§»å‹•æ–¹å‘ã€åŠ é€Ÿãƒ¢ãƒ¼ãƒ‰è¨­å®š*/
 587:Src/target.c  **** 	move_dir_flg = forward_mode;
 1690              		.loc 1 587 2 view .LVU355
 1691              		.loc 1 587 15 is_stmt 0 view .LVU356
 1692 0002 0023     		movs	r3, #0
 1693 0004 144A     		ldr	r2, .L134+8
 1694 0006 1370     		strb	r3, [r2]
 588:Src/target.c  **** 	accel_dir_flg = acceleration;
 1695              		.loc 1 588 2 is_stmt 1 view .LVU357
 1696              		.loc 1 588 16 is_stmt 0 view .LVU358
 1697 0008 144A     		ldr	r2, .L134+12
 1698 000a 1370     		strb	r3, [r2]
 589:Src/target.c  ****     target_distance_m_set(0.060286-0.045);
 1699              		.loc 1 589 5 is_stmt 1 view .LVU359
 1700 000c 9FED140A 		vldr.32	s0, .L134+16
 1701 0010 FFF7FEFF 		bl	target_distance_m_set
 1702              	.LVL147:
 1703 0014 0BE0     		b	.L128
 1704              	.L133:
 590:Src/target.c  **** 
ARM GAS  C:\Temp\cc3kh2wP.s 			page 44


 591:Src/target.c  ****     /*m åŠåŒºç”»é€²ã‚€ã¾ã§å¾…æ©Ÿ*/
 592:Src/target.c  ****     while (1)
 593:Src/target.c  ****     {
 594:Src/target.c  ****     	if(ABS(target_distance_m - ideal_distance_m) < 0.0002)//0.1mmæ‰‹å‰ã¾ã§ããŸã‚‰ãƒ–ãƒ¬ã‚¤ã‚¯
 1705              		.loc 1 594 9 is_stmt 0 discriminator 1 view .LVU360
 1706 0016 F1EE677A 		vneg.f32	s15, s15
 1707              	.L126:
 1708              		.loc 1 594 9 discriminator 4 view .LVU361
 1709 001a 17EE900A 		vmov	r0, s15
 1710 001e FFF7FEFF 		bl	__aeabi_f2d
 1711              	.LVL148:
 1712              		.loc 1 594 8 discriminator 4 view .LVU362
 1713 0022 0BA3     		adr	r3, .L134
 1714 0024 D3E90023 		ldrd	r2, [r3]
 1715 0028 FFF7FEFF 		bl	__aeabi_dcmplt
 1716              	.LVL149:
 1717 002c 68B9     		cbnz	r0, .L132
 1718              	.L128:
 592:Src/target.c  ****     {
 1719              		.loc 1 592 5 is_stmt 1 view .LVU363
 1720              		.loc 1 594 6 view .LVU364
 1721              		.loc 1 594 9 is_stmt 0 view .LVU365
 1722 002e 0D4B     		ldr	r3, .L134+20
 1723 0030 D3ED007A 		vldr.32	s15, [r3]
 1724 0034 0C4B     		ldr	r3, .L134+24
 1725 0036 93ED007A 		vldr.32	s14, [r3]
 1726 003a 77EEC77A 		vsub.f32	s15, s15, s14
 1727 003e F5EEC07A 		vcmpe.f32	s15, #0
 1728 0042 F1EE10FA 		vmrs	APSR_nzcv, FPSCR
 1729 0046 E8D5     		bpl	.L126
 1730 0048 E5E7     		b	.L133
 1731              	.L132:
 595:Src/target.c  ****     	{
 596:Src/target.c  ****     		break;
 597:Src/target.c  ****     	}
 598:Src/target.c  ****     }
 599:Src/target.c  **** }
 1732              		.loc 1 599 1 view .LVU366
 1733 004a 08BD     		pop	{r3, pc}
 1734              	.L135:
 1735 004c AFF30080 		.align	3
 1736              	.L134:
 1737 0050 2D431CEB 		.word	-350469331
 1738 0054 E2362A3F 		.word	1059731170
 1739 0058 00000000 		.word	.LANCHOR6
 1740 005c 00000000 		.word	.LANCHOR12
 1741 0060 22727A3C 		.word	1014657570
 1742 0064 00000000 		.word	.LANCHOR11
 1743 0068 00000000 		.word	.LANCHOR8
 1744              		.cfi_endproc
 1745              	.LFE148:
 1747              		.section	.text.half_acceleration,"ax",%progbits
 1748              		.align	1
 1749              		.global	half_acceleration
 1750              		.syntax unified
 1751              		.thumb
 1752              		.thumb_func
ARM GAS  C:\Temp\cc3kh2wP.s 			page 45


 1753              		.fpu fpv4-sp-d16
 1755              	half_acceleration:
 1756              	.LFB149:
 600:Src/target.c  **** 
 601:Src/target.c  **** /* memo:åŠåŒºç”»åŠ é€Ÿ
 602:Src/target.c  ****  * param:
 603:Src/target.c  ****  *  * */
 604:Src/target.c  **** void half_acceleration (void)
 605:Src/target.c  **** {
 1757              		.loc 1 605 1 is_stmt 1 view -0
 1758              		.cfi_startproc
 1759              		@ args = 0, pretend = 0, frame = 0
 1760              		@ frame_needed = 0, uses_anonymous_args = 0
 1761 0000 08B5     		push	{r3, lr}
 1762              	.LCFI17:
 1763              		.cfi_def_cfa_offset 8
 1764              		.cfi_offset 3, -8
 1765              		.cfi_offset 14, -4
 606:Src/target.c  **** 	/*mç§»å‹•æ–¹å‘ã€åŠ é€Ÿãƒ¢ãƒ¼ãƒ‰è¨­å®š*/
 607:Src/target.c  **** 	move_dir_flg = forward_mode;
 1766              		.loc 1 607 2 view .LVU368
 1767              		.loc 1 607 15 is_stmt 0 view .LVU369
 1768 0002 0023     		movs	r3, #0
 1769 0004 144A     		ldr	r2, .L145+8
 1770 0006 1370     		strb	r3, [r2]
 608:Src/target.c  **** 	accel_dir_flg = acceleration;
 1771              		.loc 1 608 2 is_stmt 1 view .LVU370
 1772              		.loc 1 608 16 is_stmt 0 view .LVU371
 1773 0008 144A     		ldr	r2, .L145+12
 1774 000a 1370     		strb	r3, [r2]
 609:Src/target.c  ****     target_distance_m_set(0.045);
 1775              		.loc 1 609 5 is_stmt 1 view .LVU372
 1776 000c 9FED140A 		vldr.32	s0, .L145+16
 1777 0010 FFF7FEFF 		bl	target_distance_m_set
 1778              	.LVL150:
 1779 0014 0BE0     		b	.L139
 1780              	.L144:
 610:Src/target.c  **** 
 611:Src/target.c  ****     /*m åŠåŒºç”»é€²ã‚€ã¾ã§å¾…æ©Ÿ*/
 612:Src/target.c  ****     while (1)
 613:Src/target.c  ****     {
 614:Src/target.c  ****     	if(ABS(target_distance_m - ideal_distance_m) < 0.0002)//0.1mmæ‰‹å‰ã¾ã§ããŸã‚‰ãƒ–ãƒ¬ã‚¤ã‚¯
 1781              		.loc 1 614 9 is_stmt 0 discriminator 1 view .LVU373
 1782 0016 F1EE677A 		vneg.f32	s15, s15
 1783              	.L137:
 1784              		.loc 1 614 9 discriminator 4 view .LVU374
 1785 001a 17EE900A 		vmov	r0, s15
 1786 001e FFF7FEFF 		bl	__aeabi_f2d
 1787              	.LVL151:
 1788              		.loc 1 614 8 discriminator 4 view .LVU375
 1789 0022 0BA3     		adr	r3, .L145
 1790 0024 D3E90023 		ldrd	r2, [r3]
 1791 0028 FFF7FEFF 		bl	__aeabi_dcmplt
 1792              	.LVL152:
 1793 002c 68B9     		cbnz	r0, .L143
 1794              	.L139:
 612:Src/target.c  ****     {
ARM GAS  C:\Temp\cc3kh2wP.s 			page 46


 1795              		.loc 1 612 5 is_stmt 1 view .LVU376
 1796              		.loc 1 614 6 view .LVU377
 1797              		.loc 1 614 9 is_stmt 0 view .LVU378
 1798 002e 0D4B     		ldr	r3, .L145+20
 1799 0030 D3ED007A 		vldr.32	s15, [r3]
 1800 0034 0C4B     		ldr	r3, .L145+24
 1801 0036 93ED007A 		vldr.32	s14, [r3]
 1802 003a 77EEC77A 		vsub.f32	s15, s15, s14
 1803 003e F5EEC07A 		vcmpe.f32	s15, #0
 1804 0042 F1EE10FA 		vmrs	APSR_nzcv, FPSCR
 1805 0046 E8D5     		bpl	.L137
 1806 0048 E5E7     		b	.L144
 1807              	.L143:
 615:Src/target.c  ****     	{
 616:Src/target.c  ****     		break;
 617:Src/target.c  ****     	}
 618:Src/target.c  ****     }
 619:Src/target.c  **** }
 1808              		.loc 1 619 1 view .LVU379
 1809 004a 08BD     		pop	{r3, pc}
 1810              	.L146:
 1811 004c AFF30080 		.align	3
 1812              	.L145:
 1813 0050 2D431CEB 		.word	-350469331
 1814 0054 E2362A3F 		.word	1059731170
 1815 0058 00000000 		.word	.LANCHOR6
 1816 005c 00000000 		.word	.LANCHOR12
 1817 0060 EC51383D 		.word	1027101164
 1818 0064 00000000 		.word	.LANCHOR11
 1819 0068 00000000 		.word	.LANCHOR8
 1820              		.cfi_endproc
 1821              	.LFE149:
 1823              		.section	.text.half_deceleration,"ax",%progbits
 1824              		.align	1
 1825              		.global	half_deceleration
 1826              		.syntax unified
 1827              		.thumb
 1828              		.thumb_func
 1829              		.fpu fpv4-sp-d16
 1831              	half_deceleration:
 1832              	.LFB150:
 620:Src/target.c  **** 
 621:Src/target.c  **** 
 622:Src/target.c  **** /* memo:åŠåŒºç”»æ¸›é€Ÿ
 623:Src/target.c  ****  * param:
 624:Src/target.c  ****  *  * */
 625:Src/target.c  **** void half_deceleration (void)
 626:Src/target.c  **** {
 1833              		.loc 1 626 1 is_stmt 1 view -0
 1834              		.cfi_startproc
 1835              		@ args = 0, pretend = 0, frame = 0
 1836              		@ frame_needed = 0, uses_anonymous_args = 0
 1837 0000 08B5     		push	{r3, lr}
 1838              	.LCFI18:
 1839              		.cfi_def_cfa_offset 8
 1840              		.cfi_offset 3, -8
 1841              		.cfi_offset 14, -4
ARM GAS  C:\Temp\cc3kh2wP.s 			page 47


 627:Src/target.c  **** 	/*mç§»å‹•æ–¹å‘ã€åŠ é€Ÿãƒ¢ãƒ¼ãƒ‰è¨­å®š*/
 628:Src/target.c  **** 	move_dir_flg = forward_mode;
 1842              		.loc 1 628 2 view .LVU381
 1843              		.loc 1 628 15 is_stmt 0 view .LVU382
 1844 0002 154B     		ldr	r3, .L156+8
 1845 0004 0022     		movs	r2, #0
 1846 0006 1A70     		strb	r2, [r3]
 629:Src/target.c  **** 	accel_dir_flg = deceleration;
 1847              		.loc 1 629 2 is_stmt 1 view .LVU383
 1848              		.loc 1 629 16 is_stmt 0 view .LVU384
 1849 0008 144B     		ldr	r3, .L156+12
 1850 000a 0122     		movs	r2, #1
 1851 000c 1A70     		strb	r2, [r3]
 630:Src/target.c  ****     target_distance_m_set(0.045);
 1852              		.loc 1 630 5 is_stmt 1 view .LVU385
 1853 000e 9FED140A 		vldr.32	s0, .L156+16
 1854 0012 FFF7FEFF 		bl	target_distance_m_set
 1855              	.LVL153:
 1856 0016 0BE0     		b	.L150
 1857              	.L155:
 631:Src/target.c  **** 
 632:Src/target.c  ****     /*m åŠåŒºç”»é€²ã‚€ã¾ã§å¾…æ©Ÿ*/
 633:Src/target.c  ****     while (1)
 634:Src/target.c  ****     {
 635:Src/target.c  ****     	if(ABS(target_distance_m - ideal_distance_m) < 0.0002)//0.1mmæ‰‹å‰ã¾ã§ããŸã‚‰ãƒ–ãƒ¬ã‚¤ã‚¯
 1858              		.loc 1 635 9 is_stmt 0 discriminator 1 view .LVU386
 1859 0018 F1EE677A 		vneg.f32	s15, s15
 1860              	.L148:
 1861              		.loc 1 635 9 discriminator 4 view .LVU387
 1862 001c 17EE900A 		vmov	r0, s15
 1863 0020 FFF7FEFF 		bl	__aeabi_f2d
 1864              	.LVL154:
 1865              		.loc 1 635 8 discriminator 4 view .LVU388
 1866 0024 0AA3     		adr	r3, .L156
 1867 0026 D3E90023 		ldrd	r2, [r3]
 1868 002a FFF7FEFF 		bl	__aeabi_dcmplt
 1869              	.LVL155:
 1870 002e 68B9     		cbnz	r0, .L154
 1871              	.L150:
 633:Src/target.c  ****     {
 1872              		.loc 1 633 5 is_stmt 1 view .LVU389
 1873              		.loc 1 635 6 view .LVU390
 1874              		.loc 1 635 9 is_stmt 0 view .LVU391
 1875 0030 0C4B     		ldr	r3, .L156+20
 1876 0032 D3ED007A 		vldr.32	s15, [r3]
 1877 0036 0C4B     		ldr	r3, .L156+24
 1878 0038 93ED007A 		vldr.32	s14, [r3]
 1879 003c 77EEC77A 		vsub.f32	s15, s15, s14
 1880 0040 F5EEC07A 		vcmpe.f32	s15, #0
 1881 0044 F1EE10FA 		vmrs	APSR_nzcv, FPSCR
 1882 0048 E8D5     		bpl	.L148
 1883 004a E5E7     		b	.L155
 1884              	.L154:
 636:Src/target.c  ****     	{
 637:Src/target.c  ****     		break;
 638:Src/target.c  ****     	}
 639:Src/target.c  ****     }
ARM GAS  C:\Temp\cc3kh2wP.s 			page 48


 640:Src/target.c  **** }
 1885              		.loc 1 640 1 view .LVU392
 1886 004c 08BD     		pop	{r3, pc}
 1887              	.L157:
 1888 004e 00BF     		.align	3
 1889              	.L156:
 1890 0050 2D431CEB 		.word	-350469331
 1891 0054 E2362A3F 		.word	1059731170
 1892 0058 00000000 		.word	.LANCHOR6
 1893 005c 00000000 		.word	.LANCHOR12
 1894 0060 EC51383D 		.word	1027101164
 1895 0064 00000000 		.word	.LANCHOR11
 1896 0068 00000000 		.word	.LANCHOR8
 1897              		.cfi_endproc
 1898              	.LFE150:
 1900              		.section	.text.constant_speed,"ax",%progbits
 1901              		.align	1
 1902              		.global	constant_speed
 1903              		.syntax unified
 1904              		.thumb
 1905              		.thumb_func
 1906              		.fpu fpv4-sp-d16
 1908              	constant_speed:
 1909              	.LFB151:
 641:Src/target.c  **** 
 642:Src/target.c  **** /* memo:ä¸€åŒºç”»å®šé€Ÿ
 643:Src/target.c  ****  * param:
 644:Src/target.c  ****  *  * */
 645:Src/target.c  **** void constant_speed (void)
 646:Src/target.c  **** {
 1910              		.loc 1 646 1 is_stmt 1 view -0
 1911              		.cfi_startproc
 1912              		@ args = 0, pretend = 0, frame = 0
 1913              		@ frame_needed = 0, uses_anonymous_args = 0
 1914 0000 08B5     		push	{r3, lr}
 1915              	.LCFI19:
 1916              		.cfi_def_cfa_offset 8
 1917              		.cfi_offset 3, -8
 1918              		.cfi_offset 14, -4
 647:Src/target.c  **** 	/*mç§»å‹•æ–¹å‘ã€åŠ é€Ÿãƒ¢ãƒ¼ãƒ‰è¨­å®š*/
 648:Src/target.c  **** 	move_dir_flg = forward_mode;
 1919              		.loc 1 648 2 view .LVU394
 1920              		.loc 1 648 15 is_stmt 0 view .LVU395
 1921 0002 0023     		movs	r3, #0
 1922 0004 144A     		ldr	r2, .L167+8
 1923 0006 1370     		strb	r3, [r2]
 649:Src/target.c  **** 	accel_dir_flg = acceleration;
 1924              		.loc 1 649 2 is_stmt 1 view .LVU396
 1925              		.loc 1 649 16 is_stmt 0 view .LVU397
 1926 0008 144A     		ldr	r2, .L167+12
 1927 000a 1370     		strb	r3, [r2]
 650:Src/target.c  ****     target_distance_m_set(0.09);
 1928              		.loc 1 650 5 is_stmt 1 view .LVU398
 1929 000c 9FED140A 		vldr.32	s0, .L167+16
 1930 0010 FFF7FEFF 		bl	target_distance_m_set
 1931              	.LVL156:
 1932 0014 0BE0     		b	.L161
ARM GAS  C:\Temp\cc3kh2wP.s 			page 49


 1933              	.L166:
 651:Src/target.c  **** 
 652:Src/target.c  ****     /*m ä¸€åŒºç”»é€²ã‚€ã¾ã§å¾…æ©Ÿ*/
 653:Src/target.c  ****     while (1)
 654:Src/target.c  ****     {
 655:Src/target.c  ****     	if(ABS(target_distance_m - ideal_distance_m) < 0.0002)//0.1mmæ‰‹å‰ã¾ã§ããŸã‚‰ãƒ–ãƒ¬ã‚¤ã‚¯
 1934              		.loc 1 655 9 is_stmt 0 discriminator 1 view .LVU399
 1935 0016 F1EE677A 		vneg.f32	s15, s15
 1936              	.L159:
 1937              		.loc 1 655 9 discriminator 4 view .LVU400
 1938 001a 17EE900A 		vmov	r0, s15
 1939 001e FFF7FEFF 		bl	__aeabi_f2d
 1940              	.LVL157:
 1941              		.loc 1 655 8 discriminator 4 view .LVU401
 1942 0022 0BA3     		adr	r3, .L167
 1943 0024 D3E90023 		ldrd	r2, [r3]
 1944 0028 FFF7FEFF 		bl	__aeabi_dcmplt
 1945              	.LVL158:
 1946 002c 68B9     		cbnz	r0, .L165
 1947              	.L161:
 653:Src/target.c  ****     {
 1948              		.loc 1 653 5 is_stmt 1 view .LVU402
 1949              		.loc 1 655 6 view .LVU403
 1950              		.loc 1 655 9 is_stmt 0 view .LVU404
 1951 002e 0D4B     		ldr	r3, .L167+20
 1952 0030 D3ED007A 		vldr.32	s15, [r3]
 1953 0034 0C4B     		ldr	r3, .L167+24
 1954 0036 93ED007A 		vldr.32	s14, [r3]
 1955 003a 77EEC77A 		vsub.f32	s15, s15, s14
 1956 003e F5EEC07A 		vcmpe.f32	s15, #0
 1957 0042 F1EE10FA 		vmrs	APSR_nzcv, FPSCR
 1958 0046 E8D5     		bpl	.L159
 1959 0048 E5E7     		b	.L166
 1960              	.L165:
 656:Src/target.c  ****     	{
 657:Src/target.c  ****     		break;
 658:Src/target.c  ****     	}
 659:Src/target.c  ****     }
 660:Src/target.c  **** }
 1961              		.loc 1 660 1 view .LVU405
 1962 004a 08BD     		pop	{r3, pc}
 1963              	.L168:
 1964 004c AFF30080 		.align	3
 1965              	.L167:
 1966 0050 2D431CEB 		.word	-350469331
 1967 0054 E2362A3F 		.word	1059731170
 1968 0058 00000000 		.word	.LANCHOR6
 1969 005c 00000000 		.word	.LANCHOR12
 1970 0060 EC51B83D 		.word	1035489772
 1971 0064 00000000 		.word	.LANCHOR11
 1972 0068 00000000 		.word	.LANCHOR8
 1973              		.cfi_endproc
 1974              	.LFE151:
 1976              		.section	.text.turn_clk_90,"ax",%progbits
 1977              		.align	1
 1978              		.global	turn_clk_90
 1979              		.syntax unified
ARM GAS  C:\Temp\cc3kh2wP.s 			page 50


 1980              		.thumb
 1981              		.thumb_func
 1982              		.fpu fpv4-sp-d16
 1984              	turn_clk_90:
 1985              	.LFB152:
 661:Src/target.c  **** 
 662:Src/target.c  **** /* memo:90åº¦æ™‚è¨ˆå›ã‚Šã«å›è»¢
 663:Src/target.c  ****  * param:
 664:Src/target.c  ****  *  * */
 665:Src/target.c  **** void turn_clk_90 (void)
 666:Src/target.c  **** {
 1986              		.loc 1 666 1 is_stmt 1 view -0
 1987              		.cfi_startproc
 1988              		@ args = 0, pretend = 0, frame = 0
 1989              		@ frame_needed = 0, uses_anonymous_args = 0
 1990 0000 08B5     		push	{r3, lr}
 1991              	.LCFI20:
 1992              		.cfi_def_cfa_offset 8
 1993              		.cfi_offset 3, -8
 1994              		.cfi_offset 14, -4
 667:Src/target.c  **** 	/*må›è»¢æ–¹å‘è¨­å®š*/
 668:Src/target.c  **** 	rotation_dir_flg = clockwise;
 1995              		.loc 1 668 2 view .LVU407
 1996              		.loc 1 668 19 is_stmt 0 view .LVU408
 1997 0002 134B     		ldr	r3, .L178+8
 1998 0004 0122     		movs	r2, #1
 1999 0006 1A70     		strb	r2, [r3]
 669:Src/target.c  ****     target_distance_w_set(-PI/2);
 2000              		.loc 1 669 5 is_stmt 1 view .LVU409
 2001 0008 9FED120A 		vldr.32	s0, .L178+12
 2002 000c FFF7FEFF 		bl	target_distance_w_set
 2003              	.LVL159:
 2004 0010 0BE0     		b	.L172
 2005              	.L177:
 670:Src/target.c  **** 
 671:Src/target.c  ****     /*m90åº¦å›è»¢ã™ã‚‹ã¾ã§å¾…æ©Ÿ*/
 672:Src/target.c  ****     while (1)
 673:Src/target.c  ****     {
 674:Src/target.c  ****     	if(ABS(target_distance_w - ideal_distance_w) < 0.005)//0.3degæ‰‹å‰ã¾ã§ããŸã‚‰ãƒ–ãƒ¬ã‚¤ã‚¯
 2006              		.loc 1 674 9 is_stmt 0 discriminator 1 view .LVU410
 2007 0012 F1EE677A 		vneg.f32	s15, s15
 2008              	.L170:
 2009              		.loc 1 674 9 discriminator 4 view .LVU411
 2010 0016 17EE900A 		vmov	r0, s15
 2011 001a FFF7FEFF 		bl	__aeabi_f2d
 2012              	.LVL160:
 2013              		.loc 1 674 8 discriminator 4 view .LVU412
 2014 001e 0AA3     		adr	r3, .L178
 2015 0020 D3E90023 		ldrd	r2, [r3]
 2016 0024 FFF7FEFF 		bl	__aeabi_dcmplt
 2017              	.LVL161:
 2018 0028 68B9     		cbnz	r0, .L176
 2019              	.L172:
 672:Src/target.c  ****     {
 2020              		.loc 1 672 5 is_stmt 1 view .LVU413
 2021              		.loc 1 674 6 view .LVU414
 2022              		.loc 1 674 9 is_stmt 0 view .LVU415
ARM GAS  C:\Temp\cc3kh2wP.s 			page 51


 2023 002a 0B4B     		ldr	r3, .L178+16
 2024 002c D3ED007A 		vldr.32	s15, [r3]
 2025 0030 0A4B     		ldr	r3, .L178+20
 2026 0032 93ED007A 		vldr.32	s14, [r3]
 2027 0036 77EEC77A 		vsub.f32	s15, s15, s14
 2028 003a F5EEC07A 		vcmpe.f32	s15, #0
 2029 003e F1EE10FA 		vmrs	APSR_nzcv, FPSCR
 2030 0042 E8D5     		bpl	.L170
 2031 0044 E5E7     		b	.L177
 2032              	.L176:
 675:Src/target.c  ****     	{
 676:Src/target.c  ****     		break;
 677:Src/target.c  ****     	}
 678:Src/target.c  ****     }
 679:Src/target.c  **** 
 680:Src/target.c  **** }
 2033              		.loc 1 680 1 view .LVU416
 2034 0046 08BD     		pop	{r3, pc}
 2035              	.L179:
 2036              		.align	3
 2037              	.L178:
 2038 0048 7B14AE47 		.word	1202590843
 2039 004c E17A743F 		.word	1064598241
 2040 0050 00000000 		.word	.LANCHOR7
 2041 0054 DA0FC9BF 		.word	-1077342246
 2042 0058 00000000 		.word	.LANCHOR13
 2043 005c 00000000 		.word	.LANCHOR9
 2044              		.cfi_endproc
 2045              	.LFE152:
 2047              		.section	.text.turn_conclk_90,"ax",%progbits
 2048              		.align	1
 2049              		.global	turn_conclk_90
 2050              		.syntax unified
 2051              		.thumb
 2052              		.thumb_func
 2053              		.fpu fpv4-sp-d16
 2055              	turn_conclk_90:
 2056              	.LFB153:
 681:Src/target.c  **** 
 682:Src/target.c  **** /* memo:90åº¦åæ™‚è¨ˆå›ã‚Šã«å›è»¢
 683:Src/target.c  ****  * param:
 684:Src/target.c  ****  *  * */
 685:Src/target.c  **** void turn_conclk_90 (void)
 686:Src/target.c  **** {
 2057              		.loc 1 686 1 is_stmt 1 view -0
 2058              		.cfi_startproc
 2059              		@ args = 0, pretend = 0, frame = 0
 2060              		@ frame_needed = 0, uses_anonymous_args = 0
 2061 0000 08B5     		push	{r3, lr}
 2062              	.LCFI21:
 2063              		.cfi_def_cfa_offset 8
 2064              		.cfi_offset 3, -8
 2065              		.cfi_offset 14, -4
 687:Src/target.c  **** 	/*må›è»¢æ–¹å‘è¨­å®š*/
 688:Src/target.c  **** 	rotation_dir_flg = counter_clockwise;
 2066              		.loc 1 688 2 view .LVU418
 2067              		.loc 1 688 19 is_stmt 0 view .LVU419
ARM GAS  C:\Temp\cc3kh2wP.s 			page 52


 2068 0002 134B     		ldr	r3, .L189+8
 2069 0004 0022     		movs	r2, #0
 2070 0006 1A70     		strb	r2, [r3]
 689:Src/target.c  ****     target_distance_w_set(PI/2);
 2071              		.loc 1 689 5 is_stmt 1 view .LVU420
 2072 0008 9FED120A 		vldr.32	s0, .L189+12
 2073 000c FFF7FEFF 		bl	target_distance_w_set
 2074              	.LVL162:
 2075 0010 0BE0     		b	.L183
 2076              	.L188:
 690:Src/target.c  **** 
 691:Src/target.c  ****     /*m90åº¦å›è»¢ã™ã‚‹ã¾ã§å¾…æ©Ÿ*/
 692:Src/target.c  ****     while (1)
 693:Src/target.c  ****     {
 694:Src/target.c  ****     	if(ABS(target_distance_w - ideal_distance_w) < 0.005)//0.3degæ‰‹å‰ã¾ã§ããŸã‚‰ãƒ–ãƒ¬ã‚¤ã‚¯
 2077              		.loc 1 694 9 is_stmt 0 discriminator 1 view .LVU421
 2078 0012 F1EE677A 		vneg.f32	s15, s15
 2079              	.L181:
 2080              		.loc 1 694 9 discriminator 4 view .LVU422
 2081 0016 17EE900A 		vmov	r0, s15
 2082 001a FFF7FEFF 		bl	__aeabi_f2d
 2083              	.LVL163:
 2084              		.loc 1 694 8 discriminator 4 view .LVU423
 2085 001e 0AA3     		adr	r3, .L189
 2086 0020 D3E90023 		ldrd	r2, [r3]
 2087 0024 FFF7FEFF 		bl	__aeabi_dcmplt
 2088              	.LVL164:
 2089 0028 68B9     		cbnz	r0, .L187
 2090              	.L183:
 692:Src/target.c  ****     {
 2091              		.loc 1 692 5 is_stmt 1 view .LVU424
 2092              		.loc 1 694 6 view .LVU425
 2093              		.loc 1 694 9 is_stmt 0 view .LVU426
 2094 002a 0B4B     		ldr	r3, .L189+16
 2095 002c D3ED007A 		vldr.32	s15, [r3]
 2096 0030 0A4B     		ldr	r3, .L189+20
 2097 0032 93ED007A 		vldr.32	s14, [r3]
 2098 0036 77EEC77A 		vsub.f32	s15, s15, s14
 2099 003a F5EEC07A 		vcmpe.f32	s15, #0
 2100 003e F1EE10FA 		vmrs	APSR_nzcv, FPSCR
 2101 0042 E8D5     		bpl	.L181
 2102 0044 E5E7     		b	.L188
 2103              	.L187:
 695:Src/target.c  ****     	{
 696:Src/target.c  ****     		break;
 697:Src/target.c  ****     	}
 698:Src/target.c  ****     }
 699:Src/target.c  **** 
 700:Src/target.c  **** }
 2104              		.loc 1 700 1 view .LVU427
 2105 0046 08BD     		pop	{r3, pc}
 2106              	.L190:
 2107              		.align	3
 2108              	.L189:
 2109 0048 7B14AE47 		.word	1202590843
 2110 004c E17A743F 		.word	1064598241
 2111 0050 00000000 		.word	.LANCHOR7
ARM GAS  C:\Temp\cc3kh2wP.s 			page 53


 2112 0054 DA0FC93F 		.word	1070141402
 2113 0058 00000000 		.word	.LANCHOR13
 2114 005c 00000000 		.word	.LANCHOR9
 2115              		.cfi_endproc
 2116              	.LFE153:
 2118              		.section	.text.turn_conclk_180,"ax",%progbits
 2119              		.align	1
 2120              		.global	turn_conclk_180
 2121              		.syntax unified
 2122              		.thumb
 2123              		.thumb_func
 2124              		.fpu fpv4-sp-d16
 2126              	turn_conclk_180:
 2127              	.LFB154:
 701:Src/target.c  **** 
 702:Src/target.c  **** /* memo:180åº¦åæ™‚è¨ˆå›ã‚Šã«å›è»¢
 703:Src/target.c  ****  * param:
 704:Src/target.c  ****  *  * */
 705:Src/target.c  **** void turn_conclk_180 (void)
 706:Src/target.c  **** {
 2128              		.loc 1 706 1 is_stmt 1 view -0
 2129              		.cfi_startproc
 2130              		@ args = 0, pretend = 0, frame = 0
 2131              		@ frame_needed = 0, uses_anonymous_args = 0
 2132 0000 08B5     		push	{r3, lr}
 2133              	.LCFI22:
 2134              		.cfi_def_cfa_offset 8
 2135              		.cfi_offset 3, -8
 2136              		.cfi_offset 14, -4
 707:Src/target.c  **** 	/*må›è»¢æ–¹å‘è¨­å®š*/
 708:Src/target.c  **** 	rotation_dir_flg = counter_clockwise;
 2137              		.loc 1 708 2 view .LVU429
 2138              		.loc 1 708 19 is_stmt 0 view .LVU430
 2139 0002 134B     		ldr	r3, .L200+8
 2140 0004 0022     		movs	r2, #0
 2141 0006 1A70     		strb	r2, [r3]
 709:Src/target.c  ****     target_distance_w_set(PI);
 2142              		.loc 1 709 5 is_stmt 1 view .LVU431
 2143 0008 9FED120A 		vldr.32	s0, .L200+12
 2144 000c FFF7FEFF 		bl	target_distance_w_set
 2145              	.LVL165:
 2146 0010 0BE0     		b	.L194
 2147              	.L199:
 710:Src/target.c  **** 
 711:Src/target.c  ****     /*m180åº¦å›è»¢ã™ã‚‹ã¾ã§å¾…æ©Ÿ*/
 712:Src/target.c  ****     while (1)
 713:Src/target.c  ****     {
 714:Src/target.c  ****     	if(ABS(target_distance_w - ideal_distance_w) < 0.005)//0.3degæ‰‹å‰ã¾ã§ããŸã‚‰ãƒ–ãƒ¬ã‚¤ã‚¯
 2148              		.loc 1 714 9 is_stmt 0 discriminator 1 view .LVU432
 2149 0012 F1EE677A 		vneg.f32	s15, s15
 2150              	.L192:
 2151              		.loc 1 714 9 discriminator 4 view .LVU433
 2152 0016 17EE900A 		vmov	r0, s15
 2153 001a FFF7FEFF 		bl	__aeabi_f2d
 2154              	.LVL166:
 2155              		.loc 1 714 8 discriminator 4 view .LVU434
 2156 001e 0AA3     		adr	r3, .L200
ARM GAS  C:\Temp\cc3kh2wP.s 			page 54


 2157 0020 D3E90023 		ldrd	r2, [r3]
 2158 0024 FFF7FEFF 		bl	__aeabi_dcmplt
 2159              	.LVL167:
 2160 0028 68B9     		cbnz	r0, .L198
 2161              	.L194:
 712:Src/target.c  ****     {
 2162              		.loc 1 712 5 is_stmt 1 view .LVU435
 2163              		.loc 1 714 6 view .LVU436
 2164              		.loc 1 714 9 is_stmt 0 view .LVU437
 2165 002a 0B4B     		ldr	r3, .L200+16
 2166 002c D3ED007A 		vldr.32	s15, [r3]
 2167 0030 0A4B     		ldr	r3, .L200+20
 2168 0032 93ED007A 		vldr.32	s14, [r3]
 2169 0036 77EEC77A 		vsub.f32	s15, s15, s14
 2170 003a F5EEC07A 		vcmpe.f32	s15, #0
 2171 003e F1EE10FA 		vmrs	APSR_nzcv, FPSCR
 2172 0042 E8D5     		bpl	.L192
 2173 0044 E5E7     		b	.L199
 2174              	.L198:
 715:Src/target.c  ****     	{
 716:Src/target.c  ****     		break;
 717:Src/target.c  ****     	}
 718:Src/target.c  ****     }
 719:Src/target.c  **** 
 720:Src/target.c  **** }
 2175              		.loc 1 720 1 view .LVU438
 2176 0046 08BD     		pop	{r3, pc}
 2177              	.L201:
 2178              		.align	3
 2179              	.L200:
 2180 0048 7B14AE47 		.word	1202590843
 2181 004c E17A743F 		.word	1064598241
 2182 0050 00000000 		.word	.LANCHOR7
 2183 0054 DA0F4940 		.word	1078530010
 2184 0058 00000000 		.word	.LANCHOR13
 2185 005c 00000000 		.word	.LANCHOR9
 2186              		.cfi_endproc
 2187              	.LFE154:
 2189              		.section	.text.move_front,"ax",%progbits
 2190              		.align	1
 2191              		.global	move_front
 2192              		.syntax unified
 2193              		.thumb
 2194              		.thumb_func
 2195              		.fpu fpv4-sp-d16
 2197              	move_front:
 2198              	.LFB155:
 721:Src/target.c  **** 
 722:Src/target.c  **** 
 723:Src/target.c  **** 
 724:Src/target.c  **** ////////////////////////////////////////
 725:Src/target.c  **** /* a è»Œè·¡ç”Ÿæˆé–¢æ•°						*/
 726:Src/target.c  **** /* a é€Ÿåº¦ã€è§’é€Ÿåº¦ã®åŠ æ¸›é€Ÿã«ã‚ˆã‚Šè»Œè·¡ã‚’ç”Ÿæˆã™ã‚‹ã€‚ */
 727:Src/target.c  **** ////////////////////////////////////////
 728:Src/target.c  **** 
 729:Src/target.c  **** /* memo:ä¸€åŒºç”»å‰é€²
 730:Src/target.c  ****  * param:
ARM GAS  C:\Temp\cc3kh2wP.s 			page 55


 731:Src/target.c  ****  *  * */
 732:Src/target.c  **** void move_front (void)
 733:Src/target.c  **** {
 2199              		.loc 1 733 1 is_stmt 1 view -0
 2200              		.cfi_startproc
 2201              		@ args = 0, pretend = 0, frame = 0
 2202              		@ frame_needed = 0, uses_anonymous_args = 0
 2203 0000 08B5     		push	{r3, lr}
 2204              	.LCFI23:
 2205              		.cfi_def_cfa_offset 8
 2206              		.cfi_offset 3, -8
 2207              		.cfi_offset 14, -4
 734:Src/target.c  **** 	if(run_first_flg == start){
 2208              		.loc 1 734 2 view .LVU440
 2209              		.loc 1 734 19 is_stmt 0 view .LVU441
 2210 0002 094B     		ldr	r3, .L208
 2211 0004 1B78     		ldrb	r3, [r3]	@ zero_extendqisi2
 2212              		.loc 1 734 4 view .LVU442
 2213 0006 4BB1     		cbz	r3, .L206
 2214              	.L203:
 735:Src/target.c  **** 		half_acceleration();//åŠåŒºç”»åŠ é€Ÿ
 736:Src/target.c  **** 	}
 737:Src/target.c  **** 	if(run_first_flg == other){
 2215              		.loc 1 737 2 is_stmt 1 view .LVU443
 2216              		.loc 1 737 19 is_stmt 0 view .LVU444
 2217 0008 074B     		ldr	r3, .L208
 2218 000a 1B78     		ldrb	r3, [r3]	@ zero_extendqisi2
 2219              		.loc 1 737 4 view .LVU445
 2220 000c 012B     		cmp	r3, #1
 2221 000e 08D0     		beq	.L207
 2222              	.L204:
 738:Src/target.c  **** 		constant_speed();//å®šé€Ÿã§ä¸€ãƒã‚¹å‰é€²
 739:Src/target.c  **** 	}
 740:Src/target.c  **** 	run_first_flg = other;
 2223              		.loc 1 740 2 is_stmt 1 view .LVU446
 2224              		.loc 1 740 16 is_stmt 0 view .LVU447
 2225 0010 054B     		ldr	r3, .L208
 2226 0012 0122     		movs	r2, #1
 2227 0014 1A70     		strb	r2, [r3]
 741:Src/target.c  **** 	front_wall_calib_flg_clr();
 2228              		.loc 1 741 2 is_stmt 1 view .LVU448
 2229 0016 FFF7FEFF 		bl	front_wall_calib_flg_clr
 2230              	.LVL168:
 742:Src/target.c  **** }
 2231              		.loc 1 742 1 is_stmt 0 view .LVU449
 2232 001a 08BD     		pop	{r3, pc}
 2233              	.L206:
 735:Src/target.c  **** 	}
 2234              		.loc 1 735 3 is_stmt 1 view .LVU450
 2235 001c FFF7FEFF 		bl	half_acceleration
 2236              	.LVL169:
 2237 0020 F2E7     		b	.L203
 2238              	.L207:
 738:Src/target.c  **** 	}
 2239              		.loc 1 738 3 view .LVU451
 2240 0022 FFF7FEFF 		bl	constant_speed
 2241              	.LVL170:
ARM GAS  C:\Temp\cc3kh2wP.s 			page 56


 2242 0026 F3E7     		b	.L204
 2243              	.L209:
 2244              		.align	2
 2245              	.L208:
 2246 0028 00000000 		.word	.LANCHOR30
 2247              		.cfi_endproc
 2248              	.LFE155:
 2250              		.global	__aeabi_dcmpgt
 2251              		.section	.rodata.fornt_wall_calibrate.str1.4,"aMS",%progbits,1
 2252              		.align	2
 2253              	.LC0:
 2254 0000 74656D70 		.ascii	"temp: %8.5f,time:%8.5d \015\012\000"
 2254      3A202538 
 2254      2E35662C 
 2254      74696D65 
 2254      3A25382E 
 2255              		.section	.text.fornt_wall_calibrate,"ax",%progbits
 2256              		.align	1
 2257              		.global	fornt_wall_calibrate
 2258              		.syntax unified
 2259              		.thumb
 2260              		.thumb_func
 2261              		.fpu fpv4-sp-d16
 2263              	fornt_wall_calibrate:
 2264              	.LFB159:
 743:Src/target.c  **** 
 744:Src/target.c  **** /* memo:å³æŠ˜
 745:Src/target.c  ****  * param:
 746:Src/target.c  ****  *  * */
 747:Src/target.c  **** void move_right (void)
 748:Src/target.c  **** {
 749:Src/target.c  **** 	if(run_first_flg == start){
 750:Src/target.c  **** 		if(front_calib_flg == 1){
 751:Src/target.c  **** 			fornt_wall_calibrate();
 752:Src/target.c  **** 		}
 753:Src/target.c  **** 		turn_clk_90();		//mæ™‚è¨ˆå›ã‚Šã«90åº¦å›è»¢
 754:Src/target.c  **** 		half_acceleration();//måŠåŒºç”»åŠ é€Ÿ
 755:Src/target.c  **** 	}
 756:Src/target.c  **** 	if(run_first_flg == other){
 757:Src/target.c  **** 		half_deceleration();//måŠåŒºç”»æ¸›é€Ÿã§ä¸­å¤®ã«åœæ­¢
 758:Src/target.c  **** 		if(front_calib_flg == 1){
 759:Src/target.c  **** 			fornt_wall_calibrate();
 760:Src/target.c  **** 		}
 761:Src/target.c  **** 		turn_clk_90();		//mæ™‚è¨ˆå›ã‚Šã«90åº¦å›è»¢
 762:Src/target.c  **** 		half_acceleration();//måŠåŒºç”»åŠ é€Ÿ
 763:Src/target.c  **** 	}
 764:Src/target.c  **** 	run_first_flg = other;
 765:Src/target.c  **** 	front_wall_calib_flg_clr();
 766:Src/target.c  **** }
 767:Src/target.c  **** 
 768:Src/target.c  **** /* memo:å·¦æŠ˜
 769:Src/target.c  ****  * param:
 770:Src/target.c  ****  *  * */
 771:Src/target.c  **** void move_left (void)
 772:Src/target.c  **** {
 773:Src/target.c  **** 	if(run_first_flg == start){
 774:Src/target.c  **** 		if(front_calib_flg == 1){
ARM GAS  C:\Temp\cc3kh2wP.s 			page 57


 775:Src/target.c  **** 			fornt_wall_calibrate();
 776:Src/target.c  **** 		}
 777:Src/target.c  **** 		turn_conclk_90();	//måæ™‚è¨ˆå›ã‚Šã«90åº¦å›è»¢
 778:Src/target.c  **** 		half_acceleration();//måŠåŒºç”»åŠ é€Ÿ
 779:Src/target.c  **** 	}
 780:Src/target.c  **** 	if(run_first_flg == other){
 781:Src/target.c  **** 		half_deceleration();//måŠåŒºç”»æ¸›é€Ÿã§ä¸­å¤®ã«åœæ­¢
 782:Src/target.c  **** 		if(front_calib_flg == 1){
 783:Src/target.c  **** 			fornt_wall_calibrate();
 784:Src/target.c  **** 		}
 785:Src/target.c  **** 		turn_conclk_90();	//måæ™‚è¨ˆå›ã‚Šã«90åº¦å›è»¢
 786:Src/target.c  **** 		half_acceleration();//måŠåŒºç”»åŠ é€Ÿ
 787:Src/target.c  **** 	}
 788:Src/target.c  **** 	run_first_flg = other;
 789:Src/target.c  **** 	front_wall_calib_flg_clr();
 790:Src/target.c  **** }
 791:Src/target.c  **** 
 792:Src/target.c  **** /* memo:ãƒãƒƒã‚¯
 793:Src/target.c  ****  * param:
 794:Src/target.c  ****  *  * */
 795:Src/target.c  **** void move_back (void)
 796:Src/target.c  **** {
 797:Src/target.c  **** 	if(run_first_flg == start){
 798:Src/target.c  **** 
 799:Src/target.c  **** 		if(front_calib_flg == 1){
 800:Src/target.c  **** 			fornt_wall_calibrate();
 801:Src/target.c  **** 			if(right_calib_flg == 1){
 802:Src/target.c  **** 				turn_clk_90();
 803:Src/target.c  **** 				fornt_wall_calibrate();
 804:Src/target.c  **** 				turn_clk_90();
 805:Src/target.c  **** 			}
 806:Src/target.c  **** 			else if(left_calib_flg == 1){
 807:Src/target.c  **** 					turn_conclk_90();
 808:Src/target.c  **** 					fornt_wall_calibrate();
 809:Src/target.c  **** 					turn_conclk_90();
 810:Src/target.c  **** 			}
 811:Src/target.c  **** 		}
 812:Src/target.c  **** 		else{
 813:Src/target.c  **** 			turn_conclk_180();	//måæ™‚è¨ˆå›ã‚Šã«180åº¦å›è»¢
 814:Src/target.c  **** 		}
 815:Src/target.c  **** 		half_acceleration();//måŠåŒºç”»åŠ é€Ÿ
 816:Src/target.c  **** 	}
 817:Src/target.c  **** 	if(run_first_flg == other){
 818:Src/target.c  **** 		half_deceleration();//måŠåŒºç”»æ¸›é€Ÿã§ä¸­å¤®ã«åœæ­¢
 819:Src/target.c  **** 		if(front_calib_flg == 1){
 820:Src/target.c  **** 			fornt_wall_calibrate();
 821:Src/target.c  **** 			if(right_calib_flg == 1){
 822:Src/target.c  **** 				turn_clk_90();
 823:Src/target.c  **** 				fornt_wall_calibrate();
 824:Src/target.c  **** 				turn_clk_90();
 825:Src/target.c  **** 			}
 826:Src/target.c  **** 			else if(left_calib_flg == 1){
 827:Src/target.c  **** 					turn_conclk_90();
 828:Src/target.c  **** 					fornt_wall_calibrate();
 829:Src/target.c  **** 					turn_conclk_90();
 830:Src/target.c  **** 			}
 831:Src/target.c  **** 		}
ARM GAS  C:\Temp\cc3kh2wP.s 			page 58


 832:Src/target.c  **** 		else{
 833:Src/target.c  **** 			turn_conclk_180();	//måæ™‚è¨ˆå›ã‚Šã«180åº¦å›è»¢
 834:Src/target.c  **** 		}
 835:Src/target.c  **** 		half_acceleration();//måŠåŒºç”»åŠ é€Ÿ
 836:Src/target.c  **** 	}
 837:Src/target.c  **** 	run_first_flg = other;
 838:Src/target.c  **** 	front_wall_calib_flg_clr();
 839:Src/target.c  **** }
 840:Src/target.c  **** 
 841:Src/target.c  **** 
 842:Src/target.c  **** ////////////////////////////////////////
 843:Src/target.c  **** /* a ãƒã‚¦ã‚¹ä½ç½®è£œæ­£é–¢æ•°					*/
 844:Src/target.c  **** /* a å£ã‚’ä½¿ã£ãŸä½ç½®ã®è£œæ­£ç”¨é–¢æ•°				*/
 845:Src/target.c  **** ////////////////////////////////////////
 846:Src/target.c  **** 
 847:Src/target.c  **** /* memo:å‰å£è£œæ­£
 848:Src/target.c  ****  * param:
 849:Src/target.c  ****  *  * */
 850:Src/target.c  **** void fornt_wall_calibrate (void)
 851:Src/target.c  **** {
 2265              		.loc 1 851 1 view -0
 2266              		.cfi_startproc
 2267              		@ args = 0, pretend = 0, frame = 0
 2268              		@ frame_needed = 0, uses_anonymous_args = 0
 2269 0000 F0B5     		push	{r4, r5, r6, r7, lr}
 2270              	.LCFI24:
 2271              		.cfi_def_cfa_offset 20
 2272              		.cfi_offset 4, -20
 2273              		.cfi_offset 5, -16
 2274              		.cfi_offset 6, -12
 2275              		.cfi_offset 7, -8
 2276              		.cfi_offset 14, -4
 2277 0002 83B0     		sub	sp, sp, #12
 2278              	.LCFI25:
 2279              		.cfi_def_cfa_offset 32
 852:Src/target.c  **** 	double temp_r;
 2280              		.loc 1 852 2 view .LVU453
 853:Src/target.c  **** 	double temp_l;
 2281              		.loc 1 853 2 view .LVU454
 854:Src/target.c  **** 	double temp;
 2282              		.loc 1 854 2 view .LVU455
 855:Src/target.c  **** 
 856:Src/target.c  **** 
 857:Src/target.c  **** 	  correction_mode = 1; //m å‰å£è£œæ­£ãƒ¢ãƒ¼ãƒ‰ã«åˆ‡ã‚Šæ›¿ãˆ
 2283              		.loc 1 857 4 view .LVU456
 2284              		.loc 1 857 20 is_stmt 0 view .LVU457
 2285 0004 4C4B     		ldr	r3, .L233+24
 2286 0006 0122     		movs	r2, #1
 2287 0008 1A70     		strb	r2, [r3]
 858:Src/target.c  **** 	  fornt_wall_calibrate_tim = 0; //må‰å£è£œæ­£ã‚¿ã‚¤ãƒã‚’åˆæœŸåŒ–
 2288              		.loc 1 858 4 is_stmt 1 view .LVU458
 2289              		.loc 1 858 29 is_stmt 0 view .LVU459
 2290 000a 4C4B     		ldr	r3, .L233+28
 2291 000c 0022     		movs	r2, #0
 2292 000e 1A80     		strh	r2, [r3]	@ movhi
 2293 0010 28E0     		b	.L222
 2294              	.L230:
ARM GAS  C:\Temp\cc3kh2wP.s 			page 59


 859:Src/target.c  **** 
 860:Src/target.c  **** 	  while(1)
 861:Src/target.c  **** 	  {
 862:Src/target.c  **** 		  temp_r = ABS(front_sensor_r_ref - SensorValue2length(3));
 2295              		.loc 1 862 14 discriminator 1 view .LVU460
 2296 0012 0320     		movs	r0, #3
 2297 0014 FFF7FEFF 		bl	SensorValue2length
 2298              	.LVL171:
 2299 0018 53EC102B 		vmov	r2, r3, d0
 2300 001c 40A1     		adr	r1, .L233
 2301 001e D1E90001 		ldrd	r0, [r1]
 2302 0022 FFF7FEFF 		bl	__aeabi_dsub
 2303              	.LVL172:
 2304 0026 0646     		mov	r6, r0
 2305 0028 01F10047 		add	r7, r1, #-2147483648
 2306 002c 36E0     		b	.L213
 2307              	.LVL173:
 2308              	.L231:
 863:Src/target.c  **** 		  temp_l = ABS(front_sensor_l_ref - SensorValue2length(0));
 2309              		.loc 1 863 14 discriminator 1 view .LVU461
 2310 002e 0020     		movs	r0, #0
 2311 0030 FFF7FEFF 		bl	SensorValue2length
 2312              	.LVL174:
 2313 0034 53EC102B 		vmov	r2, r3, d0
 2314 0038 3BA1     		adr	r1, .L233+8
 2315 003a D1E90001 		ldrd	r0, [r1]
 2316 003e FFF7FEFF 		bl	__aeabi_dsub
 2317              	.LVL175:
 2318 0042 0446     		mov	r4, r0
 2319 0044 01F10045 		add	r5, r1, #-2147483648
 2320 0048 44E0     		b	.L216
 2321              	.LVL176:
 2322              	.L232:
 864:Src/target.c  **** 		  temp = MAX(temp_r,temp_l);
 865:Src/target.c  **** 		  //mã‚»ãƒ³ã‚µå€¤ãŒåŸºæº–ã‚ˆã‚Šå·®ã‚’æŒã¤ã¨ãã€ã‚¿ã‚¤ãƒã‚’ãƒªã‚»ãƒƒãƒˆ
 866:Src/target.c  **** 		  if(temp > front_sensor_th){
 867:Src/target.c  **** 			  fornt_wall_calibrate_tim = 0;
 2323              		.loc 1 867 6 is_stmt 1 view .LVU462
 2324              		.loc 1 867 31 is_stmt 0 view .LVU463
 2325 004a 3C4B     		ldr	r3, .L233+28
 2326 004c 0022     		movs	r2, #0
 2327 004e 1A80     		strh	r2, [r3]	@ movhi
 2328              	.L219:
 868:Src/target.c  **** 		  }
 869:Src/target.c  **** 		  //m ã‚­ãƒ£ãƒªãƒ–ãƒ¬ãƒ¼ã‚·ãƒ§ãƒ³æ™‚é–“ã‚’è¶…ãˆã‚‹ã¨ãã€ãƒ–ãƒ¬ã‚¤ã‚¯
 870:Src/target.c  **** 		  if(fornt_wall_calibrate_tim >= calib_tim ){
 2329              		.loc 1 870 5 is_stmt 1 view .LVU464
 2330              		.loc 1 870 33 is_stmt 0 view .LVU465
 2331 0050 3A4B     		ldr	r3, .L233+28
 2332 0052 1B88     		ldrh	r3, [r3]
 2333              		.loc 1 870 7 view .LVU466
 2334 0054 632B     		cmp	r3, #99
 2335 0056 50D8     		bhi	.L221
 871:Src/target.c  **** 			  break;
 872:Src/target.c  **** 		  }
 873:Src/target.c  **** 		  printf("temp: %8.5f,time:%8.5d \r\n",temp,fornt_wall_calibrate_tim);
 2336              		.loc 1 873 5 is_stmt 1 view .LVU467
ARM GAS  C:\Temp\cc3kh2wP.s 			page 60


 2337 0058 0093     		str	r3, [sp]
 2338 005a 2246     		mov	r2, r4
 2339 005c 2B46     		mov	r3, r5
 2340 005e 3848     		ldr	r0, .L233+32
 2341 0060 FFF7FEFF 		bl	printf
 2342              	.LVL177:
 860:Src/target.c  **** 	  {
 2343              		.loc 1 860 9 view .LVU468
 2344              	.L222:
 860:Src/target.c  **** 	  {
 2345              		.loc 1 860 4 view .LVU469
 862:Src/target.c  **** 		  temp_l = ABS(front_sensor_l_ref - SensorValue2length(0));
 2346              		.loc 1 862 5 view .LVU470
 862:Src/target.c  **** 		  temp_l = ABS(front_sensor_l_ref - SensorValue2length(0));
 2347              		.loc 1 862 14 is_stmt 0 view .LVU471
 2348 0064 0320     		movs	r0, #3
 2349 0066 FFF7FEFF 		bl	SensorValue2length
 2350              	.LVL178:
 2351 006a 53EC102B 		vmov	r2, r3, d0
 2352 006e 2CA1     		adr	r1, .L233
 2353 0070 D1E90001 		ldrd	r0, [r1]
 2354 0074 FFF7FEFF 		bl	__aeabi_dsub
 2355              	.LVL179:
 2356 0078 0022     		movs	r2, #0
 2357 007a 0023     		movs	r3, #0
 2358 007c FFF7FEFF 		bl	__aeabi_dcmplt
 2359              	.LVL180:
 2360 0080 0028     		cmp	r0, #0
 2361 0082 C6D1     		bne	.L230
 862:Src/target.c  **** 		  temp_l = ABS(front_sensor_l_ref - SensorValue2length(0));
 2362              		.loc 1 862 14 discriminator 2 view .LVU472
 2363 0084 0320     		movs	r0, #3
 2364 0086 FFF7FEFF 		bl	SensorValue2length
 2365              	.LVL181:
 2366 008a 53EC102B 		vmov	r2, r3, d0
 2367 008e 24A1     		adr	r1, .L233
 2368 0090 D1E90001 		ldrd	r0, [r1]
 2369 0094 FFF7FEFF 		bl	__aeabi_dsub
 2370              	.LVL182:
 2371 0098 0646     		mov	r6, r0
 2372 009a 0F46     		mov	r7, r1
 2373              	.L213:
 2374              	.LVL183:
 863:Src/target.c  **** 		  temp = MAX(temp_r,temp_l);
 2375              		.loc 1 863 5 is_stmt 1 discriminator 4 view .LVU473
 863:Src/target.c  **** 		  temp = MAX(temp_r,temp_l);
 2376              		.loc 1 863 14 is_stmt 0 discriminator 4 view .LVU474
 2377 009c 0020     		movs	r0, #0
 2378 009e FFF7FEFF 		bl	SensorValue2length
 2379              	.LVL184:
 2380 00a2 53EC102B 		vmov	r2, r3, d0
 2381 00a6 20A1     		adr	r1, .L233+8
 2382 00a8 D1E90001 		ldrd	r0, [r1]
 2383 00ac FFF7FEFF 		bl	__aeabi_dsub
 2384              	.LVL185:
 2385 00b0 0022     		movs	r2, #0
 2386 00b2 0023     		movs	r3, #0
ARM GAS  C:\Temp\cc3kh2wP.s 			page 61


 2387 00b4 FFF7FEFF 		bl	__aeabi_dcmplt
 2388              	.LVL186:
 2389 00b8 0028     		cmp	r0, #0
 2390 00ba B8D1     		bne	.L231
 863:Src/target.c  **** 		  temp = MAX(temp_r,temp_l);
 2391              		.loc 1 863 14 discriminator 2 view .LVU475
 2392 00bc 0020     		movs	r0, #0
 2393 00be FFF7FEFF 		bl	SensorValue2length
 2394              	.LVL187:
 2395 00c2 53EC102B 		vmov	r2, r3, d0
 2396 00c6 18A1     		adr	r1, .L233+8
 2397 00c8 D1E90001 		ldrd	r0, [r1]
 2398 00cc FFF7FEFF 		bl	__aeabi_dsub
 2399              	.LVL188:
 2400 00d0 0446     		mov	r4, r0
 2401 00d2 0D46     		mov	r5, r1
 2402              	.L216:
 2403              	.LVL189:
 864:Src/target.c  **** 		  //mã‚»ãƒ³ã‚µå€¤ãŒåŸºæº–ã‚ˆã‚Šå·®ã‚’æŒã¤ã¨ãã€ã‚¿ã‚¤ãƒã‚’ãƒªã‚»ãƒƒãƒˆ
 2404              		.loc 1 864 5 is_stmt 1 discriminator 4 view .LVU476
 864:Src/target.c  **** 		  //mã‚»ãƒ³ã‚µå€¤ãŒåŸºæº–ã‚ˆã‚Šå·®ã‚’æŒã¤ã¨ãã€ã‚¿ã‚¤ãƒã‚’ãƒªã‚»ãƒƒãƒˆ
 2405              		.loc 1 864 12 is_stmt 0 discriminator 4 view .LVU477
 2406 00d4 2246     		mov	r2, r4
 2407 00d6 2B46     		mov	r3, r5
 2408 00d8 3046     		mov	r0, r6
 2409 00da 3946     		mov	r1, r7
 2410 00dc FFF7FEFF 		bl	__aeabi_dcmpgt
 2411              	.LVL190:
 2412 00e0 08B1     		cbz	r0, .L217
 864:Src/target.c  **** 		  //mã‚»ãƒ³ã‚µå€¤ãŒåŸºæº–ã‚ˆã‚Šå·®ã‚’æŒã¤ã¨ãã€ã‚¿ã‚¤ãƒã‚’ãƒªã‚»ãƒƒãƒˆ
 2413              		.loc 1 864 12 view .LVU478
 2414 00e2 3446     		mov	r4, r6
 2415              	.LVL191:
 864:Src/target.c  **** 		  //mã‚»ãƒ³ã‚µå€¤ãŒåŸºæº–ã‚ˆã‚Šå·®ã‚’æŒã¤ã¨ãã€ã‚¿ã‚¤ãƒã‚’ãƒªã‚»ãƒƒãƒˆ
 2416              		.loc 1 864 12 view .LVU479
 2417 00e4 3D46     		mov	r5, r7
 2418              	.L217:
 2419              	.LVL192:
 866:Src/target.c  **** 			  fornt_wall_calibrate_tim = 0;
 2420              		.loc 1 866 5 is_stmt 1 discriminator 4 view .LVU480
 866:Src/target.c  **** 			  fornt_wall_calibrate_tim = 0;
 2421              		.loc 1 866 7 is_stmt 0 discriminator 4 view .LVU481
 2422 00e6 12A3     		adr	r3, .L233+16
 2423 00e8 D3E90023 		ldrd	r2, [r3]
 2424 00ec 2046     		mov	r0, r4
 2425 00ee 2946     		mov	r1, r5
 2426 00f0 FFF7FEFF 		bl	__aeabi_dcmpgt
 2427              	.LVL193:
 2428 00f4 0028     		cmp	r0, #0
 2429 00f6 ABD0     		beq	.L219
 2430 00f8 A7E7     		b	.L232
 2431              	.L221:
 874:Src/target.c  **** 	  }
 875:Src/target.c  **** 
 876:Src/target.c  **** 	  //m è£œæ­£çµ‚äº†æ™‚ã€ç§»å‹•è·é›¢ã€è§’åº¦ã‚’åˆæœŸåŒ–
 877:Src/target.c  **** 	  real_distance_m_clr();
 2432              		.loc 1 877 4 is_stmt 1 view .LVU482
ARM GAS  C:\Temp\cc3kh2wP.s 			page 62


 2433 00fa FFF7FEFF 		bl	real_distance_m_clr
 2434              	.LVL194:
 878:Src/target.c  **** 	  real_distance_w_clr();
 2435              		.loc 1 878 4 view .LVU483
 2436 00fe FFF7FEFF 		bl	real_distance_w_clr
 2437              	.LVL195:
 879:Src/target.c  **** 	  target_distance_m_clr();
 2438              		.loc 1 879 4 view .LVU484
 2439 0102 FFF7FEFF 		bl	target_distance_m_clr
 2440              	.LVL196:
 880:Src/target.c  **** 	  target_distance_w_clr();
 2441              		.loc 1 880 4 view .LVU485
 2442 0106 FFF7FEFF 		bl	target_distance_w_clr
 2443              	.LVL197:
 881:Src/target.c  **** 	  ideal_distance_m_clr();
 2444              		.loc 1 881 4 view .LVU486
 2445 010a FFF7FEFF 		bl	ideal_distance_m_clr
 2446              	.LVL198:
 882:Src/target.c  **** 	  ideal_distance_w_clr();
 2447              		.loc 1 882 4 view .LVU487
 2448 010e FFF7FEFF 		bl	ideal_distance_w_clr
 2449              	.LVL199:
 883:Src/target.c  **** 
 884:Src/target.c  **** 	  //m è£œæ­£ãƒ¢ãƒ¼ãƒ‰ã‚’ç›®æ¨™é€Ÿåº¦ã«å¤‰æ›´
 885:Src/target.c  **** 	  correction_mode = 0;
 2450              		.loc 1 885 4 view .LVU488
 2451              		.loc 1 885 20 is_stmt 0 view .LVU489
 2452 0112 094B     		ldr	r3, .L233+24
 2453 0114 0022     		movs	r2, #0
 2454 0116 1A70     		strb	r2, [r3]
 886:Src/target.c  **** }
 2455              		.loc 1 886 1 view .LVU490
 2456 0118 03B0     		add	sp, sp, #12
 2457              	.LCFI26:
 2458              		.cfi_def_cfa_offset 20
 2459              		@ sp needed
 2460 011a F0BD     		pop	{r4, r5, r6, r7, pc}
 2461              	.LVL200:
 2462              	.L234:
 2463              		.loc 1 886 1 view .LVU491
 2464 011c AFF30080 		.align	3
 2465              	.L233:
 2466 0120 000000E0 		.word	-536870912
 2467 0124 4F8D873F 		.word	1065848143
 2468 0128 00000060 		.word	1610612736
 2469 012c BC74833F 		.word	1065579708
 2470 0130 2D431CEB 		.word	-350469331
 2471 0134 E2362A3F 		.word	1059731170
 2472 0138 00000000 		.word	.LANCHOR14
 2473 013c 00000000 		.word	.LANCHOR31
 2474 0140 00000000 		.word	.LC0
 2475              		.cfi_endproc
 2476              	.LFE159:
 2478              		.section	.text.move_right,"ax",%progbits
 2479              		.align	1
 2480              		.global	move_right
 2481              		.syntax unified
ARM GAS  C:\Temp\cc3kh2wP.s 			page 63


 2482              		.thumb
 2483              		.thumb_func
 2484              		.fpu fpv4-sp-d16
 2486              	move_right:
 2487              	.LFB156:
 748:Src/target.c  **** 	if(run_first_flg == start){
 2488              		.loc 1 748 1 is_stmt 1 view -0
 2489              		.cfi_startproc
 2490              		@ args = 0, pretend = 0, frame = 0
 2491              		@ frame_needed = 0, uses_anonymous_args = 0
 2492 0000 08B5     		push	{r3, lr}
 2493              	.LCFI27:
 2494              		.cfi_def_cfa_offset 8
 2495              		.cfi_offset 3, -8
 2496              		.cfi_offset 14, -4
 749:Src/target.c  **** 		if(front_calib_flg == 1){
 2497              		.loc 1 749 2 view .LVU493
 749:Src/target.c  **** 		if(front_calib_flg == 1){
 2498              		.loc 1 749 19 is_stmt 0 view .LVU494
 2499 0002 134B     		ldr	r3, .L244
 2500 0004 1B78     		ldrb	r3, [r3]	@ zero_extendqisi2
 749:Src/target.c  **** 		if(front_calib_flg == 1){
 2501              		.loc 1 749 4 view .LVU495
 2502 0006 3BB9     		cbnz	r3, .L236
 750:Src/target.c  **** 			fornt_wall_calibrate();
 2503              		.loc 1 750 3 is_stmt 1 view .LVU496
 750:Src/target.c  **** 			fornt_wall_calibrate();
 2504              		.loc 1 750 22 is_stmt 0 view .LVU497
 2505 0008 124B     		ldr	r3, .L244+4
 2506 000a 1B78     		ldrb	r3, [r3]	@ zero_extendqisi2
 750:Src/target.c  **** 			fornt_wall_calibrate();
 2507              		.loc 1 750 5 view .LVU498
 2508 000c 012B     		cmp	r3, #1
 2509 000e 0DD0     		beq	.L241
 2510              	.L237:
 753:Src/target.c  **** 		half_acceleration();//måŠåŒºç”»åŠ é€Ÿ
 2511              		.loc 1 753 3 is_stmt 1 view .LVU499
 2512 0010 FFF7FEFF 		bl	turn_clk_90
 2513              	.LVL201:
 754:Src/target.c  **** 	}
 2514              		.loc 1 754 3 view .LVU500
 2515 0014 FFF7FEFF 		bl	half_acceleration
 2516              	.LVL202:
 2517              	.L236:
 756:Src/target.c  **** 		half_deceleration();//måŠåŒºç”»æ¸›é€Ÿã§ä¸­å¤®ã«åœæ­¢
 2518              		.loc 1 756 2 view .LVU501
 756:Src/target.c  **** 		half_deceleration();//måŠåŒºç”»æ¸›é€Ÿã§ä¸­å¤®ã«åœæ­¢
 2519              		.loc 1 756 19 is_stmt 0 view .LVU502
 2520 0018 0D4B     		ldr	r3, .L244
 2521 001a 1B78     		ldrb	r3, [r3]	@ zero_extendqisi2
 756:Src/target.c  **** 		half_deceleration();//måŠåŒºç”»æ¸›é€Ÿã§ä¸­å¤®ã«åœæ­¢
 2522              		.loc 1 756 4 view .LVU503
 2523 001c 012B     		cmp	r3, #1
 2524 001e 08D0     		beq	.L242
 2525              	.L238:
 764:Src/target.c  **** 	front_wall_calib_flg_clr();
 2526              		.loc 1 764 2 is_stmt 1 view .LVU504
ARM GAS  C:\Temp\cc3kh2wP.s 			page 64


 764:Src/target.c  **** 	front_wall_calib_flg_clr();
 2527              		.loc 1 764 16 is_stmt 0 view .LVU505
 2528 0020 0B4B     		ldr	r3, .L244
 2529 0022 0122     		movs	r2, #1
 2530 0024 1A70     		strb	r2, [r3]
 765:Src/target.c  **** }
 2531              		.loc 1 765 2 is_stmt 1 view .LVU506
 2532 0026 FFF7FEFF 		bl	front_wall_calib_flg_clr
 2533              	.LVL203:
 766:Src/target.c  **** 
 2534              		.loc 1 766 1 is_stmt 0 view .LVU507
 2535 002a 08BD     		pop	{r3, pc}
 2536              	.L241:
 751:Src/target.c  **** 		}
 2537              		.loc 1 751 4 is_stmt 1 view .LVU508
 2538 002c FFF7FEFF 		bl	fornt_wall_calibrate
 2539              	.LVL204:
 2540 0030 EEE7     		b	.L237
 2541              	.L242:
 757:Src/target.c  **** 		if(front_calib_flg == 1){
 2542              		.loc 1 757 3 view .LVU509
 2543 0032 FFF7FEFF 		bl	half_deceleration
 2544              	.LVL205:
 758:Src/target.c  **** 			fornt_wall_calibrate();
 2545              		.loc 1 758 3 view .LVU510
 758:Src/target.c  **** 			fornt_wall_calibrate();
 2546              		.loc 1 758 22 is_stmt 0 view .LVU511
 2547 0036 074B     		ldr	r3, .L244+4
 2548 0038 1B78     		ldrb	r3, [r3]	@ zero_extendqisi2
 758:Src/target.c  **** 			fornt_wall_calibrate();
 2549              		.loc 1 758 5 view .LVU512
 2550 003a 012B     		cmp	r3, #1
 2551 003c 04D0     		beq	.L243
 2552              	.L239:
 761:Src/target.c  **** 		half_acceleration();//måŠåŒºç”»åŠ é€Ÿ
 2553              		.loc 1 761 3 is_stmt 1 view .LVU513
 2554 003e FFF7FEFF 		bl	turn_clk_90
 2555              	.LVL206:
 762:Src/target.c  **** 	}
 2556              		.loc 1 762 3 view .LVU514
 2557 0042 FFF7FEFF 		bl	half_acceleration
 2558              	.LVL207:
 2559 0046 EBE7     		b	.L238
 2560              	.L243:
 759:Src/target.c  **** 		}
 2561              		.loc 1 759 4 view .LVU515
 2562 0048 FFF7FEFF 		bl	fornt_wall_calibrate
 2563              	.LVL208:
 2564 004c F7E7     		b	.L239
 2565              	.L245:
 2566 004e 00BF     		.align	2
 2567              	.L244:
 2568 0050 00000000 		.word	.LANCHOR30
 2569 0054 00000000 		.word	front_calib_flg
 2570              		.cfi_endproc
 2571              	.LFE156:
 2573              		.section	.text.move_left,"ax",%progbits
ARM GAS  C:\Temp\cc3kh2wP.s 			page 65


 2574              		.align	1
 2575              		.global	move_left
 2576              		.syntax unified
 2577              		.thumb
 2578              		.thumb_func
 2579              		.fpu fpv4-sp-d16
 2581              	move_left:
 2582              	.LFB157:
 772:Src/target.c  **** 	if(run_first_flg == start){
 2583              		.loc 1 772 1 view -0
 2584              		.cfi_startproc
 2585              		@ args = 0, pretend = 0, frame = 0
 2586              		@ frame_needed = 0, uses_anonymous_args = 0
 2587 0000 08B5     		push	{r3, lr}
 2588              	.LCFI28:
 2589              		.cfi_def_cfa_offset 8
 2590              		.cfi_offset 3, -8
 2591              		.cfi_offset 14, -4
 773:Src/target.c  **** 		if(front_calib_flg == 1){
 2592              		.loc 1 773 2 view .LVU517
 773:Src/target.c  **** 		if(front_calib_flg == 1){
 2593              		.loc 1 773 19 is_stmt 0 view .LVU518
 2594 0002 134B     		ldr	r3, .L255
 2595 0004 1B78     		ldrb	r3, [r3]	@ zero_extendqisi2
 773:Src/target.c  **** 		if(front_calib_flg == 1){
 2596              		.loc 1 773 4 view .LVU519
 2597 0006 3BB9     		cbnz	r3, .L247
 774:Src/target.c  **** 			fornt_wall_calibrate();
 2598              		.loc 1 774 3 is_stmt 1 view .LVU520
 774:Src/target.c  **** 			fornt_wall_calibrate();
 2599              		.loc 1 774 22 is_stmt 0 view .LVU521
 2600 0008 124B     		ldr	r3, .L255+4
 2601 000a 1B78     		ldrb	r3, [r3]	@ zero_extendqisi2
 774:Src/target.c  **** 			fornt_wall_calibrate();
 2602              		.loc 1 774 5 view .LVU522
 2603 000c 012B     		cmp	r3, #1
 2604 000e 0DD0     		beq	.L252
 2605              	.L248:
 777:Src/target.c  **** 		half_acceleration();//måŠåŒºç”»åŠ é€Ÿ
 2606              		.loc 1 777 3 is_stmt 1 view .LVU523
 2607 0010 FFF7FEFF 		bl	turn_conclk_90
 2608              	.LVL209:
 778:Src/target.c  **** 	}
 2609              		.loc 1 778 3 view .LVU524
 2610 0014 FFF7FEFF 		bl	half_acceleration
 2611              	.LVL210:
 2612              	.L247:
 780:Src/target.c  **** 		half_deceleration();//måŠåŒºç”»æ¸›é€Ÿã§ä¸­å¤®ã«åœæ­¢
 2613              		.loc 1 780 2 view .LVU525
 780:Src/target.c  **** 		half_deceleration();//måŠåŒºç”»æ¸›é€Ÿã§ä¸­å¤®ã«åœæ­¢
 2614              		.loc 1 780 19 is_stmt 0 view .LVU526
 2615 0018 0D4B     		ldr	r3, .L255
 2616 001a 1B78     		ldrb	r3, [r3]	@ zero_extendqisi2
 780:Src/target.c  **** 		half_deceleration();//måŠåŒºç”»æ¸›é€Ÿã§ä¸­å¤®ã«åœæ­¢
 2617              		.loc 1 780 4 view .LVU527
 2618 001c 012B     		cmp	r3, #1
 2619 001e 08D0     		beq	.L253
ARM GAS  C:\Temp\cc3kh2wP.s 			page 66


 2620              	.L249:
 788:Src/target.c  **** 	front_wall_calib_flg_clr();
 2621              		.loc 1 788 2 is_stmt 1 view .LVU528
 788:Src/target.c  **** 	front_wall_calib_flg_clr();
 2622              		.loc 1 788 16 is_stmt 0 view .LVU529
 2623 0020 0B4B     		ldr	r3, .L255
 2624 0022 0122     		movs	r2, #1
 2625 0024 1A70     		strb	r2, [r3]
 789:Src/target.c  **** }
 2626              		.loc 1 789 2 is_stmt 1 view .LVU530
 2627 0026 FFF7FEFF 		bl	front_wall_calib_flg_clr
 2628              	.LVL211:
 790:Src/target.c  **** 
 2629              		.loc 1 790 1 is_stmt 0 view .LVU531
 2630 002a 08BD     		pop	{r3, pc}
 2631              	.L252:
 775:Src/target.c  **** 		}
 2632              		.loc 1 775 4 is_stmt 1 view .LVU532
 2633 002c FFF7FEFF 		bl	fornt_wall_calibrate
 2634              	.LVL212:
 2635 0030 EEE7     		b	.L248
 2636              	.L253:
 781:Src/target.c  **** 		if(front_calib_flg == 1){
 2637              		.loc 1 781 3 view .LVU533
 2638 0032 FFF7FEFF 		bl	half_deceleration
 2639              	.LVL213:
 782:Src/target.c  **** 			fornt_wall_calibrate();
 2640              		.loc 1 782 3 view .LVU534
 782:Src/target.c  **** 			fornt_wall_calibrate();
 2641              		.loc 1 782 22 is_stmt 0 view .LVU535
 2642 0036 074B     		ldr	r3, .L255+4
 2643 0038 1B78     		ldrb	r3, [r3]	@ zero_extendqisi2
 782:Src/target.c  **** 			fornt_wall_calibrate();
 2644              		.loc 1 782 5 view .LVU536
 2645 003a 012B     		cmp	r3, #1
 2646 003c 04D0     		beq	.L254
 2647              	.L250:
 785:Src/target.c  **** 		half_acceleration();//måŠåŒºç”»åŠ é€Ÿ
 2648              		.loc 1 785 3 is_stmt 1 view .LVU537
 2649 003e FFF7FEFF 		bl	turn_conclk_90
 2650              	.LVL214:
 786:Src/target.c  **** 	}
 2651              		.loc 1 786 3 view .LVU538
 2652 0042 FFF7FEFF 		bl	half_acceleration
 2653              	.LVL215:
 2654 0046 EBE7     		b	.L249
 2655              	.L254:
 783:Src/target.c  **** 		}
 2656              		.loc 1 783 4 view .LVU539
 2657 0048 FFF7FEFF 		bl	fornt_wall_calibrate
 2658              	.LVL216:
 2659 004c F7E7     		b	.L250
 2660              	.L256:
 2661 004e 00BF     		.align	2
 2662              	.L255:
 2663 0050 00000000 		.word	.LANCHOR30
 2664 0054 00000000 		.word	front_calib_flg
ARM GAS  C:\Temp\cc3kh2wP.s 			page 67


 2665              		.cfi_endproc
 2666              	.LFE157:
 2668              		.section	.text.move_back,"ax",%progbits
 2669              		.align	1
 2670              		.global	move_back
 2671              		.syntax unified
 2672              		.thumb
 2673              		.thumb_func
 2674              		.fpu fpv4-sp-d16
 2676              	move_back:
 2677              	.LFB158:
 796:Src/target.c  **** 	if(run_first_flg == start){
 2678              		.loc 1 796 1 view -0
 2679              		.cfi_startproc
 2680              		@ args = 0, pretend = 0, frame = 0
 2681              		@ frame_needed = 0, uses_anonymous_args = 0
 2682 0000 08B5     		push	{r3, lr}
 2683              	.LCFI29:
 2684              		.cfi_def_cfa_offset 8
 2685              		.cfi_offset 3, -8
 2686              		.cfi_offset 14, -4
 797:Src/target.c  **** 
 2687              		.loc 1 797 2 view .LVU541
 797:Src/target.c  **** 
 2688              		.loc 1 797 19 is_stmt 0 view .LVU542
 2689 0002 284B     		ldr	r3, .L272
 2690 0004 1B78     		ldrb	r3, [r3]	@ zero_extendqisi2
 797:Src/target.c  **** 
 2691              		.loc 1 797 4 view .LVU543
 2692 0006 3BB9     		cbnz	r3, .L258
 799:Src/target.c  **** 			fornt_wall_calibrate();
 2693              		.loc 1 799 3 is_stmt 1 view .LVU544
 799:Src/target.c  **** 			fornt_wall_calibrate();
 2694              		.loc 1 799 22 is_stmt 0 view .LVU545
 2695 0008 274B     		ldr	r3, .L272+4
 2696 000a 1B78     		ldrb	r3, [r3]	@ zero_extendqisi2
 799:Src/target.c  **** 			fornt_wall_calibrate();
 2697              		.loc 1 799 5 view .LVU546
 2698 000c 012B     		cmp	r3, #1
 2699 000e 0DD0     		beq	.L267
 813:Src/target.c  **** 		}
 2700              		.loc 1 813 4 is_stmt 1 view .LVU547
 2701 0010 FFF7FEFF 		bl	turn_conclk_180
 2702              	.LVL217:
 2703              	.L261:
 815:Src/target.c  **** 	}
 2704              		.loc 1 815 3 view .LVU548
 2705 0014 FFF7FEFF 		bl	half_acceleration
 2706              	.LVL218:
 2707              	.L258:
 817:Src/target.c  **** 		half_deceleration();//måŠåŒºç”»æ¸›é€Ÿã§ä¸­å¤®ã«åœæ­¢
 2708              		.loc 1 817 2 view .LVU549
 817:Src/target.c  **** 		half_deceleration();//måŠåŒºç”»æ¸›é€Ÿã§ä¸­å¤®ã«åœæ­¢
 2709              		.loc 1 817 19 is_stmt 0 view .LVU550
 2710 0018 224B     		ldr	r3, .L272
 2711 001a 1B78     		ldrb	r3, [r3]	@ zero_extendqisi2
 817:Src/target.c  **** 		half_deceleration();//måŠåŒºç”»æ¸›é€Ÿã§ä¸­å¤®ã«åœæ­¢
ARM GAS  C:\Temp\cc3kh2wP.s 			page 68


 2712              		.loc 1 817 4 view .LVU551
 2713 001c 012B     		cmp	r3, #1
 2714 001e 1DD0     		beq	.L268
 2715              	.L262:
 837:Src/target.c  **** 	front_wall_calib_flg_clr();
 2716              		.loc 1 837 2 is_stmt 1 view .LVU552
 837:Src/target.c  **** 	front_wall_calib_flg_clr();
 2717              		.loc 1 837 16 is_stmt 0 view .LVU553
 2718 0020 204B     		ldr	r3, .L272
 2719 0022 0122     		movs	r2, #1
 2720 0024 1A70     		strb	r2, [r3]
 838:Src/target.c  **** }
 2721              		.loc 1 838 2 is_stmt 1 view .LVU554
 2722 0026 FFF7FEFF 		bl	front_wall_calib_flg_clr
 2723              	.LVL219:
 839:Src/target.c  **** 
 2724              		.loc 1 839 1 is_stmt 0 view .LVU555
 2725 002a 08BD     		pop	{r3, pc}
 2726              	.L267:
 800:Src/target.c  **** 			if(right_calib_flg == 1){
 2727              		.loc 1 800 4 is_stmt 1 view .LVU556
 2728 002c FFF7FEFF 		bl	fornt_wall_calibrate
 2729              	.LVL220:
 801:Src/target.c  **** 				turn_clk_90();
 2730              		.loc 1 801 4 view .LVU557
 801:Src/target.c  **** 				turn_clk_90();
 2731              		.loc 1 801 23 is_stmt 0 view .LVU558
 2732 0030 1E4B     		ldr	r3, .L272+8
 2733 0032 1B78     		ldrb	r3, [r3]	@ zero_extendqisi2
 801:Src/target.c  **** 				turn_clk_90();
 2734              		.loc 1 801 6 view .LVU559
 2735 0034 012B     		cmp	r3, #1
 2736 0036 0AD0     		beq	.L269
 806:Src/target.c  **** 					turn_conclk_90();
 2737              		.loc 1 806 9 is_stmt 1 view .LVU560
 806:Src/target.c  **** 					turn_conclk_90();
 2738              		.loc 1 806 27 is_stmt 0 view .LVU561
 2739 0038 1D4B     		ldr	r3, .L272+12
 2740 003a 1B78     		ldrb	r3, [r3]	@ zero_extendqisi2
 806:Src/target.c  **** 					turn_conclk_90();
 2741              		.loc 1 806 11 view .LVU562
 2742 003c 012B     		cmp	r3, #1
 2743 003e E9D1     		bne	.L261
 807:Src/target.c  **** 					fornt_wall_calibrate();
 2744              		.loc 1 807 6 is_stmt 1 view .LVU563
 2745 0040 FFF7FEFF 		bl	turn_conclk_90
 2746              	.LVL221:
 808:Src/target.c  **** 					turn_conclk_90();
 2747              		.loc 1 808 6 view .LVU564
 2748 0044 FFF7FEFF 		bl	fornt_wall_calibrate
 2749              	.LVL222:
 809:Src/target.c  **** 			}
 2750              		.loc 1 809 6 view .LVU565
 2751 0048 FFF7FEFF 		bl	turn_conclk_90
 2752              	.LVL223:
 2753 004c E2E7     		b	.L261
 2754              	.L269:
ARM GAS  C:\Temp\cc3kh2wP.s 			page 69


 802:Src/target.c  **** 				fornt_wall_calibrate();
 2755              		.loc 1 802 5 view .LVU566
 2756 004e FFF7FEFF 		bl	turn_clk_90
 2757              	.LVL224:
 803:Src/target.c  **** 				turn_clk_90();
 2758              		.loc 1 803 5 view .LVU567
 2759 0052 FFF7FEFF 		bl	fornt_wall_calibrate
 2760              	.LVL225:
 804:Src/target.c  **** 			}
 2761              		.loc 1 804 5 view .LVU568
 2762 0056 FFF7FEFF 		bl	turn_clk_90
 2763              	.LVL226:
 2764 005a DBE7     		b	.L261
 2765              	.L268:
 818:Src/target.c  **** 		if(front_calib_flg == 1){
 2766              		.loc 1 818 3 view .LVU569
 2767 005c FFF7FEFF 		bl	half_deceleration
 2768              	.LVL227:
 819:Src/target.c  **** 			fornt_wall_calibrate();
 2769              		.loc 1 819 3 view .LVU570
 819:Src/target.c  **** 			fornt_wall_calibrate();
 2770              		.loc 1 819 22 is_stmt 0 view .LVU571
 2771 0060 114B     		ldr	r3, .L272+4
 2772 0062 1B78     		ldrb	r3, [r3]	@ zero_extendqisi2
 819:Src/target.c  **** 			fornt_wall_calibrate();
 2773              		.loc 1 819 5 view .LVU572
 2774 0064 012B     		cmp	r3, #1
 2775 0066 04D0     		beq	.L270
 833:Src/target.c  **** 		}
 2776              		.loc 1 833 4 is_stmt 1 view .LVU573
 2777 0068 FFF7FEFF 		bl	turn_conclk_180
 2778              	.LVL228:
 2779              	.L265:
 835:Src/target.c  **** 	}
 2780              		.loc 1 835 3 view .LVU574
 2781 006c FFF7FEFF 		bl	half_acceleration
 2782              	.LVL229:
 2783 0070 D6E7     		b	.L262
 2784              	.L270:
 820:Src/target.c  **** 			if(right_calib_flg == 1){
 2785              		.loc 1 820 4 view .LVU575
 2786 0072 FFF7FEFF 		bl	fornt_wall_calibrate
 2787              	.LVL230:
 821:Src/target.c  **** 				turn_clk_90();
 2788              		.loc 1 821 4 view .LVU576
 821:Src/target.c  **** 				turn_clk_90();
 2789              		.loc 1 821 23 is_stmt 0 view .LVU577
 2790 0076 0D4B     		ldr	r3, .L272+8
 2791 0078 1B78     		ldrb	r3, [r3]	@ zero_extendqisi2
 821:Src/target.c  **** 				turn_clk_90();
 2792              		.loc 1 821 6 view .LVU578
 2793 007a 012B     		cmp	r3, #1
 2794 007c 0AD0     		beq	.L271
 826:Src/target.c  **** 					turn_conclk_90();
 2795              		.loc 1 826 9 is_stmt 1 view .LVU579
 826:Src/target.c  **** 					turn_conclk_90();
 2796              		.loc 1 826 27 is_stmt 0 view .LVU580
ARM GAS  C:\Temp\cc3kh2wP.s 			page 70


 2797 007e 0C4B     		ldr	r3, .L272+12
 2798 0080 1B78     		ldrb	r3, [r3]	@ zero_extendqisi2
 826:Src/target.c  **** 					turn_conclk_90();
 2799              		.loc 1 826 11 view .LVU581
 2800 0082 012B     		cmp	r3, #1
 2801 0084 F2D1     		bne	.L265
 827:Src/target.c  **** 					fornt_wall_calibrate();
 2802              		.loc 1 827 6 is_stmt 1 view .LVU582
 2803 0086 FFF7FEFF 		bl	turn_conclk_90
 2804              	.LVL231:
 828:Src/target.c  **** 					turn_conclk_90();
 2805              		.loc 1 828 6 view .LVU583
 2806 008a FFF7FEFF 		bl	fornt_wall_calibrate
 2807              	.LVL232:
 829:Src/target.c  **** 			}
 2808              		.loc 1 829 6 view .LVU584
 2809 008e FFF7FEFF 		bl	turn_conclk_90
 2810              	.LVL233:
 2811 0092 EBE7     		b	.L265
 2812              	.L271:
 822:Src/target.c  **** 				fornt_wall_calibrate();
 2813              		.loc 1 822 5 view .LVU585
 2814 0094 FFF7FEFF 		bl	turn_clk_90
 2815              	.LVL234:
 823:Src/target.c  **** 				turn_clk_90();
 2816              		.loc 1 823 5 view .LVU586
 2817 0098 FFF7FEFF 		bl	fornt_wall_calibrate
 2818              	.LVL235:
 824:Src/target.c  **** 			}
 2819              		.loc 1 824 5 view .LVU587
 2820 009c FFF7FEFF 		bl	turn_clk_90
 2821              	.LVL236:
 2822 00a0 E4E7     		b	.L265
 2823              	.L273:
 2824 00a2 00BF     		.align	2
 2825              	.L272:
 2826 00a4 00000000 		.word	.LANCHOR30
 2827 00a8 00000000 		.word	front_calib_flg
 2828 00ac 00000000 		.word	right_calib_flg
 2829 00b0 00000000 		.word	left_calib_flg
 2830              		.cfi_endproc
 2831              	.LFE158:
 2833              		.section	.text.calibrate_tim,"ax",%progbits
 2834              		.align	1
 2835              		.global	calibrate_tim
 2836              		.syntax unified
 2837              		.thumb
 2838              		.thumb_func
 2839              		.fpu fpv4-sp-d16
 2841              	calibrate_tim:
 2842              	.LFB160:
 887:Src/target.c  **** 
 888:Src/target.c  **** /* memo:å‰å£è£œæ­£ç”¨ã‚¿ã‚¤ãƒ
 889:Src/target.c  ****  * param:
 890:Src/target.c  ****  *  * */
 891:Src/target.c  **** void calibrate_tim (void){
 2843              		.loc 1 891 26 view -0
ARM GAS  C:\Temp\cc3kh2wP.s 			page 71


 2844              		.cfi_startproc
 2845              		@ args = 0, pretend = 0, frame = 0
 2846              		@ frame_needed = 0, uses_anonymous_args = 0
 2847              		@ link register save eliminated.
 892:Src/target.c  **** 
 893:Src/target.c  **** 	fornt_wall_calibrate_tim += 1;
 2848              		.loc 1 893 2 view .LVU589
 2849              		.loc 1 893 27 is_stmt 0 view .LVU590
 2850 0000 054A     		ldr	r2, .L276
 2851 0002 1388     		ldrh	r3, [r2]
 2852 0004 0133     		adds	r3, r3, #1
 2853 0006 9BB2     		uxth	r3, r3
 2854 0008 1380     		strh	r3, [r2]	@ movhi
 894:Src/target.c  **** 
 895:Src/target.c  **** 	if(fornt_wall_calibrate_tim > calib_tim){
 2855              		.loc 1 895 2 is_stmt 1 view .LVU591
 2856              		.loc 1 895 4 is_stmt 0 view .LVU592
 2857 000a 642B     		cmp	r3, #100
 2858 000c 02D9     		bls	.L274
 896:Src/target.c  **** 		fornt_wall_calibrate_tim = calib_tim;
 2859              		.loc 1 896 3 is_stmt 1 view .LVU593
 2860              		.loc 1 896 28 is_stmt 0 view .LVU594
 2861 000e 1346     		mov	r3, r2
 2862 0010 6422     		movs	r2, #100
 2863 0012 1A80     		strh	r2, [r3]	@ movhi
 2864              	.L274:
 897:Src/target.c  **** 	}
 898:Src/target.c  **** }
 2865              		.loc 1 898 1 view .LVU595
 2866 0014 7047     		bx	lr
 2867              	.L277:
 2868 0016 00BF     		.align	2
 2869              	.L276:
 2870 0018 00000000 		.word	.LANCHOR31
 2871              		.cfi_endproc
 2872              	.LFE160:
 2874              		.global	fornt_wall_calibrate_tim
 2875              		.global	correction_mode
 2876              		.global	run_first_flg
 2877              		.global	accel_dir_flg
 2878              		.global	rotation_dir_flg
 2879              		.global	move_dir_flg
 2880              		.global	real_distance_w
 2881              		.global	real_distance_m
 2882              		.global	operation_amount_l
 2883              		.global	operation_amount_r
 2884              		.global	ideal_distance_w
 2885              		.global	ideal_distance_m
 2886              		.global	target_distance_w
 2887              		.global	target_distance_m
 2888              		.global	g_accelation_w
 2889              		.global	g_accelation_m
 2890              		.global	target_speed_w
 2891              		.global	target_speed_m_fin
 2892              		.global	target_speed_m
 2893              		.section	.bss.accel_dir_flg,"aw",%nobits
 2894              		.set	.LANCHOR12,. + 0
ARM GAS  C:\Temp\cc3kh2wP.s 			page 72


 2897              	accel_dir_flg:
 2898 0000 00       		.space	1
 2899              		.section	.bss.correction_mode,"aw",%nobits
 2900              		.set	.LANCHOR14,. + 0
 2903              	correction_mode:
 2904 0000 00       		.space	1
 2905              		.section	.bss.fornt_wall_calibrate_tim,"aw",%nobits
 2906              		.align	1
 2907              		.set	.LANCHOR31,. + 0
 2910              	fornt_wall_calibrate_tim:
 2911 0000 0000     		.space	2
 2912              		.section	.bss.g_accelation_m,"aw",%nobits
 2913              		.align	2
 2914              		.set	.LANCHOR2,. + 0
 2917              	g_accelation_m:
 2918 0000 00000000 		.space	4
 2919              		.section	.bss.g_accelation_w,"aw",%nobits
 2920              		.align	2
 2921              		.set	.LANCHOR4,. + 0
 2924              	g_accelation_w:
 2925 0000 00000000 		.space	4
 2926              		.section	.bss.ideal_distance_m,"aw",%nobits
 2927              		.align	2
 2928              		.set	.LANCHOR8,. + 0
 2931              	ideal_distance_m:
 2932 0000 00000000 		.space	4
 2933              		.section	.bss.ideal_distance_w,"aw",%nobits
 2934              		.align	2
 2935              		.set	.LANCHOR9,. + 0
 2938              	ideal_distance_w:
 2939 0000 00000000 		.space	4
 2940              		.section	.bss.l_front_sensor_m_D_prev.10265,"aw",%nobits
 2941              		.align	3
 2942              		.set	.LANCHOR25,. + 0
 2945              	l_front_sensor_m_D_prev.10265:
 2946 0000 00000000 		.space	8
 2946      00000000 
 2947              		.section	.bss.l_front_sensor_m_err_I.10261,"aw",%nobits
 2948              		.align	3
 2949              		.set	.LANCHOR22,. + 0
 2952              	l_front_sensor_m_err_I.10261:
 2953 0000 00000000 		.space	8
 2953      00000000 
 2954              		.section	.bss.l_front_sensor_m_err_prev.10263,"aw",%nobits
 2955              		.align	3
 2956              		.set	.LANCHOR24,. + 0
 2959              	l_front_sensor_m_err_prev.10263:
 2960 0000 00000000 		.space	8
 2960      00000000 
 2961              		.section	.bss.l_front_sensor_w_D_prev.10266,"aw",%nobits
 2962              		.align	3
 2963              		.set	.LANCHOR27,. + 0
 2966              	l_front_sensor_w_D_prev.10266:
 2967 0000 00000000 		.space	8
 2967      00000000 
 2968              		.section	.bss.l_front_sensor_w_err_I.10262,"aw",%nobits
 2969              		.align	3
ARM GAS  C:\Temp\cc3kh2wP.s 			page 73


 2970              		.set	.LANCHOR23,. + 0
 2973              	l_front_sensor_w_err_I.10262:
 2974 0000 00000000 		.space	8
 2974      00000000 
 2975              		.section	.bss.l_front_sensor_w_err_prev.10264,"aw",%nobits
 2976              		.align	3
 2977              		.set	.LANCHOR26,. + 0
 2980              	l_front_sensor_w_err_prev.10264:
 2981 0000 00000000 		.space	8
 2981      00000000 
 2982              		.section	.bss.move_dir_flg,"aw",%nobits
 2983              		.set	.LANCHOR6,. + 0
 2986              	move_dir_flg:
 2987 0000 00       		.space	1
 2988              		.section	.bss.operation_amount_l,"aw",%nobits
 2989              		.align	2
 2990              		.set	.LANCHOR29,. + 0
 2993              	operation_amount_l:
 2994 0000 00000000 		.space	4
 2995              		.section	.bss.operation_amount_r,"aw",%nobits
 2996              		.align	2
 2997              		.set	.LANCHOR28,. + 0
 3000              	operation_amount_r:
 3001 0000 00000000 		.space	4
 3002              		.section	.bss.real_distance_m,"aw",%nobits
 3003              		.align	2
 3004              		.set	.LANCHOR0,. + 0
 3007              	real_distance_m:
 3008 0000 00000000 		.space	4
 3009              		.section	.bss.real_distance_w,"aw",%nobits
 3010              		.align	2
 3011              		.set	.LANCHOR1,. + 0
 3014              	real_distance_w:
 3015 0000 00000000 		.space	4
 3016              		.section	.bss.rotation_dir_flg,"aw",%nobits
 3017              		.set	.LANCHOR7,. + 0
 3020              	rotation_dir_flg:
 3021 0000 00       		.space	1
 3022              		.section	.bss.run_first_flg,"aw",%nobits
 3023              		.set	.LANCHOR30,. + 0
 3026              	run_first_flg:
 3027 0000 00       		.space	1
 3028              		.section	.bss.speed_m_err.10246,"aw",%nobits
 3029              		.align	2
 3030              		.set	.LANCHOR15,. + 0
 3033              	speed_m_err.10246:
 3034 0000 00000000 		.space	4
 3035              		.section	.bss.speed_m_err_I.10251,"aw",%nobits
 3036              		.align	2
 3037              		.set	.LANCHOR16,. + 0
 3040              	speed_m_err_I.10251:
 3041 0000 00000000 		.space	4
 3042              		.section	.bss.speed_w_err_D_prev.10250,"aw",%nobits
 3043              		.align	2
 3044              		.set	.LANCHOR19,. + 0
 3047              	speed_w_err_D_prev.10250:
 3048 0000 00000000 		.space	4
ARM GAS  C:\Temp\cc3kh2wP.s 			page 74


 3049              		.section	.bss.speed_w_err_I.10252,"aw",%nobits
 3050              		.align	2
 3051              		.set	.LANCHOR17,. + 0
 3054              	speed_w_err_I.10252:
 3055 0000 00000000 		.space	4
 3056              		.section	.bss.speed_w_err_prev.10249,"aw",%nobits
 3057              		.align	2
 3058              		.set	.LANCHOR18,. + 0
 3061              	speed_w_err_prev.10249:
 3062 0000 00000000 		.space	4
 3063              		.section	.bss.target_distance_m,"aw",%nobits
 3064              		.align	2
 3065              		.set	.LANCHOR11,. + 0
 3068              	target_distance_m:
 3069 0000 00000000 		.space	4
 3070              		.section	.bss.target_distance_w,"aw",%nobits
 3071              		.align	2
 3072              		.set	.LANCHOR13,. + 0
 3075              	target_distance_w:
 3076 0000 00000000 		.space	4
 3077              		.section	.bss.target_speed_m,"aw",%nobits
 3078              		.align	2
 3079              		.set	.LANCHOR3,. + 0
 3082              	target_speed_m:
 3083 0000 00000000 		.space	4
 3084              		.section	.bss.target_speed_m_fin,"aw",%nobits
 3085              		.align	2
 3086              		.set	.LANCHOR10,. + 0
 3089              	target_speed_m_fin:
 3090 0000 00000000 		.space	4
 3091              		.section	.bss.target_speed_w,"aw",%nobits
 3092              		.align	2
 3093              		.set	.LANCHOR5,. + 0
 3096              	target_speed_w:
 3097 0000 00000000 		.space	4
 3098              		.section	.bss.target_vol_l.10243,"aw",%nobits
 3099              		.align	2
 3100              		.set	.LANCHOR21,. + 0
 3103              	target_vol_l.10243:
 3104 0000 00000000 		.space	4
 3105              		.section	.bss.target_vol_r.10242,"aw",%nobits
 3106              		.align	2
 3107              		.set	.LANCHOR20,. + 0
 3110              	target_vol_r.10242:
 3111 0000 00000000 		.space	4
 3112              		.text
 3113              	.Letext0:
 3114              		.file 2 "c:\\tools\\gcc-arm-none-eabi-9-2019-q4-major\\arm-none-eabi\\include\\machine\\_default_t
 3115              		.file 3 "c:\\tools\\gcc-arm-none-eabi-9-2019-q4-major\\arm-none-eabi\\include\\sys\\lock.h"
 3116              		.file 4 "c:\\tools\\gcc-arm-none-eabi-9-2019-q4-major\\arm-none-eabi\\include\\sys\\_types.h"
 3117              		.file 5 "c:\\tools\\gcc-arm-none-eabi-9-2019-q4-major\\lib\\gcc\\arm-none-eabi\\9.2.1\\include\\st
 3118              		.file 6 "c:\\tools\\gcc-arm-none-eabi-9-2019-q4-major\\arm-none-eabi\\include\\sys\\reent.h"
 3119              		.file 7 "c:\\tools\\gcc-arm-none-eabi-9-2019-q4-major\\arm-none-eabi\\include\\sys\\_stdint.h"
 3120              		.file 8 "c:\\tools\\gcc-arm-none-eabi-9-2019-q4-major\\arm-none-eabi\\include\\math.h"
 3121              		.file 9 "Drivers/CMSIS/Include/core_cm4.h"
 3122              		.file 10 "Drivers/CMSIS/Device/ST/STM32F4xx/Include/system_stm32f4xx.h"
 3123              		.file 11 "Drivers/CMSIS/Device/ST/STM32F4xx/Include/stm32f413xx.h"
ARM GAS  C:\Temp\cc3kh2wP.s 			page 75


 3124              		.file 12 "Drivers/CMSIS/Device/ST/STM32F4xx/Include/stm32f4xx.h"
 3125              		.file 13 "Drivers/STM32F4xx_HAL_Driver/Inc/stm32f4xx_hal_def.h"
 3126              		.file 14 "Drivers/STM32F4xx_HAL_Driver/Inc/stm32f4xx_hal_dma.h"
 3127              		.file 15 "Drivers/STM32F4xx_HAL_Driver/Inc/stm32f4xx_hal_adc.h"
 3128              		.file 16 "Drivers/STM32F4xx_HAL_Driver/Inc/stm32f4xx_hal_spi.h"
 3129              		.file 17 "Drivers/STM32F4xx_HAL_Driver/Inc/stm32f4xx_hal_tim.h"
 3130              		.file 18 "Drivers/STM32F4xx_HAL_Driver/Inc/stm32f4xx_hal_uart.h"
 3131              		.file 19 "Inc/adc.h"
 3132              		.file 20 "Inc/spi.h"
 3133              		.file 21 "Inc/tim.h"
 3134              		.file 22 "Inc/usart.h"
 3135              		.file 23 "Inc/index.h"
 3136              		.file 24 "c:\\tools\\gcc-arm-none-eabi-9-2019-q4-major\\arm-none-eabi\\include\\stdio.h"
ARM GAS  C:\Temp\cc3kh2wP.s 			page 76

